Archive member included to satisfy reference by file (symbol)

/home/jon/KODMOD/EMBEDDED_TOOLCHAINS/gcc-arm-none-eabi-7-2018-q2-update/bin/../lib/gcc/arm-none-eabi/7.3.1/../../../../arm-none-eabi/lib/thumb/v7e-m/fpv4-sp/hard/libc_nano.a(lib_a-exit.o)
                              /home/jon/KODMOD/EMBEDDED_TOOLCHAINS/gcc-arm-none-eabi-7-2018-q2-update/bin/../lib/gcc/arm-none-eabi/7.3.1/../../../../arm-none-eabi/lib/thumb/v7e-m/fpv4-sp/hard/crt0.o (exit)
/home/jon/KODMOD/EMBEDDED_TOOLCHAINS/gcc-arm-none-eabi-7-2018-q2-update/bin/../lib/gcc/arm-none-eabi/7.3.1/../../../../arm-none-eabi/lib/thumb/v7e-m/fpv4-sp/hard/libc_nano.a(lib_a-impure.o)
                              /home/jon/KODMOD/EMBEDDED_TOOLCHAINS/gcc-arm-none-eabi-7-2018-q2-update/bin/../lib/gcc/arm-none-eabi/7.3.1/../../../../arm-none-eabi/lib/thumb/v7e-m/fpv4-sp/hard/libc_nano.a(lib_a-exit.o) (_global_impure_ptr)
/home/jon/KODMOD/EMBEDDED_TOOLCHAINS/gcc-arm-none-eabi-7-2018-q2-update/bin/../lib/gcc/arm-none-eabi/7.3.1/../../../../arm-none-eabi/lib/thumb/v7e-m/fpv4-sp/hard/libc_nano.a(lib_a-init.o)
                              /home/jon/KODMOD/EMBEDDED_TOOLCHAINS/gcc-arm-none-eabi-7-2018-q2-update/bin/../lib/gcc/arm-none-eabi/7.3.1/../../../../arm-none-eabi/lib/thumb/v7e-m/fpv4-sp/hard/crt0.o (__libc_init_array)
/home/jon/KODMOD/EMBEDDED_TOOLCHAINS/gcc-arm-none-eabi-7-2018-q2-update/bin/../lib/gcc/arm-none-eabi/7.3.1/../../../../arm-none-eabi/lib/thumb/v7e-m/fpv4-sp/hard/libc_nano.a(lib_a-memset.o)
                              /home/jon/KODMOD/EMBEDDED_TOOLCHAINS/gcc-arm-none-eabi-7-2018-q2-update/bin/../lib/gcc/arm-none-eabi/7.3.1/../../../../arm-none-eabi/lib/thumb/v7e-m/fpv4-sp/hard/crt0.o (memset)
/home/jon/KODMOD/EMBEDDED_TOOLCHAINS/gcc-arm-none-eabi-7-2018-q2-update/bin/../lib/gcc/arm-none-eabi/7.3.1/../../../../arm-none-eabi/lib/thumb/v7e-m/fpv4-sp/hard/libc_nano.a(lib_a-rand.o)
                              build/utils.o (rand)
/home/jon/KODMOD/EMBEDDED_TOOLCHAINS/gcc-arm-none-eabi-7-2018-q2-update/bin/../lib/gcc/arm-none-eabi/7.3.1/../../../../arm-none-eabi/lib/thumb/v7e-m/fpv4-sp/hard/libc_nano.a(lib_a-sprintf.o)
                              build/shell.o (sprintf)
/home/jon/KODMOD/EMBEDDED_TOOLCHAINS/gcc-arm-none-eabi-7-2018-q2-update/bin/../lib/gcc/arm-none-eabi/7.3.1/../../../../arm-none-eabi/lib/thumb/v7e-m/fpv4-sp/hard/libc_nano.a(lib_a-strlen.o)
                              build/shell.o (strlen)
/home/jon/KODMOD/EMBEDDED_TOOLCHAINS/gcc-arm-none-eabi-7-2018-q2-update/bin/../lib/gcc/arm-none-eabi/7.3.1/../../../../arm-none-eabi/lib/thumb/v7e-m/fpv4-sp/hard/libc_nano.a(lib_a-strncmp.o)
                              build/shell.o (strncmp)
/home/jon/KODMOD/EMBEDDED_TOOLCHAINS/gcc-arm-none-eabi-7-2018-q2-update/bin/../lib/gcc/arm-none-eabi/7.3.1/../../../../arm-none-eabi/lib/thumb/v7e-m/fpv4-sp/hard/libc_nano.a(lib_a-malloc.o)
                              /home/jon/KODMOD/EMBEDDED_TOOLCHAINS/gcc-arm-none-eabi-7-2018-q2-update/bin/../lib/gcc/arm-none-eabi/7.3.1/../../../../arm-none-eabi/lib/thumb/v7e-m/fpv4-sp/hard/libc_nano.a(lib_a-rand.o) (malloc)
/home/jon/KODMOD/EMBEDDED_TOOLCHAINS/gcc-arm-none-eabi-7-2018-q2-update/bin/../lib/gcc/arm-none-eabi/7.3.1/../../../../arm-none-eabi/lib/thumb/v7e-m/fpv4-sp/hard/libc_nano.a(lib_a-nano-freer.o)
                              /home/jon/KODMOD/EMBEDDED_TOOLCHAINS/gcc-arm-none-eabi-7-2018-q2-update/bin/../lib/gcc/arm-none-eabi/7.3.1/../../../../arm-none-eabi/lib/thumb/v7e-m/fpv4-sp/hard/libc_nano.a(lib_a-malloc.o) (_free_r)
/home/jon/KODMOD/EMBEDDED_TOOLCHAINS/gcc-arm-none-eabi-7-2018-q2-update/bin/../lib/gcc/arm-none-eabi/7.3.1/../../../../arm-none-eabi/lib/thumb/v7e-m/fpv4-sp/hard/libc_nano.a(lib_a-nano-mallocr.o)
                              /home/jon/KODMOD/EMBEDDED_TOOLCHAINS/gcc-arm-none-eabi-7-2018-q2-update/bin/../lib/gcc/arm-none-eabi/7.3.1/../../../../arm-none-eabi/lib/thumb/v7e-m/fpv4-sp/hard/libc_nano.a(lib_a-malloc.o) (_malloc_r)
/home/jon/KODMOD/EMBEDDED_TOOLCHAINS/gcc-arm-none-eabi-7-2018-q2-update/bin/../lib/gcc/arm-none-eabi/7.3.1/../../../../arm-none-eabi/lib/thumb/v7e-m/fpv4-sp/hard/libc_nano.a(lib_a-nano-svfprintf.o)
                              /home/jon/KODMOD/EMBEDDED_TOOLCHAINS/gcc-arm-none-eabi-7-2018-q2-update/bin/../lib/gcc/arm-none-eabi/7.3.1/../../../../arm-none-eabi/lib/thumb/v7e-m/fpv4-sp/hard/libc_nano.a(lib_a-sprintf.o) (_svfprintf_r)
/home/jon/KODMOD/EMBEDDED_TOOLCHAINS/gcc-arm-none-eabi-7-2018-q2-update/bin/../lib/gcc/arm-none-eabi/7.3.1/../../../../arm-none-eabi/lib/thumb/v7e-m/fpv4-sp/hard/libc_nano.a(lib_a-nano-vfprintf_i.o)
                              /home/jon/KODMOD/EMBEDDED_TOOLCHAINS/gcc-arm-none-eabi-7-2018-q2-update/bin/../lib/gcc/arm-none-eabi/7.3.1/../../../../arm-none-eabi/lib/thumb/v7e-m/fpv4-sp/hard/libc_nano.a(lib_a-nano-svfprintf.o) (_printf_i)
/home/jon/KODMOD/EMBEDDED_TOOLCHAINS/gcc-arm-none-eabi-7-2018-q2-update/bin/../lib/gcc/arm-none-eabi/7.3.1/../../../../arm-none-eabi/lib/thumb/v7e-m/fpv4-sp/hard/libc_nano.a(lib_a-sbrkr.o)
                              /home/jon/KODMOD/EMBEDDED_TOOLCHAINS/gcc-arm-none-eabi-7-2018-q2-update/bin/../lib/gcc/arm-none-eabi/7.3.1/../../../../arm-none-eabi/lib/thumb/v7e-m/fpv4-sp/hard/libc_nano.a(lib_a-nano-mallocr.o) (_sbrk_r)
/home/jon/KODMOD/EMBEDDED_TOOLCHAINS/gcc-arm-none-eabi-7-2018-q2-update/bin/../lib/gcc/arm-none-eabi/7.3.1/../../../../arm-none-eabi/lib/thumb/v7e-m/fpv4-sp/hard/libc_nano.a(lib_a-memchr.o)
                              /home/jon/KODMOD/EMBEDDED_TOOLCHAINS/gcc-arm-none-eabi-7-2018-q2-update/bin/../lib/gcc/arm-none-eabi/7.3.1/../../../../arm-none-eabi/lib/thumb/v7e-m/fpv4-sp/hard/libc_nano.a(lib_a-nano-svfprintf.o) (memchr)
/home/jon/KODMOD/EMBEDDED_TOOLCHAINS/gcc-arm-none-eabi-7-2018-q2-update/bin/../lib/gcc/arm-none-eabi/7.3.1/../../../../arm-none-eabi/lib/thumb/v7e-m/fpv4-sp/hard/libc_nano.a(lib_a-memcpy-stub.o)
                              /home/jon/KODMOD/EMBEDDED_TOOLCHAINS/gcc-arm-none-eabi-7-2018-q2-update/bin/../lib/gcc/arm-none-eabi/7.3.1/../../../../arm-none-eabi/lib/thumb/v7e-m/fpv4-sp/hard/libc_nano.a(lib_a-nano-svfprintf.o) (memcpy)
/home/jon/KODMOD/EMBEDDED_TOOLCHAINS/gcc-arm-none-eabi-7-2018-q2-update/bin/../lib/gcc/arm-none-eabi/7.3.1/../../../../arm-none-eabi/lib/thumb/v7e-m/fpv4-sp/hard/libc_nano.a(lib_a-memmove.o)
                              /home/jon/KODMOD/EMBEDDED_TOOLCHAINS/gcc-arm-none-eabi-7-2018-q2-update/bin/../lib/gcc/arm-none-eabi/7.3.1/../../../../arm-none-eabi/lib/thumb/v7e-m/fpv4-sp/hard/libc_nano.a(lib_a-nano-svfprintf.o) (memmove)
/home/jon/KODMOD/EMBEDDED_TOOLCHAINS/gcc-arm-none-eabi-7-2018-q2-update/bin/../lib/gcc/arm-none-eabi/7.3.1/../../../../arm-none-eabi/lib/thumb/v7e-m/fpv4-sp/hard/libc_nano.a(lib_a-mlock.o)
                              /home/jon/KODMOD/EMBEDDED_TOOLCHAINS/gcc-arm-none-eabi-7-2018-q2-update/bin/../lib/gcc/arm-none-eabi/7.3.1/../../../../arm-none-eabi/lib/thumb/v7e-m/fpv4-sp/hard/libc_nano.a(lib_a-nano-freer.o) (__malloc_lock)
/home/jon/KODMOD/EMBEDDED_TOOLCHAINS/gcc-arm-none-eabi-7-2018-q2-update/bin/../lib/gcc/arm-none-eabi/7.3.1/../../../../arm-none-eabi/lib/thumb/v7e-m/fpv4-sp/hard/libc_nano.a(lib_a-nano-reallocr.o)
                              /home/jon/KODMOD/EMBEDDED_TOOLCHAINS/gcc-arm-none-eabi-7-2018-q2-update/bin/../lib/gcc/arm-none-eabi/7.3.1/../../../../arm-none-eabi/lib/thumb/v7e-m/fpv4-sp/hard/libc_nano.a(lib_a-nano-svfprintf.o) (_realloc_r)
/home/jon/KODMOD/EMBEDDED_TOOLCHAINS/gcc-arm-none-eabi-7-2018-q2-update/bin/../lib/gcc/arm-none-eabi/7.3.1/../../../../arm-none-eabi/lib/thumb/v7e-m/fpv4-sp/hard/libc_nano.a(lib_a-reent.o)
                              /home/jon/KODMOD/EMBEDDED_TOOLCHAINS/gcc-arm-none-eabi-7-2018-q2-update/bin/../lib/gcc/arm-none-eabi/7.3.1/../../../../arm-none-eabi/lib/thumb/v7e-m/fpv4-sp/hard/libc_nano.a(lib_a-sbrkr.o) (errno)
/home/jon/KODMOD/EMBEDDED_TOOLCHAINS/gcc-arm-none-eabi-7-2018-q2-update/bin/../lib/gcc/arm-none-eabi/7.3.1/../../../../arm-none-eabi/lib/thumb/v7e-m/fpv4-sp/hard/libc_nano.a(lib_a-nano-msizer.o)
                              /home/jon/KODMOD/EMBEDDED_TOOLCHAINS/gcc-arm-none-eabi-7-2018-q2-update/bin/../lib/gcc/arm-none-eabi/7.3.1/../../../../arm-none-eabi/lib/thumb/v7e-m/fpv4-sp/hard/libc_nano.a(lib_a-nano-reallocr.o) (_malloc_usable_size_r)
/home/jon/KODMOD/EMBEDDED_TOOLCHAINS/gcc-arm-none-eabi-7-2018-q2-update/bin/../lib/gcc/arm-none-eabi/7.3.1/../../../../arm-none-eabi/lib/thumb/v7e-m/fpv4-sp/hard/libm.a(lib_a-w_fmod.o)
                              build/color.o (fmod)
/home/jon/KODMOD/EMBEDDED_TOOLCHAINS/gcc-arm-none-eabi-7-2018-q2-update/bin/../lib/gcc/arm-none-eabi/7.3.1/../../../../arm-none-eabi/lib/thumb/v7e-m/fpv4-sp/hard/libm.a(lib_a-e_fmod.o)
                              /home/jon/KODMOD/EMBEDDED_TOOLCHAINS/gcc-arm-none-eabi-7-2018-q2-update/bin/../lib/gcc/arm-none-eabi/7.3.1/../../../../arm-none-eabi/lib/thumb/v7e-m/fpv4-sp/hard/libm.a(lib_a-w_fmod.o) (__ieee754_fmod)
/home/jon/KODMOD/EMBEDDED_TOOLCHAINS/gcc-arm-none-eabi-7-2018-q2-update/bin/../lib/gcc/arm-none-eabi/7.3.1/../../../../arm-none-eabi/lib/thumb/v7e-m/fpv4-sp/hard/libm.a(lib_a-s_lib_ver.o)
                              /home/jon/KODMOD/EMBEDDED_TOOLCHAINS/gcc-arm-none-eabi-7-2018-q2-update/bin/../lib/gcc/arm-none-eabi/7.3.1/../../../../arm-none-eabi/lib/thumb/v7e-m/fpv4-sp/hard/libm.a(lib_a-w_fmod.o) (__fdlib_version)
/home/jon/KODMOD/EMBEDDED_TOOLCHAINS/gcc-arm-none-eabi-7-2018-q2-update/bin/../lib/gcc/arm-none-eabi/7.3.1/../../../../arm-none-eabi/lib/thumb/v7e-m/fpv4-sp/hard/libm.a(lib_a-s_matherr.o)
                              /home/jon/KODMOD/EMBEDDED_TOOLCHAINS/gcc-arm-none-eabi-7-2018-q2-update/bin/../lib/gcc/arm-none-eabi/7.3.1/../../../../arm-none-eabi/lib/thumb/v7e-m/fpv4-sp/hard/libm.a(lib_a-w_fmod.o) (matherr)
/home/jon/KODMOD/EMBEDDED_TOOLCHAINS/gcc-arm-none-eabi-7-2018-q2-update/bin/../lib/gcc/arm-none-eabi/7.3.1/../../../../arm-none-eabi/lib/thumb/v7e-m/fpv4-sp/hard/libnosys.a(sbrk.o)
                              /home/jon/KODMOD/EMBEDDED_TOOLCHAINS/gcc-arm-none-eabi-7-2018-q2-update/bin/../lib/gcc/arm-none-eabi/7.3.1/../../../../arm-none-eabi/lib/thumb/v7e-m/fpv4-sp/hard/libc_nano.a(lib_a-sbrkr.o) (_sbrk)
/home/jon/KODMOD/EMBEDDED_TOOLCHAINS/gcc-arm-none-eabi-7-2018-q2-update/bin/../lib/gcc/arm-none-eabi/7.3.1/../../../../arm-none-eabi/lib/thumb/v7e-m/fpv4-sp/hard/libnosys.a(_exit.o)
                              /home/jon/KODMOD/EMBEDDED_TOOLCHAINS/gcc-arm-none-eabi-7-2018-q2-update/bin/../lib/gcc/arm-none-eabi/7.3.1/../../../../arm-none-eabi/lib/thumb/v7e-m/fpv4-sp/hard/libc_nano.a(lib_a-exit.o) (_exit)
/home/jon/KODMOD/EMBEDDED_TOOLCHAINS/gcc-arm-none-eabi-7-2018-q2-update/bin/../lib/gcc/arm-none-eabi/7.3.1/thumb/v7e-m/fpv4-sp/hard/libgcc.a(_arm_addsubdf3.o)
                              build/color.o (__aeabi_dsub)
/home/jon/KODMOD/EMBEDDED_TOOLCHAINS/gcc-arm-none-eabi-7-2018-q2-update/bin/../lib/gcc/arm-none-eabi/7.3.1/thumb/v7e-m/fpv4-sp/hard/libgcc.a(_arm_muldivdf3.o)
                              build/random_triangles_animation.o (__aeabi_dmul)
/home/jon/KODMOD/EMBEDDED_TOOLCHAINS/gcc-arm-none-eabi-7-2018-q2-update/bin/../lib/gcc/arm-none-eabi/7.3.1/thumb/v7e-m/fpv4-sp/hard/libgcc.a(_arm_cmpdf2.o)
                              build/color.o (__aeabi_dcmpeq)
/home/jon/KODMOD/EMBEDDED_TOOLCHAINS/gcc-arm-none-eabi-7-2018-q2-update/bin/../lib/gcc/arm-none-eabi/7.3.1/thumb/v7e-m/fpv4-sp/hard/libgcc.a(_arm_unorddf2.o)
                              /home/jon/KODMOD/EMBEDDED_TOOLCHAINS/gcc-arm-none-eabi-7-2018-q2-update/bin/../lib/gcc/arm-none-eabi/7.3.1/../../../../arm-none-eabi/lib/thumb/v7e-m/fpv4-sp/hard/libm.a(lib_a-w_fmod.o) (__aeabi_dcmpun)
/home/jon/KODMOD/EMBEDDED_TOOLCHAINS/gcc-arm-none-eabi-7-2018-q2-update/bin/../lib/gcc/arm-none-eabi/7.3.1/thumb/v7e-m/fpv4-sp/hard/libgcc.a(_arm_fixdfsi.o)
                              build/color.o (__aeabi_d2iz)
/home/jon/KODMOD/EMBEDDED_TOOLCHAINS/gcc-arm-none-eabi-7-2018-q2-update/bin/../lib/gcc/arm-none-eabi/7.3.1/thumb/v7e-m/fpv4-sp/hard/libgcc.a(_arm_fixunsdfsi.o)
                              build/random_triangles_animation.o (__aeabi_d2uiz)
/home/jon/KODMOD/EMBEDDED_TOOLCHAINS/gcc-arm-none-eabi-7-2018-q2-update/bin/../lib/gcc/arm-none-eabi/7.3.1/../../../../arm-none-eabi/lib/thumb/v7e-m/fpv4-sp/hard/libc_nano.a(lib_a-errno.o)
                              /home/jon/KODMOD/EMBEDDED_TOOLCHAINS/gcc-arm-none-eabi-7-2018-q2-update/bin/../lib/gcc/arm-none-eabi/7.3.1/../../../../arm-none-eabi/lib/thumb/v7e-m/fpv4-sp/hard/libm.a(lib_a-w_fmod.o) (__errno)

Allocating common symbols
Common symbol       size              file

hUsbDeviceFS        0x2c4             build/usb_device.o
errno               0x4               /home/jon/KODMOD/EMBEDDED_TOOLCHAINS/gcc-arm-none-eabi-7-2018-q2-update/bin/../lib/gcc/arm-none-eabi/7.3.1/../../../../arm-none-eabi/lib/thumb/v7e-m/fpv4-sp/hard/libc_nano.a(lib_a-reent.o)
hi2c1               0x4c              build/i2c.o
hpcd_USB_OTG_FS     0x408             build/usbd_conf.o
hi2c2               0x4c              build/i2c.o
randomTrianglesPixelData
                    0x190             build/addressable_led_manager.o
ledStrip1Pixels     0x3c00            build/addressable_led_manager.o
uwTick              0x4               build/stm32l4xx_hal.o
ledStrip1           0x14              build/addressable_led_manager.o
UserRxBufferFS      0x800             build/usbd_cdc_if.o
htim3               0x40              build/tim.o
randomFadePixelData
                    0x190             build/addressable_led_manager.o
hadc1               0x64              build/adc.o
UserTxBufferFS      0x800             build/usbd_cdc_if.o
panels              0xa0              build/addressable_led_manager.o
MICROSECOND_PRESCALER
                    0x4               build/addressable_led_driver.o
ledStrip1PacketBuffer
                    0x781             build/addressable_led_manager.o
hdma_tim3_ch4_up    0x48              build/tim.o
ShellRxBuffer       0x200             build/shell.o
refreshTimer        0x18              build/addressable_led_manager.o
MILLISECOND_PRESCALER
                    0x4               build/addressable_led_driver.o
USBD_StrDesc        0x200             build/usbd_desc.o

Discarded input sections

 .text          0x0000000000000000        0x0 /home/jon/KODMOD/EMBEDDED_TOOLCHAINS/gcc-arm-none-eabi-7-2018-q2-update/bin/../lib/gcc/arm-none-eabi/7.3.1/thumb/v7e-m/fpv4-sp/hard/crti.o
 .data          0x0000000000000000        0x0 /home/jon/KODMOD/EMBEDDED_TOOLCHAINS/gcc-arm-none-eabi-7-2018-q2-update/bin/../lib/gcc/arm-none-eabi/7.3.1/thumb/v7e-m/fpv4-sp/hard/crti.o
 .bss           0x0000000000000000        0x0 /home/jon/KODMOD/EMBEDDED_TOOLCHAINS/gcc-arm-none-eabi-7-2018-q2-update/bin/../lib/gcc/arm-none-eabi/7.3.1/thumb/v7e-m/fpv4-sp/hard/crti.o
 .data          0x0000000000000000        0x4 /home/jon/KODMOD/EMBEDDED_TOOLCHAINS/gcc-arm-none-eabi-7-2018-q2-update/bin/../lib/gcc/arm-none-eabi/7.3.1/thumb/v7e-m/fpv4-sp/hard/crtbegin.o
 .text          0x0000000000000000       0x74 /home/jon/KODMOD/EMBEDDED_TOOLCHAINS/gcc-arm-none-eabi-7-2018-q2-update/bin/../lib/gcc/arm-none-eabi/7.3.1/../../../../arm-none-eabi/lib/thumb/v7e-m/fpv4-sp/hard/crt0.o
 .data          0x0000000000000000        0x0 /home/jon/KODMOD/EMBEDDED_TOOLCHAINS/gcc-arm-none-eabi-7-2018-q2-update/bin/../lib/gcc/arm-none-eabi/7.3.1/../../../../arm-none-eabi/lib/thumb/v7e-m/fpv4-sp/hard/crt0.o
 .bss           0x0000000000000000        0x0 /home/jon/KODMOD/EMBEDDED_TOOLCHAINS/gcc-arm-none-eabi-7-2018-q2-update/bin/../lib/gcc/arm-none-eabi/7.3.1/../../../../arm-none-eabi/lib/thumb/v7e-m/fpv4-sp/hard/crt0.o
 .ARM.extab     0x0000000000000000        0x0 /home/jon/KODMOD/EMBEDDED_TOOLCHAINS/gcc-arm-none-eabi-7-2018-q2-update/bin/../lib/gcc/arm-none-eabi/7.3.1/../../../../arm-none-eabi/lib/thumb/v7e-m/fpv4-sp/hard/crt0.o
 .ARM.exidx     0x0000000000000000        0x8 /home/jon/KODMOD/EMBEDDED_TOOLCHAINS/gcc-arm-none-eabi-7-2018-q2-update/bin/../lib/gcc/arm-none-eabi/7.3.1/../../../../arm-none-eabi/lib/thumb/v7e-m/fpv4-sp/hard/crt0.o
 .ARM.attributes
                0x0000000000000000       0x20 /home/jon/KODMOD/EMBEDDED_TOOLCHAINS/gcc-arm-none-eabi-7-2018-q2-update/bin/../lib/gcc/arm-none-eabi/7.3.1/../../../../arm-none-eabi/lib/thumb/v7e-m/fpv4-sp/hard/crt0.o
 .text          0x0000000000000000        0x0 build/main.o
 .data          0x0000000000000000        0x0 build/main.o
 .bss           0x0000000000000000        0x0 build/main.o
 .text          0x0000000000000000        0x0 build/gpio.o
 .data          0x0000000000000000        0x0 build/gpio.o
 .bss           0x0000000000000000        0x0 build/gpio.o
 .text          0x0000000000000000        0x0 build/stm32l4xx_it.o
 .data          0x0000000000000000        0x0 build/stm32l4xx_it.o
 .bss           0x0000000000000000        0x0 build/stm32l4xx_it.o
 .text          0x0000000000000000        0x0 build/stm32l4xx_hal_msp.o
 .data          0x0000000000000000        0x0 build/stm32l4xx_hal_msp.o
 .bss           0x0000000000000000        0x0 build/stm32l4xx_hal_msp.o
 .text          0x0000000000000000        0x0 build/stm32l4xx_hal_tim.o
 .data          0x0000000000000000        0x0 build/stm32l4xx_hal_tim.o
 .bss           0x0000000000000000        0x0 build/stm32l4xx_hal_tim.o
 .text.TIM_TI1_ConfigInputStage
                0x0000000000000000       0x26 build/stm32l4xx_hal_tim.o
 .text.TIM_TI2_SetConfig
                0x0000000000000000       0x34 build/stm32l4xx_hal_tim.o
 .text.TIM_TI2_ConfigInputStage
                0x0000000000000000       0x28 build/stm32l4xx_hal_tim.o
 .text.TIM_TI3_SetConfig
                0x0000000000000000       0x32 build/stm32l4xx_hal_tim.o
 .text.TIM_TI4_SetConfig
                0x0000000000000000       0x34 build/stm32l4xx_hal_tim.o
 .text.TIM_ITRx_SetConfig
                0x0000000000000000       0x10 build/stm32l4xx_hal_tim.o
 .text.HAL_TIM_Base_MspInit
                0x0000000000000000        0x2 build/stm32l4xx_hal_tim.o
 .text.HAL_TIM_Base_MspDeInit
                0x0000000000000000        0x2 build/stm32l4xx_hal_tim.o
 .text.HAL_TIM_Base_DeInit
                0x0000000000000000       0x3a build/stm32l4xx_hal_tim.o
 .text.HAL_TIM_Base_Start
                0x0000000000000000       0x30 build/stm32l4xx_hal_tim.o
 .text.HAL_TIM_Base_Stop
                0x0000000000000000       0x2e build/stm32l4xx_hal_tim.o
 .text.HAL_TIM_Base_Start_IT
                0x0000000000000000       0x2c build/stm32l4xx_hal_tim.o
 .text.HAL_TIM_Base_Stop_IT
                0x0000000000000000       0x2c build/stm32l4xx_hal_tim.o
 .text.HAL_TIM_Base_Start_DMA
                0x0000000000000000       0x8c build/stm32l4xx_hal_tim.o
 .text.HAL_TIM_Base_Stop_DMA
                0x0000000000000000       0x3c build/stm32l4xx_hal_tim.o
 .text.HAL_TIM_OC_MspInit
                0x0000000000000000        0x2 build/stm32l4xx_hal_tim.o
 .text.HAL_TIM_OC_MspDeInit
                0x0000000000000000        0x2 build/stm32l4xx_hal_tim.o
 .text.HAL_TIM_OC_DeInit
                0x0000000000000000       0x3a build/stm32l4xx_hal_tim.o
 .text.HAL_TIM_PWM_MspInit
                0x0000000000000000        0x2 build/stm32l4xx_hal_tim.o
 .text.HAL_TIM_PWM_MspDeInit
                0x0000000000000000        0x2 build/stm32l4xx_hal_tim.o
 .text.HAL_TIM_PWM_DeInit
                0x0000000000000000       0x3a build/stm32l4xx_hal_tim.o
 .text.HAL_TIM_IC_MspInit
                0x0000000000000000        0x2 build/stm32l4xx_hal_tim.o
 .text.HAL_TIM_IC_MspDeInit
                0x0000000000000000        0x2 build/stm32l4xx_hal_tim.o
 .text.HAL_TIM_IC_DeInit
                0x0000000000000000       0x3a build/stm32l4xx_hal_tim.o
 .text.HAL_TIM_OnePulse_MspInit
                0x0000000000000000        0x2 build/stm32l4xx_hal_tim.o
 .text.HAL_TIM_OnePulse_MspDeInit
                0x0000000000000000        0x2 build/stm32l4xx_hal_tim.o
 .text.HAL_TIM_OnePulse_DeInit
                0x0000000000000000       0x3a build/stm32l4xx_hal_tim.o
 .text.HAL_TIM_Encoder_MspInit
                0x0000000000000000        0x2 build/stm32l4xx_hal_tim.o
 .text.HAL_TIM_Encoder_MspDeInit
                0x0000000000000000        0x2 build/stm32l4xx_hal_tim.o
 .text.HAL_TIM_Encoder_DeInit
                0x0000000000000000       0x3a build/stm32l4xx_hal_tim.o
 .text.HAL_TIM_DMABurst_WriteStart
                0x0000000000000000      0x1d4 build/stm32l4xx_hal_tim.o
 .text.HAL_TIM_DMABurst_WriteStop
                0x0000000000000000       0x7a build/stm32l4xx_hal_tim.o
 .text.HAL_TIM_DMABurst_ReadStart
                0x0000000000000000      0x1d4 build/stm32l4xx_hal_tim.o
 .text.HAL_TIM_DMABurst_ReadStop
                0x0000000000000000       0x7a build/stm32l4xx_hal_tim.o
 .text.HAL_TIM_GenerateEvent
                0x0000000000000000       0x26 build/stm32l4xx_hal_tim.o
 .text.HAL_TIM_ConfigTI1Input
                0x0000000000000000       0x10 build/stm32l4xx_hal_tim.o
 .text.HAL_TIM_ReadCapturedValue
                0x0000000000000000       0x32 build/stm32l4xx_hal_tim.o
 .text.HAL_TIM_PeriodElapsedCallback
                0x0000000000000000        0x2 build/stm32l4xx_hal_tim.o
 .text.TIM_DMAPeriodElapsedCplt
                0x0000000000000000       0x10 build/stm32l4xx_hal_tim.o
 .text.HAL_TIM_PeriodElapsedHalfCpltCallback
                0x0000000000000000        0x2 build/stm32l4xx_hal_tim.o
 .text.TIM_DMAPeriodElapsedHalfCplt
                0x0000000000000000       0x10 build/stm32l4xx_hal_tim.o
 .text.HAL_TIM_OC_DelayElapsedCallback
                0x0000000000000000        0x2 build/stm32l4xx_hal_tim.o
 .text.HAL_TIM_IC_CaptureCallback
                0x0000000000000000        0x2 build/stm32l4xx_hal_tim.o
 .text.TIM_DMACaptureCplt
                0x0000000000000000       0x44 build/stm32l4xx_hal_tim.o
 .text.HAL_TIM_IC_CaptureHalfCpltCallback
                0x0000000000000000        0x2 build/stm32l4xx_hal_tim.o
 .text.TIM_DMACaptureHalfCplt
                0x0000000000000000       0x44 build/stm32l4xx_hal_tim.o
 .text.HAL_TIM_PWM_PulseFinishedCallback
                0x0000000000000000        0x2 build/stm32l4xx_hal_tim.o
 .text.TIM_DMADelayPulseCplt
                0x0000000000000000       0x44 build/stm32l4xx_hal_tim.o
 .text.HAL_TIM_PWM_PulseFinishedHalfCpltCallback
                0x0000000000000000        0x2 build/stm32l4xx_hal_tim.o
 .text.TIM_DMADelayPulseHalfCplt
                0x0000000000000000       0x44 build/stm32l4xx_hal_tim.o
 .text.HAL_TIM_TriggerCallback
                0x0000000000000000        0x2 build/stm32l4xx_hal_tim.o
 .text.HAL_TIM_IRQHandler
                0x0000000000000000      0x19a build/stm32l4xx_hal_tim.o
 .text.TIM_DMATriggerCplt
                0x0000000000000000       0x10 build/stm32l4xx_hal_tim.o
 .text.HAL_TIM_TriggerHalfCpltCallback
                0x0000000000000000        0x2 build/stm32l4xx_hal_tim.o
 .text.TIM_DMATriggerHalfCplt
                0x0000000000000000       0x10 build/stm32l4xx_hal_tim.o
 .text.HAL_TIM_ErrorCallback
                0x0000000000000000        0x2 build/stm32l4xx_hal_tim.o
 .text.TIM_DMAError
                0x0000000000000000       0x10 build/stm32l4xx_hal_tim.o
 .text.HAL_TIM_Base_GetState
                0x0000000000000000        0x6 build/stm32l4xx_hal_tim.o
 .text.HAL_TIM_OC_GetState
                0x0000000000000000        0x6 build/stm32l4xx_hal_tim.o
 .text.HAL_TIM_PWM_GetState
                0x0000000000000000        0x6 build/stm32l4xx_hal_tim.o
 .text.HAL_TIM_IC_GetState
                0x0000000000000000        0x6 build/stm32l4xx_hal_tim.o
 .text.HAL_TIM_OnePulse_GetState
                0x0000000000000000        0x6 build/stm32l4xx_hal_tim.o
 .text.HAL_TIM_Encoder_GetState
                0x0000000000000000        0x6 build/stm32l4xx_hal_tim.o
 .text.HAL_TIM_Base_Init
                0x0000000000000000       0x32 build/stm32l4xx_hal_tim.o
 .text.HAL_TIM_OC_Init
                0x0000000000000000       0x32 build/stm32l4xx_hal_tim.o
 .text.HAL_TIM_IC_Init
                0x0000000000000000       0x32 build/stm32l4xx_hal_tim.o
 .text.HAL_TIM_OnePulse_Init
                0x0000000000000000       0x46 build/stm32l4xx_hal_tim.o
 .text.HAL_TIM_Encoder_Init
                0x0000000000000000       0x9c build/stm32l4xx_hal_tim.o
 .text.HAL_TIM_OC_ConfigChannel
                0x0000000000000000       0x76 build/stm32l4xx_hal_tim.o
 .text.TIM_TI1_SetConfig
                0x0000000000000000       0x70 build/stm32l4xx_hal_tim.o
 .text.HAL_TIM_IC_ConfigChannel
                0x0000000000000000       0xc0 build/stm32l4xx_hal_tim.o
 .text.HAL_TIM_OnePulse_ConfigChannel
                0x0000000000000000       0xfa build/stm32l4xx_hal_tim.o
 .text.TIM_ETR_SetConfig
                0x0000000000000000       0x18 build/stm32l4xx_hal_tim.o
 .text.HAL_TIM_ConfigOCrefClear
                0x0000000000000000      0x144 build/stm32l4xx_hal_tim.o
 .text.HAL_TIM_ConfigClockSource
                0x0000000000000000       0xdc build/stm32l4xx_hal_tim.o
 .text.TIM_SlaveTimer_SetConfig
                0x0000000000000000       0x8e build/stm32l4xx_hal_tim.o
 .text.HAL_TIM_SlaveConfigSynchro
                0x0000000000000000       0x58 build/stm32l4xx_hal_tim.o
 .text.HAL_TIM_SlaveConfigSynchro_IT
                0x0000000000000000       0x58 build/stm32l4xx_hal_tim.o
 .text.TIM_CCxChannelCmd
                0x0000000000000000       0x22 build/stm32l4xx_hal_tim.o
 .text.HAL_TIM_OC_Start
                0x0000000000000000       0x64 build/stm32l4xx_hal_tim.o
 .text.HAL_TIM_OC_Stop
                0x0000000000000000       0x78 build/stm32l4xx_hal_tim.o
 .text.HAL_TIM_OC_Start_IT
                0x0000000000000000       0xa8 build/stm32l4xx_hal_tim.o
 .text.HAL_TIM_OC_Stop_IT
                0x0000000000000000       0xbc build/stm32l4xx_hal_tim.o
 .text.HAL_TIM_OC_Start_DMA
                0x0000000000000000      0x180 build/stm32l4xx_hal_tim.o
 .text.HAL_TIM_OC_Stop_DMA
                0x0000000000000000       0xdc build/stm32l4xx_hal_tim.o
 .text.HAL_TIM_PWM_Start
                0x0000000000000000       0x64 build/stm32l4xx_hal_tim.o
 .text.HAL_TIM_PWM_Stop
                0x0000000000000000       0x7c build/stm32l4xx_hal_tim.o
 .text.HAL_TIM_PWM_Start_IT
                0x0000000000000000       0xa8 build/stm32l4xx_hal_tim.o
 .text.HAL_TIM_PWM_Stop_IT
                0x0000000000000000       0xbc build/stm32l4xx_hal_tim.o
 .text.HAL_TIM_PWM_Start_DMA
                0x0000000000000000      0x180 build/stm32l4xx_hal_tim.o
 .text.HAL_TIM_PWM_Stop_DMA
                0x0000000000000000       0xdc build/stm32l4xx_hal_tim.o
 .text.HAL_TIM_IC_Start
                0x0000000000000000       0x30 build/stm32l4xx_hal_tim.o
 .text.HAL_TIM_IC_Stop
                0x0000000000000000       0x2e build/stm32l4xx_hal_tim.o
 .text.HAL_TIM_IC_Start_IT
                0x0000000000000000       0x74 build/stm32l4xx_hal_tim.o
 .text.HAL_TIM_IC_Stop_IT
                0x0000000000000000       0x72 build/stm32l4xx_hal_tim.o
 .text.HAL_TIM_IC_Start_DMA
                0x0000000000000000      0x144 build/stm32l4xx_hal_tim.o
 .text.HAL_TIM_IC_Stop_DMA
                0x0000000000000000       0x94 build/stm32l4xx_hal_tim.o
 .text.HAL_TIM_OnePulse_Start
                0x0000000000000000       0x50 build/stm32l4xx_hal_tim.o
 .text.HAL_TIM_OnePulse_Stop
                0x0000000000000000       0x84 build/stm32l4xx_hal_tim.o
 .text.HAL_TIM_OnePulse_Start_IT
                0x0000000000000000       0x64 build/stm32l4xx_hal_tim.o
 .text.HAL_TIM_OnePulse_Stop_IT
                0x0000000000000000       0x98 build/stm32l4xx_hal_tim.o
 .text.HAL_TIM_Encoder_Start
                0x0000000000000000       0x44 build/stm32l4xx_hal_tim.o
 .text.HAL_TIM_Encoder_Stop
                0x0000000000000000       0x58 build/stm32l4xx_hal_tim.o
 .text.HAL_TIM_Encoder_Start_IT
                0x0000000000000000       0x6c build/stm32l4xx_hal_tim.o
 .text.HAL_TIM_Encoder_Stop_IT
                0x0000000000000000       0x86 build/stm32l4xx_hal_tim.o
 .text.HAL_TIM_Encoder_Start_DMA
                0x0000000000000000      0x164 build/stm32l4xx_hal_tim.o
 .text.HAL_TIM_Encoder_Stop_DMA
                0x0000000000000000       0xa0 build/stm32l4xx_hal_tim.o
 .text          0x0000000000000000        0x0 build/stm32l4xx_hal_tim_ex.o
 .data          0x0000000000000000        0x0 build/stm32l4xx_hal_tim_ex.o
 .bss           0x0000000000000000        0x0 build/stm32l4xx_hal_tim_ex.o
 .text.TIM_CCxNChannelCmd
                0x0000000000000000       0x22 build/stm32l4xx_hal_tim_ex.o
 .text.HAL_TIMEx_HallSensor_MspInit
                0x0000000000000000        0x2 build/stm32l4xx_hal_tim_ex.o
 .text.HAL_TIMEx_HallSensor_Init
                0x0000000000000000       0xc2 build/stm32l4xx_hal_tim_ex.o
 .text.HAL_TIMEx_HallSensor_MspDeInit
                0x0000000000000000        0x2 build/stm32l4xx_hal_tim_ex.o
 .text.HAL_TIMEx_HallSensor_DeInit
                0x0000000000000000       0x3a build/stm32l4xx_hal_tim_ex.o
 .text.HAL_TIMEx_HallSensor_Start
                0x0000000000000000       0x30 build/stm32l4xx_hal_tim_ex.o
 .text.HAL_TIMEx_HallSensor_Stop
                0x0000000000000000       0x30 build/stm32l4xx_hal_tim_ex.o
 .text.HAL_TIMEx_HallSensor_Start_IT
                0x0000000000000000       0x3c build/stm32l4xx_hal_tim_ex.o
 .text.HAL_TIMEx_HallSensor_Stop_IT
                0x0000000000000000       0x3a build/stm32l4xx_hal_tim_ex.o
 .text.HAL_TIMEx_HallSensor_Start_DMA
                0x0000000000000000       0x9c build/stm32l4xx_hal_tim_ex.o
 .text.HAL_TIMEx_HallSensor_Stop_DMA
                0x0000000000000000       0x40 build/stm32l4xx_hal_tim_ex.o
 .text.HAL_TIMEx_OCN_Start
                0x0000000000000000       0x38 build/stm32l4xx_hal_tim_ex.o
 .text.HAL_TIMEx_OCN_Stop
                0x0000000000000000       0x4c build/stm32l4xx_hal_tim_ex.o
 .text.HAL_TIMEx_OCN_Start_IT
                0x0000000000000000       0x70 build/stm32l4xx_hal_tim_ex.o
 .text.HAL_TIMEx_OCN_Stop_IT
                0x0000000000000000       0x90 build/stm32l4xx_hal_tim_ex.o
 .text.HAL_TIMEx_OCN_Start_DMA
                0x0000000000000000      0x118 build/stm32l4xx_hal_tim_ex.o
 .text.HAL_TIMEx_OCN_Stop_DMA
                0x0000000000000000       0x96 build/stm32l4xx_hal_tim_ex.o
 .text.HAL_TIMEx_PWMN_Start
                0x0000000000000000       0x38 build/stm32l4xx_hal_tim_ex.o
 .text.HAL_TIMEx_PWMN_Stop
                0x0000000000000000       0x4c build/stm32l4xx_hal_tim_ex.o
 .text.HAL_TIMEx_PWMN_Start_IT
                0x0000000000000000       0x70 build/stm32l4xx_hal_tim_ex.o
 .text.HAL_TIMEx_PWMN_Stop_IT
                0x0000000000000000       0x90 build/stm32l4xx_hal_tim_ex.o
 .text.HAL_TIMEx_PWMN_Start_DMA
                0x0000000000000000      0x118 build/stm32l4xx_hal_tim_ex.o
 .text.HAL_TIMEx_PWMN_Stop_DMA
                0x0000000000000000       0x96 build/stm32l4xx_hal_tim_ex.o
 .text.HAL_TIMEx_OnePulseN_Start
                0x0000000000000000       0x1a build/stm32l4xx_hal_tim_ex.o
 .text.HAL_TIMEx_OnePulseN_Stop
                0x0000000000000000       0x4c build/stm32l4xx_hal_tim_ex.o
 .text.HAL_TIMEx_OnePulseN_Start_IT
                0x0000000000000000       0x2e build/stm32l4xx_hal_tim_ex.o
 .text.HAL_TIMEx_OnePulseN_Stop_IT
                0x0000000000000000       0x60 build/stm32l4xx_hal_tim_ex.o
 .text.HAL_TIMEx_ConfigCommutEvent
                0x0000000000000000       0x72 build/stm32l4xx_hal_tim_ex.o
 .text.HAL_TIMEx_ConfigCommutEvent_IT
                0x0000000000000000       0x72 build/stm32l4xx_hal_tim_ex.o
 .text.HAL_TIMEx_ConfigCommutEvent_DMA
                0x0000000000000000       0x90 build/stm32l4xx_hal_tim_ex.o
 .text.HAL_TIMEx_ConfigBreakDeadTime
                0x0000000000000000       0x90 build/stm32l4xx_hal_tim_ex.o
 .text.HAL_TIMEx_ConfigBreakInput
                0x0000000000000000       0xc2 build/stm32l4xx_hal_tim_ex.o
 .text.HAL_TIMEx_RemapConfig
                0x0000000000000000       0x5c build/stm32l4xx_hal_tim_ex.o
 .text.HAL_TIMEx_GroupChannel5
                0x0000000000000000       0x3e build/stm32l4xx_hal_tim_ex.o
 .text.HAL_TIMEx_CommutCallback
                0x0000000000000000        0x2 build/stm32l4xx_hal_tim_ex.o
 .text.TIMEx_DMACommutationCplt
                0x0000000000000000       0x10 build/stm32l4xx_hal_tim_ex.o
 .text.HAL_TIMEx_CommutHalfCpltCallback
                0x0000000000000000        0x2 build/stm32l4xx_hal_tim_ex.o
 .text.TIMEx_DMACommutationHalfCplt
                0x0000000000000000       0x10 build/stm32l4xx_hal_tim_ex.o
 .text.HAL_TIMEx_BreakCallback
                0x0000000000000000        0x2 build/stm32l4xx_hal_tim_ex.o
 .text.HAL_TIMEx_Break2Callback
                0x0000000000000000        0x2 build/stm32l4xx_hal_tim_ex.o
 .text.HAL_TIMEx_HallSensor_GetState
                0x0000000000000000        0x6 build/stm32l4xx_hal_tim_ex.o
 .text          0x0000000000000000        0x0 build/stm32l4xx_hal.o
 .data          0x0000000000000000        0x0 build/stm32l4xx_hal.o
 .bss           0x0000000000000000        0x0 build/stm32l4xx_hal.o
 .text.HAL_MspInit
                0x0000000000000000        0x2 build/stm32l4xx_hal.o
 .text.HAL_MspDeInit
                0x0000000000000000        0x2 build/stm32l4xx_hal.o
 .text.HAL_DeInit
                0x0000000000000000       0x2c build/stm32l4xx_hal.o
 .text.HAL_GetTickPrio
                0x0000000000000000        0xc build/stm32l4xx_hal.o
 .text.HAL_SetTickFreq
                0x0000000000000000       0x30 build/stm32l4xx_hal.o
 .text.HAL_GetTickFreq
                0x0000000000000000        0xc build/stm32l4xx_hal.o
 .text.HAL_SuspendTick
                0x0000000000000000       0x10 build/stm32l4xx_hal.o
 .text.HAL_ResumeTick
                0x0000000000000000       0x10 build/stm32l4xx_hal.o
 .text.HAL_GetHalVersion
                0x0000000000000000        0x8 build/stm32l4xx_hal.o
 .text.HAL_GetREVID
                0x0000000000000000        0xc build/stm32l4xx_hal.o
 .text.HAL_GetDEVID
                0x0000000000000000       0x10 build/stm32l4xx_hal.o
 .text.HAL_GetUIDw0
                0x0000000000000000        0xc build/stm32l4xx_hal.o
 .text.HAL_GetUIDw1
                0x0000000000000000        0xc build/stm32l4xx_hal.o
 .text.HAL_GetUIDw2
                0x0000000000000000        0xc build/stm32l4xx_hal.o
 .text.HAL_DBGMCU_EnableDBGSleepMode
                0x0000000000000000       0x10 build/stm32l4xx_hal.o
 .text.HAL_DBGMCU_DisableDBGSleepMode
                0x0000000000000000       0x10 build/stm32l4xx_hal.o
 .text.HAL_DBGMCU_EnableDBGStopMode
                0x0000000000000000       0x10 build/stm32l4xx_hal.o
 .text.HAL_DBGMCU_DisableDBGStopMode
                0x0000000000000000       0x10 build/stm32l4xx_hal.o
 .text.HAL_DBGMCU_EnableDBGStandbyMode
                0x0000000000000000       0x10 build/stm32l4xx_hal.o
 .text.HAL_DBGMCU_DisableDBGStandbyMode
                0x0000000000000000       0x10 build/stm32l4xx_hal.o
 .text.HAL_SYSCFG_SRAM2Erase
                0x0000000000000000       0x1c build/stm32l4xx_hal.o
 .text.HAL_SYSCFG_EnableMemorySwappingBank
                0x0000000000000000        0xc build/stm32l4xx_hal.o
 .text.HAL_SYSCFG_DisableMemorySwappingBank
                0x0000000000000000        0xc build/stm32l4xx_hal.o
 .text.HAL_SYSCFG_VREFBUF_VoltageScalingConfig
                0x0000000000000000       0x14 build/stm32l4xx_hal.o
 .text.HAL_SYSCFG_VREFBUF_HighImpedanceConfig
                0x0000000000000000       0x14 build/stm32l4xx_hal.o
 .text.HAL_SYSCFG_VREFBUF_TrimmingConfig
                0x0000000000000000       0x14 build/stm32l4xx_hal.o
 .text.HAL_SYSCFG_EnableVREFBUF
                0x0000000000000000       0x34 build/stm32l4xx_hal.o
 .text.HAL_SYSCFG_DisableVREFBUF
                0x0000000000000000       0x10 build/stm32l4xx_hal.o
 .text.HAL_SYSCFG_EnableIOAnalogSwitchBooster
                0x0000000000000000       0x10 build/stm32l4xx_hal.o
 .text.HAL_SYSCFG_DisableIOAnalogSwitchBooster
                0x0000000000000000       0x10 build/stm32l4xx_hal.o
 .text          0x0000000000000000        0x0 build/stm32l4xx_hal_i2c.o
 .data          0x0000000000000000        0x0 build/stm32l4xx_hal_i2c.o
 .bss           0x0000000000000000        0x0 build/stm32l4xx_hal_i2c.o
 .text.I2C_Flush_TXDR
                0x0000000000000000       0x22 build/stm32l4xx_hal_i2c.o
 .text.I2C_TransferConfig
                0x0000000000000000       0x36 build/stm32l4xx_hal_i2c.o
 .text.I2C_Enable_IRQ
                0x0000000000000000       0x74 build/stm32l4xx_hal_i2c.o
 .text.I2C_Disable_IRQ
                0x0000000000000000       0xac build/stm32l4xx_hal_i2c.o
 .text.I2C_ConvertOtherXferOptions
                0x0000000000000000       0x1e build/stm32l4xx_hal_i2c.o
 .text.I2C_IsAcknowledgeFailed
                0x0000000000000000       0x90 build/stm32l4xx_hal_i2c.o
 .text.I2C_WaitOnTXISFlagUntilTimeout
                0x0000000000000000       0x56 build/stm32l4xx_hal_i2c.o
 .text.I2C_WaitOnFlagUntilTimeout
                0x0000000000000000       0x52 build/stm32l4xx_hal_i2c.o
 .text.I2C_RequestMemoryWrite
                0x0000000000000000       0x70 build/stm32l4xx_hal_i2c.o
 .text.I2C_RequestMemoryRead
                0x0000000000000000       0x70 build/stm32l4xx_hal_i2c.o
 .text.I2C_WaitOnSTOPFlagUntilTimeout
                0x0000000000000000       0x50 build/stm32l4xx_hal_i2c.o
 .text.I2C_WaitOnRXNEFlagUntilTimeout
                0x0000000000000000       0x98 build/stm32l4xx_hal_i2c.o
 .text.HAL_I2C_MspInit
                0x0000000000000000        0x2 build/stm32l4xx_hal_i2c.o
 .text.HAL_I2C_MspDeInit
                0x0000000000000000        0x2 build/stm32l4xx_hal_i2c.o
 .text.HAL_I2C_DeInit
                0x0000000000000000       0x32 build/stm32l4xx_hal_i2c.o
 .text.HAL_I2C_Master_Transmit
                0x0000000000000000      0x17c build/stm32l4xx_hal_i2c.o
 .text.HAL_I2C_Master_Receive
                0x0000000000000000      0x17c build/stm32l4xx_hal_i2c.o
 .text.HAL_I2C_Slave_Transmit
                0x0000000000000000      0x18c build/stm32l4xx_hal_i2c.o
 .text.HAL_I2C_Slave_Receive
                0x0000000000000000      0x16a build/stm32l4xx_hal_i2c.o
 .text.HAL_I2C_Master_Transmit_IT
                0x0000000000000000       0x98 build/stm32l4xx_hal_i2c.o
 .text.HAL_I2C_Master_Receive_IT
                0x0000000000000000       0x98 build/stm32l4xx_hal_i2c.o
 .text.HAL_I2C_Slave_Transmit_IT
                0x0000000000000000       0x64 build/stm32l4xx_hal_i2c.o
 .text.HAL_I2C_Slave_Receive_IT
                0x0000000000000000       0x64 build/stm32l4xx_hal_i2c.o
 .text.HAL_I2C_Master_Transmit_DMA
                0x0000000000000000      0x150 build/stm32l4xx_hal_i2c.o
 .text.HAL_I2C_Master_Receive_DMA
                0x0000000000000000      0x150 build/stm32l4xx_hal_i2c.o
 .text.HAL_I2C_Slave_Transmit_DMA
                0x0000000000000000       0xf0 build/stm32l4xx_hal_i2c.o
 .text.HAL_I2C_Slave_Receive_DMA
                0x0000000000000000       0xf0 build/stm32l4xx_hal_i2c.o
 .text.HAL_I2C_Mem_Write
                0x0000000000000000      0x1a4 build/stm32l4xx_hal_i2c.o
 .text.HAL_I2C_Mem_Read
                0x0000000000000000      0x1ac build/stm32l4xx_hal_i2c.o
 .text.HAL_I2C_Mem_Write_IT
                0x0000000000000000       0xe4 build/stm32l4xx_hal_i2c.o
 .text.HAL_I2C_Mem_Read_IT
                0x0000000000000000       0xe4 build/stm32l4xx_hal_i2c.o
 .text.HAL_I2C_Mem_Write_DMA
                0x0000000000000000      0x168 build/stm32l4xx_hal_i2c.o
 .text.HAL_I2C_Mem_Read_DMA
                0x0000000000000000      0x16c build/stm32l4xx_hal_i2c.o
 .text.HAL_I2C_IsDeviceReady
                0x0000000000000000      0x170 build/stm32l4xx_hal_i2c.o
 .text.HAL_I2C_Master_Seq_Transmit_IT
                0x0000000000000000       0xb4 build/stm32l4xx_hal_i2c.o
 .text.HAL_I2C_Master_Seq_Transmit_DMA
                0x0000000000000000      0x16c build/stm32l4xx_hal_i2c.o
 .text.HAL_I2C_Master_Seq_Receive_IT
                0x0000000000000000       0xb4 build/stm32l4xx_hal_i2c.o
 .text.HAL_I2C_Master_Seq_Receive_DMA
                0x0000000000000000      0x16c build/stm32l4xx_hal_i2c.o
 .text.HAL_I2C_Slave_Seq_Transmit_IT
                0x0000000000000000       0xd4 build/stm32l4xx_hal_i2c.o
 .text.HAL_I2C_Slave_Seq_Transmit_DMA
                0x0000000000000000      0x19c build/stm32l4xx_hal_i2c.o
 .text.HAL_I2C_Slave_Seq_Receive_IT
                0x0000000000000000       0xd4 build/stm32l4xx_hal_i2c.o
 .text.HAL_I2C_Slave_Seq_Receive_DMA
                0x0000000000000000      0x198 build/stm32l4xx_hal_i2c.o
 .text.HAL_I2C_EnableListen_IT
                0x0000000000000000       0x2c build/stm32l4xx_hal_i2c.o
 .text.HAL_I2C_DisableListen_IT
                0x0000000000000000       0x3a build/stm32l4xx_hal_i2c.o
 .text.HAL_I2C_Master_Abort_IT
                0x0000000000000000       0x84 build/stm32l4xx_hal_i2c.o
 .text.HAL_I2C_EV_IRQHandler
                0x0000000000000000       0x10 build/stm32l4xx_hal_i2c.o
 .text.HAL_I2C_MasterTxCpltCallback
                0x0000000000000000        0x2 build/stm32l4xx_hal_i2c.o
 .text.HAL_I2C_MasterRxCpltCallback
                0x0000000000000000        0x2 build/stm32l4xx_hal_i2c.o
 .text.I2C_ITMasterSeqCplt
                0x0000000000000000       0x54 build/stm32l4xx_hal_i2c.o
 .text.HAL_I2C_SlaveTxCpltCallback
                0x0000000000000000        0x2 build/stm32l4xx_hal_i2c.o
 .text.HAL_I2C_SlaveRxCpltCallback
                0x0000000000000000        0x2 build/stm32l4xx_hal_i2c.o
 .text.I2C_ITSlaveSeqCplt
                0x0000000000000000       0x82 build/stm32l4xx_hal_i2c.o
 .text.I2C_DMASlaveTransmitCplt
                0x0000000000000000       0x1e build/stm32l4xx_hal_i2c.o
 .text.I2C_DMASlaveReceiveCplt
                0x0000000000000000       0x24 build/stm32l4xx_hal_i2c.o
 .text.HAL_I2C_AddrCallback
                0x0000000000000000        0x2 build/stm32l4xx_hal_i2c.o
 .text.I2C_ITAddrCplt
                0x0000000000000000       0xa0 build/stm32l4xx_hal_i2c.o
 .text.HAL_I2C_ListenCpltCallback
                0x0000000000000000        0x2 build/stm32l4xx_hal_i2c.o
 .text.I2C_ITListenCplt
                0x0000000000000000       0x68 build/stm32l4xx_hal_i2c.o
 .text.HAL_I2C_MemTxCpltCallback
                0x0000000000000000        0x2 build/stm32l4xx_hal_i2c.o
 .text.HAL_I2C_MemRxCpltCallback
                0x0000000000000000        0x2 build/stm32l4xx_hal_i2c.o
 .text.HAL_I2C_ErrorCallback
                0x0000000000000000        0x2 build/stm32l4xx_hal_i2c.o
 .text.HAL_I2C_AbortCpltCallback
                0x0000000000000000        0x2 build/stm32l4xx_hal_i2c.o
 .text.I2C_TreatErrorCallback
                0x0000000000000000       0x2e build/stm32l4xx_hal_i2c.o
 .text.I2C_ITError
                0x0000000000000000      0x108 build/stm32l4xx_hal_i2c.o
 .text.I2C_ITSlaveCplt
                0x0000000000000000      0x164 build/stm32l4xx_hal_i2c.o
 .text.I2C_Slave_ISR_IT
                0x0000000000000000      0x14a build/stm32l4xx_hal_i2c.o
 .text.I2C_ITMasterCplt
                0x0000000000000000      0x12e build/stm32l4xx_hal_i2c.o
 .text.I2C_Master_ISR_IT
                0x0000000000000000      0x17c build/stm32l4xx_hal_i2c.o
 .text.I2C_Slave_ISR_DMA
                0x0000000000000000      0x120 build/stm32l4xx_hal_i2c.o
 .text.I2C_Master_ISR_DMA
                0x0000000000000000      0x140 build/stm32l4xx_hal_i2c.o
 .text.I2C_DMAError
                0x0000000000000000       0x16 build/stm32l4xx_hal_i2c.o
 .text.I2C_DMAMasterTransmitCplt
                0x0000000000000000       0x5a build/stm32l4xx_hal_i2c.o
 .text.I2C_DMAMasterReceiveCplt
                0x0000000000000000       0x5a build/stm32l4xx_hal_i2c.o
 .text.HAL_I2C_ER_IRQHandler
                0x0000000000000000       0x6a build/stm32l4xx_hal_i2c.o
 .text.I2C_DMAAbort
                0x0000000000000000       0x1a build/stm32l4xx_hal_i2c.o
 .text.HAL_I2C_GetState
                0x0000000000000000        0x6 build/stm32l4xx_hal_i2c.o
 .text.HAL_I2C_GetMode
                0x0000000000000000        0x6 build/stm32l4xx_hal_i2c.o
 .text.HAL_I2C_GetError
                0x0000000000000000        0x4 build/stm32l4xx_hal_i2c.o
 .text          0x0000000000000000        0x0 build/stm32l4xx_hal_i2c_ex.o
 .data          0x0000000000000000        0x0 build/stm32l4xx_hal_i2c_ex.o
 .bss           0x0000000000000000        0x0 build/stm32l4xx_hal_i2c_ex.o
 .text.HAL_I2CEx_EnableWakeUp
                0x0000000000000000       0x54 build/stm32l4xx_hal_i2c_ex.o
 .text.HAL_I2CEx_DisableWakeUp
                0x0000000000000000       0x54 build/stm32l4xx_hal_i2c_ex.o
 .text.HAL_I2CEx_EnableFastModePlus
                0x0000000000000000       0x2c build/stm32l4xx_hal_i2c_ex.o
 .text.HAL_I2CEx_DisableFastModePlus
                0x0000000000000000       0x2c build/stm32l4xx_hal_i2c_ex.o
 .text          0x0000000000000000        0x0 build/stm32l4xx_hal_rcc.o
 .data          0x0000000000000000        0x0 build/stm32l4xx_hal_rcc.o
 .bss           0x0000000000000000        0x0 build/stm32l4xx_hal_rcc.o
 .text.HAL_RCC_DeInit
                0x0000000000000000       0xf4 build/stm32l4xx_hal_rcc.o
 .text.HAL_RCC_MCOConfig
                0x0000000000000000       0x4c build/stm32l4xx_hal_rcc.o
 .text.HAL_RCC_GetPCLK1Freq
                0x0000000000000000       0x24 build/stm32l4xx_hal_rcc.o
 .text.HAL_RCC_GetPCLK2Freq
                0x0000000000000000       0x24 build/stm32l4xx_hal_rcc.o
 .text.HAL_RCC_GetOscConfig
                0x0000000000000000      0x118 build/stm32l4xx_hal_rcc.o
 .text.HAL_RCC_GetClockConfig
                0x0000000000000000       0x3c build/stm32l4xx_hal_rcc.o
 .text.HAL_RCC_EnableCSS
                0x0000000000000000       0x10 build/stm32l4xx_hal_rcc.o
 .text.HAL_RCC_CSSCallback
                0x0000000000000000        0x2 build/stm32l4xx_hal_rcc.o
 .text.HAL_RCC_NMI_IRQHandler
                0x0000000000000000       0x20 build/stm32l4xx_hal_rcc.o
 .text          0x0000000000000000        0x0 build/stm32l4xx_hal_rcc_ex.o
 .data          0x0000000000000000        0x0 build/stm32l4xx_hal_rcc_ex.o
 .bss           0x0000000000000000        0x0 build/stm32l4xx_hal_rcc_ex.o
 .text.RCCEx_GetSAIxPeriphCLKFreq
                0x0000000000000000      0x130 build/stm32l4xx_hal_rcc_ex.o
 .text.HAL_RCCEx_GetPeriphCLKConfig
                0x0000000000000000      0x148 build/stm32l4xx_hal_rcc_ex.o
 .text.HAL_RCCEx_GetPeriphCLKFreq
                0x0000000000000000      0x768 build/stm32l4xx_hal_rcc_ex.o
 .text.HAL_RCCEx_EnablePLLSAI1
                0x0000000000000000       0x98 build/stm32l4xx_hal_rcc_ex.o
 .text.HAL_RCCEx_DisablePLLSAI1
                0x0000000000000000       0x50 build/stm32l4xx_hal_rcc_ex.o
 .text.HAL_RCCEx_EnablePLLSAI2
                0x0000000000000000       0x8c build/stm32l4xx_hal_rcc_ex.o
 .text.HAL_RCCEx_DisablePLLSAI2
                0x0000000000000000       0x50 build/stm32l4xx_hal_rcc_ex.o
 .text.HAL_RCCEx_WakeUpStopCLKConfig
                0x0000000000000000       0x14 build/stm32l4xx_hal_rcc_ex.o
 .text.HAL_RCCEx_StandbyMSIRangeConfig
                0x0000000000000000       0x18 build/stm32l4xx_hal_rcc_ex.o
 .text.HAL_RCCEx_EnableLSECSS
                0x0000000000000000       0x14 build/stm32l4xx_hal_rcc_ex.o
 .text.HAL_RCCEx_DisableLSECSS
                0x0000000000000000       0x1c build/stm32l4xx_hal_rcc_ex.o
 .text.HAL_RCCEx_EnableLSECSS_IT
                0x0000000000000000       0x30 build/stm32l4xx_hal_rcc_ex.o
 .text.HAL_RCCEx_LSECSS_Callback
                0x0000000000000000        0x2 build/stm32l4xx_hal_rcc_ex.o
 .text.HAL_RCCEx_LSECSS_IRQHandler
                0x0000000000000000       0x20 build/stm32l4xx_hal_rcc_ex.o
 .text.HAL_RCCEx_EnableLSCO
                0x0000000000000000       0xa0 build/stm32l4xx_hal_rcc_ex.o
 .text.HAL_RCCEx_DisableLSCO
                0x0000000000000000       0x6c build/stm32l4xx_hal_rcc_ex.o
 .text.HAL_RCCEx_EnableMSIPLLMode
                0x0000000000000000       0x10 build/stm32l4xx_hal_rcc_ex.o
 .text.HAL_RCCEx_DisableMSIPLLMode
                0x0000000000000000       0x10 build/stm32l4xx_hal_rcc_ex.o
 .text          0x0000000000000000        0x0 build/stm32l4xx_hal_flash.o
 .data          0x0000000000000000        0x0 build/stm32l4xx_hal_flash.o
 .bss           0x0000000000000000        0x0 build/stm32l4xx_hal_flash.o
 .text.FLASH_Program_DoubleWord
                0x0000000000000000       0x20 build/stm32l4xx_hal_flash.o
 .text.FLASH_Program_Fast
                0x0000000000000000       0x34 build/stm32l4xx_hal_flash.o
 .text.HAL_FLASH_Program_IT
                0x0000000000000000       0x88 build/stm32l4xx_hal_flash.o
 .text.HAL_FLASH_EndOfOperationCallback
                0x0000000000000000        0x2 build/stm32l4xx_hal_flash.o
 .text.HAL_FLASH_OperationErrorCallback
                0x0000000000000000        0x2 build/stm32l4xx_hal_flash.o
 .text.HAL_FLASH_IRQHandler
                0x0000000000000000      0x130 build/stm32l4xx_hal_flash.o
 .text.HAL_FLASH_Unlock
                0x0000000000000000       0x30 build/stm32l4xx_hal_flash.o
 .text.HAL_FLASH_Lock
                0x0000000000000000       0x14 build/stm32l4xx_hal_flash.o
 .text.HAL_FLASH_OB_Unlock
                0x0000000000000000       0x28 build/stm32l4xx_hal_flash.o
 .text.HAL_FLASH_OB_Lock
                0x0000000000000000       0x14 build/stm32l4xx_hal_flash.o
 .text.HAL_FLASH_GetError
                0x0000000000000000        0xc build/stm32l4xx_hal_flash.o
 .text.FLASH_WaitForLastOperation
                0x0000000000000000       0x64 build/stm32l4xx_hal_flash.o
 .text.HAL_FLASH_Program
                0x0000000000000000       0xb0 build/stm32l4xx_hal_flash.o
 .text.HAL_FLASH_OB_Launch
                0x0000000000000000       0x1c build/stm32l4xx_hal_flash.o
 .data.pFlash   0x0000000000000000       0x20 build/stm32l4xx_hal_flash.o
 .debug_info    0x0000000000000000      0x930 build/stm32l4xx_hal_flash.o
 .debug_abbrev  0x0000000000000000      0x319 build/stm32l4xx_hal_flash.o
 .debug_loc     0x0000000000000000      0x5a8 build/stm32l4xx_hal_flash.o
 .debug_aranges
                0x0000000000000000       0x88 build/stm32l4xx_hal_flash.o
 .debug_ranges  0x0000000000000000       0x78 build/stm32l4xx_hal_flash.o
 .debug_line    0x0000000000000000      0x447 build/stm32l4xx_hal_flash.o
 .debug_str     0x0000000000000000      0x6de build/stm32l4xx_hal_flash.o
 .comment       0x0000000000000000       0x80 build/stm32l4xx_hal_flash.o
 .debug_frame   0x0000000000000000      0x158 build/stm32l4xx_hal_flash.o
 .ARM.attributes
                0x0000000000000000       0x39 build/stm32l4xx_hal_flash.o
 .text          0x0000000000000000        0x0 build/stm32l4xx_hal_flash_ex.o
 .data          0x0000000000000000        0x0 build/stm32l4xx_hal_flash_ex.o
 .bss           0x0000000000000000        0x0 build/stm32l4xx_hal_flash_ex.o
 .text.FLASH_MassErase
                0x0000000000000000       0x30 build/stm32l4xx_hal_flash_ex.o
 .text.FLASH_OB_GetWRP
                0x0000000000000000       0x5c build/stm32l4xx_hal_flash_ex.o
 .text.FLASH_OB_GetRDP
                0x0000000000000000       0x20 build/stm32l4xx_hal_flash_ex.o
 .text.FLASH_OB_GetUser
                0x0000000000000000       0x10 build/stm32l4xx_hal_flash_ex.o
 .text.FLASH_OB_GetPCROP
                0x0000000000000000       0xc8 build/stm32l4xx_hal_flash_ex.o
 .text.FLASH_OB_WRPConfig
                0x0000000000000000       0x8c build/stm32l4xx_hal_flash_ex.o
 .text.FLASH_OB_RDPConfig
                0x0000000000000000       0x40 build/stm32l4xx_hal_flash_ex.o
 .text.FLASH_OB_UserConfig
                0x0000000000000000      0x118 build/stm32l4xx_hal_flash_ex.o
 .text.FLASH_OB_PCROPConfig
                0x0000000000000000       0xf8 build/stm32l4xx_hal_flash_ex.o
 .text.HAL_FLASHEx_OBProgram
                0x0000000000000000       0x94 build/stm32l4xx_hal_flash_ex.o
 .text.HAL_FLASHEx_OBGetConfig
                0x0000000000000000       0x52 build/stm32l4xx_hal_flash_ex.o
 .text.FLASH_PageErase
                0x0000000000000000       0x44 build/stm32l4xx_hal_flash_ex.o
 .text.HAL_FLASHEx_Erase_IT
                0x0000000000000000       0xb8 build/stm32l4xx_hal_flash_ex.o
 .text.FLASH_FlushCaches
                0x0000000000000000       0x5c build/stm32l4xx_hal_flash_ex.o
 .text.HAL_FLASHEx_Erase
                0x0000000000000000       0xfc build/stm32l4xx_hal_flash_ex.o
 .debug_info    0x0000000000000000      0xb63 build/stm32l4xx_hal_flash_ex.o
 .debug_abbrev  0x0000000000000000      0x25d build/stm32l4xx_hal_flash_ex.o
 .debug_loc     0x0000000000000000      0x93a build/stm32l4xx_hal_flash_ex.o
 .debug_aranges
                0x0000000000000000       0x90 build/stm32l4xx_hal_flash_ex.o
 .debug_ranges  0x0000000000000000       0x80 build/stm32l4xx_hal_flash_ex.o
 .debug_line    0x0000000000000000      0x4f2 build/stm32l4xx_hal_flash_ex.o
 .debug_str     0x0000000000000000      0x76e build/stm32l4xx_hal_flash_ex.o
 .comment       0x0000000000000000       0x80 build/stm32l4xx_hal_flash_ex.o
 .debug_frame   0x0000000000000000      0x19c build/stm32l4xx_hal_flash_ex.o
 .ARM.attributes
                0x0000000000000000       0x39 build/stm32l4xx_hal_flash_ex.o
 .text          0x0000000000000000        0x0 build/stm32l4xx_hal_flash_ramfunc.o
 .data          0x0000000000000000        0x0 build/stm32l4xx_hal_flash_ramfunc.o
 .bss           0x0000000000000000        0x0 build/stm32l4xx_hal_flash_ramfunc.o
 .RamFunc       0x0000000000000000       0x48 build/stm32l4xx_hal_flash_ramfunc.o
 .debug_info    0x0000000000000000      0x436 build/stm32l4xx_hal_flash_ramfunc.o
 .debug_abbrev  0x0000000000000000      0x103 build/stm32l4xx_hal_flash_ramfunc.o
 .debug_aranges
                0x0000000000000000       0x28 build/stm32l4xx_hal_flash_ramfunc.o
 .debug_ranges  0x0000000000000000       0x18 build/stm32l4xx_hal_flash_ramfunc.o
 .debug_line    0x0000000000000000      0x236 build/stm32l4xx_hal_flash_ramfunc.o
 .debug_str     0x0000000000000000      0x4e5 build/stm32l4xx_hal_flash_ramfunc.o
 .comment       0x0000000000000000       0x80 build/stm32l4xx_hal_flash_ramfunc.o
 .debug_frame   0x0000000000000000       0x30 build/stm32l4xx_hal_flash_ramfunc.o
 .ARM.attributes
                0x0000000000000000       0x39 build/stm32l4xx_hal_flash_ramfunc.o
 .text          0x0000000000000000        0x0 build/stm32l4xx_hal_gpio.o
 .data          0x0000000000000000        0x0 build/stm32l4xx_hal_gpio.o
 .bss           0x0000000000000000        0x0 build/stm32l4xx_hal_gpio.o
 .text.HAL_GPIO_DeInit
                0x0000000000000000      0x120 build/stm32l4xx_hal_gpio.o
 .text.HAL_GPIO_ReadPin
                0x0000000000000000        0xe build/stm32l4xx_hal_gpio.o
 .text.HAL_GPIO_TogglePin
                0x0000000000000000        0xe build/stm32l4xx_hal_gpio.o
 .text.HAL_GPIO_LockPin
                0x0000000000000000       0x2e build/stm32l4xx_hal_gpio.o
 .text.HAL_GPIO_EXTI_Callback
                0x0000000000000000        0x2 build/stm32l4xx_hal_gpio.o
 .text.HAL_GPIO_EXTI_IRQHandler
                0x0000000000000000       0x1c build/stm32l4xx_hal_gpio.o
 .text          0x0000000000000000        0x0 build/stm32l4xx_hal_dma.o
 .data          0x0000000000000000        0x0 build/stm32l4xx_hal_dma.o
 .bss           0x0000000000000000        0x0 build/stm32l4xx_hal_dma.o
 .text.DMA_SetConfig
                0x0000000000000000       0x30 build/stm32l4xx_hal_dma.o
 .text.HAL_DMA_DeInit
                0x0000000000000000       0xc8 build/stm32l4xx_hal_dma.o
 .text.HAL_DMA_Start
                0x0000000000000000       0x52 build/stm32l4xx_hal_dma.o
 .text.HAL_DMA_Start_IT
                0x0000000000000000       0x76 build/stm32l4xx_hal_dma.o
 .text.HAL_DMA_Abort
                0x0000000000000000       0x4a build/stm32l4xx_hal_dma.o
 .text.HAL_DMA_Abort_IT
                0x0000000000000000       0x50 build/stm32l4xx_hal_dma.o
 .text.HAL_DMA_PollForTransfer
                0x0000000000000000       0xda build/stm32l4xx_hal_dma.o
 .text.HAL_DMA_RegisterCallback
                0x0000000000000000       0x50 build/stm32l4xx_hal_dma.o
 .text.HAL_DMA_UnRegisterCallback
                0x0000000000000000       0x5e build/stm32l4xx_hal_dma.o
 .text.HAL_DMA_GetState
                0x0000000000000000        0x6 build/stm32l4xx_hal_dma.o
 .text.HAL_DMA_GetError
                0x0000000000000000        0x4 build/stm32l4xx_hal_dma.o
 .text          0x0000000000000000        0x0 build/stm32l4xx_hal_dma_ex.o
 .data          0x0000000000000000        0x0 build/stm32l4xx_hal_dma_ex.o
 .bss           0x0000000000000000        0x0 build/stm32l4xx_hal_dma_ex.o
 .debug_info    0x0000000000000000      0x295 build/stm32l4xx_hal_dma_ex.o
 .debug_abbrev  0x0000000000000000       0xab build/stm32l4xx_hal_dma_ex.o
 .debug_aranges
                0x0000000000000000       0x18 build/stm32l4xx_hal_dma_ex.o
 .debug_line    0x0000000000000000      0x1ce build/stm32l4xx_hal_dma_ex.o
 .debug_str     0x0000000000000000      0x3e7 build/stm32l4xx_hal_dma_ex.o
 .comment       0x0000000000000000       0x80 build/stm32l4xx_hal_dma_ex.o
 .ARM.attributes
                0x0000000000000000       0x39 build/stm32l4xx_hal_dma_ex.o
 .text          0x0000000000000000        0x0 build/stm32l4xx_hal_pwr.o
 .data          0x0000000000000000        0x0 build/stm32l4xx_hal_pwr.o
 .bss           0x0000000000000000        0x0 build/stm32l4xx_hal_pwr.o
 .text.HAL_PWR_DeInit
                0x0000000000000000       0x18 build/stm32l4xx_hal_pwr.o
 .text.HAL_PWR_EnableBkUpAccess
                0x0000000000000000       0x10 build/stm32l4xx_hal_pwr.o
 .text.HAL_PWR_DisableBkUpAccess
                0x0000000000000000       0x10 build/stm32l4xx_hal_pwr.o
 .text.HAL_PWR_ConfigPVD
                0x0000000000000000       0x84 build/stm32l4xx_hal_pwr.o
 .text.HAL_PWR_EnablePVD
                0x0000000000000000       0x10 build/stm32l4xx_hal_pwr.o
 .text.HAL_PWR_DisablePVD
                0x0000000000000000       0x10 build/stm32l4xx_hal_pwr.o
 .text.HAL_PWR_EnableWakeUpPin
                0x0000000000000000       0x20 build/stm32l4xx_hal_pwr.o
 .text.HAL_PWR_DisableWakeUpPin
                0x0000000000000000       0x14 build/stm32l4xx_hal_pwr.o
 .text.HAL_PWR_EnterSLEEPMode
                0x0000000000000000       0x4c build/stm32l4xx_hal_pwr.o
 .text.HAL_PWR_EnterSTOPMode
                0x0000000000000000       0x18 build/stm32l4xx_hal_pwr.o
 .text.HAL_PWR_EnterSTANDBYMode
                0x0000000000000000       0x24 build/stm32l4xx_hal_pwr.o
 .text.HAL_PWR_EnableSleepOnExit
                0x0000000000000000       0x10 build/stm32l4xx_hal_pwr.o
 .text.HAL_PWR_DisableSleepOnExit
                0x0000000000000000       0x10 build/stm32l4xx_hal_pwr.o
 .text.HAL_PWR_EnableSEVOnPend
                0x0000000000000000       0x10 build/stm32l4xx_hal_pwr.o
 .text.HAL_PWR_DisableSEVOnPend
                0x0000000000000000       0x10 build/stm32l4xx_hal_pwr.o
 .text.HAL_PWR_PVDCallback
                0x0000000000000000        0x2 build/stm32l4xx_hal_pwr.o
 .debug_info    0x0000000000000000      0xbf4 build/stm32l4xx_hal_pwr.o
 .debug_abbrev  0x0000000000000000      0x1a7 build/stm32l4xx_hal_pwr.o
 .debug_loc     0x0000000000000000      0x1bd build/stm32l4xx_hal_pwr.o
 .debug_aranges
                0x0000000000000000       0x98 build/stm32l4xx_hal_pwr.o
 .debug_ranges  0x0000000000000000       0x88 build/stm32l4xx_hal_pwr.o
 .debug_line    0x0000000000000000      0x39c build/stm32l4xx_hal_pwr.o
 .debug_str     0x0000000000000000      0x8bc build/stm32l4xx_hal_pwr.o
 .comment       0x0000000000000000       0x80 build/stm32l4xx_hal_pwr.o
 .debug_frame   0x0000000000000000      0x128 build/stm32l4xx_hal_pwr.o
 .ARM.attributes
                0x0000000000000000       0x39 build/stm32l4xx_hal_pwr.o
 .text          0x0000000000000000        0x0 build/stm32l4xx_hal_pwr_ex.o
 .data          0x0000000000000000        0x0 build/stm32l4xx_hal_pwr_ex.o
 .bss           0x0000000000000000        0x0 build/stm32l4xx_hal_pwr_ex.o
 .text.HAL_PWREx_EnableBatteryCharging
                0x0000000000000000       0x1c build/stm32l4xx_hal_pwr_ex.o
 .text.HAL_PWREx_DisableBatteryCharging
                0x0000000000000000       0x10 build/stm32l4xx_hal_pwr_ex.o
 .text.HAL_PWREx_DisableVddUSB
                0x0000000000000000       0x10 build/stm32l4xx_hal_pwr_ex.o
 .text.HAL_PWREx_EnableVddIO2
                0x0000000000000000       0x10 build/stm32l4xx_hal_pwr_ex.o
 .text.HAL_PWREx_DisableVddIO2
                0x0000000000000000       0x10 build/stm32l4xx_hal_pwr_ex.o
 .text.HAL_PWREx_EnableInternalWakeUpLine
                0x0000000000000000       0x10 build/stm32l4xx_hal_pwr_ex.o
 .text.HAL_PWREx_DisableInternalWakeUpLine
                0x0000000000000000       0x10 build/stm32l4xx_hal_pwr_ex.o
 .text.HAL_PWREx_EnableGPIOPullUp
                0x0000000000000000       0xc8 build/stm32l4xx_hal_pwr_ex.o
 .text.HAL_PWREx_DisableGPIOPullUp
                0x0000000000000000       0x90 build/stm32l4xx_hal_pwr_ex.o
 .text.HAL_PWREx_EnableGPIOPullDown
                0x0000000000000000       0xc8 build/stm32l4xx_hal_pwr_ex.o
 .text.HAL_PWREx_DisableGPIOPullDown
                0x0000000000000000       0x94 build/stm32l4xx_hal_pwr_ex.o
 .text.HAL_PWREx_EnablePullUpPullDownConfig
                0x0000000000000000       0x10 build/stm32l4xx_hal_pwr_ex.o
 .text.HAL_PWREx_DisablePullUpPullDownConfig
                0x0000000000000000       0x10 build/stm32l4xx_hal_pwr_ex.o
 .text.HAL_PWREx_SetSRAM2ContentRetention
                0x0000000000000000       0x2c build/stm32l4xx_hal_pwr_ex.o
 .text.HAL_PWREx_EnableSRAM2ContentRetention
                0x0000000000000000        0xc build/stm32l4xx_hal_pwr_ex.o
 .text.HAL_PWREx_DisableSRAM2ContentRetention
                0x0000000000000000        0xa build/stm32l4xx_hal_pwr_ex.o
 .text.HAL_PWREx_EnablePVM1
                0x0000000000000000       0x10 build/stm32l4xx_hal_pwr_ex.o
 .text.HAL_PWREx_DisablePVM1
                0x0000000000000000       0x10 build/stm32l4xx_hal_pwr_ex.o
 .text.HAL_PWREx_EnablePVM2
                0x0000000000000000       0x10 build/stm32l4xx_hal_pwr_ex.o
 .text.HAL_PWREx_DisablePVM2
                0x0000000000000000       0x10 build/stm32l4xx_hal_pwr_ex.o
 .text.HAL_PWREx_EnablePVM3
                0x0000000000000000       0x10 build/stm32l4xx_hal_pwr_ex.o
 .text.HAL_PWREx_DisablePVM3
                0x0000000000000000       0x10 build/stm32l4xx_hal_pwr_ex.o
 .text.HAL_PWREx_EnablePVM4
                0x0000000000000000       0x10 build/stm32l4xx_hal_pwr_ex.o
 .text.HAL_PWREx_DisablePVM4
                0x0000000000000000       0x10 build/stm32l4xx_hal_pwr_ex.o
 .text.HAL_PWREx_ConfigPVM
                0x0000000000000000      0x1ec build/stm32l4xx_hal_pwr_ex.o
 .text.HAL_PWREx_EnableLowPowerRunMode
                0x0000000000000000       0x10 build/stm32l4xx_hal_pwr_ex.o
 .text.HAL_PWREx_DisableLowPowerRunMode
                0x0000000000000000       0x50 build/stm32l4xx_hal_pwr_ex.o
 .text.HAL_PWREx_EnterSTOP0Mode
                0x0000000000000000       0x38 build/stm32l4xx_hal_pwr_ex.o
 .text.HAL_PWREx_EnterSTOP1Mode
                0x0000000000000000       0x3c build/stm32l4xx_hal_pwr_ex.o
 .text.HAL_PWREx_EnterSTOP2Mode
                0x0000000000000000       0x3c build/stm32l4xx_hal_pwr_ex.o
 .text.HAL_PWREx_EnterSHUTDOWNMode
                0x0000000000000000       0x24 build/stm32l4xx_hal_pwr_ex.o
 .text.HAL_PWREx_PVM1Callback
                0x0000000000000000        0x2 build/stm32l4xx_hal_pwr_ex.o
 .text.HAL_PWREx_PVM2Callback
                0x0000000000000000        0x2 build/stm32l4xx_hal_pwr_ex.o
 .text.HAL_PWREx_PVM3Callback
                0x0000000000000000        0x2 build/stm32l4xx_hal_pwr_ex.o
 .text.HAL_PWREx_PVM4Callback
                0x0000000000000000        0x2 build/stm32l4xx_hal_pwr_ex.o
 .text.HAL_PWREx_PVD_PVM_IRQHandler
                0x0000000000000000       0x78 build/stm32l4xx_hal_pwr_ex.o
 .text          0x0000000000000000        0x0 build/stm32l4xx_hal_cortex.o
 .data          0x0000000000000000        0x0 build/stm32l4xx_hal_cortex.o
 .bss           0x0000000000000000        0x0 build/stm32l4xx_hal_cortex.o
 .text.HAL_NVIC_DisableIRQ
                0x0000000000000000       0x24 build/stm32l4xx_hal_cortex.o
 .text.HAL_NVIC_SystemReset
                0x0000000000000000       0x24 build/stm32l4xx_hal_cortex.o
 .text.HAL_NVIC_GetPriorityGrouping
                0x0000000000000000       0x10 build/stm32l4xx_hal_cortex.o
 .text.HAL_NVIC_GetPriority
                0x0000000000000000       0x60 build/stm32l4xx_hal_cortex.o
 .text.HAL_NVIC_SetPendingIRQ
                0x0000000000000000       0x1c build/stm32l4xx_hal_cortex.o
 .text.HAL_NVIC_GetPendingIRQ
                0x0000000000000000       0x24 build/stm32l4xx_hal_cortex.o
 .text.HAL_NVIC_ClearPendingIRQ
                0x0000000000000000       0x1c build/stm32l4xx_hal_cortex.o
 .text.HAL_NVIC_GetActive
                0x0000000000000000       0x24 build/stm32l4xx_hal_cortex.o
 .text.HAL_SYSTICK_CLKSourceConfig
                0x0000000000000000       0x20 build/stm32l4xx_hal_cortex.o
 .text.HAL_SYSTICK_Callback
                0x0000000000000000        0x2 build/stm32l4xx_hal_cortex.o
 .text.HAL_SYSTICK_IRQHandler
                0x0000000000000000        0x8 build/stm32l4xx_hal_cortex.o
 .text.HAL_MPU_Enable
                0x0000000000000000       0x18 build/stm32l4xx_hal_cortex.o
 .text.HAL_MPU_Disable
                0x0000000000000000       0x10 build/stm32l4xx_hal_cortex.o
 .text.HAL_MPU_ConfigRegion
                0x0000000000000000       0x54 build/stm32l4xx_hal_cortex.o
 .text          0x0000000000000000        0x0 build/stm32l4xx_hal_exti.o
 .data          0x0000000000000000        0x0 build/stm32l4xx_hal_exti.o
 .bss           0x0000000000000000        0x0 build/stm32l4xx_hal_exti.o
 .text.HAL_EXTI_SetConfigLine
                0x0000000000000000       0xdc build/stm32l4xx_hal_exti.o
 .text.HAL_EXTI_GetConfigLine
                0x0000000000000000       0xbc build/stm32l4xx_hal_exti.o
 .text.HAL_EXTI_ClearConfigLine
                0x0000000000000000       0x90 build/stm32l4xx_hal_exti.o
 .text.HAL_EXTI_RegisterCallback
                0x0000000000000000        0xc build/stm32l4xx_hal_exti.o
 .text.HAL_EXTI_GetHandle
                0x0000000000000000        0xc build/stm32l4xx_hal_exti.o
 .text.HAL_EXTI_IRQHandler
                0x0000000000000000       0x2c build/stm32l4xx_hal_exti.o
 .text.HAL_EXTI_GetPending
                0x0000000000000000       0x20 build/stm32l4xx_hal_exti.o
 .text.HAL_EXTI_ClearPending
                0x0000000000000000       0x1c build/stm32l4xx_hal_exti.o
 .text.HAL_EXTI_GenerateSWI
                0x0000000000000000       0x1c build/stm32l4xx_hal_exti.o
 .debug_info    0x0000000000000000      0x8f4 build/stm32l4xx_hal_exti.o
 .debug_abbrev  0x0000000000000000      0x1d9 build/stm32l4xx_hal_exti.o
 .debug_loc     0x0000000000000000      0xb1d build/stm32l4xx_hal_exti.o
 .debug_aranges
                0x0000000000000000       0x60 build/stm32l4xx_hal_exti.o
 .debug_ranges  0x0000000000000000       0x50 build/stm32l4xx_hal_exti.o
 .debug_line    0x0000000000000000      0x39a build/stm32l4xx_hal_exti.o
 .debug_str     0x0000000000000000      0x682 build/stm32l4xx_hal_exti.o
 .comment       0x0000000000000000       0x80 build/stm32l4xx_hal_exti.o
 .debug_frame   0x0000000000000000      0x118 build/stm32l4xx_hal_exti.o
 .ARM.attributes
                0x0000000000000000       0x39 build/stm32l4xx_hal_exti.o
 .text          0x0000000000000000        0x0 build/system_stm32l4xx.o
 .data          0x0000000000000000        0x0 build/system_stm32l4xx.o
 .bss           0x0000000000000000        0x0 build/system_stm32l4xx.o
 .text.SystemCoreClockUpdate
                0x0000000000000000       0xd8 build/system_stm32l4xx.o
 .rodata.APBPrescTable
                0x0000000000000000        0x8 build/system_stm32l4xx.o
 .text          0x0000000000000000        0x0 build/adc.o
 .data          0x0000000000000000        0x0 build/adc.o
 .bss           0x0000000000000000        0x0 build/adc.o
 .text.HAL_ADC_MspDeInit
                0x0000000000000000       0x38 build/adc.o
 .text          0x0000000000000000        0x0 build/i2c.o
 .data          0x0000000000000000        0x0 build/i2c.o
 .bss           0x0000000000000000        0x0 build/i2c.o
 .text.HAL_I2C_MspDeInit
                0x0000000000000000       0x50 build/i2c.o
 .text          0x0000000000000000        0x0 build/stm32l4xx_hal_adc.o
 .data          0x0000000000000000        0x0 build/stm32l4xx_hal_adc.o
 .bss           0x0000000000000000        0x0 build/stm32l4xx_hal_adc.o
 .text.HAL_ADC_MspInit
                0x0000000000000000        0x2 build/stm32l4xx_hal_adc.o
 .text.HAL_ADC_MspDeInit
                0x0000000000000000        0x2 build/stm32l4xx_hal_adc.o
 .text.HAL_ADC_PollForEvent
                0x0000000000000000       0xd8 build/stm32l4xx_hal_adc.o
 .text.HAL_ADC_ConvCpltCallback
                0x0000000000000000        0x2 build/stm32l4xx_hal_adc.o
 .text.HAL_ADC_ConvHalfCpltCallback
                0x0000000000000000        0x2 build/stm32l4xx_hal_adc.o
 .text.ADC_DMAHalfConvCplt
                0x0000000000000000        0xa build/stm32l4xx_hal_adc.o
 .text.HAL_ADC_LevelOutOfWindowCallback
                0x0000000000000000        0x2 build/stm32l4xx_hal_adc.o
 .text.HAL_ADC_ErrorCallback
                0x0000000000000000        0x2 build/stm32l4xx_hal_adc.o
 .text.HAL_ADC_IRQHandler
                0x0000000000000000      0x294 build/stm32l4xx_hal_adc.o
 .text.ADC_DMAConvCplt
                0x0000000000000000       0x88 build/stm32l4xx_hal_adc.o
 .text.ADC_DMAError
                0x0000000000000000       0x1a build/stm32l4xx_hal_adc.o
 .text.HAL_ADC_AnalogWDGConfig
                0x0000000000000000      0x344 build/stm32l4xx_hal_adc.o
 .text.HAL_ADC_GetState
                0x0000000000000000        0x4 build/stm32l4xx_hal_adc.o
 .text.HAL_ADC_GetError
                0x0000000000000000        0x4 build/stm32l4xx_hal_adc.o
 .text.HAL_ADC_Start_IT
                0x0000000000000000      0x18c build/stm32l4xx_hal_adc.o
 .text.HAL_ADC_Start_DMA
                0x0000000000000000      0x108 build/stm32l4xx_hal_adc.o
 .text.HAL_ADC_DeInit
                0x0000000000000000      0x1c8 build/stm32l4xx_hal_adc.o
 .text.HAL_ADC_Stop_IT
                0x0000000000000000       0x54 build/stm32l4xx_hal_adc.o
 .text.HAL_ADC_Stop_DMA
                0x0000000000000000       0x82 build/stm32l4xx_hal_adc.o
 .text          0x0000000000000000        0x0 build/stm32l4xx_hal_adc_ex.o
 .data          0x0000000000000000        0x0 build/stm32l4xx_hal_adc_ex.o
 .bss           0x0000000000000000        0x0 build/stm32l4xx_hal_adc_ex.o
 .text.HAL_ADCEx_Calibration_Start
                0x0000000000000000       0x9c build/stm32l4xx_hal_adc_ex.o
 .text.HAL_ADCEx_Calibration_GetValue
                0x0000000000000000       0x16 build/stm32l4xx_hal_adc_ex.o
 .text.HAL_ADCEx_Calibration_SetValue
                0x0000000000000000       0x82 build/stm32l4xx_hal_adc_ex.o
 .text.HAL_ADCEx_InjectedStart
                0x0000000000000000       0xf4 build/stm32l4xx_hal_adc_ex.o
 .text.HAL_ADCEx_InjectedStop
                0x0000000000000000       0x5c build/stm32l4xx_hal_adc_ex.o
 .text.HAL_ADCEx_InjectedPollForConversion
                0x0000000000000000       0xf8 build/stm32l4xx_hal_adc_ex.o
 .text.HAL_ADCEx_InjectedStart_IT
                0x0000000000000000      0x138 build/stm32l4xx_hal_adc_ex.o
 .text.HAL_ADCEx_InjectedStop_IT
                0x0000000000000000       0x66 build/stm32l4xx_hal_adc_ex.o
 .text.HAL_ADCEx_MultiModeStart_DMA
                0x0000000000000000       0xe4 build/stm32l4xx_hal_adc_ex.o
 .text.HAL_ADCEx_MultiModeStop_DMA
                0x0000000000000000      0x104 build/stm32l4xx_hal_adc_ex.o
 .text.HAL_ADCEx_MultiModeGetValue
                0x0000000000000000        0xc build/stm32l4xx_hal_adc_ex.o
 .text.HAL_ADCEx_InjectedGetValue
                0x0000000000000000       0x34 build/stm32l4xx_hal_adc_ex.o
 .text.HAL_ADCEx_InjectedConvCpltCallback
                0x0000000000000000        0x2 build/stm32l4xx_hal_adc_ex.o
 .text.HAL_ADCEx_InjectedQueueOverflowCallback
                0x0000000000000000        0x2 build/stm32l4xx_hal_adc_ex.o
 .text.HAL_ADCEx_LevelOutOfWindow2Callback
                0x0000000000000000        0x2 build/stm32l4xx_hal_adc_ex.o
 .text.HAL_ADCEx_LevelOutOfWindow3Callback
                0x0000000000000000        0x2 build/stm32l4xx_hal_adc_ex.o
 .text.HAL_ADCEx_EndOfSamplingCallback
                0x0000000000000000        0x2 build/stm32l4xx_hal_adc_ex.o
 .text.HAL_ADCEx_RegularStop
                0x0000000000000000       0x62 build/stm32l4xx_hal_adc_ex.o
 .text.HAL_ADCEx_RegularStop_IT
                0x0000000000000000       0x6c build/stm32l4xx_hal_adc_ex.o
 .text.HAL_ADCEx_RegularStop_DMA
                0x0000000000000000       0x92 build/stm32l4xx_hal_adc_ex.o
 .text.HAL_ADCEx_RegularMultiModeStop_DMA
                0x0000000000000000      0x110 build/stm32l4xx_hal_adc_ex.o
 .text.HAL_ADCEx_InjectedConfigChannel
                0x0000000000000000      0x554 build/stm32l4xx_hal_adc_ex.o
 .text.HAL_ADCEx_EnableInjectedQueue
                0x0000000000000000       0x3e build/stm32l4xx_hal_adc_ex.o
 .text.HAL_ADCEx_DisableInjectedQueue
                0x0000000000000000       0x3e build/stm32l4xx_hal_adc_ex.o
 .text.HAL_ADCEx_DisableVoltageRegulator
                0x0000000000000000       0x1e build/stm32l4xx_hal_adc_ex.o
 .text.HAL_ADCEx_EnterADCDeepPowerDownMode
                0x0000000000000000       0x22 build/stm32l4xx_hal_adc_ex.o
 .text          0x0000000000000000        0x0 build/stm32l4xx_ll_usb.o
 .data          0x0000000000000000        0x0 build/stm32l4xx_ll_usb.o
 .bss           0x0000000000000000        0x0 build/stm32l4xx_ll_usb.o
 .text.USB_ActivateDedicatedEndpoint
                0x0000000000000000       0x9a build/stm32l4xx_ll_usb.o
 .text.USB_DeactivateDedicatedEndpoint
                0x0000000000000000       0xa0 build/stm32l4xx_ll_usb.o
 .text.USB_StopDevice
                0x0000000000000000       0x48 build/stm32l4xx_ll_usb.o
 .text.USB_ClearInterrupts
                0x0000000000000000        0x8 build/stm32l4xx_ll_usb.o
 .text.USB_InitFSLSPClkSel
                0x0000000000000000       0x40 build/stm32l4xx_ll_usb.o
 .text.USB_ResetPort
                0x0000000000000000       0x3e build/stm32l4xx_ll_usb.o
 .text.USB_DriveVbus
                0x0000000000000000       0x46 build/stm32l4xx_ll_usb.o
 .text.USB_HostInit
                0x0000000000000000       0xa4 build/stm32l4xx_ll_usb.o
 .text.USB_GetHostSpeed
                0x0000000000000000       0x16 build/stm32l4xx_ll_usb.o
 .text.USB_GetCurrentFrame
                0x0000000000000000        0xa build/stm32l4xx_ll_usb.o
 .text.USB_HC_Init
                0x0000000000000000       0xf4 build/stm32l4xx_ll_usb.o
 .text.USB_HC_StartXfer
                0x0000000000000000      0x110 build/stm32l4xx_ll_usb.o
 .text.USB_HC_ReadInterrupt
                0x0000000000000000        0xa build/stm32l4xx_ll_usb.o
 .text.USB_HC_Halt
                0x0000000000000000       0xd0 build/stm32l4xx_ll_usb.o
 .text.USB_DoPing
                0x0000000000000000       0x24 build/stm32l4xx_ll_usb.o
 .text.USB_StopHost
                0x0000000000000000       0x7e build/stm32l4xx_ll_usb.o
 .text.USB_ActivateRemoteWakeup
                0x0000000000000000       0x1a build/stm32l4xx_ll_usb.o
 .text.USB_DeActivateRemoteWakeup
                0x0000000000000000       0x10 build/stm32l4xx_ll_usb.o
 .bss.tmpreg.9917
                0x0000000000000000        0x4 build/stm32l4xx_ll_usb.o
 .text          0x0000000000000000        0x0 build/usb_device.o
 .data          0x0000000000000000        0x0 build/usb_device.o
 .bss           0x0000000000000000        0x0 build/usb_device.o
 .text          0x0000000000000000        0x0 build/usbd_conf.o
 .data          0x0000000000000000        0x0 build/usbd_conf.o
 .bss           0x0000000000000000        0x0 build/usbd_conf.o
 .text.HAL_PCD_MspDeInit
                0x0000000000000000       0x60 build/usbd_conf.o
 .text.USBD_LL_DeInit
                0x0000000000000000       0x1c build/usbd_conf.o
 .text.USBD_LL_Stop
                0x0000000000000000       0x1c build/usbd_conf.o
 .text.USBD_LL_FlushEP
                0x0000000000000000       0x1c build/usbd_conf.o
 .text.USBD_LL_Delay
                0x0000000000000000        0x8 build/usbd_conf.o
 .text          0x0000000000000000        0x0 build/usbd_desc.o
 .data          0x0000000000000000        0x0 build/usbd_desc.o
 .bss           0x0000000000000000        0x0 build/usbd_desc.o
 .text          0x0000000000000000        0x0 build/usbd_cdc_if.o
 .data          0x0000000000000000        0x0 build/usbd_cdc_if.o
 .bss           0x0000000000000000        0x0 build/usbd_cdc_if.o
 .text          0x0000000000000000        0x0 build/stm32l4xx_hal_pcd.o
 .data          0x0000000000000000        0x0 build/stm32l4xx_hal_pcd.o
 .bss           0x0000000000000000        0x0 build/stm32l4xx_hal_pcd.o
 .text.HAL_PCD_MspInit
                0x0000000000000000        0x2 build/stm32l4xx_hal_pcd.o
 .text.HAL_PCD_MspDeInit
                0x0000000000000000        0x2 build/stm32l4xx_hal_pcd.o
 .text.HAL_PCD_Stop
                0x0000000000000000       0x40 build/stm32l4xx_hal_pcd.o
 .text.HAL_PCD_DeInit
                0x0000000000000000       0x22 build/stm32l4xx_hal_pcd.o
 .text.HAL_PCD_DataOutStageCallback
                0x0000000000000000        0x2 build/stm32l4xx_hal_pcd.o
 .text.HAL_PCD_DataInStageCallback
                0x0000000000000000        0x2 build/stm32l4xx_hal_pcd.o
 .text.HAL_PCD_SetupStageCallback
                0x0000000000000000        0x2 build/stm32l4xx_hal_pcd.o
 .text.HAL_PCD_SOFCallback
                0x0000000000000000        0x2 build/stm32l4xx_hal_pcd.o
 .text.HAL_PCD_ResetCallback
                0x0000000000000000        0x2 build/stm32l4xx_hal_pcd.o
 .text.HAL_PCD_SuspendCallback
                0x0000000000000000        0x2 build/stm32l4xx_hal_pcd.o
 .text.HAL_PCD_ResumeCallback
                0x0000000000000000        0x2 build/stm32l4xx_hal_pcd.o
 .text.HAL_PCD_ISOOUTIncompleteCallback
                0x0000000000000000        0x2 build/stm32l4xx_hal_pcd.o
 .text.HAL_PCD_ISOINIncompleteCallback
                0x0000000000000000        0x2 build/stm32l4xx_hal_pcd.o
 .text.HAL_PCD_ConnectCallback
                0x0000000000000000        0x2 build/stm32l4xx_hal_pcd.o
 .text.HAL_PCD_DisconnectCallback
                0x0000000000000000        0x2 build/stm32l4xx_hal_pcd.o
 .text.HAL_PCD_DevConnect
                0x0000000000000000       0x36 build/stm32l4xx_hal_pcd.o
 .text.HAL_PCD_DevDisconnect
                0x0000000000000000       0x36 build/stm32l4xx_hal_pcd.o
 .text.HAL_PCD_EP_Flush
                0x0000000000000000       0x36 build/stm32l4xx_hal_pcd.o
 .text.HAL_PCD_ActivateRemoteWakeup
                0x0000000000000000        0xa build/stm32l4xx_hal_pcd.o
 .text.HAL_PCD_DeActivateRemoteWakeup
                0x0000000000000000        0xa build/stm32l4xx_hal_pcd.o
 .text.HAL_PCD_GetState
                0x0000000000000000        0x6 build/stm32l4xx_hal_pcd.o
 .text          0x0000000000000000        0x0 build/stm32l4xx_hal_pcd_ex.o
 .data          0x0000000000000000        0x0 build/stm32l4xx_hal_pcd_ex.o
 .bss           0x0000000000000000        0x0 build/stm32l4xx_hal_pcd_ex.o
 .text.HAL_PCDEx_DeActivateLPM
                0x0000000000000000       0x20 build/stm32l4xx_hal_pcd_ex.o
 .text.HAL_PCDEx_ActivateBCD
                0x0000000000000000       0x2c build/stm32l4xx_hal_pcd_ex.o
 .text.HAL_PCDEx_DeActivateBCD
                0x0000000000000000       0x24 build/stm32l4xx_hal_pcd_ex.o
 .text.HAL_PCDEx_LPM_Callback
                0x0000000000000000        0x2 build/stm32l4xx_hal_pcd_ex.o
 .text.HAL_PCDEx_BCD_Callback
                0x0000000000000000        0x2 build/stm32l4xx_hal_pcd_ex.o
 .text.HAL_PCDEx_BCD_VBUSDetect
                0x0000000000000000       0xbe build/stm32l4xx_hal_pcd_ex.o
 .text          0x0000000000000000        0x0 build/usbd_core.o
 .data          0x0000000000000000        0x0 build/usbd_core.o
 .bss           0x0000000000000000        0x0 build/usbd_core.o
 .text.USBD_DeInit
                0x0000000000000000       0x24 build/usbd_core.o
 .text.USBD_Stop
                0x0000000000000000       0x18 build/usbd_core.o
 .text.USBD_RunTestMode
                0x0000000000000000        0x4 build/usbd_core.o
 .text          0x0000000000000000        0x0 build/usbd_ctlreq.o
 .data          0x0000000000000000        0x0 build/usbd_ctlreq.o
 .bss           0x0000000000000000        0x0 build/usbd_ctlreq.o
 .text          0x0000000000000000        0x0 build/usbd_ioreq.o
 .data          0x0000000000000000        0x0 build/usbd_ioreq.o
 .bss           0x0000000000000000        0x0 build/usbd_ioreq.o
 .text.USBD_GetRxCount
                0x0000000000000000        0x8 build/usbd_ioreq.o
 .text          0x0000000000000000        0x0 build/usbd_cdc.o
 .data          0x0000000000000000        0x0 build/usbd_cdc.o
 .bss           0x0000000000000000        0x0 build/usbd_cdc.o
 .text          0x0000000000000000        0x0 build/shell.o
 .data          0x0000000000000000        0x0 build/shell.o
 .bss           0x0000000000000000        0x0 build/shell.o
 .text.testFn   0x0000000000000000       0x10 build/shell.o
 .text.Shell_Init
                0x0000000000000000        0x2 build/shell.o
 .bss.ShellCommandStarted
                0x0000000000000000        0x1 build/shell.o
 .rodata.ShellCommands
                0x0000000000000000        0xc build/shell.o
 .rodata.testFn.str1.4
                0x0000000000000000        0x5 build/shell.o
 .text          0x0000000000000000        0x0 build/accelerometer.o
 .data          0x0000000000000000        0x0 build/accelerometer.o
 .bss           0x0000000000000000        0x0 build/accelerometer.o
 .text.Accelerometer_Init
                0x0000000000000000        0x2 build/accelerometer.o
 .debug_info    0x0000000000000000       0x3f build/accelerometer.o
 .debug_abbrev  0x0000000000000000       0x2e build/accelerometer.o
 .debug_aranges
                0x0000000000000000       0x20 build/accelerometer.o
 .debug_ranges  0x0000000000000000       0x10 build/accelerometer.o
 .debug_line    0x0000000000000000       0x42 build/accelerometer.o
 .debug_str     0x0000000000000000      0x115 build/accelerometer.o
 .comment       0x0000000000000000       0x80 build/accelerometer.o
 .debug_frame   0x0000000000000000       0x20 build/accelerometer.o
 .ARM.attributes
                0x0000000000000000       0x39 build/accelerometer.o
 .text          0x0000000000000000        0x0 build/sw_timers.o
 .data          0x0000000000000000        0x0 build/sw_timers.o
 .bss           0x0000000000000000        0x0 build/sw_timers.o
 .text.SwTimer_Unlist
                0x0000000000000000       0x58 build/sw_timers.o
 .text.SwTimer_ProcessTimers
                0x0000000000000000       0x3c build/sw_timers.o
 .text.SwTimer_Start
                0x0000000000000000       0x3c build/sw_timers.o
 .text.SwTimer_Stop
                0x0000000000000000        0xc build/sw_timers.o
 .text.SwTimer_ISR
                0x0000000000000000       0x14 build/sw_timers.o
 .bss.counterMs
                0x0000000000000000        0x4 build/sw_timers.o
 .bss.timerListHead
                0x0000000000000000        0x4 build/sw_timers.o
 .bss.timerListTail
                0x0000000000000000        0x4 build/sw_timers.o
 .debug_info    0x0000000000000000      0x577 build/sw_timers.o
 .debug_abbrev  0x0000000000000000      0x279 build/sw_timers.o
 .debug_loc     0x0000000000000000      0x1a2 build/sw_timers.o
 .debug_aranges
                0x0000000000000000       0x40 build/sw_timers.o
 .debug_ranges  0x0000000000000000       0x48 build/sw_timers.o
 .debug_line    0x0000000000000000      0x2c9 build/sw_timers.o
 .debug_str     0x0000000000000000      0x4c9 build/sw_timers.o
 .comment       0x0000000000000000       0x80 build/sw_timers.o
 .debug_frame   0x0000000000000000       0x9c build/sw_timers.o
 .ARM.attributes
                0x0000000000000000       0x39 build/sw_timers.o
 .text          0x0000000000000000        0x0 build/addressable_led_driver.o
 .data          0x0000000000000000        0x0 build/addressable_led_driver.o
 .bss           0x0000000000000000        0x0 build/addressable_led_driver.o
 .text.AddrLED_Init
                0x0000000000000000       0x54 build/addressable_led_driver.o
 .text.AddrLED_SanityTest
                0x0000000000000000       0xac build/addressable_led_driver.o
 .text.AddrLED_StartPWM
                0x0000000000000000       0x10 build/addressable_led_driver.o
 .text.AddrLED_StopPWM
                0x0000000000000000       0x10 build/addressable_led_driver.o
 .text.AddrLED_DisplayStrip
                0x0000000000000000       0xb8 build/addressable_led_driver.o
 .text.AddrLED_SendReset
                0x0000000000000000        0xa build/addressable_led_driver.o
 .text.AddrLED_NaiveISR
                0x0000000000000000       0x10 build/addressable_led_driver.o
 .debug_info    0x0000000000000000     0x17df build/addressable_led_driver.o
 .debug_abbrev  0x0000000000000000      0x2f5 build/addressable_led_driver.o
 .debug_loc     0x0000000000000000      0x470 build/addressable_led_driver.o
 .debug_aranges
                0x0000000000000000       0x50 build/addressable_led_driver.o
 .debug_ranges  0x0000000000000000       0xd0 build/addressable_led_driver.o
 .debug_line    0x0000000000000000      0x427 build/addressable_led_driver.o
 .debug_str     0x0000000000000000      0xe23 build/addressable_led_driver.o
 .comment       0x0000000000000000       0x80 build/addressable_led_driver.o
 .debug_frame   0x0000000000000000       0xec build/addressable_led_driver.o
 .ARM.attributes
                0x0000000000000000       0x39 build/addressable_led_driver.o
 COMMON         0x0000000000000000        0x8 build/addressable_led_driver.o
 .text          0x0000000000000000        0x0 build/addressable_led_manager.o
 .data          0x0000000000000000        0x0 build/addressable_led_manager.o
 .bss           0x0000000000000000        0x0 build/addressable_led_manager.o
 .text.InitPanel
                0x0000000000000000       0x44 build/addressable_led_manager.o
 .text.AddrLEDManager_RefreshCallback
                0x0000000000000000       0x28 build/addressable_led_manager.o
 .text.AddrLEDManager_Init
                0x0000000000000000       0xcc build/addressable_led_manager.o
 .text.GetPixelByGlobalCoordinate
                0x0000000000000000        0x4 build/addressable_led_manager.o
 .text.AddrLEDManager_RefreshTimerStart
                0x0000000000000000       0x10 build/addressable_led_manager.o
 .text.AddrLEDManager_SanityTest
                0x0000000000000000       0x84 build/addressable_led_manager.o
 .rodata        0x0000000000000000       0x14 build/addressable_led_manager.o
 .rodata.ledStrip1Size
                0x0000000000000000        0x2 build/addressable_led_manager.o
 .text          0x0000000000000000        0x0 build/utils.o
 .data          0x0000000000000000        0x0 build/utils.o
 .bss           0x0000000000000000        0x0 build/utils.o
 .text          0x0000000000000000        0x0 build/dma.o
 .data          0x0000000000000000        0x0 build/dma.o
 .bss           0x0000000000000000        0x0 build/dma.o
 .text          0x0000000000000000        0x0 build/tim.o
 .data          0x0000000000000000        0x0 build/tim.o
 .bss           0x0000000000000000        0x0 build/tim.o
 .text.HAL_TIM_PWM_MspDeInit
                0x0000000000000000       0x30 build/tim.o
 .text          0x0000000000000000        0x0 build/random_fade_animation.o
 .data          0x0000000000000000        0x0 build/random_fade_animation.o
 .bss           0x0000000000000000        0x0 build/random_fade_animation.o
 .text          0x0000000000000000        0x0 build/random_triangles_animation.o
 .data          0x0000000000000000        0x0 build/random_triangles_animation.o
 .bss           0x0000000000000000        0x0 build/random_triangles_animation.o
 .text          0x0000000000000000        0x0 build/color.o
 .data          0x0000000000000000        0x0 build/color.o
 .bss           0x0000000000000000        0x0 build/color.o
 .text          0x0000000000000000       0x14 build/startup_stm32l476xx.o
 .data          0x0000000000000000        0x0 build/startup_stm32l476xx.o
 .bss           0x0000000000000000        0x0 build/startup_stm32l476xx.o
 .text          0x0000000000000000        0x0 /home/jon/KODMOD/EMBEDDED_TOOLCHAINS/gcc-arm-none-eabi-7-2018-q2-update/bin/../lib/gcc/arm-none-eabi/7.3.1/../../../../arm-none-eabi/lib/thumb/v7e-m/fpv4-sp/hard/libc_nano.a(lib_a-exit.o)
 .data          0x0000000000000000        0x0 /home/jon/KODMOD/EMBEDDED_TOOLCHAINS/gcc-arm-none-eabi-7-2018-q2-update/bin/../lib/gcc/arm-none-eabi/7.3.1/../../../../arm-none-eabi/lib/thumb/v7e-m/fpv4-sp/hard/libc_nano.a(lib_a-exit.o)
 .bss           0x0000000000000000        0x0 /home/jon/KODMOD/EMBEDDED_TOOLCHAINS/gcc-arm-none-eabi-7-2018-q2-update/bin/../lib/gcc/arm-none-eabi/7.3.1/../../../../arm-none-eabi/lib/thumb/v7e-m/fpv4-sp/hard/libc_nano.a(lib_a-exit.o)
 .text.exit     0x0000000000000000       0x28 /home/jon/KODMOD/EMBEDDED_TOOLCHAINS/gcc-arm-none-eabi-7-2018-q2-update/bin/../lib/gcc/arm-none-eabi/7.3.1/../../../../arm-none-eabi/lib/thumb/v7e-m/fpv4-sp/hard/libc_nano.a(lib_a-exit.o)
 .debug_frame   0x0000000000000000       0x28 /home/jon/KODMOD/EMBEDDED_TOOLCHAINS/gcc-arm-none-eabi-7-2018-q2-update/bin/../lib/gcc/arm-none-eabi/7.3.1/../../../../arm-none-eabi/lib/thumb/v7e-m/fpv4-sp/hard/libc_nano.a(lib_a-exit.o)
 .ARM.attributes
                0x0000000000000000       0x34 /home/jon/KODMOD/EMBEDDED_TOOLCHAINS/gcc-arm-none-eabi-7-2018-q2-update/bin/../lib/gcc/arm-none-eabi/7.3.1/../../../../arm-none-eabi/lib/thumb/v7e-m/fpv4-sp/hard/libc_nano.a(lib_a-exit.o)
 .text          0x0000000000000000        0x0 /home/jon/KODMOD/EMBEDDED_TOOLCHAINS/gcc-arm-none-eabi-7-2018-q2-update/bin/../lib/gcc/arm-none-eabi/7.3.1/../../../../arm-none-eabi/lib/thumb/v7e-m/fpv4-sp/hard/libc_nano.a(lib_a-impure.o)
 .data          0x0000000000000000        0x0 /home/jon/KODMOD/EMBEDDED_TOOLCHAINS/gcc-arm-none-eabi-7-2018-q2-update/bin/../lib/gcc/arm-none-eabi/7.3.1/../../../../arm-none-eabi/lib/thumb/v7e-m/fpv4-sp/hard/libc_nano.a(lib_a-impure.o)
 .bss           0x0000000000000000        0x0 /home/jon/KODMOD/EMBEDDED_TOOLCHAINS/gcc-arm-none-eabi-7-2018-q2-update/bin/../lib/gcc/arm-none-eabi/7.3.1/../../../../arm-none-eabi/lib/thumb/v7e-m/fpv4-sp/hard/libc_nano.a(lib_a-impure.o)
 .rodata._global_impure_ptr
                0x0000000000000000        0x4 /home/jon/KODMOD/EMBEDDED_TOOLCHAINS/gcc-arm-none-eabi-7-2018-q2-update/bin/../lib/gcc/arm-none-eabi/7.3.1/../../../../arm-none-eabi/lib/thumb/v7e-m/fpv4-sp/hard/libc_nano.a(lib_a-impure.o)
 .text          0x0000000000000000        0x0 /home/jon/KODMOD/EMBEDDED_TOOLCHAINS/gcc-arm-none-eabi-7-2018-q2-update/bin/../lib/gcc/arm-none-eabi/7.3.1/../../../../arm-none-eabi/lib/thumb/v7e-m/fpv4-sp/hard/libc_nano.a(lib_a-init.o)
 .data          0x0000000000000000        0x0 /home/jon/KODMOD/EMBEDDED_TOOLCHAINS/gcc-arm-none-eabi-7-2018-q2-update/bin/../lib/gcc/arm-none-eabi/7.3.1/../../../../arm-none-eabi/lib/thumb/v7e-m/fpv4-sp/hard/libc_nano.a(lib_a-init.o)
 .bss           0x0000000000000000        0x0 /home/jon/KODMOD/EMBEDDED_TOOLCHAINS/gcc-arm-none-eabi-7-2018-q2-update/bin/../lib/gcc/arm-none-eabi/7.3.1/../../../../arm-none-eabi/lib/thumb/v7e-m/fpv4-sp/hard/libc_nano.a(lib_a-init.o)
 .text          0x0000000000000000        0x0 /home/jon/KODMOD/EMBEDDED_TOOLCHAINS/gcc-arm-none-eabi-7-2018-q2-update/bin/../lib/gcc/arm-none-eabi/7.3.1/../../../../arm-none-eabi/lib/thumb/v7e-m/fpv4-sp/hard/libc_nano.a(lib_a-memset.o)
 .data          0x0000000000000000        0x0 /home/jon/KODMOD/EMBEDDED_TOOLCHAINS/gcc-arm-none-eabi-7-2018-q2-update/bin/../lib/gcc/arm-none-eabi/7.3.1/../../../../arm-none-eabi/lib/thumb/v7e-m/fpv4-sp/hard/libc_nano.a(lib_a-memset.o)
 .bss           0x0000000000000000        0x0 /home/jon/KODMOD/EMBEDDED_TOOLCHAINS/gcc-arm-none-eabi-7-2018-q2-update/bin/../lib/gcc/arm-none-eabi/7.3.1/../../../../arm-none-eabi/lib/thumb/v7e-m/fpv4-sp/hard/libc_nano.a(lib_a-memset.o)
 .text          0x0000000000000000        0x0 /home/jon/KODMOD/EMBEDDED_TOOLCHAINS/gcc-arm-none-eabi-7-2018-q2-update/bin/../lib/gcc/arm-none-eabi/7.3.1/../../../../arm-none-eabi/lib/thumb/v7e-m/fpv4-sp/hard/libc_nano.a(lib_a-rand.o)
 .data          0x0000000000000000        0x0 /home/jon/KODMOD/EMBEDDED_TOOLCHAINS/gcc-arm-none-eabi-7-2018-q2-update/bin/../lib/gcc/arm-none-eabi/7.3.1/../../../../arm-none-eabi/lib/thumb/v7e-m/fpv4-sp/hard/libc_nano.a(lib_a-rand.o)
 .bss           0x0000000000000000        0x0 /home/jon/KODMOD/EMBEDDED_TOOLCHAINS/gcc-arm-none-eabi-7-2018-q2-update/bin/../lib/gcc/arm-none-eabi/7.3.1/../../../../arm-none-eabi/lib/thumb/v7e-m/fpv4-sp/hard/libc_nano.a(lib_a-rand.o)
 .text.srand    0x0000000000000000       0x48 /home/jon/KODMOD/EMBEDDED_TOOLCHAINS/gcc-arm-none-eabi-7-2018-q2-update/bin/../lib/gcc/arm-none-eabi/7.3.1/../../../../arm-none-eabi/lib/thumb/v7e-m/fpv4-sp/hard/libc_nano.a(lib_a-rand.o)
 .text          0x0000000000000000        0x0 /home/jon/KODMOD/EMBEDDED_TOOLCHAINS/gcc-arm-none-eabi-7-2018-q2-update/bin/../lib/gcc/arm-none-eabi/7.3.1/../../../../arm-none-eabi/lib/thumb/v7e-m/fpv4-sp/hard/libc_nano.a(lib_a-sprintf.o)
 .data          0x0000000000000000        0x0 /home/jon/KODMOD/EMBEDDED_TOOLCHAINS/gcc-arm-none-eabi-7-2018-q2-update/bin/../lib/gcc/arm-none-eabi/7.3.1/../../../../arm-none-eabi/lib/thumb/v7e-m/fpv4-sp/hard/libc_nano.a(lib_a-sprintf.o)
 .bss           0x0000000000000000        0x0 /home/jon/KODMOD/EMBEDDED_TOOLCHAINS/gcc-arm-none-eabi-7-2018-q2-update/bin/../lib/gcc/arm-none-eabi/7.3.1/../../../../arm-none-eabi/lib/thumb/v7e-m/fpv4-sp/hard/libc_nano.a(lib_a-sprintf.o)
 .text._sprintf_r
                0x0000000000000000       0x38 /home/jon/KODMOD/EMBEDDED_TOOLCHAINS/gcc-arm-none-eabi-7-2018-q2-update/bin/../lib/gcc/arm-none-eabi/7.3.1/../../../../arm-none-eabi/lib/thumb/v7e-m/fpv4-sp/hard/libc_nano.a(lib_a-sprintf.o)
 .data          0x0000000000000000        0x0 /home/jon/KODMOD/EMBEDDED_TOOLCHAINS/gcc-arm-none-eabi-7-2018-q2-update/bin/../lib/gcc/arm-none-eabi/7.3.1/../../../../arm-none-eabi/lib/thumb/v7e-m/fpv4-sp/hard/libc_nano.a(lib_a-strlen.o)
 .bss           0x0000000000000000        0x0 /home/jon/KODMOD/EMBEDDED_TOOLCHAINS/gcc-arm-none-eabi-7-2018-q2-update/bin/../lib/gcc/arm-none-eabi/7.3.1/../../../../arm-none-eabi/lib/thumb/v7e-m/fpv4-sp/hard/libc_nano.a(lib_a-strlen.o)
 .text          0x0000000000000000        0x0 /home/jon/KODMOD/EMBEDDED_TOOLCHAINS/gcc-arm-none-eabi-7-2018-q2-update/bin/../lib/gcc/arm-none-eabi/7.3.1/../../../../arm-none-eabi/lib/thumb/v7e-m/fpv4-sp/hard/libc_nano.a(lib_a-strncmp.o)
 .data          0x0000000000000000        0x0 /home/jon/KODMOD/EMBEDDED_TOOLCHAINS/gcc-arm-none-eabi-7-2018-q2-update/bin/../lib/gcc/arm-none-eabi/7.3.1/../../../../arm-none-eabi/lib/thumb/v7e-m/fpv4-sp/hard/libc_nano.a(lib_a-strncmp.o)
 .bss           0x0000000000000000        0x0 /home/jon/KODMOD/EMBEDDED_TOOLCHAINS/gcc-arm-none-eabi-7-2018-q2-update/bin/../lib/gcc/arm-none-eabi/7.3.1/../../../../arm-none-eabi/lib/thumb/v7e-m/fpv4-sp/hard/libc_nano.a(lib_a-strncmp.o)
 .text          0x0000000000000000        0x0 /home/jon/KODMOD/EMBEDDED_TOOLCHAINS/gcc-arm-none-eabi-7-2018-q2-update/bin/../lib/gcc/arm-none-eabi/7.3.1/../../../../arm-none-eabi/lib/thumb/v7e-m/fpv4-sp/hard/libc_nano.a(lib_a-malloc.o)
 .data          0x0000000000000000        0x0 /home/jon/KODMOD/EMBEDDED_TOOLCHAINS/gcc-arm-none-eabi-7-2018-q2-update/bin/../lib/gcc/arm-none-eabi/7.3.1/../../../../arm-none-eabi/lib/thumb/v7e-m/fpv4-sp/hard/libc_nano.a(lib_a-malloc.o)
 .bss           0x0000000000000000        0x0 /home/jon/KODMOD/EMBEDDED_TOOLCHAINS/gcc-arm-none-eabi-7-2018-q2-update/bin/../lib/gcc/arm-none-eabi/7.3.1/../../../../arm-none-eabi/lib/thumb/v7e-m/fpv4-sp/hard/libc_nano.a(lib_a-malloc.o)
 .text.free     0x0000000000000000       0x10 /home/jon/KODMOD/EMBEDDED_TOOLCHAINS/gcc-arm-none-eabi-7-2018-q2-update/bin/../lib/gcc/arm-none-eabi/7.3.1/../../../../arm-none-eabi/lib/thumb/v7e-m/fpv4-sp/hard/libc_nano.a(lib_a-malloc.o)
 .text          0x0000000000000000        0x0 /home/jon/KODMOD/EMBEDDED_TOOLCHAINS/gcc-arm-none-eabi-7-2018-q2-update/bin/../lib/gcc/arm-none-eabi/7.3.1/../../../../arm-none-eabi/lib/thumb/v7e-m/fpv4-sp/hard/libc_nano.a(lib_a-nano-freer.o)
 .data          0x0000000000000000        0x0 /home/jon/KODMOD/EMBEDDED_TOOLCHAINS/gcc-arm-none-eabi-7-2018-q2-update/bin/../lib/gcc/arm-none-eabi/7.3.1/../../../../arm-none-eabi/lib/thumb/v7e-m/fpv4-sp/hard/libc_nano.a(lib_a-nano-freer.o)
 .bss           0x0000000000000000        0x0 /home/jon/KODMOD/EMBEDDED_TOOLCHAINS/gcc-arm-none-eabi-7-2018-q2-update/bin/../lib/gcc/arm-none-eabi/7.3.1/../../../../arm-none-eabi/lib/thumb/v7e-m/fpv4-sp/hard/libc_nano.a(lib_a-nano-freer.o)
 .text          0x0000000000000000        0x0 /home/jon/KODMOD/EMBEDDED_TOOLCHAINS/gcc-arm-none-eabi-7-2018-q2-update/bin/../lib/gcc/arm-none-eabi/7.3.1/../../../../arm-none-eabi/lib/thumb/v7e-m/fpv4-sp/hard/libc_nano.a(lib_a-nano-mallocr.o)
 .data          0x0000000000000000        0x0 /home/jon/KODMOD/EMBEDDED_TOOLCHAINS/gcc-arm-none-eabi-7-2018-q2-update/bin/../lib/gcc/arm-none-eabi/7.3.1/../../../../arm-none-eabi/lib/thumb/v7e-m/fpv4-sp/hard/libc_nano.a(lib_a-nano-mallocr.o)
 .bss           0x0000000000000000        0x0 /home/jon/KODMOD/EMBEDDED_TOOLCHAINS/gcc-arm-none-eabi-7-2018-q2-update/bin/../lib/gcc/arm-none-eabi/7.3.1/../../../../arm-none-eabi/lib/thumb/v7e-m/fpv4-sp/hard/libc_nano.a(lib_a-nano-mallocr.o)
 .text          0x0000000000000000        0x0 /home/jon/KODMOD/EMBEDDED_TOOLCHAINS/gcc-arm-none-eabi-7-2018-q2-update/bin/../lib/gcc/arm-none-eabi/7.3.1/../../../../arm-none-eabi/lib/thumb/v7e-m/fpv4-sp/hard/libc_nano.a(lib_a-nano-svfprintf.o)
 .data          0x0000000000000000        0x0 /home/jon/KODMOD/EMBEDDED_TOOLCHAINS/gcc-arm-none-eabi-7-2018-q2-update/bin/../lib/gcc/arm-none-eabi/7.3.1/../../../../arm-none-eabi/lib/thumb/v7e-m/fpv4-sp/hard/libc_nano.a(lib_a-nano-svfprintf.o)
 .bss           0x0000000000000000        0x0 /home/jon/KODMOD/EMBEDDED_TOOLCHAINS/gcc-arm-none-eabi-7-2018-q2-update/bin/../lib/gcc/arm-none-eabi/7.3.1/../../../../arm-none-eabi/lib/thumb/v7e-m/fpv4-sp/hard/libc_nano.a(lib_a-nano-svfprintf.o)
 .text.__ssprint_r
                0x0000000000000000       0xf0 /home/jon/KODMOD/EMBEDDED_TOOLCHAINS/gcc-arm-none-eabi-7-2018-q2-update/bin/../lib/gcc/arm-none-eabi/7.3.1/../../../../arm-none-eabi/lib/thumb/v7e-m/fpv4-sp/hard/libc_nano.a(lib_a-nano-svfprintf.o)
 .text          0x0000000000000000        0x0 /home/jon/KODMOD/EMBEDDED_TOOLCHAINS/gcc-arm-none-eabi-7-2018-q2-update/bin/../lib/gcc/arm-none-eabi/7.3.1/../../../../arm-none-eabi/lib/thumb/v7e-m/fpv4-sp/hard/libc_nano.a(lib_a-nano-vfprintf_i.o)
 .data          0x0000000000000000        0x0 /home/jon/KODMOD/EMBEDDED_TOOLCHAINS/gcc-arm-none-eabi-7-2018-q2-update/bin/../lib/gcc/arm-none-eabi/7.3.1/../../../../arm-none-eabi/lib/thumb/v7e-m/fpv4-sp/hard/libc_nano.a(lib_a-nano-vfprintf_i.o)
 .bss           0x0000000000000000        0x0 /home/jon/KODMOD/EMBEDDED_TOOLCHAINS/gcc-arm-none-eabi-7-2018-q2-update/bin/../lib/gcc/arm-none-eabi/7.3.1/../../../../arm-none-eabi/lib/thumb/v7e-m/fpv4-sp/hard/libc_nano.a(lib_a-nano-vfprintf_i.o)
 .text          0x0000000000000000        0x0 /home/jon/KODMOD/EMBEDDED_TOOLCHAINS/gcc-arm-none-eabi-7-2018-q2-update/bin/../lib/gcc/arm-none-eabi/7.3.1/../../../../arm-none-eabi/lib/thumb/v7e-m/fpv4-sp/hard/libc_nano.a(lib_a-sbrkr.o)
 .data          0x0000000000000000        0x0 /home/jon/KODMOD/EMBEDDED_TOOLCHAINS/gcc-arm-none-eabi-7-2018-q2-update/bin/../lib/gcc/arm-none-eabi/7.3.1/../../../../arm-none-eabi/lib/thumb/v7e-m/fpv4-sp/hard/libc_nano.a(lib_a-sbrkr.o)
 .bss           0x0000000000000000        0x0 /home/jon/KODMOD/EMBEDDED_TOOLCHAINS/gcc-arm-none-eabi-7-2018-q2-update/bin/../lib/gcc/arm-none-eabi/7.3.1/../../../../arm-none-eabi/lib/thumb/v7e-m/fpv4-sp/hard/libc_nano.a(lib_a-sbrkr.o)
 .data          0x0000000000000000        0x0 /home/jon/KODMOD/EMBEDDED_TOOLCHAINS/gcc-arm-none-eabi-7-2018-q2-update/bin/../lib/gcc/arm-none-eabi/7.3.1/../../../../arm-none-eabi/lib/thumb/v7e-m/fpv4-sp/hard/libc_nano.a(lib_a-memchr.o)
 .bss           0x0000000000000000        0x0 /home/jon/KODMOD/EMBEDDED_TOOLCHAINS/gcc-arm-none-eabi-7-2018-q2-update/bin/../lib/gcc/arm-none-eabi/7.3.1/../../../../arm-none-eabi/lib/thumb/v7e-m/fpv4-sp/hard/libc_nano.a(lib_a-memchr.o)
 .text          0x0000000000000000        0x0 /home/jon/KODMOD/EMBEDDED_TOOLCHAINS/gcc-arm-none-eabi-7-2018-q2-update/bin/../lib/gcc/arm-none-eabi/7.3.1/../../../../arm-none-eabi/lib/thumb/v7e-m/fpv4-sp/hard/libc_nano.a(lib_a-memcpy-stub.o)
 .data          0x0000000000000000        0x0 /home/jon/KODMOD/EMBEDDED_TOOLCHAINS/gcc-arm-none-eabi-7-2018-q2-update/bin/../lib/gcc/arm-none-eabi/7.3.1/../../../../arm-none-eabi/lib/thumb/v7e-m/fpv4-sp/hard/libc_nano.a(lib_a-memcpy-stub.o)
 .bss           0x0000000000000000        0x0 /home/jon/KODMOD/EMBEDDED_TOOLCHAINS/gcc-arm-none-eabi-7-2018-q2-update/bin/../lib/gcc/arm-none-eabi/7.3.1/../../../../arm-none-eabi/lib/thumb/v7e-m/fpv4-sp/hard/libc_nano.a(lib_a-memcpy-stub.o)
 .text          0x0000000000000000        0x0 /home/jon/KODMOD/EMBEDDED_TOOLCHAINS/gcc-arm-none-eabi-7-2018-q2-update/bin/../lib/gcc/arm-none-eabi/7.3.1/../../../../arm-none-eabi/lib/thumb/v7e-m/fpv4-sp/hard/libc_nano.a(lib_a-memmove.o)
 .data          0x0000000000000000        0x0 /home/jon/KODMOD/EMBEDDED_TOOLCHAINS/gcc-arm-none-eabi-7-2018-q2-update/bin/../lib/gcc/arm-none-eabi/7.3.1/../../../../arm-none-eabi/lib/thumb/v7e-m/fpv4-sp/hard/libc_nano.a(lib_a-memmove.o)
 .bss           0x0000000000000000        0x0 /home/jon/KODMOD/EMBEDDED_TOOLCHAINS/gcc-arm-none-eabi-7-2018-q2-update/bin/../lib/gcc/arm-none-eabi/7.3.1/../../../../arm-none-eabi/lib/thumb/v7e-m/fpv4-sp/hard/libc_nano.a(lib_a-memmove.o)
 .text          0x0000000000000000        0x0 /home/jon/KODMOD/EMBEDDED_TOOLCHAINS/gcc-arm-none-eabi-7-2018-q2-update/bin/../lib/gcc/arm-none-eabi/7.3.1/../../../../arm-none-eabi/lib/thumb/v7e-m/fpv4-sp/hard/libc_nano.a(lib_a-mlock.o)
 .data          0x0000000000000000        0x0 /home/jon/KODMOD/EMBEDDED_TOOLCHAINS/gcc-arm-none-eabi-7-2018-q2-update/bin/../lib/gcc/arm-none-eabi/7.3.1/../../../../arm-none-eabi/lib/thumb/v7e-m/fpv4-sp/hard/libc_nano.a(lib_a-mlock.o)
 .bss           0x0000000000000000        0x0 /home/jon/KODMOD/EMBEDDED_TOOLCHAINS/gcc-arm-none-eabi-7-2018-q2-update/bin/../lib/gcc/arm-none-eabi/7.3.1/../../../../arm-none-eabi/lib/thumb/v7e-m/fpv4-sp/hard/libc_nano.a(lib_a-mlock.o)
 .text          0x0000000000000000        0x0 /home/jon/KODMOD/EMBEDDED_TOOLCHAINS/gcc-arm-none-eabi-7-2018-q2-update/bin/../lib/gcc/arm-none-eabi/7.3.1/../../../../arm-none-eabi/lib/thumb/v7e-m/fpv4-sp/hard/libc_nano.a(lib_a-nano-reallocr.o)
 .data          0x0000000000000000        0x0 /home/jon/KODMOD/EMBEDDED_TOOLCHAINS/gcc-arm-none-eabi-7-2018-q2-update/bin/../lib/gcc/arm-none-eabi/7.3.1/../../../../arm-none-eabi/lib/thumb/v7e-m/fpv4-sp/hard/libc_nano.a(lib_a-nano-reallocr.o)
 .bss           0x0000000000000000        0x0 /home/jon/KODMOD/EMBEDDED_TOOLCHAINS/gcc-arm-none-eabi-7-2018-q2-update/bin/../lib/gcc/arm-none-eabi/7.3.1/../../../../arm-none-eabi/lib/thumb/v7e-m/fpv4-sp/hard/libc_nano.a(lib_a-nano-reallocr.o)
 .text          0x0000000000000000        0x0 /home/jon/KODMOD/EMBEDDED_TOOLCHAINS/gcc-arm-none-eabi-7-2018-q2-update/bin/../lib/gcc/arm-none-eabi/7.3.1/../../../../arm-none-eabi/lib/thumb/v7e-m/fpv4-sp/hard/libc_nano.a(lib_a-reent.o)
 .data          0x0000000000000000        0x0 /home/jon/KODMOD/EMBEDDED_TOOLCHAINS/gcc-arm-none-eabi-7-2018-q2-update/bin/../lib/gcc/arm-none-eabi/7.3.1/../../../../arm-none-eabi/lib/thumb/v7e-m/fpv4-sp/hard/libc_nano.a(lib_a-reent.o)
 .bss           0x0000000000000000        0x0 /home/jon/KODMOD/EMBEDDED_TOOLCHAINS/gcc-arm-none-eabi-7-2018-q2-update/bin/../lib/gcc/arm-none-eabi/7.3.1/../../../../arm-none-eabi/lib/thumb/v7e-m/fpv4-sp/hard/libc_nano.a(lib_a-reent.o)
 .text.cleanup_glue
                0x0000000000000000       0x1a /home/jon/KODMOD/EMBEDDED_TOOLCHAINS/gcc-arm-none-eabi-7-2018-q2-update/bin/../lib/gcc/arm-none-eabi/7.3.1/../../../../arm-none-eabi/lib/thumb/v7e-m/fpv4-sp/hard/libc_nano.a(lib_a-reent.o)
 .text._reclaim_reent
                0x0000000000000000       0xb8 /home/jon/KODMOD/EMBEDDED_TOOLCHAINS/gcc-arm-none-eabi-7-2018-q2-update/bin/../lib/gcc/arm-none-eabi/7.3.1/../../../../arm-none-eabi/lib/thumb/v7e-m/fpv4-sp/hard/libc_nano.a(lib_a-reent.o)
 .text          0x0000000000000000        0x0 /home/jon/KODMOD/EMBEDDED_TOOLCHAINS/gcc-arm-none-eabi-7-2018-q2-update/bin/../lib/gcc/arm-none-eabi/7.3.1/../../../../arm-none-eabi/lib/thumb/v7e-m/fpv4-sp/hard/libc_nano.a(lib_a-nano-msizer.o)
 .data          0x0000000000000000        0x0 /home/jon/KODMOD/EMBEDDED_TOOLCHAINS/gcc-arm-none-eabi-7-2018-q2-update/bin/../lib/gcc/arm-none-eabi/7.3.1/../../../../arm-none-eabi/lib/thumb/v7e-m/fpv4-sp/hard/libc_nano.a(lib_a-nano-msizer.o)
 .bss           0x0000000000000000        0x0 /home/jon/KODMOD/EMBEDDED_TOOLCHAINS/gcc-arm-none-eabi-7-2018-q2-update/bin/../lib/gcc/arm-none-eabi/7.3.1/../../../../arm-none-eabi/lib/thumb/v7e-m/fpv4-sp/hard/libc_nano.a(lib_a-nano-msizer.o)
 .text          0x0000000000000000        0x0 /home/jon/KODMOD/EMBEDDED_TOOLCHAINS/gcc-arm-none-eabi-7-2018-q2-update/bin/../lib/gcc/arm-none-eabi/7.3.1/../../../../arm-none-eabi/lib/thumb/v7e-m/fpv4-sp/hard/libm.a(lib_a-w_fmod.o)
 .data          0x0000000000000000        0x0 /home/jon/KODMOD/EMBEDDED_TOOLCHAINS/gcc-arm-none-eabi-7-2018-q2-update/bin/../lib/gcc/arm-none-eabi/7.3.1/../../../../arm-none-eabi/lib/thumb/v7e-m/fpv4-sp/hard/libm.a(lib_a-w_fmod.o)
 .bss           0x0000000000000000        0x0 /home/jon/KODMOD/EMBEDDED_TOOLCHAINS/gcc-arm-none-eabi-7-2018-q2-update/bin/../lib/gcc/arm-none-eabi/7.3.1/../../../../arm-none-eabi/lib/thumb/v7e-m/fpv4-sp/hard/libm.a(lib_a-w_fmod.o)
 .text          0x0000000000000000        0x0 /home/jon/KODMOD/EMBEDDED_TOOLCHAINS/gcc-arm-none-eabi-7-2018-q2-update/bin/../lib/gcc/arm-none-eabi/7.3.1/../../../../arm-none-eabi/lib/thumb/v7e-m/fpv4-sp/hard/libm.a(lib_a-e_fmod.o)
 .data          0x0000000000000000        0x0 /home/jon/KODMOD/EMBEDDED_TOOLCHAINS/gcc-arm-none-eabi-7-2018-q2-update/bin/../lib/gcc/arm-none-eabi/7.3.1/../../../../arm-none-eabi/lib/thumb/v7e-m/fpv4-sp/hard/libm.a(lib_a-e_fmod.o)
 .bss           0x0000000000000000        0x0 /home/jon/KODMOD/EMBEDDED_TOOLCHAINS/gcc-arm-none-eabi-7-2018-q2-update/bin/../lib/gcc/arm-none-eabi/7.3.1/../../../../arm-none-eabi/lib/thumb/v7e-m/fpv4-sp/hard/libm.a(lib_a-e_fmod.o)
 .text          0x0000000000000000        0x0 /home/jon/KODMOD/EMBEDDED_TOOLCHAINS/gcc-arm-none-eabi-7-2018-q2-update/bin/../lib/gcc/arm-none-eabi/7.3.1/../../../../arm-none-eabi/lib/thumb/v7e-m/fpv4-sp/hard/libm.a(lib_a-s_lib_ver.o)
 .data          0x0000000000000000        0x0 /home/jon/KODMOD/EMBEDDED_TOOLCHAINS/gcc-arm-none-eabi-7-2018-q2-update/bin/../lib/gcc/arm-none-eabi/7.3.1/../../../../arm-none-eabi/lib/thumb/v7e-m/fpv4-sp/hard/libm.a(lib_a-s_lib_ver.o)
 .bss           0x0000000000000000        0x0 /home/jon/KODMOD/EMBEDDED_TOOLCHAINS/gcc-arm-none-eabi-7-2018-q2-update/bin/../lib/gcc/arm-none-eabi/7.3.1/../../../../arm-none-eabi/lib/thumb/v7e-m/fpv4-sp/hard/libm.a(lib_a-s_lib_ver.o)
 .text          0x0000000000000000        0x0 /home/jon/KODMOD/EMBEDDED_TOOLCHAINS/gcc-arm-none-eabi-7-2018-q2-update/bin/../lib/gcc/arm-none-eabi/7.3.1/../../../../arm-none-eabi/lib/thumb/v7e-m/fpv4-sp/hard/libm.a(lib_a-s_matherr.o)
 .data          0x0000000000000000        0x0 /home/jon/KODMOD/EMBEDDED_TOOLCHAINS/gcc-arm-none-eabi-7-2018-q2-update/bin/../lib/gcc/arm-none-eabi/7.3.1/../../../../arm-none-eabi/lib/thumb/v7e-m/fpv4-sp/hard/libm.a(lib_a-s_matherr.o)
 .bss           0x0000000000000000        0x0 /home/jon/KODMOD/EMBEDDED_TOOLCHAINS/gcc-arm-none-eabi-7-2018-q2-update/bin/../lib/gcc/arm-none-eabi/7.3.1/../../../../arm-none-eabi/lib/thumb/v7e-m/fpv4-sp/hard/libm.a(lib_a-s_matherr.o)
 .text          0x0000000000000000        0x0 /home/jon/KODMOD/EMBEDDED_TOOLCHAINS/gcc-arm-none-eabi-7-2018-q2-update/bin/../lib/gcc/arm-none-eabi/7.3.1/../../../../arm-none-eabi/lib/thumb/v7e-m/fpv4-sp/hard/libnosys.a(sbrk.o)
 .data          0x0000000000000000        0x0 /home/jon/KODMOD/EMBEDDED_TOOLCHAINS/gcc-arm-none-eabi-7-2018-q2-update/bin/../lib/gcc/arm-none-eabi/7.3.1/../../../../arm-none-eabi/lib/thumb/v7e-m/fpv4-sp/hard/libnosys.a(sbrk.o)
 .bss           0x0000000000000000        0x0 /home/jon/KODMOD/EMBEDDED_TOOLCHAINS/gcc-arm-none-eabi-7-2018-q2-update/bin/../lib/gcc/arm-none-eabi/7.3.1/../../../../arm-none-eabi/lib/thumb/v7e-m/fpv4-sp/hard/libnosys.a(sbrk.o)
 .text          0x0000000000000000        0x0 /home/jon/KODMOD/EMBEDDED_TOOLCHAINS/gcc-arm-none-eabi-7-2018-q2-update/bin/../lib/gcc/arm-none-eabi/7.3.1/../../../../arm-none-eabi/lib/thumb/v7e-m/fpv4-sp/hard/libnosys.a(_exit.o)
 .data          0x0000000000000000        0x0 /home/jon/KODMOD/EMBEDDED_TOOLCHAINS/gcc-arm-none-eabi-7-2018-q2-update/bin/../lib/gcc/arm-none-eabi/7.3.1/../../../../arm-none-eabi/lib/thumb/v7e-m/fpv4-sp/hard/libnosys.a(_exit.o)
 .bss           0x0000000000000000        0x0 /home/jon/KODMOD/EMBEDDED_TOOLCHAINS/gcc-arm-none-eabi-7-2018-q2-update/bin/../lib/gcc/arm-none-eabi/7.3.1/../../../../arm-none-eabi/lib/thumb/v7e-m/fpv4-sp/hard/libnosys.a(_exit.o)
 .text._exit    0x0000000000000000        0x4 /home/jon/KODMOD/EMBEDDED_TOOLCHAINS/gcc-arm-none-eabi-7-2018-q2-update/bin/../lib/gcc/arm-none-eabi/7.3.1/../../../../arm-none-eabi/lib/thumb/v7e-m/fpv4-sp/hard/libnosys.a(_exit.o)
 .debug_frame   0x0000000000000000       0x20 /home/jon/KODMOD/EMBEDDED_TOOLCHAINS/gcc-arm-none-eabi-7-2018-q2-update/bin/../lib/gcc/arm-none-eabi/7.3.1/../../../../arm-none-eabi/lib/thumb/v7e-m/fpv4-sp/hard/libnosys.a(_exit.o)
 .ARM.attributes
                0x0000000000000000       0x34 /home/jon/KODMOD/EMBEDDED_TOOLCHAINS/gcc-arm-none-eabi-7-2018-q2-update/bin/../lib/gcc/arm-none-eabi/7.3.1/../../../../arm-none-eabi/lib/thumb/v7e-m/fpv4-sp/hard/libnosys.a(_exit.o)
 .data          0x0000000000000000        0x0 /home/jon/KODMOD/EMBEDDED_TOOLCHAINS/gcc-arm-none-eabi-7-2018-q2-update/bin/../lib/gcc/arm-none-eabi/7.3.1/thumb/v7e-m/fpv4-sp/hard/libgcc.a(_arm_addsubdf3.o)
 .bss           0x0000000000000000        0x0 /home/jon/KODMOD/EMBEDDED_TOOLCHAINS/gcc-arm-none-eabi-7-2018-q2-update/bin/../lib/gcc/arm-none-eabi/7.3.1/thumb/v7e-m/fpv4-sp/hard/libgcc.a(_arm_addsubdf3.o)
 .data          0x0000000000000000        0x0 /home/jon/KODMOD/EMBEDDED_TOOLCHAINS/gcc-arm-none-eabi-7-2018-q2-update/bin/../lib/gcc/arm-none-eabi/7.3.1/thumb/v7e-m/fpv4-sp/hard/libgcc.a(_arm_muldivdf3.o)
 .bss           0x0000000000000000        0x0 /home/jon/KODMOD/EMBEDDED_TOOLCHAINS/gcc-arm-none-eabi-7-2018-q2-update/bin/../lib/gcc/arm-none-eabi/7.3.1/thumb/v7e-m/fpv4-sp/hard/libgcc.a(_arm_muldivdf3.o)
 .data          0x0000000000000000        0x0 /home/jon/KODMOD/EMBEDDED_TOOLCHAINS/gcc-arm-none-eabi-7-2018-q2-update/bin/../lib/gcc/arm-none-eabi/7.3.1/thumb/v7e-m/fpv4-sp/hard/libgcc.a(_arm_cmpdf2.o)
 .bss           0x0000000000000000        0x0 /home/jon/KODMOD/EMBEDDED_TOOLCHAINS/gcc-arm-none-eabi-7-2018-q2-update/bin/../lib/gcc/arm-none-eabi/7.3.1/thumb/v7e-m/fpv4-sp/hard/libgcc.a(_arm_cmpdf2.o)
 .data          0x0000000000000000        0x0 /home/jon/KODMOD/EMBEDDED_TOOLCHAINS/gcc-arm-none-eabi-7-2018-q2-update/bin/../lib/gcc/arm-none-eabi/7.3.1/thumb/v7e-m/fpv4-sp/hard/libgcc.a(_arm_unorddf2.o)
 .bss           0x0000000000000000        0x0 /home/jon/KODMOD/EMBEDDED_TOOLCHAINS/gcc-arm-none-eabi-7-2018-q2-update/bin/../lib/gcc/arm-none-eabi/7.3.1/thumb/v7e-m/fpv4-sp/hard/libgcc.a(_arm_unorddf2.o)
 .data          0x0000000000000000        0x0 /home/jon/KODMOD/EMBEDDED_TOOLCHAINS/gcc-arm-none-eabi-7-2018-q2-update/bin/../lib/gcc/arm-none-eabi/7.3.1/thumb/v7e-m/fpv4-sp/hard/libgcc.a(_arm_fixdfsi.o)
 .bss           0x0000000000000000        0x0 /home/jon/KODMOD/EMBEDDED_TOOLCHAINS/gcc-arm-none-eabi-7-2018-q2-update/bin/../lib/gcc/arm-none-eabi/7.3.1/thumb/v7e-m/fpv4-sp/hard/libgcc.a(_arm_fixdfsi.o)
 .data          0x0000000000000000        0x0 /home/jon/KODMOD/EMBEDDED_TOOLCHAINS/gcc-arm-none-eabi-7-2018-q2-update/bin/../lib/gcc/arm-none-eabi/7.3.1/thumb/v7e-m/fpv4-sp/hard/libgcc.a(_arm_fixunsdfsi.o)
 .bss           0x0000000000000000        0x0 /home/jon/KODMOD/EMBEDDED_TOOLCHAINS/gcc-arm-none-eabi-7-2018-q2-update/bin/../lib/gcc/arm-none-eabi/7.3.1/thumb/v7e-m/fpv4-sp/hard/libgcc.a(_arm_fixunsdfsi.o)
 .text          0x0000000000000000        0x0 /home/jon/KODMOD/EMBEDDED_TOOLCHAINS/gcc-arm-none-eabi-7-2018-q2-update/bin/../lib/gcc/arm-none-eabi/7.3.1/../../../../arm-none-eabi/lib/thumb/v7e-m/fpv4-sp/hard/libc_nano.a(lib_a-errno.o)
 .data          0x0000000000000000        0x0 /home/jon/KODMOD/EMBEDDED_TOOLCHAINS/gcc-arm-none-eabi-7-2018-q2-update/bin/../lib/gcc/arm-none-eabi/7.3.1/../../../../arm-none-eabi/lib/thumb/v7e-m/fpv4-sp/hard/libc_nano.a(lib_a-errno.o)
 .bss           0x0000000000000000        0x0 /home/jon/KODMOD/EMBEDDED_TOOLCHAINS/gcc-arm-none-eabi-7-2018-q2-update/bin/../lib/gcc/arm-none-eabi/7.3.1/../../../../arm-none-eabi/lib/thumb/v7e-m/fpv4-sp/hard/libc_nano.a(lib_a-errno.o)
 .text          0x0000000000000000        0x0 /home/jon/KODMOD/EMBEDDED_TOOLCHAINS/gcc-arm-none-eabi-7-2018-q2-update/bin/../lib/gcc/arm-none-eabi/7.3.1/thumb/v7e-m/fpv4-sp/hard/crtend.o
 .data          0x0000000000000000        0x0 /home/jon/KODMOD/EMBEDDED_TOOLCHAINS/gcc-arm-none-eabi-7-2018-q2-update/bin/../lib/gcc/arm-none-eabi/7.3.1/thumb/v7e-m/fpv4-sp/hard/crtend.o
 .bss           0x0000000000000000        0x0 /home/jon/KODMOD/EMBEDDED_TOOLCHAINS/gcc-arm-none-eabi-7-2018-q2-update/bin/../lib/gcc/arm-none-eabi/7.3.1/thumb/v7e-m/fpv4-sp/hard/crtend.o
 .eh_frame      0x0000000000000000        0x4 /home/jon/KODMOD/EMBEDDED_TOOLCHAINS/gcc-arm-none-eabi-7-2018-q2-update/bin/../lib/gcc/arm-none-eabi/7.3.1/thumb/v7e-m/fpv4-sp/hard/crtend.o
 .ARM.attributes
                0x0000000000000000       0x34 /home/jon/KODMOD/EMBEDDED_TOOLCHAINS/gcc-arm-none-eabi-7-2018-q2-update/bin/../lib/gcc/arm-none-eabi/7.3.1/thumb/v7e-m/fpv4-sp/hard/crtend.o
 .text          0x0000000000000000        0x0 /home/jon/KODMOD/EMBEDDED_TOOLCHAINS/gcc-arm-none-eabi-7-2018-q2-update/bin/../lib/gcc/arm-none-eabi/7.3.1/thumb/v7e-m/fpv4-sp/hard/crtn.o
 .data          0x0000000000000000        0x0 /home/jon/KODMOD/EMBEDDED_TOOLCHAINS/gcc-arm-none-eabi-7-2018-q2-update/bin/../lib/gcc/arm-none-eabi/7.3.1/thumb/v7e-m/fpv4-sp/hard/crtn.o
 .bss           0x0000000000000000        0x0 /home/jon/KODMOD/EMBEDDED_TOOLCHAINS/gcc-arm-none-eabi-7-2018-q2-update/bin/../lib/gcc/arm-none-eabi/7.3.1/thumb/v7e-m/fpv4-sp/hard/crtn.o

Memory Configuration

Name             Origin             Length             Attributes
RAM              0x0000000020000000 0x0000000000018000 xrw
RAM2             0x0000000010000000 0x0000000000008000 xrw
FLASH            0x0000000008000000 0x0000000000100000 xr
*default*        0x0000000000000000 0xffffffffffffffff

Linker script and memory map

LOAD /home/jon/KODMOD/EMBEDDED_TOOLCHAINS/gcc-arm-none-eabi-7-2018-q2-update/bin/../lib/gcc/arm-none-eabi/7.3.1/thumb/v7e-m/fpv4-sp/hard/crti.o
LOAD /home/jon/KODMOD/EMBEDDED_TOOLCHAINS/gcc-arm-none-eabi-7-2018-q2-update/bin/../lib/gcc/arm-none-eabi/7.3.1/thumb/v7e-m/fpv4-sp/hard/crtbegin.o
LOAD /home/jon/KODMOD/EMBEDDED_TOOLCHAINS/gcc-arm-none-eabi-7-2018-q2-update/bin/../lib/gcc/arm-none-eabi/7.3.1/../../../../arm-none-eabi/lib/thumb/v7e-m/fpv4-sp/hard/crt0.o
LOAD build/main.o
LOAD build/gpio.o
LOAD build/stm32l4xx_it.o
LOAD build/stm32l4xx_hal_msp.o
LOAD build/stm32l4xx_hal_tim.o
LOAD build/stm32l4xx_hal_tim_ex.o
LOAD build/stm32l4xx_hal.o
LOAD build/stm32l4xx_hal_i2c.o
LOAD build/stm32l4xx_hal_i2c_ex.o
LOAD build/stm32l4xx_hal_rcc.o
LOAD build/stm32l4xx_hal_rcc_ex.o
LOAD build/stm32l4xx_hal_flash.o
LOAD build/stm32l4xx_hal_flash_ex.o
LOAD build/stm32l4xx_hal_flash_ramfunc.o
LOAD build/stm32l4xx_hal_gpio.o
LOAD build/stm32l4xx_hal_dma.o
LOAD build/stm32l4xx_hal_dma_ex.o
LOAD build/stm32l4xx_hal_pwr.o
LOAD build/stm32l4xx_hal_pwr_ex.o
LOAD build/stm32l4xx_hal_cortex.o
LOAD build/stm32l4xx_hal_exti.o
LOAD build/system_stm32l4xx.o
LOAD build/adc.o
LOAD build/i2c.o
LOAD build/stm32l4xx_hal_adc.o
LOAD build/stm32l4xx_hal_adc_ex.o
LOAD build/stm32l4xx_ll_usb.o
LOAD build/usb_device.o
LOAD build/usbd_conf.o
LOAD build/usbd_desc.o
LOAD build/usbd_cdc_if.o
LOAD build/stm32l4xx_hal_pcd.o
LOAD build/stm32l4xx_hal_pcd_ex.o
LOAD build/usbd_core.o
LOAD build/usbd_ctlreq.o
LOAD build/usbd_ioreq.o
LOAD build/usbd_cdc.o
LOAD build/shell.o
LOAD build/accelerometer.o
LOAD build/sw_timers.o
LOAD build/addressable_led_driver.o
LOAD build/addressable_led_manager.o
LOAD build/utils.o
LOAD build/dma.o
LOAD build/tim.o
LOAD build/random_fade_animation.o
LOAD build/random_triangles_animation.o
LOAD build/color.o
LOAD build/startup_stm32l476xx.o
LOAD /home/jon/KODMOD/EMBEDDED_TOOLCHAINS/gcc-arm-none-eabi-7-2018-q2-update/bin/../lib/gcc/arm-none-eabi/7.3.1/../../../../arm-none-eabi/lib/thumb/v7e-m/fpv4-sp/hard/libc_nano.a
LOAD /home/jon/KODMOD/EMBEDDED_TOOLCHAINS/gcc-arm-none-eabi-7-2018-q2-update/bin/../lib/gcc/arm-none-eabi/7.3.1/../../../../arm-none-eabi/lib/thumb/v7e-m/fpv4-sp/hard/libm.a
LOAD /home/jon/KODMOD/EMBEDDED_TOOLCHAINS/gcc-arm-none-eabi-7-2018-q2-update/bin/../lib/gcc/arm-none-eabi/7.3.1/../../../../arm-none-eabi/lib/thumb/v7e-m/fpv4-sp/hard/libnosys.a
START GROUP
LOAD /home/jon/KODMOD/EMBEDDED_TOOLCHAINS/gcc-arm-none-eabi-7-2018-q2-update/bin/../lib/gcc/arm-none-eabi/7.3.1/thumb/v7e-m/fpv4-sp/hard/libgcc.a
LOAD /home/jon/KODMOD/EMBEDDED_TOOLCHAINS/gcc-arm-none-eabi-7-2018-q2-update/bin/../lib/gcc/arm-none-eabi/7.3.1/../../../../arm-none-eabi/lib/thumb/v7e-m/fpv4-sp/hard/libc_nano.a
END GROUP
START GROUP
LOAD /home/jon/KODMOD/EMBEDDED_TOOLCHAINS/gcc-arm-none-eabi-7-2018-q2-update/bin/../lib/gcc/arm-none-eabi/7.3.1/thumb/v7e-m/fpv4-sp/hard/libgcc.a
LOAD /home/jon/KODMOD/EMBEDDED_TOOLCHAINS/gcc-arm-none-eabi-7-2018-q2-update/bin/../lib/gcc/arm-none-eabi/7.3.1/../../../../arm-none-eabi/lib/thumb/v7e-m/fpv4-sp/hard/libc_nano.a
END GROUP
LOAD /home/jon/KODMOD/EMBEDDED_TOOLCHAINS/gcc-arm-none-eabi-7-2018-q2-update/bin/../lib/gcc/arm-none-eabi/7.3.1/thumb/v7e-m/fpv4-sp/hard/crtend.o
LOAD /home/jon/KODMOD/EMBEDDED_TOOLCHAINS/gcc-arm-none-eabi-7-2018-q2-update/bin/../lib/gcc/arm-none-eabi/7.3.1/thumb/v7e-m/fpv4-sp/hard/crtn.o
                0x0000000020018000                _estack = 0x20018000
                0x0000000000000200                _Min_Heap_Size = 0x200
                0x0000000000000400                _Min_Stack_Size = 0x400

.isr_vector     0x0000000008000000      0x188
                0x0000000008000000                . = ALIGN (0x8)
 *(.isr_vector)
 .isr_vector    0x0000000008000000      0x188 build/startup_stm32l476xx.o
                0x0000000008000000                g_pfnVectors
                0x0000000008000188                . = ALIGN (0x8)

.text           0x0000000008000190     0x7920
                0x0000000008000190                . = ALIGN (0x8)
 *(.text)
 .text          0x0000000008000190       0x40 /home/jon/KODMOD/EMBEDDED_TOOLCHAINS/gcc-arm-none-eabi-7-2018-q2-update/bin/../lib/gcc/arm-none-eabi/7.3.1/thumb/v7e-m/fpv4-sp/hard/crtbegin.o
 .text          0x00000000080001d0       0x10 /home/jon/KODMOD/EMBEDDED_TOOLCHAINS/gcc-arm-none-eabi-7-2018-q2-update/bin/../lib/gcc/arm-none-eabi/7.3.1/../../../../arm-none-eabi/lib/thumb/v7e-m/fpv4-sp/hard/libc_nano.a(lib_a-strlen.o)
                0x00000000080001d0                strlen
 .text          0x00000000080001e0       0xa0 /home/jon/KODMOD/EMBEDDED_TOOLCHAINS/gcc-arm-none-eabi-7-2018-q2-update/bin/../lib/gcc/arm-none-eabi/7.3.1/../../../../arm-none-eabi/lib/thumb/v7e-m/fpv4-sp/hard/libc_nano.a(lib_a-memchr.o)
                0x00000000080001e0                memchr
 .text          0x0000000008000280      0x378 /home/jon/KODMOD/EMBEDDED_TOOLCHAINS/gcc-arm-none-eabi-7-2018-q2-update/bin/../lib/gcc/arm-none-eabi/7.3.1/thumb/v7e-m/fpv4-sp/hard/libgcc.a(_arm_addsubdf3.o)
                0x0000000008000280                __aeabi_drsub
                0x0000000008000288                __aeabi_dsub
                0x0000000008000288                __subdf3
                0x000000000800028c                __adddf3
                0x000000000800028c                __aeabi_dadd
                0x0000000008000504                __aeabi_ui2d
                0x0000000008000504                __floatunsidf
                0x0000000008000524                __floatsidf
                0x0000000008000524                __aeabi_i2d
                0x0000000008000548                __extendsfdf2
                0x0000000008000548                __aeabi_f2d
                0x000000000800058c                __aeabi_ul2d
                0x000000000800058c                __floatundidf
                0x000000000800059c                __floatdidf
                0x000000000800059c                __aeabi_l2d
 .text          0x00000000080005f8      0x424 /home/jon/KODMOD/EMBEDDED_TOOLCHAINS/gcc-arm-none-eabi-7-2018-q2-update/bin/../lib/gcc/arm-none-eabi/7.3.1/thumb/v7e-m/fpv4-sp/hard/libgcc.a(_arm_muldivdf3.o)
                0x00000000080005f8                __aeabi_dmul
                0x00000000080005f8                __muldf3
                0x000000000800084c                __aeabi_ddiv
                0x000000000800084c                __divdf3
 .text          0x0000000008000a1c      0x110 /home/jon/KODMOD/EMBEDDED_TOOLCHAINS/gcc-arm-none-eabi-7-2018-q2-update/bin/../lib/gcc/arm-none-eabi/7.3.1/thumb/v7e-m/fpv4-sp/hard/libgcc.a(_arm_cmpdf2.o)
                0x0000000008000a1c                __gtdf2
                0x0000000008000a1c                __gedf2
                0x0000000008000a24                __ltdf2
                0x0000000008000a24                __ledf2
                0x0000000008000a2c                __cmpdf2
                0x0000000008000a2c                __eqdf2
                0x0000000008000a2c                __nedf2
                0x0000000008000aa8                __aeabi_cdrcmple
                0x0000000008000ab8                __aeabi_cdcmple
                0x0000000008000ab8                __aeabi_cdcmpeq
                0x0000000008000ac8                __aeabi_dcmpeq
                0x0000000008000adc                __aeabi_dcmplt
                0x0000000008000af0                __aeabi_dcmple
                0x0000000008000b04                __aeabi_dcmpge
                0x0000000008000b18                __aeabi_dcmpgt
 .text          0x0000000008000b2c       0x2c /home/jon/KODMOD/EMBEDDED_TOOLCHAINS/gcc-arm-none-eabi-7-2018-q2-update/bin/../lib/gcc/arm-none-eabi/7.3.1/thumb/v7e-m/fpv4-sp/hard/libgcc.a(_arm_unorddf2.o)
                0x0000000008000b2c                __aeabi_dcmpun
                0x0000000008000b2c                __unorddf2
 .text          0x0000000008000b58       0x50 /home/jon/KODMOD/EMBEDDED_TOOLCHAINS/gcc-arm-none-eabi-7-2018-q2-update/bin/../lib/gcc/arm-none-eabi/7.3.1/thumb/v7e-m/fpv4-sp/hard/libgcc.a(_arm_fixdfsi.o)
                0x0000000008000b58                __fixdfsi
                0x0000000008000b58                __aeabi_d2iz
 .text          0x0000000008000ba8       0x40 /home/jon/KODMOD/EMBEDDED_TOOLCHAINS/gcc-arm-none-eabi-7-2018-q2-update/bin/../lib/gcc/arm-none-eabi/7.3.1/thumb/v7e-m/fpv4-sp/hard/libgcc.a(_arm_fixunsdfsi.o)
                0x0000000008000ba8                __fixunsdfsi
                0x0000000008000ba8                __aeabi_d2uiz
 *(.text*)
 .text.SystemClock_Config
                0x0000000008000be8       0x9c build/main.o
                0x0000000008000be8                SystemClock_Config
 .text.main     0x0000000008000c84       0x28 build/main.o
                0x0000000008000c84                main
 .text.Error_Handler
                0x0000000008000cac        0x2 build/main.o
                0x0000000008000cac                Error_Handler
 *fill*         0x0000000008000cae        0x2 
 .text.MX_GPIO_Init
                0x0000000008000cb0       0xd4 build/gpio.o
                0x0000000008000cb0                MX_GPIO_Init
 .text.NMI_Handler
                0x0000000008000d84        0x2 build/stm32l4xx_it.o
                0x0000000008000d84                NMI_Handler
 .text.HardFault_Handler
                0x0000000008000d86        0x2 build/stm32l4xx_it.o
                0x0000000008000d86                HardFault_Handler
 .text.MemManage_Handler
                0x0000000008000d88        0x2 build/stm32l4xx_it.o
                0x0000000008000d88                MemManage_Handler
 .text.BusFault_Handler
                0x0000000008000d8a        0x2 build/stm32l4xx_it.o
                0x0000000008000d8a                BusFault_Handler
 .text.UsageFault_Handler
                0x0000000008000d8c        0x2 build/stm32l4xx_it.o
                0x0000000008000d8c                UsageFault_Handler
 .text.SVC_Handler
                0x0000000008000d8e        0x2 build/stm32l4xx_it.o
                0x0000000008000d8e                SVC_Handler
 .text.DebugMon_Handler
                0x0000000008000d90        0x2 build/stm32l4xx_it.o
                0x0000000008000d90                DebugMon_Handler
 .text.PendSV_Handler
                0x0000000008000d92        0x2 build/stm32l4xx_it.o
                0x0000000008000d92                PendSV_Handler
 .text.SysTick_Handler
                0x0000000008000d94        0x8 build/stm32l4xx_it.o
                0x0000000008000d94                SysTick_Handler
 .text.DMA1_Channel3_IRQHandler
                0x0000000008000d9c       0x10 build/stm32l4xx_it.o
                0x0000000008000d9c                DMA1_Channel3_IRQHandler
 .text.OTG_FS_IRQHandler
                0x0000000008000dac       0x10 build/stm32l4xx_it.o
                0x0000000008000dac                OTG_FS_IRQHandler
 .text.HAL_MspInit
                0x0000000008000dbc       0x30 build/stm32l4xx_hal_msp.o
                0x0000000008000dbc                HAL_MspInit
 .text.TIM_OC1_SetConfig
                0x0000000008000dec       0x9c build/stm32l4xx_hal_tim.o
 .text.TIM_OC3_SetConfig
                0x0000000008000e88       0x8c build/stm32l4xx_hal_tim.o
 .text.TIM_OC4_SetConfig
                0x0000000008000f14       0x6c build/stm32l4xx_hal_tim.o
 .text.TIM_OC5_SetConfig
                0x0000000008000f80       0x68 build/stm32l4xx_hal_tim.o
 .text.TIM_OC6_SetConfig
                0x0000000008000fe8       0x6c build/stm32l4xx_hal_tim.o
 .text.TIM_Base_SetConfig
                0x0000000008001054       0xc8 build/stm32l4xx_hal_tim.o
                0x0000000008001054                TIM_Base_SetConfig
 .text.HAL_TIM_PWM_Init
                0x000000000800111c       0x32 build/stm32l4xx_hal_tim.o
                0x000000000800111c                HAL_TIM_PWM_Init
 *fill*         0x000000000800114e        0x2 
 .text.TIM_OC2_SetConfig
                0x0000000008001150       0x8c build/stm32l4xx_hal_tim.o
                0x0000000008001150                TIM_OC2_SetConfig
 .text.HAL_TIM_PWM_ConfigChannel
                0x00000000080011dc      0x134 build/stm32l4xx_hal_tim.o
                0x00000000080011dc                HAL_TIM_PWM_ConfigChannel
 .text.HAL_TIMEx_MasterConfigSynchronization
                0x0000000008001310       0x98 build/stm32l4xx_hal_tim_ex.o
                0x0000000008001310                HAL_TIMEx_MasterConfigSynchronization
 .text.HAL_InitTick
                0x00000000080013a8       0x50 build/stm32l4xx_hal.o
                0x00000000080013a8                HAL_InitTick
 .text.HAL_Init
                0x00000000080013f8       0x1e build/stm32l4xx_hal.o
                0x00000000080013f8                HAL_Init
 *fill*         0x0000000008001416        0x2 
 .text.HAL_IncTick
                0x0000000008001418       0x18 build/stm32l4xx_hal.o
                0x0000000008001418                HAL_IncTick
 .text.HAL_GetTick
                0x0000000008001430        0xc build/stm32l4xx_hal.o
                0x0000000008001430                HAL_GetTick
 .text.HAL_Delay
                0x000000000800143c       0x28 build/stm32l4xx_hal.o
                0x000000000800143c                HAL_Delay
 .text.HAL_I2C_Init
                0x0000000008001464       0xbc build/stm32l4xx_hal_i2c.o
                0x0000000008001464                HAL_I2C_Init
 .text.HAL_I2CEx_ConfigAnalogFilter
                0x0000000008001520       0x5c build/stm32l4xx_hal_i2c_ex.o
                0x0000000008001520                HAL_I2CEx_ConfigAnalogFilter
 .text.HAL_I2CEx_ConfigDigitalFilter
                0x000000000800157c       0x58 build/stm32l4xx_hal_i2c_ex.o
                0x000000000800157c                HAL_I2CEx_ConfigDigitalFilter
 .text.RCC_SetFlashLatencyFromMSIRange
                0x00000000080015d4       0x90 build/stm32l4xx_hal_rcc.o
 .text.HAL_RCC_GetSysClockFreq
                0x0000000008001664       0xb4 build/stm32l4xx_hal_rcc.o
                0x0000000008001664                HAL_RCC_GetSysClockFreq
 .text.HAL_RCC_OscConfig
                0x0000000008001718      0x638 build/stm32l4xx_hal_rcc.o
                0x0000000008001718                HAL_RCC_OscConfig
 .text.HAL_RCC_ClockConfig
                0x0000000008001d50      0x158 build/stm32l4xx_hal_rcc.o
                0x0000000008001d50                HAL_RCC_ClockConfig
 .text.HAL_RCC_GetHCLKFreq
                0x0000000008001ea8        0xc build/stm32l4xx_hal_rcc.o
                0x0000000008001ea8                HAL_RCC_GetHCLKFreq
 .text.RCCEx_PLLSAI1_Config
                0x0000000008001eb4      0x170 build/stm32l4xx_hal_rcc_ex.o
 .text.RCCEx_PLLSAI2_Config
                0x0000000008002024      0x14c build/stm32l4xx_hal_rcc_ex.o
 .text.HAL_RCCEx_PeriphCLKConfig
                0x0000000008002170      0x450 build/stm32l4xx_hal_rcc_ex.o
                0x0000000008002170                HAL_RCCEx_PeriphCLKConfig
 .text.HAL_GPIO_Init
                0x00000000080025c0      0x1c8 build/stm32l4xx_hal_gpio.o
                0x00000000080025c0                HAL_GPIO_Init
 .text.HAL_GPIO_WritePin
                0x0000000008002788        0xa build/stm32l4xx_hal_gpio.o
                0x0000000008002788                HAL_GPIO_WritePin
 *fill*         0x0000000008002792        0x2 
 .text.HAL_DMA_Init
                0x0000000008002794       0xf8 build/stm32l4xx_hal_dma.o
                0x0000000008002794                HAL_DMA_Init
 .text.HAL_DMA_IRQHandler
                0x000000000800288c       0xc4 build/stm32l4xx_hal_dma.o
                0x000000000800288c                HAL_DMA_IRQHandler
 .text.HAL_PWREx_GetVoltageRange
                0x0000000008002950       0x10 build/stm32l4xx_hal_pwr_ex.o
                0x0000000008002950                HAL_PWREx_GetVoltageRange
 .text.HAL_PWREx_ControlVoltageScaling
                0x0000000008002960       0x90 build/stm32l4xx_hal_pwr_ex.o
                0x0000000008002960                HAL_PWREx_ControlVoltageScaling
 .text.HAL_PWREx_EnableVddUSB
                0x00000000080029f0       0x10 build/stm32l4xx_hal_pwr_ex.o
                0x00000000080029f0                HAL_PWREx_EnableVddUSB
 .text.HAL_NVIC_SetPriorityGrouping
                0x0000000008002a00       0x24 build/stm32l4xx_hal_cortex.o
                0x0000000008002a00                HAL_NVIC_SetPriorityGrouping
 .text.HAL_NVIC_SetPriority
                0x0000000008002a24       0x68 build/stm32l4xx_hal_cortex.o
                0x0000000008002a24                HAL_NVIC_SetPriority
 .text.HAL_NVIC_EnableIRQ
                0x0000000008002a8c       0x1c build/stm32l4xx_hal_cortex.o
                0x0000000008002a8c                HAL_NVIC_EnableIRQ
 .text.HAL_SYSTICK_Config
                0x0000000008002aa8       0x2c build/stm32l4xx_hal_cortex.o
                0x0000000008002aa8                HAL_SYSTICK_Config
 .text.SystemInit
                0x0000000008002ad4       0x48 build/system_stm32l4xx.o
                0x0000000008002ad4                SystemInit
 .text.MX_ADC1_Init
                0x0000000008002b1c       0xa0 build/adc.o
                0x0000000008002b1c                MX_ADC1_Init
 .text.HAL_ADC_MspInit
                0x0000000008002bbc       0x88 build/adc.o
                0x0000000008002bbc                HAL_ADC_MspInit
 .text.MX_I2C1_Init
                0x0000000008002c44       0x58 build/i2c.o
                0x0000000008002c44                MX_I2C1_Init
 .text.MX_I2C2_Init
                0x0000000008002c9c       0x58 build/i2c.o
                0x0000000008002c9c                MX_I2C2_Init
 .text.HAL_I2C_MspInit
                0x0000000008002cf4       0xc0 build/i2c.o
                0x0000000008002cf4                HAL_I2C_MspInit
 .text.HAL_ADC_Init
                0x0000000008002db4      0x218 build/stm32l4xx_hal_adc.o
                0x0000000008002db4                HAL_ADC_Init
 .text.HAL_ADC_PollForConversion
                0x0000000008002fcc      0x10c build/stm32l4xx_hal_adc.o
                0x0000000008002fcc                HAL_ADC_PollForConversion
 .text.HAL_ADC_GetValue
                0x00000000080030d8        0x6 build/stm32l4xx_hal_adc.o
                0x00000000080030d8                HAL_ADC_GetValue
 *fill*         0x00000000080030de        0x2 
 .text.HAL_ADC_ConfigChannel
                0x00000000080030e0      0x450 build/stm32l4xx_hal_adc.o
                0x00000000080030e0                HAL_ADC_ConfigChannel
 .text.ADC_ConversionStop
                0x0000000008003530      0x100 build/stm32l4xx_hal_adc.o
                0x0000000008003530                ADC_ConversionStop
 .text.ADC_Enable
                0x0000000008003630       0x90 build/stm32l4xx_hal_adc.o
                0x0000000008003630                ADC_Enable
 .text.HAL_ADC_Start
                0x00000000080036c0       0xf8 build/stm32l4xx_hal_adc.o
                0x00000000080036c0                HAL_ADC_Start
 .text.ADC_Disable
                0x00000000080037b8       0x8e build/stm32l4xx_hal_adc.o
                0x00000000080037b8                ADC_Disable
 .text.HAL_ADC_Stop
                0x0000000008003846       0x4a build/stm32l4xx_hal_adc.o
                0x0000000008003846                HAL_ADC_Stop
 .text.HAL_ADCEx_MultiModeConfigChannel
                0x0000000008003890      0x148 build/stm32l4xx_hal_adc_ex.o
                0x0000000008003890                HAL_ADCEx_MultiModeConfigChannel
 .text.USB_CoreReset
                0x00000000080039d8       0x3c build/stm32l4xx_ll_usb.o
 .text.USB_CoreInit
                0x0000000008003a14       0x72 build/stm32l4xx_ll_usb.o
                0x0000000008003a14                USB_CoreInit
 *fill*         0x0000000008003a86        0x2 
 .text.USB_SetTurnaroundTime
                0x0000000008003a88       0xec build/stm32l4xx_ll_usb.o
                0x0000000008003a88                USB_SetTurnaroundTime
 .text.USB_EnableGlobalInt
                0x0000000008003b74        0xc build/stm32l4xx_ll_usb.o
                0x0000000008003b74                USB_EnableGlobalInt
 .text.USB_DisableGlobalInt
                0x0000000008003b80        0xc build/stm32l4xx_ll_usb.o
                0x0000000008003b80                USB_DisableGlobalInt
 .text.USB_SetCurrentMode
                0x0000000008003b8c       0x30 build/stm32l4xx_ll_usb.o
                0x0000000008003b8c                USB_SetCurrentMode
 .text.USB_FlushTxFifo
                0x0000000008003bbc       0x28 build/stm32l4xx_ll_usb.o
                0x0000000008003bbc                USB_FlushTxFifo
 .text.USB_FlushRxFifo
                0x0000000008003be4       0x24 build/stm32l4xx_ll_usb.o
                0x0000000008003be4                USB_FlushRxFifo
 .text.USB_SetDevSpeed
                0x0000000008003c08        0xe build/stm32l4xx_ll_usb.o
                0x0000000008003c08                USB_SetDevSpeed
 *fill*         0x0000000008003c16        0x2 
 .text.USB_DevInit
                0x0000000008003c18      0x168 build/stm32l4xx_ll_usb.o
                0x0000000008003c18                USB_DevInit
 .text.USB_GetDevSpeed
                0x0000000008003d80       0x1c build/stm32l4xx_ll_usb.o
                0x0000000008003d80                USB_GetDevSpeed
 .text.USB_ActivateEndpoint
                0x0000000008003d9c       0x94 build/stm32l4xx_ll_usb.o
                0x0000000008003d9c                USB_ActivateEndpoint
 .text.USB_DeactivateEndpoint
                0x0000000008003e30       0xdc build/stm32l4xx_ll_usb.o
                0x0000000008003e30                USB_DeactivateEndpoint
 .text.USB_EP0StartXfer
                0x0000000008003f0c       0xec build/stm32l4xx_ll_usb.o
                0x0000000008003f0c                USB_EP0StartXfer
 .text.USB_WritePacket
                0x0000000008003ff8       0x24 build/stm32l4xx_ll_usb.o
                0x0000000008003ff8                USB_WritePacket
 .text.USB_EPStartXfer
                0x000000000800401c      0x1a8 build/stm32l4xx_ll_usb.o
                0x000000000800401c                USB_EPStartXfer
 .text.USB_ReadPacket
                0x00000000080041c4       0x28 build/stm32l4xx_ll_usb.o
                0x00000000080041c4                USB_ReadPacket
 .text.USB_EPSetStall
                0x00000000080041ec       0x5a build/stm32l4xx_ll_usb.o
                0x00000000080041ec                USB_EPSetStall
 .text.USB_EPClearStall
                0x0000000008004246       0x5c build/stm32l4xx_ll_usb.o
                0x0000000008004246                USB_EPClearStall
 .text.USB_SetDevAddress
                0x00000000080042a2       0x20 build/stm32l4xx_ll_usb.o
                0x00000000080042a2                USB_SetDevAddress
 .text.USB_DevConnect
                0x00000000080042c2       0x18 build/stm32l4xx_ll_usb.o
                0x00000000080042c2                USB_DevConnect
 .text.USB_DevDisconnect
                0x00000000080042da       0x18 build/stm32l4xx_ll_usb.o
                0x00000000080042da                USB_DevDisconnect
 .text.USB_ReadInterrupts
                0x00000000080042f2        0x8 build/stm32l4xx_ll_usb.o
                0x00000000080042f2                USB_ReadInterrupts
 .text.USB_ReadDevAllOutEpInterrupt
                0x00000000080042fa       0x10 build/stm32l4xx_ll_usb.o
                0x00000000080042fa                USB_ReadDevAllOutEpInterrupt
 .text.USB_ReadDevAllInEpInterrupt
                0x000000000800430a       0x10 build/stm32l4xx_ll_usb.o
                0x000000000800430a                USB_ReadDevAllInEpInterrupt
 .text.USB_ReadDevOutEPInterrupt
                0x000000000800431a       0x12 build/stm32l4xx_ll_usb.o
                0x000000000800431a                USB_ReadDevOutEPInterrupt
 .text.USB_ReadDevInEPInterrupt
                0x000000000800432c       0x28 build/stm32l4xx_ll_usb.o
                0x000000000800432c                USB_ReadDevInEPInterrupt
 .text.USB_GetMode
                0x0000000008004354        0x8 build/stm32l4xx_ll_usb.o
                0x0000000008004354                USB_GetMode
 .text.USB_ActivateSetup
                0x000000000800435c       0x20 build/stm32l4xx_ll_usb.o
                0x000000000800435c                USB_ActivateSetup
 .text.USB_EP0_OutStart
                0x000000000800437c       0x44 build/stm32l4xx_ll_usb.o
                0x000000000800437c                USB_EP0_OutStart
 .text.MX_USB_DEVICE_Init
                0x00000000080043c0       0x54 build/usb_device.o
                0x00000000080043c0                MX_USB_DEVICE_Init
 .text.SystemClockConfig_Resume
                0x0000000008004414        0x8 build/usbd_conf.o
 .text.HAL_PCD_MspInit
                0x000000000800441c       0xa0 build/usbd_conf.o
                0x000000000800441c                HAL_PCD_MspInit
 .text.HAL_PCD_SetupStageCallback
                0x00000000080044bc       0x10 build/usbd_conf.o
                0x00000000080044bc                HAL_PCD_SetupStageCallback
 .text.HAL_PCD_DataOutStageCallback
                0x00000000080044cc       0x18 build/usbd_conf.o
                0x00000000080044cc                HAL_PCD_DataOutStageCallback
 .text.HAL_PCD_DataInStageCallback
                0x00000000080044e4       0x16 build/usbd_conf.o
                0x00000000080044e4                HAL_PCD_DataInStageCallback
 .text.HAL_PCD_SOFCallback
                0x00000000080044fa        0xc build/usbd_conf.o
                0x00000000080044fa                HAL_PCD_SOFCallback
 .text.HAL_PCD_ResetCallback
                0x0000000008004506       0x22 build/usbd_conf.o
                0x0000000008004506                HAL_PCD_ResetCallback
 .text.HAL_PCD_SuspendCallback
                0x0000000008004528       0x30 build/usbd_conf.o
                0x0000000008004528                HAL_PCD_SuspendCallback
 .text.HAL_PCD_ResumeCallback
                0x0000000008004558       0x34 build/usbd_conf.o
                0x0000000008004558                HAL_PCD_ResumeCallback
 .text.HAL_PCD_ISOOUTIncompleteCallback
                0x000000000800458c        0xc build/usbd_conf.o
                0x000000000800458c                HAL_PCD_ISOOUTIncompleteCallback
 .text.HAL_PCD_ISOINIncompleteCallback
                0x0000000008004598        0xc build/usbd_conf.o
                0x0000000008004598                HAL_PCD_ISOINIncompleteCallback
 .text.HAL_PCD_ConnectCallback
                0x00000000080045a4        0xc build/usbd_conf.o
                0x00000000080045a4                HAL_PCD_ConnectCallback
 .text.HAL_PCD_DisconnectCallback
                0x00000000080045b0        0xc build/usbd_conf.o
                0x00000000080045b0                HAL_PCD_DisconnectCallback
 .text.USBD_LL_Init
                0x00000000080045bc       0x68 build/usbd_conf.o
                0x00000000080045bc                USBD_LL_Init
 .text.USBD_LL_Start
                0x0000000008004624       0x1c build/usbd_conf.o
                0x0000000008004624                USBD_LL_Start
 .text.USBD_LL_OpenEP
                0x0000000008004640       0x22 build/usbd_conf.o
                0x0000000008004640                USBD_LL_OpenEP
 .text.USBD_LL_CloseEP
                0x0000000008004662       0x1c build/usbd_conf.o
                0x0000000008004662                USBD_LL_CloseEP
 .text.USBD_LL_StallEP
                0x000000000800467e       0x1c build/usbd_conf.o
                0x000000000800467e                USBD_LL_StallEP
 .text.USBD_LL_ClearStallEP
                0x000000000800469a       0x1c build/usbd_conf.o
                0x000000000800469a                USBD_LL_ClearStallEP
 .text.USBD_LL_IsStallEP
                0x00000000080046b6       0x2e build/usbd_conf.o
                0x00000000080046b6                USBD_LL_IsStallEP
 .text.USBD_LL_SetUSBAddress
                0x00000000080046e4       0x1c build/usbd_conf.o
                0x00000000080046e4                USBD_LL_SetUSBAddress
 .text.USBD_LL_Transmit
                0x0000000008004700       0x1c build/usbd_conf.o
                0x0000000008004700                USBD_LL_Transmit
 .text.USBD_LL_PrepareReceive
                0x000000000800471c       0x1c build/usbd_conf.o
                0x000000000800471c                USBD_LL_PrepareReceive
 .text.USBD_LL_GetRxDataSize
                0x0000000008004738        0xc build/usbd_conf.o
                0x0000000008004738                USBD_LL_GetRxDataSize
 .text.HAL_PCDEx_LPM_Callback
                0x0000000008004744       0x64 build/usbd_conf.o
                0x0000000008004744                HAL_PCDEx_LPM_Callback
 .text.USBD_static_malloc
                0x00000000080047a8        0x8 build/usbd_conf.o
                0x00000000080047a8                USBD_static_malloc
 .text.USBD_static_free
                0x00000000080047b0        0x2 build/usbd_conf.o
                0x00000000080047b0                USBD_static_free
 *fill*         0x00000000080047b2        0x2 
 .text.USBD_FS_DeviceDescriptor
                0x00000000080047b4        0xc build/usbd_desc.o
                0x00000000080047b4                USBD_FS_DeviceDescriptor
 .text.USBD_FS_LangIDStrDescriptor
                0x00000000080047c0        0xc build/usbd_desc.o
                0x00000000080047c0                USBD_FS_LangIDStrDescriptor
 .text.USBD_FS_USR_BOSDescriptor
                0x00000000080047cc        0xc build/usbd_desc.o
                0x00000000080047cc                USBD_FS_USR_BOSDescriptor
 .text.IntToUnicode
                0x00000000080047d8       0x36 build/usbd_desc.o
 *fill*         0x000000000800480e        0x2 
 .text.Get_SerialNum
                0x0000000008004810       0x34 build/usbd_desc.o
 .text.USBD_FS_SerialStrDescriptor
                0x0000000008004844       0x14 build/usbd_desc.o
                0x0000000008004844                USBD_FS_SerialStrDescriptor
 .text.USBD_FS_ProductStrDescriptor
                0x0000000008004858       0x24 build/usbd_desc.o
                0x0000000008004858                USBD_FS_ProductStrDescriptor
 .text.USBD_FS_ManufacturerStrDescriptor
                0x000000000800487c       0x1c build/usbd_desc.o
                0x000000000800487c                USBD_FS_ManufacturerStrDescriptor
 .text.USBD_FS_ConfigStrDescriptor
                0x0000000008004898       0x24 build/usbd_desc.o
                0x0000000008004898                USBD_FS_ConfigStrDescriptor
 .text.USBD_FS_InterfaceStrDescriptor
                0x00000000080048bc       0x24 build/usbd_desc.o
                0x00000000080048bc                USBD_FS_InterfaceStrDescriptor
 .text.CDC_DeInit_FS
                0x00000000080048e0        0x4 build/usbd_cdc_if.o
 .text.CDC_Control_FS
                0x00000000080048e4        0x4 build/usbd_cdc_if.o
 .text.CDC_Receive_FS
                0x00000000080048e8       0x28 build/usbd_cdc_if.o
 .text.CDC_Init_FS
                0x0000000008004910       0x28 build/usbd_cdc_if.o
 .text.CDC_Transmit_FS
                0x0000000008004938       0x2c build/usbd_cdc_if.o
                0x0000000008004938                CDC_Transmit_FS
 .text.PCD_WriteEmptyTxFifo
                0x0000000008004964       0xcc build/stm32l4xx_hal_pcd.o
 .text.HAL_PCD_Init
                0x0000000008004a30      0x130 build/stm32l4xx_hal_pcd.o
                0x0000000008004a30                HAL_PCD_Init
 .text.HAL_PCD_Start
                0x0000000008004b60       0x3c build/stm32l4xx_hal_pcd.o
                0x0000000008004b60                HAL_PCD_Start
 .text.PCD_EP_OutXfrComplete_int
                0x0000000008004b9c       0x44 build/stm32l4xx_hal_pcd.o
 .text.PCD_EP_OutSetupPacket_int
                0x0000000008004be0       0x30 build/stm32l4xx_hal_pcd.o
 .text.HAL_PCD_IRQHandler
                0x0000000008004c10      0x4b0 build/stm32l4xx_hal_pcd.o
                0x0000000008004c10                HAL_PCD_IRQHandler
 .text.HAL_PCD_SetAddress
                0x00000000080050c0       0x28 build/stm32l4xx_hal_pcd.o
                0x00000000080050c0                HAL_PCD_SetAddress
 .text.HAL_PCD_EP_Open
                0x00000000080050e8       0x82 build/stm32l4xx_hal_pcd.o
                0x00000000080050e8                HAL_PCD_EP_Open
 .text.HAL_PCD_EP_Close
                0x000000000800516a       0x6e build/stm32l4xx_hal_pcd.o
                0x000000000800516a                HAL_PCD_EP_Close
 .text.HAL_PCD_EP_Receive
                0x00000000080051d8       0x44 build/stm32l4xx_hal_pcd.o
                0x00000000080051d8                HAL_PCD_EP_Receive
 .text.HAL_PCD_EP_GetRxCount
                0x000000000800521c       0x12 build/stm32l4xx_hal_pcd.o
                0x000000000800521c                HAL_PCD_EP_GetRxCount
 .text.HAL_PCD_EP_Transmit
                0x000000000800522e       0x3e build/stm32l4xx_hal_pcd.o
                0x000000000800522e                HAL_PCD_EP_Transmit
 .text.HAL_PCD_EP_SetStall
                0x000000000800526c       0x80 build/stm32l4xx_hal_pcd.o
                0x000000000800526c                HAL_PCD_EP_SetStall
 .text.HAL_PCD_EP_ClrStall
                0x00000000080052ec       0x6e build/stm32l4xx_hal_pcd.o
                0x00000000080052ec                HAL_PCD_EP_ClrStall
 .text.HAL_PCDEx_SetTxFiFo
                0x000000000800535a       0x48 build/stm32l4xx_hal_pcd_ex.o
                0x000000000800535a                HAL_PCDEx_SetTxFiFo
 .text.HAL_PCDEx_SetRxFiFo
                0x00000000080053a2        0x8 build/stm32l4xx_hal_pcd_ex.o
                0x00000000080053a2                HAL_PCDEx_SetRxFiFo
 .text.HAL_PCDEx_ActivateLPM
                0x00000000080053aa       0x26 build/stm32l4xx_hal_pcd_ex.o
                0x00000000080053aa                HAL_PCDEx_ActivateLPM
 .text.USBD_Init
                0x00000000080053d0       0x2e build/usbd_core.o
                0x00000000080053d0                USBD_Init
 .text.USBD_RegisterClass
                0x00000000080053fe        0xe build/usbd_core.o
                0x00000000080053fe                USBD_RegisterClass
 .text.USBD_Start
                0x000000000800540c        0xa build/usbd_core.o
                0x000000000800540c                USBD_Start
 .text.USBD_SetClassConfig
                0x0000000008005416       0x1a build/usbd_core.o
                0x0000000008005416                USBD_SetClassConfig
 .text.USBD_ClrClassConfig
                0x0000000008005430        0xe build/usbd_core.o
                0x0000000008005430                USBD_ClrClassConfig
 .text.USBD_LL_SetupStage
                0x000000000800543e       0x5a build/usbd_core.o
                0x000000000800543e                USBD_LL_SetupStage
 .text.USBD_LL_DataOutStage
                0x0000000008005498       0x92 build/usbd_core.o
                0x0000000008005498                USBD_LL_DataOutStage
 .text.USBD_LL_DataInStage
                0x000000000800552a       0xd2 build/usbd_core.o
                0x000000000800552a                USBD_LL_DataInStage
 .text.USBD_LL_Reset
                0x00000000080055fc       0x50 build/usbd_core.o
                0x00000000080055fc                USBD_LL_Reset
 .text.USBD_LL_SetSpeed
                0x000000000800564c        0x6 build/usbd_core.o
                0x000000000800564c                USBD_LL_SetSpeed
 .text.USBD_LL_Suspend
                0x0000000008005652       0x12 build/usbd_core.o
                0x0000000008005652                USBD_LL_Suspend
 .text.USBD_LL_Resume
                0x0000000008005664       0x16 build/usbd_core.o
                0x0000000008005664                USBD_LL_Resume
 .text.USBD_LL_SOF
                0x000000000800567a       0x1c build/usbd_core.o
                0x000000000800567a                USBD_LL_SOF
 .text.USBD_LL_IsoINIncomplete
                0x0000000008005696        0x4 build/usbd_core.o
                0x0000000008005696                USBD_LL_IsoINIncomplete
 .text.USBD_LL_IsoOUTIncomplete
                0x000000000800569a        0x4 build/usbd_core.o
                0x000000000800569a                USBD_LL_IsoOUTIncomplete
 .text.USBD_LL_DevConnected
                0x000000000800569e        0x4 build/usbd_core.o
                0x000000000800569e                USBD_LL_DevConnected
 .text.USBD_LL_DevDisconnected
                0x00000000080056a2       0x16 build/usbd_core.o
                0x00000000080056a2                USBD_LL_DevDisconnected
 .text.USBD_GetLen
                0x00000000080056b8       0x14 build/usbd_ctlreq.o
 .text.USBD_SetFeature
                0x00000000080056cc       0x14 build/usbd_ctlreq.o
 .text.USBD_ParseSetupRequest
                0x00000000080056e0       0x28 build/usbd_ctlreq.o
                0x00000000080056e0                USBD_ParseSetupRequest
 .text.USBD_CtlError
                0x0000000008005708       0x14 build/usbd_ctlreq.o
                0x0000000008005708                USBD_CtlError
 .text.USBD_GetDescriptor
                0x000000000800571c      0x1a8 build/usbd_ctlreq.o
 .text.USBD_SetAddress
                0x00000000080058c4       0x4e build/usbd_ctlreq.o
 *fill*         0x0000000008005912        0x2 
 .text.USBD_SetConfig
                0x0000000008005914       0xb0 build/usbd_ctlreq.o
 .text.USBD_GetConfig
                0x00000000080059c4       0x3c build/usbd_ctlreq.o
 .text.USBD_GetStatus
                0x0000000008005a00       0x38 build/usbd_ctlreq.o
 .text.USBD_ClrFeature
                0x0000000008005a38       0x26 build/usbd_ctlreq.o
 .text.USBD_StdDevReq
                0x0000000008005a5e       0x68 build/usbd_ctlreq.o
                0x0000000008005a5e                USBD_StdDevReq
 .text.USBD_StdItfReq
                0x0000000008005ac6       0x60 build/usbd_ctlreq.o
                0x0000000008005ac6                USBD_StdItfReq
 .text.USBD_StdEPReq
                0x0000000008005b26      0x20e build/usbd_ctlreq.o
                0x0000000008005b26                USBD_StdEPReq
 .text.USBD_GetString
                0x0000000008005d34       0x38 build/usbd_ctlreq.o
                0x0000000008005d34                USBD_GetString
 .text.USBD_CtlSendData
                0x0000000008005d6c       0x1a build/usbd_ioreq.o
                0x0000000008005d6c                USBD_CtlSendData
 .text.USBD_CtlContinueSendData
                0x0000000008005d86       0x10 build/usbd_ioreq.o
                0x0000000008005d86                USBD_CtlContinueSendData
 .text.USBD_CtlPrepareRx
                0x0000000008005d96       0x1e build/usbd_ioreq.o
                0x0000000008005d96                USBD_CtlPrepareRx
 .text.USBD_CtlContinueRx
                0x0000000008005db4       0x10 build/usbd_ioreq.o
                0x0000000008005db4                USBD_CtlContinueRx
 .text.USBD_CtlSendStatus
                0x0000000008005dc4       0x16 build/usbd_ioreq.o
                0x0000000008005dc4                USBD_CtlSendStatus
 .text.USBD_CtlReceiveStatus
                0x0000000008005dda       0x16 build/usbd_ioreq.o
                0x0000000008005dda                USBD_CtlReceiveStatus
 .text.USBD_CDC_EP0_RxReady
                0x0000000008005df0       0x28 build/usbd_cdc.o
 .text.USBD_CDC_GetFSCfgDesc
                0x0000000008005e18        0xc build/usbd_cdc.o
 .text.USBD_CDC_GetHSCfgDesc
                0x0000000008005e24        0xc build/usbd_cdc.o
 .text.USBD_CDC_GetOtherSpeedCfgDesc
                0x0000000008005e30        0xc build/usbd_cdc.o
 .text.USBD_CDC_GetDeviceQualifierDescriptor
                0x0000000008005e3c        0xc build/usbd_cdc.o
                0x0000000008005e3c                USBD_CDC_GetDeviceQualifierDescriptor
 .text.USBD_CDC_DataOut
                0x0000000008005e48       0x2e build/usbd_cdc.o
 .text.USBD_CDC_DataIn
                0x0000000008005e76       0x50 build/usbd_cdc.o
 .text.USBD_CDC_Setup
                0x0000000008005ec6       0xda build/usbd_cdc.o
 .text.USBD_CDC_DeInit
                0x0000000008005fa0       0x42 build/usbd_cdc.o
 .text.USBD_CDC_Init
                0x0000000008005fe2       0xaa build/usbd_cdc.o
 .text.USBD_CDC_RegisterInterface
                0x000000000800608c        0xe build/usbd_cdc.o
                0x000000000800608c                USBD_CDC_RegisterInterface
 .text.USBD_CDC_SetTxBuffer
                0x000000000800609a       0x10 build/usbd_cdc.o
                0x000000000800609a                USBD_CDC_SetTxBuffer
 .text.USBD_CDC_SetRxBuffer
                0x00000000080060aa        0xc build/usbd_cdc.o
                0x00000000080060aa                USBD_CDC_SetRxBuffer
 .text.USBD_CDC_TransmitPacket
                0x00000000080060b6       0x34 build/usbd_cdc.o
                0x00000000080060b6                USBD_CDC_TransmitPacket
 .text.USBD_CDC_ReceivePacket
                0x00000000080060ea       0x32 build/usbd_cdc.o
                0x00000000080060ea                USBD_CDC_ReceivePacket
 .text.BoardBringupTest
                0x000000000800611c       0x60 build/shell.o
 .text.BoardBringupChangeAnimation
                0x000000000800617c        0x8 build/shell.o
 .text.Shell_ProcessCommand
                0x0000000008006184       0x60 build/shell.o
                0x0000000008006184                Shell_ProcessCommand
 .text.Shell_CdcReceive
                0x00000000080061e4       0x58 build/shell.o
                0x00000000080061e4                Shell_CdcReceive
 .text.GetPixelByLocalCoordinate
                0x000000000800623c       0x34 build/addressable_led_manager.o
                0x000000000800623c                GetPixelByLocalCoordinate
 .text.AddrLEDManager_PlayNextAnimation
                0x0000000008006270       0x3c build/addressable_led_manager.o
                0x0000000008006270                AddrLEDManager_PlayNextAnimation
 .text.getRandomColor
                0x00000000080062ac       0x52 build/utils.o
                0x00000000080062ac                getRandomColor
 *fill*         0x00000000080062fe        0x2 
 .text.MX_DMA_Init
                0x0000000008006300       0x34 build/dma.o
                0x0000000008006300                MX_DMA_Init
 .text.HAL_TIM_PWM_MspInit
                0x0000000008006334       0x6c build/tim.o
                0x0000000008006334                HAL_TIM_PWM_MspInit
 .text.HAL_TIM_MspPostInit
                0x00000000080063a0       0x50 build/tim.o
                0x00000000080063a0                HAL_TIM_MspPostInit
 .text.MX_TIM3_Init
                0x00000000080063f0       0x80 build/tim.o
                0x00000000080063f0                MX_TIM3_Init
 .text.rampUp   0x0000000008006470        0xc build/random_fade_animation.o
 .text.rampDown
                0x000000000800647c       0x78 build/random_fade_animation.o
 .text.randomFade2
                0x00000000080064f4      0x124 build/random_fade_animation.o
 .text.Animation_RandomFade_Init
                0x0000000008006618       0x98 build/random_fade_animation.o
                0x0000000008006618                Animation_RandomFade_Init
 .text.Animation_RandomFade_GetState
                0x00000000080066b0        0xc build/random_fade_animation.o
                0x00000000080066b0                Animation_RandomFade_GetState
 .text.Animation_RandomFade_SendMessage
                0x00000000080066bc       0x3c build/random_fade_animation.o
                0x00000000080066bc                Animation_RandomFade_SendMessage
 .text.Animation_RandomFade_Update
                0x00000000080066f8       0x28 build/random_fade_animation.o
                0x00000000080066f8                Animation_RandomFade_Update
 .text.rampUp   0x0000000008006720       0xa4 build/random_triangles_animation.o
 .text.rampDown
                0x00000000080067c4       0x78 build/random_triangles_animation.o
 *fill*         0x000000000800683c        0x4 
 .text.randomTriangles1
                0x0000000008006840      0x384 build/random_triangles_animation.o
 .text.Animation_RandomTriangles_Init
                0x0000000008006bc4       0x3c build/random_triangles_animation.o
                0x0000000008006bc4                Animation_RandomTriangles_Init
 .text.Animation_RandomTriangles_SendMessage
                0x0000000008006c00       0x5c build/random_triangles_animation.o
                0x0000000008006c00                Animation_RandomTriangles_SendMessage
 .text.Animation_RandomTriangles_GetState
                0x0000000008006c5c        0xc build/random_triangles_animation.o
                0x0000000008006c5c                Animation_RandomTriangles_GetState
 .text.Animation_RandomTriangles_Update
                0x0000000008006c68       0x28 build/random_triangles_animation.o
                0x0000000008006c68                Animation_RandomTriangles_Update
 .text.HsvToRgb
                0x0000000008006c90      0x16c build/color.o
                0x0000000008006c90                HsvToRgb
 .text.Reset_Handler
                0x0000000008006dfc       0x50 build/startup_stm32l476xx.o
                0x0000000008006dfc                Reset_Handler
 .text.Default_Handler
                0x0000000008006e4c        0x2 build/startup_stm32l476xx.o
                0x0000000008006e4c                RTC_Alarm_IRQHandler
                0x0000000008006e4c                EXTI2_IRQHandler
                0x0000000008006e4c                TIM8_TRG_COM_IRQHandler
                0x0000000008006e4c                TIM8_CC_IRQHandler
                0x0000000008006e4c                TIM1_CC_IRQHandler
                0x0000000008006e4c                TSC_IRQHandler
                0x0000000008006e4c                TAMP_STAMP_IRQHandler
                0x0000000008006e4c                EXTI3_IRQHandler
                0x0000000008006e4c                LPTIM2_IRQHandler
                0x0000000008006e4c                DFSDM1_FLT1_IRQHandler
                0x0000000008006e4c                I2C3_ER_IRQHandler
                0x0000000008006e4c                DFSDM1_FLT2_IRQHandler
                0x0000000008006e4c                EXTI0_IRQHandler
                0x0000000008006e4c                I2C2_EV_IRQHandler
                0x0000000008006e4c                CAN1_RX0_IRQHandler
                0x0000000008006e4c                FPU_IRQHandler
                0x0000000008006e4c                TIM1_UP_TIM16_IRQHandler
                0x0000000008006e4c                ADC1_2_IRQHandler
                0x0000000008006e4c                SPI1_IRQHandler
                0x0000000008006e4c                TIM6_DAC_IRQHandler
                0x0000000008006e4c                TIM8_UP_IRQHandler
                0x0000000008006e4c                DMA2_Channel2_IRQHandler
                0x0000000008006e4c                DMA1_Channel4_IRQHandler
                0x0000000008006e4c                SAI2_IRQHandler
                0x0000000008006e4c                DFSDM1_FLT3_IRQHandler
                0x0000000008006e4c                USART3_IRQHandler
                0x0000000008006e4c                DMA1_Channel7_IRQHandler
                0x0000000008006e4c                CAN1_RX1_IRQHandler
                0x0000000008006e4c                LCD_IRQHandler
                0x0000000008006e4c                UART5_IRQHandler
                0x0000000008006e4c                ADC3_IRQHandler
                0x0000000008006e4c                TIM4_IRQHandler
                0x0000000008006e4c                DMA2_Channel1_IRQHandler
                0x0000000008006e4c                QUADSPI_IRQHandler
                0x0000000008006e4c                I2C1_EV_IRQHandler
                0x0000000008006e4c                DMA1_Channel6_IRQHandler
                0x0000000008006e4c                UART4_IRQHandler
                0x0000000008006e4c                DMA2_Channel4_IRQHandler
                0x0000000008006e4c                TIM3_IRQHandler
                0x0000000008006e4c                RCC_IRQHandler
                0x0000000008006e4c                DMA1_Channel1_IRQHandler
                0x0000000008006e4c                Default_Handler
                0x0000000008006e4c                DMA2_Channel7_IRQHandler
                0x0000000008006e4c                EXTI15_10_IRQHandler
                0x0000000008006e4c                TIM7_IRQHandler
                0x0000000008006e4c                SDMMC1_IRQHandler
                0x0000000008006e4c                TIM5_IRQHandler
                0x0000000008006e4c                I2C3_EV_IRQHandler
                0x0000000008006e4c                EXTI9_5_IRQHandler
                0x0000000008006e4c                RTC_WKUP_IRQHandler
                0x0000000008006e4c                PVD_PVM_IRQHandler
                0x0000000008006e4c                SPI2_IRQHandler
                0x0000000008006e4c                CAN1_TX_IRQHandler
                0x0000000008006e4c                DMA2_Channel5_IRQHandler
                0x0000000008006e4c                DMA1_Channel5_IRQHandler
                0x0000000008006e4c                EXTI4_IRQHandler
                0x0000000008006e4c                RNG_IRQHandler
                0x0000000008006e4c                TIM1_TRG_COM_TIM17_IRQHandler
                0x0000000008006e4c                COMP_IRQHandler
                0x0000000008006e4c                WWDG_IRQHandler
                0x0000000008006e4c                LPUART1_IRQHandler
                0x0000000008006e4c                DMA2_Channel6_IRQHandler
                0x0000000008006e4c                TIM2_IRQHandler
                0x0000000008006e4c                EXTI1_IRQHandler
                0x0000000008006e4c                USART2_IRQHandler
                0x0000000008006e4c                DFSDM1_FLT0_IRQHandler
                0x0000000008006e4c                I2C2_ER_IRQHandler
                0x0000000008006e4c                DMA1_Channel2_IRQHandler
                0x0000000008006e4c                TIM8_BRK_IRQHandler
                0x0000000008006e4c                CAN1_SCE_IRQHandler
                0x0000000008006e4c                FLASH_IRQHandler
                0x0000000008006e4c                USART1_IRQHandler
                0x0000000008006e4c                SPI3_IRQHandler
                0x0000000008006e4c                I2C1_ER_IRQHandler
                0x0000000008006e4c                FMC_IRQHandler
                0x0000000008006e4c                SWPMI1_IRQHandler
                0x0000000008006e4c                LPTIM1_IRQHandler
                0x0000000008006e4c                SAI1_IRQHandler
                0x0000000008006e4c                DMA2_Channel3_IRQHandler
                0x0000000008006e4c                TIM1_BRK_TIM15_IRQHandler
 *fill*         0x0000000008006e4e        0x2 
 .text.__libc_init_array
                0x0000000008006e50       0x48 /home/jon/KODMOD/EMBEDDED_TOOLCHAINS/gcc-arm-none-eabi-7-2018-q2-update/bin/../lib/gcc/arm-none-eabi/7.3.1/../../../../arm-none-eabi/lib/thumb/v7e-m/fpv4-sp/hard/libc_nano.a(lib_a-init.o)
                0x0000000008006e50                __libc_init_array
 .text.memset   0x0000000008006e98       0x10 /home/jon/KODMOD/EMBEDDED_TOOLCHAINS/gcc-arm-none-eabi-7-2018-q2-update/bin/../lib/gcc/arm-none-eabi/7.3.1/../../../../arm-none-eabi/lib/thumb/v7e-m/fpv4-sp/hard/libc_nano.a(lib_a-memset.o)
                0x0000000008006e98                memset
 .text.rand     0x0000000008006ea8       0x68 /home/jon/KODMOD/EMBEDDED_TOOLCHAINS/gcc-arm-none-eabi-7-2018-q2-update/bin/../lib/gcc/arm-none-eabi/7.3.1/../../../../arm-none-eabi/lib/thumb/v7e-m/fpv4-sp/hard/libc_nano.a(lib_a-rand.o)
                0x0000000008006ea8                rand
 .text.sprintf  0x0000000008006f10       0x40 /home/jon/KODMOD/EMBEDDED_TOOLCHAINS/gcc-arm-none-eabi-7-2018-q2-update/bin/../lib/gcc/arm-none-eabi/7.3.1/../../../../arm-none-eabi/lib/thumb/v7e-m/fpv4-sp/hard/libc_nano.a(lib_a-sprintf.o)
                0x0000000008006f10                sprintf
                0x0000000008006f10                siprintf
 .text.strncmp  0x0000000008006f50       0x24 /home/jon/KODMOD/EMBEDDED_TOOLCHAINS/gcc-arm-none-eabi-7-2018-q2-update/bin/../lib/gcc/arm-none-eabi/7.3.1/../../../../arm-none-eabi/lib/thumb/v7e-m/fpv4-sp/hard/libc_nano.a(lib_a-strncmp.o)
                0x0000000008006f50                strncmp
 .text.malloc   0x0000000008006f74       0x10 /home/jon/KODMOD/EMBEDDED_TOOLCHAINS/gcc-arm-none-eabi-7-2018-q2-update/bin/../lib/gcc/arm-none-eabi/7.3.1/../../../../arm-none-eabi/lib/thumb/v7e-m/fpv4-sp/hard/libc_nano.a(lib_a-malloc.o)
                0x0000000008006f74                malloc
 .text._free_r  0x0000000008006f84       0x9c /home/jon/KODMOD/EMBEDDED_TOOLCHAINS/gcc-arm-none-eabi-7-2018-q2-update/bin/../lib/gcc/arm-none-eabi/7.3.1/../../../../arm-none-eabi/lib/thumb/v7e-m/fpv4-sp/hard/libc_nano.a(lib_a-nano-freer.o)
                0x0000000008006f84                _free_r
 .text._malloc_r
                0x0000000008007020       0xb4 /home/jon/KODMOD/EMBEDDED_TOOLCHAINS/gcc-arm-none-eabi-7-2018-q2-update/bin/../lib/gcc/arm-none-eabi/7.3.1/../../../../arm-none-eabi/lib/thumb/v7e-m/fpv4-sp/hard/libc_nano.a(lib_a-nano-mallocr.o)
                0x0000000008007020                _malloc_r
 .text.__ssputs_r
                0x00000000080070d4       0xb4 /home/jon/KODMOD/EMBEDDED_TOOLCHAINS/gcc-arm-none-eabi-7-2018-q2-update/bin/../lib/gcc/arm-none-eabi/7.3.1/../../../../arm-none-eabi/lib/thumb/v7e-m/fpv4-sp/hard/libc_nano.a(lib_a-nano-svfprintf.o)
                0x00000000080070d4                __ssputs_r
 .text._svfprintf_r
                0x0000000008007188      0x1f0 /home/jon/KODMOD/EMBEDDED_TOOLCHAINS/gcc-arm-none-eabi-7-2018-q2-update/bin/../lib/gcc/arm-none-eabi/7.3.1/../../../../arm-none-eabi/lib/thumb/v7e-m/fpv4-sp/hard/libc_nano.a(lib_a-nano-svfprintf.o)
                0x0000000008007188                _svfprintf_r
                0x0000000008007188                _svfiprintf_r
 .text._printf_common
                0x0000000008007378       0xea /home/jon/KODMOD/EMBEDDED_TOOLCHAINS/gcc-arm-none-eabi-7-2018-q2-update/bin/../lib/gcc/arm-none-eabi/7.3.1/../../../../arm-none-eabi/lib/thumb/v7e-m/fpv4-sp/hard/libc_nano.a(lib_a-nano-vfprintf_i.o)
                0x0000000008007378                _printf_common
 *fill*         0x0000000008007462        0x2 
 .text._printf_i
                0x0000000008007464      0x224 /home/jon/KODMOD/EMBEDDED_TOOLCHAINS/gcc-arm-none-eabi-7-2018-q2-update/bin/../lib/gcc/arm-none-eabi/7.3.1/../../../../arm-none-eabi/lib/thumb/v7e-m/fpv4-sp/hard/libc_nano.a(lib_a-nano-vfprintf_i.o)
                0x0000000008007464                _printf_i
 .text._sbrk_r  0x0000000008007688       0x20 /home/jon/KODMOD/EMBEDDED_TOOLCHAINS/gcc-arm-none-eabi-7-2018-q2-update/bin/../lib/gcc/arm-none-eabi/7.3.1/../../../../arm-none-eabi/lib/thumb/v7e-m/fpv4-sp/hard/libc_nano.a(lib_a-sbrkr.o)
                0x0000000008007688                _sbrk_r
 .text.memcpy   0x00000000080076a8       0x16 /home/jon/KODMOD/EMBEDDED_TOOLCHAINS/gcc-arm-none-eabi-7-2018-q2-update/bin/../lib/gcc/arm-none-eabi/7.3.1/../../../../arm-none-eabi/lib/thumb/v7e-m/fpv4-sp/hard/libc_nano.a(lib_a-memcpy-stub.o)
                0x00000000080076a8                memcpy
 .text.memmove  0x00000000080076be       0x32 /home/jon/KODMOD/EMBEDDED_TOOLCHAINS/gcc-arm-none-eabi-7-2018-q2-update/bin/../lib/gcc/arm-none-eabi/7.3.1/../../../../arm-none-eabi/lib/thumb/v7e-m/fpv4-sp/hard/libc_nano.a(lib_a-memmove.o)
                0x00000000080076be                memmove
 .text.__malloc_lock
                0x00000000080076f0        0x2 /home/jon/KODMOD/EMBEDDED_TOOLCHAINS/gcc-arm-none-eabi-7-2018-q2-update/bin/../lib/gcc/arm-none-eabi/7.3.1/../../../../arm-none-eabi/lib/thumb/v7e-m/fpv4-sp/hard/libc_nano.a(lib_a-mlock.o)
                0x00000000080076f0                __malloc_lock
 .text.__malloc_unlock
                0x00000000080076f2        0x2 /home/jon/KODMOD/EMBEDDED_TOOLCHAINS/gcc-arm-none-eabi-7-2018-q2-update/bin/../lib/gcc/arm-none-eabi/7.3.1/../../../../arm-none-eabi/lib/thumb/v7e-m/fpv4-sp/hard/libc_nano.a(lib_a-mlock.o)
                0x00000000080076f2                __malloc_unlock
 .text._realloc_r
                0x00000000080076f4       0x4c /home/jon/KODMOD/EMBEDDED_TOOLCHAINS/gcc-arm-none-eabi-7-2018-q2-update/bin/../lib/gcc/arm-none-eabi/7.3.1/../../../../arm-none-eabi/lib/thumb/v7e-m/fpv4-sp/hard/libc_nano.a(lib_a-nano-reallocr.o)
                0x00000000080076f4                _realloc_r
 .text._malloc_usable_size_r
                0x0000000008007740       0x10 /home/jon/KODMOD/EMBEDDED_TOOLCHAINS/gcc-arm-none-eabi-7-2018-q2-update/bin/../lib/gcc/arm-none-eabi/7.3.1/../../../../arm-none-eabi/lib/thumb/v7e-m/fpv4-sp/hard/libc_nano.a(lib_a-nano-msizer.o)
                0x0000000008007740                _malloc_usable_size_r
 .text.fmod     0x0000000008007750       0xd0 /home/jon/KODMOD/EMBEDDED_TOOLCHAINS/gcc-arm-none-eabi-7-2018-q2-update/bin/../lib/gcc/arm-none-eabi/7.3.1/../../../../arm-none-eabi/lib/thumb/v7e-m/fpv4-sp/hard/libm.a(lib_a-w_fmod.o)
                0x0000000008007750                fmod
 .text.__ieee754_fmod
                0x0000000008007820      0x248 /home/jon/KODMOD/EMBEDDED_TOOLCHAINS/gcc-arm-none-eabi-7-2018-q2-update/bin/../lib/gcc/arm-none-eabi/7.3.1/../../../../arm-none-eabi/lib/thumb/v7e-m/fpv4-sp/hard/libm.a(lib_a-e_fmod.o)
                0x0000000008007820                __ieee754_fmod
 .text.matherr  0x0000000008007a68        0x4 /home/jon/KODMOD/EMBEDDED_TOOLCHAINS/gcc-arm-none-eabi-7-2018-q2-update/bin/../lib/gcc/arm-none-eabi/7.3.1/../../../../arm-none-eabi/lib/thumb/v7e-m/fpv4-sp/hard/libm.a(lib_a-s_matherr.o)
                0x0000000008007a68                matherr
 .text._sbrk    0x0000000008007a6c       0x1c /home/jon/KODMOD/EMBEDDED_TOOLCHAINS/gcc-arm-none-eabi-7-2018-q2-update/bin/../lib/gcc/arm-none-eabi/7.3.1/../../../../arm-none-eabi/lib/thumb/v7e-m/fpv4-sp/hard/libnosys.a(sbrk.o)
                0x0000000008007a6c                _sbrk
 .text.__errno  0x0000000008007a88        0xc /home/jon/KODMOD/EMBEDDED_TOOLCHAINS/gcc-arm-none-eabi-7-2018-q2-update/bin/../lib/gcc/arm-none-eabi/7.3.1/../../../../arm-none-eabi/lib/thumb/v7e-m/fpv4-sp/hard/libc_nano.a(lib_a-errno.o)
                0x0000000008007a88                __errno
 *(.glue_7)
 .glue_7        0x0000000008007a94        0x0 linker stubs
 *(.glue_7t)
 .glue_7t       0x0000000008007a94        0x0 linker stubs
 *(.eh_frame)
 .eh_frame      0x0000000008007a94        0x0 /home/jon/KODMOD/EMBEDDED_TOOLCHAINS/gcc-arm-none-eabi-7-2018-q2-update/bin/../lib/gcc/arm-none-eabi/7.3.1/thumb/v7e-m/fpv4-sp/hard/crtbegin.o
 *(.init)
 .init          0x0000000008007a94        0x4 /home/jon/KODMOD/EMBEDDED_TOOLCHAINS/gcc-arm-none-eabi-7-2018-q2-update/bin/../lib/gcc/arm-none-eabi/7.3.1/thumb/v7e-m/fpv4-sp/hard/crti.o
                0x0000000008007a94                _init
 .init          0x0000000008007a98        0x8 /home/jon/KODMOD/EMBEDDED_TOOLCHAINS/gcc-arm-none-eabi-7-2018-q2-update/bin/../lib/gcc/arm-none-eabi/7.3.1/thumb/v7e-m/fpv4-sp/hard/crtn.o
 *(.fini)
 .fini          0x0000000008007aa0        0x4 /home/jon/KODMOD/EMBEDDED_TOOLCHAINS/gcc-arm-none-eabi-7-2018-q2-update/bin/../lib/gcc/arm-none-eabi/7.3.1/thumb/v7e-m/fpv4-sp/hard/crti.o
                0x0000000008007aa0                _fini
 .fini          0x0000000008007aa4        0x8 /home/jon/KODMOD/EMBEDDED_TOOLCHAINS/gcc-arm-none-eabi-7-2018-q2-update/bin/../lib/gcc/arm-none-eabi/7.3.1/thumb/v7e-m/fpv4-sp/hard/crtn.o
                0x0000000008007ab0                . = ALIGN (0x8)
 *fill*         0x0000000008007aac        0x4 
                0x0000000008007ab0                _etext = .

.vfp11_veneer   0x0000000008007ab0        0x0
 .vfp11_veneer  0x0000000008007ab0        0x0 linker stubs

.v4_bx          0x0000000008007ab0        0x0
 .v4_bx         0x0000000008007ab0        0x0 linker stubs

.iplt           0x0000000008007ab0        0x0
 .iplt          0x0000000008007ab0        0x0 /home/jon/KODMOD/EMBEDDED_TOOLCHAINS/gcc-arm-none-eabi-7-2018-q2-update/bin/../lib/gcc/arm-none-eabi/7.3.1/thumb/v7e-m/fpv4-sp/hard/crtbegin.o

.rodata         0x0000000008007ab0       0xf0
                0x0000000008007ab0                . = ALIGN (0x8)
 *(.rodata)
 *(.rodata*)
 .rodata.AHBPrescTable
                0x0000000008007ab0       0x10 build/system_stm32l4xx.o
                0x0000000008007ab0                AHBPrescTable
 .rodata.MSIRangeTable
                0x0000000008007ac0       0x30 build/system_stm32l4xx.o
                0x0000000008007ac0                MSIRangeTable
 .rodata.USBD_FS_ConfigStrDescriptor.str1.4
                0x0000000008007af0        0xb build/usbd_desc.o
 *fill*         0x0000000008007afb        0x1 
 .rodata.USBD_FS_InterfaceStrDescriptor.str1.4
                0x0000000008007afc        0xe build/usbd_desc.o
 *fill*         0x0000000008007b0a        0x2 
 .rodata.USBD_FS_ManufacturerStrDescriptor.str1.4
                0x0000000008007b0c        0xb build/usbd_desc.o
 *fill*         0x0000000008007b17        0x1 
 .rodata.USBD_FS_ProductStrDescriptor.str1.4
                0x0000000008007b18       0x16 build/usbd_desc.o
 *fill*         0x0000000008007b2e        0x2 
 .rodata.BoardBringupTest.str1.4
                0x0000000008007b30        0x3 build/shell.o
 *fill*         0x0000000008007b33        0x1 
 .rodata.Shell_ProcessCommand.str1.4
                0x0000000008007b34        0xf build/shell.o
 *fill*         0x0000000008007b43        0x1 
 .rodata.str1.4
                0x0000000008007b44        0xb build/shell.o
 .rodata._svfprintf_r.str1.1
                0x0000000008007b4f       0x11 /home/jon/KODMOD/EMBEDDED_TOOLCHAINS/gcc-arm-none-eabi-7-2018-q2-update/bin/../lib/gcc/arm-none-eabi/7.3.1/../../../../arm-none-eabi/lib/thumb/v7e-m/fpv4-sp/hard/libc_nano.a(lib_a-nano-svfprintf.o)
 .rodata._printf_i.str1.1
                0x0000000008007b60       0x22 /home/jon/KODMOD/EMBEDDED_TOOLCHAINS/gcc-arm-none-eabi-7-2018-q2-update/bin/../lib/gcc/arm-none-eabi/7.3.1/../../../../arm-none-eabi/lib/thumb/v7e-m/fpv4-sp/hard/libc_nano.a(lib_a-nano-vfprintf_i.o)
 *fill*         0x0000000008007b82        0x2 
 .rodata.fmod.str1.4
                0x0000000008007b84        0x8 /home/jon/KODMOD/EMBEDDED_TOOLCHAINS/gcc-arm-none-eabi-7-2018-q2-update/bin/../lib/gcc/arm-none-eabi/7.3.1/../../../../arm-none-eabi/lib/thumb/v7e-m/fpv4-sp/hard/libm.a(lib_a-w_fmod.o)
                                          0x5 (size before relaxing)
 *fill*         0x0000000008007b8c        0x4 
 .rodata.Zero   0x0000000008007b90       0x10 /home/jon/KODMOD/EMBEDDED_TOOLCHAINS/gcc-arm-none-eabi-7-2018-q2-update/bin/../lib/gcc/arm-none-eabi/7.3.1/../../../../arm-none-eabi/lib/thumb/v7e-m/fpv4-sp/hard/libm.a(lib_a-e_fmod.o)
                0x0000000008007ba0                . = ALIGN (0x8)

.rel.dyn        0x0000000008007ba0        0x0
 .rel.iplt      0x0000000008007ba0        0x0 /home/jon/KODMOD/EMBEDDED_TOOLCHAINS/gcc-arm-none-eabi-7-2018-q2-update/bin/../lib/gcc/arm-none-eabi/7.3.1/thumb/v7e-m/fpv4-sp/hard/crtbegin.o

.ARM.extab      0x0000000008007ba0        0x0
                0x0000000008007ba0                . = ALIGN (0x8)
 *(.ARM.extab* .gnu.linkonce.armextab.*)
                0x0000000008007ba0                . = ALIGN (0x8)

.ARM            0x0000000008007ba0        0x0
                0x0000000008007ba0                . = ALIGN (0x8)
                0x0000000008007ba0                __exidx_start = .
 *(.ARM.exidx*)
                0x0000000008007ba0                __exidx_end = .
                0x0000000008007ba0                . = ALIGN (0x8)

.preinit_array  0x0000000008007ba0        0x0
                0x0000000008007ba0                . = ALIGN (0x8)
                0x0000000008007ba0                PROVIDE (__preinit_array_start = .)
 *(.preinit_array*)
                0x0000000008007ba0                PROVIDE (__preinit_array_end = .)
                0x0000000008007ba0                . = ALIGN (0x8)

.init_array     0x0000000008007ba0        0x8
                0x0000000008007ba0                . = ALIGN (0x8)
                0x0000000008007ba0                PROVIDE (__init_array_start = .)
 *(SORT_BY_NAME(.init_array.*))
 *(.init_array*)
 .init_array    0x0000000008007ba0        0x4 /home/jon/KODMOD/EMBEDDED_TOOLCHAINS/gcc-arm-none-eabi-7-2018-q2-update/bin/../lib/gcc/arm-none-eabi/7.3.1/thumb/v7e-m/fpv4-sp/hard/crtbegin.o
                0x0000000008007ba4                PROVIDE (__init_array_end = .)
                0x0000000008007ba8                . = ALIGN (0x8)
 *fill*         0x0000000008007ba4        0x4 

.fini_array     0x0000000008007ba8        0x8
                0x0000000008007ba8                . = ALIGN (0x8)
                [!provide]                        PROVIDE (__fini_array_start = .)
 *(SORT_BY_NAME(.fini_array.*))
 *(.fini_array*)
 .fini_array    0x0000000008007ba8        0x4 /home/jon/KODMOD/EMBEDDED_TOOLCHAINS/gcc-arm-none-eabi-7-2018-q2-update/bin/../lib/gcc/arm-none-eabi/7.3.1/thumb/v7e-m/fpv4-sp/hard/crtbegin.o
                [!provide]                        PROVIDE (__fini_array_end = .)
                0x0000000008007bb0                . = ALIGN (0x8)
 *fill*         0x0000000008007bac        0x4 
                0x0000000008007bb0                _sidata = LOADADDR (.data)

.data           0x0000000020000000      0x240 load address 0x0000000008007bb0
                0x0000000020000000                . = ALIGN (0x8)
                0x0000000020000000                _sdata = .
 *(.data)
 *(.data*)
 .data.uwTickFreq
                0x0000000020000000        0x4 build/stm32l4xx_hal.o
                0x0000000020000000                uwTickFreq
 .data.uwTickPrio
                0x0000000020000004        0x4 build/stm32l4xx_hal.o
                0x0000000020000004                uwTickPrio
 .data.SystemCoreClock
                0x0000000020000008        0x4 build/system_stm32l4xx.o
                0x0000000020000008                SystemCoreClock
 .data.FS_Desc  0x000000002000000c       0x20 build/usbd_desc.o
                0x000000002000000c                FS_Desc
 .data.USBD_FS_BOSDesc
                0x000000002000002c        0xc build/usbd_desc.o
                0x000000002000002c                USBD_FS_BOSDesc
 .data.USBD_FS_DeviceDesc
                0x0000000020000038       0x12 build/usbd_desc.o
                0x0000000020000038                USBD_FS_DeviceDesc
 *fill*         0x000000002000004a        0x2 
 .data.USBD_LangIDDesc
                0x000000002000004c        0x4 build/usbd_desc.o
                0x000000002000004c                USBD_LangIDDesc
 .data.USBD_StringSerial
                0x0000000020000050       0x1a build/usbd_desc.o
                0x0000000020000050                USBD_StringSerial
 *fill*         0x000000002000006a        0x2 
 .data.USBD_Interface_fops_FS
                0x000000002000006c       0x10 build/usbd_cdc_if.o
                0x000000002000006c                USBD_Interface_fops_FS
 .data.USBD_CDC
                0x000000002000007c       0x38 build/usbd_cdc.o
                0x000000002000007c                USBD_CDC
 .data.USBD_CDC_CfgFSDesc
                0x00000000200000b4       0x43 build/usbd_cdc.o
                0x00000000200000b4                USBD_CDC_CfgFSDesc
 *fill*         0x00000000200000f7        0x1 
 .data.USBD_CDC_CfgHSDesc
                0x00000000200000f8       0x43 build/usbd_cdc.o
                0x00000000200000f8                USBD_CDC_CfgHSDesc
 *fill*         0x000000002000013b        0x1 
 .data.USBD_CDC_DeviceQualifierDesc
                0x000000002000013c        0xa build/usbd_cdc.o
 *fill*         0x0000000020000146        0x2 
 .data.USBD_CDC_OtherSpeedCfgDesc
                0x0000000020000148       0x43 build/usbd_cdc.o
                0x0000000020000148                USBD_CDC_OtherSpeedCfgDesc
 *fill*         0x000000002000018b        0x1 
 .data.ShellNewline
                0x000000002000018c        0x4 build/shell.o
                0x000000002000018c                ShellNewline
 .data.animations
                0x0000000020000190       0x20 build/addressable_led_manager.o
                0x0000000020000190                animations
 .data.clockdivider.10461
                0x00000000200001b0        0x1 build/random_triangles_animation.o
 .data.rowHueOffsetAdd.10479
                0x00000000200001b1        0x1 build/random_triangles_animation.o
 *fill*         0x00000000200001b2        0x6 
 .data.s.10482  0x00000000200001b8        0x8 build/random_triangles_animation.o
 .data.sadd.10488
                0x00000000200001c0        0x1 build/random_triangles_animation.o
 *fill*         0x00000000200001c1        0x7 
 .data.v.10483  0x00000000200001c8        0x8 build/random_triangles_animation.o
 .data.vadd.10489
                0x00000000200001d0        0x1 build/random_triangles_animation.o
 *fill*         0x00000000200001d1        0x3 
 .data._impure_ptr
                0x00000000200001d4        0x4 /home/jon/KODMOD/EMBEDDED_TOOLCHAINS/gcc-arm-none-eabi-7-2018-q2-update/bin/../lib/gcc/arm-none-eabi/7.3.1/../../../../arm-none-eabi/lib/thumb/v7e-m/fpv4-sp/hard/libc_nano.a(lib_a-impure.o)
                0x00000000200001d4                _impure_ptr
 .data.impure_data
                0x00000000200001d8       0x60 /home/jon/KODMOD/EMBEDDED_TOOLCHAINS/gcc-arm-none-eabi-7-2018-q2-update/bin/../lib/gcc/arm-none-eabi/7.3.1/../../../../arm-none-eabi/lib/thumb/v7e-m/fpv4-sp/hard/libc_nano.a(lib_a-impure.o)
 .data.__fdlib_version
                0x0000000020000238        0x1 /home/jon/KODMOD/EMBEDDED_TOOLCHAINS/gcc-arm-none-eabi-7-2018-q2-update/bin/../lib/gcc/arm-none-eabi/7.3.1/../../../../arm-none-eabi/lib/thumb/v7e-m/fpv4-sp/hard/libm.a(lib_a-s_lib_ver.o)
                0x0000000020000238                __fdlib_version
                0x0000000020000240                . = ALIGN (0x8)
 *fill*         0x0000000020000239        0x7 
                0x0000000020000240                _edata = .

.igot.plt       0x0000000020000240        0x0 load address 0x0000000008007df0
 .igot.plt      0x0000000020000240        0x0 /home/jon/KODMOD/EMBEDDED_TOOLCHAINS/gcc-arm-none-eabi-7-2018-q2-update/bin/../lib/gcc/arm-none-eabi/7.3.1/thumb/v7e-m/fpv4-sp/hard/crtbegin.o
                0x0000000020000240                . = ALIGN (0x4)

.bss            0x0000000020000240     0x6690 load address 0x0000000008007df0
                0x0000000020000240                _sbss = .
                0x0000000020000240                __bss_start__ = _sbss
 *(.bss)
 .bss           0x0000000020000240       0x1c /home/jon/KODMOD/EMBEDDED_TOOLCHAINS/gcc-arm-none-eabi-7-2018-q2-update/bin/../lib/gcc/arm-none-eabi/7.3.1/thumb/v7e-m/fpv4-sp/hard/crtbegin.o
 *(.bss*)
 .bss.mem.11803
                0x000000002000025c      0x220 build/usbd_conf.o
 .bss.cfgidx.11658
                0x000000002000047c        0x1 build/usbd_ctlreq.o
 *fill*         0x000000002000047d        0x3 
 .bss.ShellRxBufferHead
                0x0000000020000480        0x4 build/shell.o
                0x0000000020000480                ShellRxBufferHead
 .bss.animationIndex
                0x0000000020000484        0x1 build/addressable_led_manager.o
                0x0000000020000484                animationIndex
 .bss.animationSkipInProgress
                0x0000000020000485        0x1 build/addressable_led_manager.o
                0x0000000020000485                animationSkipInProgress
 *fill*         0x0000000020000486        0x2 
 .bss.context   0x0000000020000488       0x18 build/random_fade_animation.o
 .bss.count.10465
                0x00000000200004a0        0x4 build/random_fade_animation.o
 .bss.currColor.10466
                0x00000000200004a4        0x8 build/random_fade_animation.o
 *fill*         0x00000000200004ac        0x4 
 .bss.b.10474   0x00000000200004b0        0x8 build/random_triangles_animation.o
 .bss.bscaled.10477
                0x00000000200004b8        0x1 build/random_triangles_animation.o
 .bss.clockdivider.10450
                0x00000000200004b9        0x1 build/random_triangles_animation.o
 *fill*         0x00000000200004ba        0x2 
 .bss.context   0x00000000200004bc       0x14 build/random_triangles_animation.o
 .bss.g.10473   0x00000000200004d0        0x8 build/random_triangles_animation.o
 .bss.gscaled.10476
                0x00000000200004d8        0x1 build/random_triangles_animation.o
 *fill*         0x00000000200004d9        0x7 
 .bss.h.10481   0x00000000200004e0        0x8 build/random_triangles_animation.o
 .bss.r.10472   0x00000000200004e8        0x8 build/random_triangles_animation.o
 .bss.rowHueOffset.10478
                0x00000000200004f0        0x8 build/random_triangles_animation.o
 .bss.rscaled.10475
                0x00000000200004f8        0x1 build/random_triangles_animation.o
 *fill*         0x00000000200004f9        0x3 
 .bss.__malloc_free_list
                0x00000000200004fc        0x4 /home/jon/KODMOD/EMBEDDED_TOOLCHAINS/gcc-arm-none-eabi-7-2018-q2-update/bin/../lib/gcc/arm-none-eabi/7.3.1/../../../../arm-none-eabi/lib/thumb/v7e-m/fpv4-sp/hard/libc_nano.a(lib_a-nano-mallocr.o)
                0x00000000200004fc                __malloc_free_list
 .bss.__malloc_sbrk_start
                0x0000000020000500        0x4 /home/jon/KODMOD/EMBEDDED_TOOLCHAINS/gcc-arm-none-eabi-7-2018-q2-update/bin/../lib/gcc/arm-none-eabi/7.3.1/../../../../arm-none-eabi/lib/thumb/v7e-m/fpv4-sp/hard/libc_nano.a(lib_a-nano-mallocr.o)
                0x0000000020000500                __malloc_sbrk_start
 .bss.heap_end.5377
                0x0000000020000504        0x4 /home/jon/KODMOD/EMBEDDED_TOOLCHAINS/gcc-arm-none-eabi-7-2018-q2-update/bin/../lib/gcc/arm-none-eabi/7.3.1/../../../../arm-none-eabi/lib/thumb/v7e-m/fpv4-sp/hard/libnosys.a(sbrk.o)
 *(COMMON)
 COMMON         0x0000000020000508        0x4 build/stm32l4xx_hal.o
                0x0000000020000508                uwTick
 COMMON         0x000000002000050c       0x64 build/adc.o
                0x000000002000050c                hadc1
 COMMON         0x0000000020000570       0x98 build/i2c.o
                0x0000000020000570                hi2c1
                0x00000000200005bc                hi2c2
 COMMON         0x0000000020000608      0x2c4 build/usb_device.o
                0x0000000020000608                hUsbDeviceFS
 COMMON         0x00000000200008cc      0x408 build/usbd_conf.o
                0x00000000200008cc                hpcd_USB_OTG_FS
 COMMON         0x0000000020000cd4      0x200 build/usbd_desc.o
                0x0000000020000cd4                USBD_StrDesc
 COMMON         0x0000000020000ed4     0x1000 build/usbd_cdc_if.o
                0x0000000020000ed4                UserRxBufferFS
                0x00000000200016d4                UserTxBufferFS
 COMMON         0x0000000020001ed4      0x200 build/shell.o
                0x0000000020001ed4                ShellRxBuffer
 COMMON         0x00000000200020d4     0x4770 build/addressable_led_manager.o
                0x00000000200020d4                randomTrianglesPixelData
                0x0000000020002264                ledStrip1Pixels
                0x0000000020005e64                ledStrip1
                0x0000000020005e78                randomFadePixelData
                0x0000000020006008                panels
                0x00000000200060a8                ledStrip1PacketBuffer
                0x000000002000682c                refreshTimer
 COMMON         0x0000000020006844       0x88 build/tim.o
                0x0000000020006844                htim3
                0x0000000020006884                hdma_tim3_ch4_up
 COMMON         0x00000000200068cc        0x4 /home/jon/KODMOD/EMBEDDED_TOOLCHAINS/gcc-arm-none-eabi-7-2018-q2-update/bin/../lib/gcc/arm-none-eabi/7.3.1/../../../../arm-none-eabi/lib/thumb/v7e-m/fpv4-sp/hard/libc_nano.a(lib_a-reent.o)
                0x00000000200068cc                errno
                0x00000000200068d0                . = ALIGN (0x4)
                0x00000000200068d0                _ebss = .
                0x00000000200068d0                __bss_end__ = _ebss

._user_heap_stack
                0x00000000200068d0      0x600 load address 0x0000000008007df0
                0x00000000200068d0                . = ALIGN (0x8)
                0x00000000200068d0                PROVIDE (end = .)
                [!provide]                        PROVIDE (_end = .)
                0x0000000020006ad0                . = (. + _Min_Heap_Size)
 *fill*         0x00000000200068d0      0x200 
                0x0000000020006ed0                . = (. + _Min_Stack_Size)
 *fill*         0x0000000020006ad0      0x400 
                0x0000000020006ed0                . = ALIGN (0x8)

/DISCARD/
 libc.a(*)
 libm.a(*)
 libgcc.a(*)

.ARM.attributes
                0x0000000000000000       0x30
 *(.ARM.attributes)
 .ARM.attributes
                0x0000000000000000       0x22 /home/jon/KODMOD/EMBEDDED_TOOLCHAINS/gcc-arm-none-eabi-7-2018-q2-update/bin/../lib/gcc/arm-none-eabi/7.3.1/thumb/v7e-m/fpv4-sp/hard/crti.o
 .ARM.attributes
                0x0000000000000022       0x34 /home/jon/KODMOD/EMBEDDED_TOOLCHAINS/gcc-arm-none-eabi-7-2018-q2-update/bin/../lib/gcc/arm-none-eabi/7.3.1/thumb/v7e-m/fpv4-sp/hard/crtbegin.o
 .ARM.attributes
                0x0000000000000056       0x39 build/main.o
 .ARM.attributes
                0x000000000000008f       0x39 build/gpio.o
 .ARM.attributes
                0x00000000000000c8       0x39 build/stm32l4xx_it.o
 .ARM.attributes
                0x0000000000000101       0x39 build/stm32l4xx_hal_msp.o
 .ARM.attributes
                0x000000000000013a       0x39 build/stm32l4xx_hal_tim.o
 .ARM.attributes
                0x0000000000000173       0x39 build/stm32l4xx_hal_tim_ex.o
 .ARM.attributes
                0x00000000000001ac       0x39 build/stm32l4xx_hal.o
 .ARM.attributes
                0x00000000000001e5       0x39 build/stm32l4xx_hal_i2c.o
 .ARM.attributes
                0x000000000000021e       0x39 build/stm32l4xx_hal_i2c_ex.o
 .ARM.attributes
                0x0000000000000257       0x39 build/stm32l4xx_hal_rcc.o
 .ARM.attributes
                0x0000000000000290       0x39 build/stm32l4xx_hal_rcc_ex.o
 .ARM.attributes
                0x00000000000002c9       0x39 build/stm32l4xx_hal_gpio.o
 .ARM.attributes
                0x0000000000000302       0x39 build/stm32l4xx_hal_dma.o
 .ARM.attributes
                0x000000000000033b       0x39 build/stm32l4xx_hal_pwr_ex.o
 .ARM.attributes
                0x0000000000000374       0x39 build/stm32l4xx_hal_cortex.o
 .ARM.attributes
                0x00000000000003ad       0x39 build/system_stm32l4xx.o
 .ARM.attributes
                0x00000000000003e6       0x39 build/adc.o
 .ARM.attributes
                0x000000000000041f       0x39 build/i2c.o
 .ARM.attributes
                0x0000000000000458       0x39 build/stm32l4xx_hal_adc.o
 .ARM.attributes
                0x0000000000000491       0x39 build/stm32l4xx_hal_adc_ex.o
 .ARM.attributes
                0x00000000000004ca       0x39 build/stm32l4xx_ll_usb.o
 .ARM.attributes
                0x0000000000000503       0x39 build/usb_device.o
 .ARM.attributes
                0x000000000000053c       0x39 build/usbd_conf.o
 .ARM.attributes
                0x0000000000000575       0x39 build/usbd_desc.o
 .ARM.attributes
                0x00000000000005ae       0x39 build/usbd_cdc_if.o
 .ARM.attributes
                0x00000000000005e7       0x39 build/stm32l4xx_hal_pcd.o
 .ARM.attributes
                0x0000000000000620       0x39 build/stm32l4xx_hal_pcd_ex.o
 .ARM.attributes
                0x0000000000000659       0x39 build/usbd_core.o
 .ARM.attributes
                0x0000000000000692       0x39 build/usbd_ctlreq.o
 .ARM.attributes
                0x00000000000006cb       0x39 build/usbd_ioreq.o
 .ARM.attributes
                0x0000000000000704       0x39 build/usbd_cdc.o
 .ARM.attributes
                0x000000000000073d       0x39 build/shell.o
 .ARM.attributes
                0x0000000000000776       0x39 build/addressable_led_manager.o
 .ARM.attributes
                0x00000000000007af       0x39 build/utils.o
 .ARM.attributes
                0x00000000000007e8       0x39 build/dma.o
 .ARM.attributes
                0x0000000000000821       0x39 build/tim.o
 .ARM.attributes
                0x000000000000085a       0x39 build/random_fade_animation.o
 .ARM.attributes
                0x0000000000000893       0x39 build/random_triangles_animation.o
 .ARM.attributes
                0x00000000000008cc       0x39 build/color.o
 .ARM.attributes
                0x0000000000000905       0x21 build/startup_stm32l476xx.o
 .ARM.attributes
                0x0000000000000926       0x34 /home/jon/KODMOD/EMBEDDED_TOOLCHAINS/gcc-arm-none-eabi-7-2018-q2-update/bin/../lib/gcc/arm-none-eabi/7.3.1/../../../../arm-none-eabi/lib/thumb/v7e-m/fpv4-sp/hard/libc_nano.a(lib_a-impure.o)
 .ARM.attributes
                0x000000000000095a       0x34 /home/jon/KODMOD/EMBEDDED_TOOLCHAINS/gcc-arm-none-eabi-7-2018-q2-update/bin/../lib/gcc/arm-none-eabi/7.3.1/../../../../arm-none-eabi/lib/thumb/v7e-m/fpv4-sp/hard/libc_nano.a(lib_a-init.o)
 .ARM.attributes
                0x000000000000098e       0x34 /home/jon/KODMOD/EMBEDDED_TOOLCHAINS/gcc-arm-none-eabi-7-2018-q2-update/bin/../lib/gcc/arm-none-eabi/7.3.1/../../../../arm-none-eabi/lib/thumb/v7e-m/fpv4-sp/hard/libc_nano.a(lib_a-memset.o)
 .ARM.attributes
                0x00000000000009c2       0x34 /home/jon/KODMOD/EMBEDDED_TOOLCHAINS/gcc-arm-none-eabi-7-2018-q2-update/bin/../lib/gcc/arm-none-eabi/7.3.1/../../../../arm-none-eabi/lib/thumb/v7e-m/fpv4-sp/hard/libc_nano.a(lib_a-rand.o)
 .ARM.attributes
                0x00000000000009f6       0x34 /home/jon/KODMOD/EMBEDDED_TOOLCHAINS/gcc-arm-none-eabi-7-2018-q2-update/bin/../lib/gcc/arm-none-eabi/7.3.1/../../../../arm-none-eabi/lib/thumb/v7e-m/fpv4-sp/hard/libc_nano.a(lib_a-sprintf.o)
 .ARM.attributes
                0x0000000000000a2a       0x1b /home/jon/KODMOD/EMBEDDED_TOOLCHAINS/gcc-arm-none-eabi-7-2018-q2-update/bin/../lib/gcc/arm-none-eabi/7.3.1/../../../../arm-none-eabi/lib/thumb/v7e-m/fpv4-sp/hard/libc_nano.a(lib_a-strlen.o)
 .ARM.attributes
                0x0000000000000a45       0x34 /home/jon/KODMOD/EMBEDDED_TOOLCHAINS/gcc-arm-none-eabi-7-2018-q2-update/bin/../lib/gcc/arm-none-eabi/7.3.1/../../../../arm-none-eabi/lib/thumb/v7e-m/fpv4-sp/hard/libc_nano.a(lib_a-strncmp.o)
 .ARM.attributes
                0x0000000000000a79       0x34 /home/jon/KODMOD/EMBEDDED_TOOLCHAINS/gcc-arm-none-eabi-7-2018-q2-update/bin/../lib/gcc/arm-none-eabi/7.3.1/../../../../arm-none-eabi/lib/thumb/v7e-m/fpv4-sp/hard/libc_nano.a(lib_a-malloc.o)
 .ARM.attributes
                0x0000000000000aad       0x34 /home/jon/KODMOD/EMBEDDED_TOOLCHAINS/gcc-arm-none-eabi-7-2018-q2-update/bin/../lib/gcc/arm-none-eabi/7.3.1/../../../../arm-none-eabi/lib/thumb/v7e-m/fpv4-sp/hard/libc_nano.a(lib_a-nano-freer.o)
 .ARM.attributes
                0x0000000000000ae1       0x34 /home/jon/KODMOD/EMBEDDED_TOOLCHAINS/gcc-arm-none-eabi-7-2018-q2-update/bin/../lib/gcc/arm-none-eabi/7.3.1/../../../../arm-none-eabi/lib/thumb/v7e-m/fpv4-sp/hard/libc_nano.a(lib_a-nano-mallocr.o)
 .ARM.attributes
                0x0000000000000b15       0x34 /home/jon/KODMOD/EMBEDDED_TOOLCHAINS/gcc-arm-none-eabi-7-2018-q2-update/bin/../lib/gcc/arm-none-eabi/7.3.1/../../../../arm-none-eabi/lib/thumb/v7e-m/fpv4-sp/hard/libc_nano.a(lib_a-nano-svfprintf.o)
 .ARM.attributes
                0x0000000000000b49       0x34 /home/jon/KODMOD/EMBEDDED_TOOLCHAINS/gcc-arm-none-eabi-7-2018-q2-update/bin/../lib/gcc/arm-none-eabi/7.3.1/../../../../arm-none-eabi/lib/thumb/v7e-m/fpv4-sp/hard/libc_nano.a(lib_a-nano-vfprintf_i.o)
 .ARM.attributes
                0x0000000000000b7d       0x34 /home/jon/KODMOD/EMBEDDED_TOOLCHAINS/gcc-arm-none-eabi-7-2018-q2-update/bin/../lib/gcc/arm-none-eabi/7.3.1/../../../../arm-none-eabi/lib/thumb/v7e-m/fpv4-sp/hard/libc_nano.a(lib_a-sbrkr.o)
 .ARM.attributes
                0x0000000000000bb1       0x20 /home/jon/KODMOD/EMBEDDED_TOOLCHAINS/gcc-arm-none-eabi-7-2018-q2-update/bin/../lib/gcc/arm-none-eabi/7.3.1/../../../../arm-none-eabi/lib/thumb/v7e-m/fpv4-sp/hard/libc_nano.a(lib_a-memchr.o)
 .ARM.attributes
                0x0000000000000bd1       0x34 /home/jon/KODMOD/EMBEDDED_TOOLCHAINS/gcc-arm-none-eabi-7-2018-q2-update/bin/../lib/gcc/arm-none-eabi/7.3.1/../../../../arm-none-eabi/lib/thumb/v7e-m/fpv4-sp/hard/libc_nano.a(lib_a-memcpy-stub.o)
 .ARM.attributes
                0x0000000000000c05       0x34 /home/jon/KODMOD/EMBEDDED_TOOLCHAINS/gcc-arm-none-eabi-7-2018-q2-update/bin/../lib/gcc/arm-none-eabi/7.3.1/../../../../arm-none-eabi/lib/thumb/v7e-m/fpv4-sp/hard/libc_nano.a(lib_a-memmove.o)
 .ARM.attributes
                0x0000000000000c39       0x34 /home/jon/KODMOD/EMBEDDED_TOOLCHAINS/gcc-arm-none-eabi-7-2018-q2-update/bin/../lib/gcc/arm-none-eabi/7.3.1/../../../../arm-none-eabi/lib/thumb/v7e-m/fpv4-sp/hard/libc_nano.a(lib_a-mlock.o)
 .ARM.attributes
                0x0000000000000c6d       0x34 /home/jon/KODMOD/EMBEDDED_TOOLCHAINS/gcc-arm-none-eabi-7-2018-q2-update/bin/../lib/gcc/arm-none-eabi/7.3.1/../../../../arm-none-eabi/lib/thumb/v7e-m/fpv4-sp/hard/libc_nano.a(lib_a-nano-reallocr.o)
 .ARM.attributes
                0x0000000000000ca1       0x34 /home/jon/KODMOD/EMBEDDED_TOOLCHAINS/gcc-arm-none-eabi-7-2018-q2-update/bin/../lib/gcc/arm-none-eabi/7.3.1/../../../../arm-none-eabi/lib/thumb/v7e-m/fpv4-sp/hard/libc_nano.a(lib_a-reent.o)
 .ARM.attributes
                0x0000000000000cd5       0x34 /home/jon/KODMOD/EMBEDDED_TOOLCHAINS/gcc-arm-none-eabi-7-2018-q2-update/bin/../lib/gcc/arm-none-eabi/7.3.1/../../../../arm-none-eabi/lib/thumb/v7e-m/fpv4-sp/hard/libc_nano.a(lib_a-nano-msizer.o)
 .ARM.attributes
                0x0000000000000d09       0x34 /home/jon/KODMOD/EMBEDDED_TOOLCHAINS/gcc-arm-none-eabi-7-2018-q2-update/bin/../lib/gcc/arm-none-eabi/7.3.1/../../../../arm-none-eabi/lib/thumb/v7e-m/fpv4-sp/hard/libm.a(lib_a-w_fmod.o)
 .ARM.attributes
                0x0000000000000d3d       0x34 /home/jon/KODMOD/EMBEDDED_TOOLCHAINS/gcc-arm-none-eabi-7-2018-q2-update/bin/../lib/gcc/arm-none-eabi/7.3.1/../../../../arm-none-eabi/lib/thumb/v7e-m/fpv4-sp/hard/libm.a(lib_a-e_fmod.o)
 .ARM.attributes
                0x0000000000000d71       0x34 /home/jon/KODMOD/EMBEDDED_TOOLCHAINS/gcc-arm-none-eabi-7-2018-q2-update/bin/../lib/gcc/arm-none-eabi/7.3.1/../../../../arm-none-eabi/lib/thumb/v7e-m/fpv4-sp/hard/libm.a(lib_a-s_lib_ver.o)
 .ARM.attributes
                0x0000000000000da5       0x34 /home/jon/KODMOD/EMBEDDED_TOOLCHAINS/gcc-arm-none-eabi-7-2018-q2-update/bin/../lib/gcc/arm-none-eabi/7.3.1/../../../../arm-none-eabi/lib/thumb/v7e-m/fpv4-sp/hard/libm.a(lib_a-s_matherr.o)
 .ARM.attributes
                0x0000000000000dd9       0x34 /home/jon/KODMOD/EMBEDDED_TOOLCHAINS/gcc-arm-none-eabi-7-2018-q2-update/bin/../lib/gcc/arm-none-eabi/7.3.1/../../../../arm-none-eabi/lib/thumb/v7e-m/fpv4-sp/hard/libnosys.a(sbrk.o)
 .ARM.attributes
                0x0000000000000e0d       0x22 /home/jon/KODMOD/EMBEDDED_TOOLCHAINS/gcc-arm-none-eabi-7-2018-q2-update/bin/../lib/gcc/arm-none-eabi/7.3.1/thumb/v7e-m/fpv4-sp/hard/libgcc.a(_arm_addsubdf3.o)
 .ARM.attributes
                0x0000000000000e2f       0x22 /home/jon/KODMOD/EMBEDDED_TOOLCHAINS/gcc-arm-none-eabi-7-2018-q2-update/bin/../lib/gcc/arm-none-eabi/7.3.1/thumb/v7e-m/fpv4-sp/hard/libgcc.a(_arm_muldivdf3.o)
 .ARM.attributes
                0x0000000000000e51       0x22 /home/jon/KODMOD/EMBEDDED_TOOLCHAINS/gcc-arm-none-eabi-7-2018-q2-update/bin/../lib/gcc/arm-none-eabi/7.3.1/thumb/v7e-m/fpv4-sp/hard/libgcc.a(_arm_cmpdf2.o)
 .ARM.attributes
                0x0000000000000e73       0x22 /home/jon/KODMOD/EMBEDDED_TOOLCHAINS/gcc-arm-none-eabi-7-2018-q2-update/bin/../lib/gcc/arm-none-eabi/7.3.1/thumb/v7e-m/fpv4-sp/hard/libgcc.a(_arm_unorddf2.o)
 .ARM.attributes
                0x0000000000000e95       0x22 /home/jon/KODMOD/EMBEDDED_TOOLCHAINS/gcc-arm-none-eabi-7-2018-q2-update/bin/../lib/gcc/arm-none-eabi/7.3.1/thumb/v7e-m/fpv4-sp/hard/libgcc.a(_arm_fixdfsi.o)
 .ARM.attributes
                0x0000000000000eb7       0x22 /home/jon/KODMOD/EMBEDDED_TOOLCHAINS/gcc-arm-none-eabi-7-2018-q2-update/bin/../lib/gcc/arm-none-eabi/7.3.1/thumb/v7e-m/fpv4-sp/hard/libgcc.a(_arm_fixunsdfsi.o)
 .ARM.attributes
                0x0000000000000ed9       0x34 /home/jon/KODMOD/EMBEDDED_TOOLCHAINS/gcc-arm-none-eabi-7-2018-q2-update/bin/../lib/gcc/arm-none-eabi/7.3.1/../../../../arm-none-eabi/lib/thumb/v7e-m/fpv4-sp/hard/libc_nano.a(lib_a-errno.o)
 .ARM.attributes
                0x0000000000000f0d       0x22 /home/jon/KODMOD/EMBEDDED_TOOLCHAINS/gcc-arm-none-eabi-7-2018-q2-update/bin/../lib/gcc/arm-none-eabi/7.3.1/thumb/v7e-m/fpv4-sp/hard/crtn.o
OUTPUT(build/board_bringup.elf elf32-littlearm)

.debug_info     0x0000000000000000    0x357ab
 .debug_info    0x0000000000000000     0x1e71 build/main.o
 .debug_info    0x0000000000001e71      0x7cd build/gpio.o
 .debug_info    0x000000000000263e      0xb40 build/stm32l4xx_it.o
 .debug_info    0x000000000000317e      0x541 build/stm32l4xx_hal_msp.o
 .debug_info    0x00000000000036bf     0x36f3 build/stm32l4xx_hal_tim.o
 .debug_info    0x0000000000006db2     0x192a build/stm32l4xx_hal_tim_ex.o
 .debug_info    0x00000000000086dc      0xdd2 build/stm32l4xx_hal.o
 .debug_info    0x00000000000094ae     0x3d1d build/stm32l4xx_hal_i2c.o
 .debug_info    0x000000000000d1cb      0xc60 build/stm32l4xx_hal_i2c_ex.o
 .debug_info    0x000000000000de2b     0x1099 build/stm32l4xx_hal_rcc.o
 .debug_info    0x000000000000eec4     0x1438 build/stm32l4xx_hal_rcc_ex.o
 .debug_info    0x00000000000102fc      0xa6b build/stm32l4xx_hal_gpio.o
 .debug_info    0x0000000000010d67      0x9ed build/stm32l4xx_hal_dma.o
 .debug_info    0x0000000000011754      0xcba build/stm32l4xx_hal_pwr_ex.o
 .debug_info    0x000000000001240e     0x119a build/stm32l4xx_hal_cortex.o
 .debug_info    0x00000000000135a8      0x7a3 build/system_stm32l4xx.o
 .debug_info    0x0000000000013d4b      0xfb2 build/adc.o
 .debug_info    0x0000000000014cfd      0xe5e build/i2c.o
 .debug_info    0x0000000000015b5b     0x2d25 build/stm32l4xx_hal_adc.o
 .debug_info    0x0000000000018880     0x26ee build/stm32l4xx_hal_adc_ex.o
 .debug_info    0x000000000001af6e     0x1e33 build/stm32l4xx_ll_usb.o
 .debug_info    0x000000000001cda1     0x11fa build/usb_device.o
 .debug_info    0x000000000001df9b     0x2aa1 build/usbd_conf.o
 .debug_info    0x0000000000020a3c     0x1130 build/usbd_desc.o
 .debug_info    0x0000000000021b6c     0x1401 build/usbd_cdc_if.o
 .debug_info    0x0000000000022f6d     0x1aa0 build/stm32l4xx_hal_pcd.o
 .debug_info    0x0000000000024a0d      0xbe6 build/stm32l4xx_hal_pcd_ex.o
 .debug_info    0x00000000000255f3     0x1874 build/usbd_core.o
 .debug_info    0x0000000000026e67     0x1b8f build/usbd_ctlreq.o
 .debug_info    0x00000000000289f6     0x12f3 build/usbd_ioreq.o
 .debug_info    0x0000000000029ce9     0x1ea4 build/usbd_cdc.o
 .debug_info    0x000000000002bb8d     0x1e05 build/shell.o
 .debug_info    0x000000000002d992     0x1a26 build/addressable_led_manager.o
 .debug_info    0x000000000002f3b8     0x11dc build/utils.o
 .debug_info    0x0000000000030594      0x79f build/dma.o
 .debug_info    0x0000000000030d33      0xea9 build/tim.o
 .debug_info    0x0000000000031bdc     0x1742 build/random_fade_animation.o
 .debug_info    0x000000000003331e     0x19b3 build/random_triangles_animation.o
 .debug_info    0x0000000000034cd1      0xab8 build/color.o
 .debug_info    0x0000000000035789       0x22 build/startup_stm32l476xx.o

.debug_abbrev   0x0000000000000000     0x5cb0
 .debug_abbrev  0x0000000000000000      0x279 build/main.o
 .debug_abbrev  0x0000000000000279      0x162 build/gpio.o
 .debug_abbrev  0x00000000000003db      0x190 build/stm32l4xx_it.o
 .debug_abbrev  0x000000000000056b      0x124 build/stm32l4xx_hal_msp.o
 .debug_abbrev  0x000000000000068f      0x274 build/stm32l4xx_hal_tim.o
 .debug_abbrev  0x0000000000000903      0x26d build/stm32l4xx_hal_tim_ex.o
 .debug_abbrev  0x0000000000000b70      0x223 build/stm32l4xx_hal.o
 .debug_abbrev  0x0000000000000d93      0x2ab build/stm32l4xx_hal_i2c.o
 .debug_abbrev  0x000000000000103e      0x1b8 build/stm32l4xx_hal_i2c_ex.o
 .debug_abbrev  0x00000000000011f6      0x255 build/stm32l4xx_hal_rcc.o
 .debug_abbrev  0x000000000000144b      0x280 build/stm32l4xx_hal_rcc_ex.o
 .debug_abbrev  0x00000000000016cb      0x213 build/stm32l4xx_hal_gpio.o
 .debug_abbrev  0x00000000000018de      0x24f build/stm32l4xx_hal_dma.o
 .debug_abbrev  0x0000000000001b2d      0x20f build/stm32l4xx_hal_pwr_ex.o
 .debug_abbrev  0x0000000000001d3c      0x33d build/stm32l4xx_hal_cortex.o
 .debug_abbrev  0x0000000000002079      0x14f build/system_stm32l4xx.o
 .debug_abbrev  0x00000000000021c8      0x1ca build/adc.o
 .debug_abbrev  0x0000000000002392      0x1d5 build/i2c.o
 .debug_abbrev  0x0000000000002567      0x2ca build/stm32l4xx_hal_adc.o
 .debug_abbrev  0x0000000000002831      0x348 build/stm32l4xx_hal_adc_ex.o
 .debug_abbrev  0x0000000000002b79      0x2dc build/stm32l4xx_ll_usb.o
 .debug_abbrev  0x0000000000002e55      0x1fe build/usb_device.o
 .debug_abbrev  0x0000000000003053      0x34b build/usbd_conf.o
 .debug_abbrev  0x000000000000339e      0x2a9 build/usbd_desc.o
 .debug_abbrev  0x0000000000003647      0x2c5 build/usbd_cdc_if.o
 .debug_abbrev  0x000000000000390c      0x2ad build/stm32l4xx_hal_pcd.o
 .debug_abbrev  0x0000000000003bb9      0x265 build/stm32l4xx_hal_pcd_ex.o
 .debug_abbrev  0x0000000000003e1e      0x2c6 build/usbd_core.o
 .debug_abbrev  0x00000000000040e4      0x325 build/usbd_ctlreq.o
 .debug_abbrev  0x0000000000004409      0x1f7 build/usbd_ioreq.o
 .debug_abbrev  0x0000000000004600      0x351 build/usbd_cdc.o
 .debug_abbrev  0x0000000000004951      0x2cc build/shell.o
 .debug_abbrev  0x0000000000004c1d      0x355 build/addressable_led_manager.o
 .debug_abbrev  0x0000000000004f72      0x1fc build/utils.o
 .debug_abbrev  0x000000000000516e      0x15c build/dma.o
 .debug_abbrev  0x00000000000052ca      0x1ec build/tim.o
 .debug_abbrev  0x00000000000054b6      0x2d6 build/random_fade_animation.o
 .debug_abbrev  0x000000000000578c      0x319 build/random_triangles_animation.o
 .debug_abbrev  0x0000000000005aa5      0x1f9 build/color.o
 .debug_abbrev  0x0000000000005c9e       0x12 build/startup_stm32l476xx.o

.debug_loc      0x0000000000000000    0x1c2a9
 .debug_loc     0x0000000000000000       0x59 build/main.o
 .debug_loc     0x0000000000000059       0x38 build/gpio.o
 .debug_loc     0x0000000000000091       0x60 build/stm32l4xx_it.o
 .debug_loc     0x00000000000000f1       0x2c build/stm32l4xx_hal_msp.o
 .debug_loc     0x000000000000011d     0x4675 build/stm32l4xx_hal_tim.o
 .debug_loc     0x0000000000004792     0x1d6f build/stm32l4xx_hal_tim_ex.o
 .debug_loc     0x0000000000006501      0x2bd build/stm32l4xx_hal.o
 .debug_loc     0x00000000000067be     0x50f5 build/stm32l4xx_hal_i2c.o
 .debug_loc     0x000000000000b8b3      0x25c build/stm32l4xx_hal_i2c_ex.o
 .debug_loc     0x000000000000bb0f      0x7e6 build/stm32l4xx_hal_rcc.o
 .debug_loc     0x000000000000c2f5     0x1e2a build/stm32l4xx_hal_rcc_ex.o
 .debug_loc     0x000000000000e11f      0x36e build/stm32l4xx_hal_gpio.o
 .debug_loc     0x000000000000e48d      0x91a build/stm32l4xx_hal_dma.o
 .debug_loc     0x000000000000eda7      0x9fa build/stm32l4xx_hal_pwr_ex.o
 .debug_loc     0x000000000000f7a1      0x65e build/stm32l4xx_hal_cortex.o
 .debug_loc     0x000000000000fdff      0x1b8 build/system_stm32l4xx.o
 .debug_loc     0x000000000000ffb7      0x11c build/adc.o
 .debug_loc     0x00000000000100d3      0x14a build/i2c.o
 .debug_loc     0x000000000001021d     0x220b build/stm32l4xx_hal_adc.o
 .debug_loc     0x0000000000012428     0x1e59 build/stm32l4xx_hal_adc_ex.o
 .debug_loc     0x0000000000014281     0x207d build/stm32l4xx_ll_usb.o
 .debug_loc     0x00000000000162fe       0x20 build/usb_device.o
 .debug_loc     0x000000000001631e     0x1099 build/usbd_conf.o
 .debug_loc     0x00000000000173b7      0x41b build/usbd_desc.o
 .debug_loc     0x00000000000177d2      0x189 build/usbd_cdc_if.o
 .debug_loc     0x000000000001795b     0x1145 build/stm32l4xx_hal_pcd.o
 .debug_loc     0x0000000000018aa0      0x1e8 build/stm32l4xx_hal_pcd_ex.o
 .debug_loc     0x0000000000018c88      0x879 build/usbd_core.o
 .debug_loc     0x0000000000019501     0x1266 build/usbd_ctlreq.o
 .debug_loc     0x000000000001a767      0x31c build/usbd_ioreq.o
 .debug_loc     0x000000000001aa83      0x859 build/usbd_cdc.o
 .debug_loc     0x000000000001b2dc      0x132 build/shell.o
 .debug_loc     0x000000000001b40e      0x2fe build/addressable_led_manager.o
 .debug_loc     0x000000000001b70c       0x62 build/utils.o
 .debug_loc     0x000000000001b76e       0x38 build/dma.o
 .debug_loc     0x000000000001b7a6      0x170 build/tim.o
 .debug_loc     0x000000000001b916      0x303 build/random_fade_animation.o
 .debug_loc     0x000000000001bc19      0x411 build/random_triangles_animation.o
 .debug_loc     0x000000000001c02a      0x27f build/color.o

.debug_aranges  0x0000000000000000     0x19c0
 .debug_aranges
                0x0000000000000000       0x30 build/main.o
 .debug_aranges
                0x0000000000000030       0x20 build/gpio.o
 .debug_aranges
                0x0000000000000050       0x70 build/stm32l4xx_it.o
 .debug_aranges
                0x00000000000000c0       0x20 build/stm32l4xx_hal_msp.o
 .debug_aranges
                0x00000000000000e0      0x3b8 build/stm32l4xx_hal_tim.o
 .debug_aranges
                0x0000000000000498      0x168 build/stm32l4xx_hal_tim_ex.o
 .debug_aranges
                0x0000000000000600      0x130 build/stm32l4xx_hal.o
 .debug_aranges
                0x0000000000000730      0x290 build/stm32l4xx_hal_i2c.o
 .debug_aranges
                0x00000000000009c0       0x48 build/stm32l4xx_hal_i2c_ex.o
 .debug_aranges
                0x0000000000000a08       0x88 build/stm32l4xx_hal_rcc.o
 .debug_aranges
                0x0000000000000a90       0xc0 build/stm32l4xx_hal_rcc_ex.o
 .debug_aranges
                0x0000000000000b50       0x58 build/stm32l4xx_hal_gpio.o
 .debug_aranges
                0x0000000000000ba8       0x80 build/stm32l4xx_hal_dma.o
 .debug_aranges
                0x0000000000000c28      0x150 build/stm32l4xx_hal_pwr_ex.o
 .debug_aranges
                0x0000000000000d78       0xa8 build/stm32l4xx_hal_cortex.o
 .debug_aranges
                0x0000000000000e20       0x28 build/system_stm32l4xx.o
 .debug_aranges
                0x0000000000000e48       0x30 build/adc.o
 .debug_aranges
                0x0000000000000e78       0x38 build/i2c.o
 .debug_aranges
                0x0000000000000eb0       0xf8 build/stm32l4xx_hal_adc.o
 .debug_aranges
                0x0000000000000fa8       0xf0 build/stm32l4xx_hal_adc_ex.o
 .debug_aranges
                0x0000000000001098      0x198 build/stm32l4xx_ll_usb.o
 .debug_aranges
                0x0000000000001230       0x20 build/usb_device.o
 .debug_aranges
                0x0000000000001250      0x118 build/usbd_conf.o
 .debug_aranges
                0x0000000000001368       0x68 build/usbd_desc.o
 .debug_aranges
                0x00000000000013d0       0x40 build/usbd_cdc_if.o
 .debug_aranges
                0x0000000000001410      0x130 build/stm32l4xx_hal_pcd.o
 .debug_aranges
                0x0000000000001540       0x60 build/stm32l4xx_hal_pcd_ex.o
 .debug_aranges
                0x00000000000015a0       0xb8 build/usbd_core.o
 .debug_aranges
                0x0000000000001658       0x88 build/usbd_ctlreq.o
 .debug_aranges
                0x00000000000016e0       0x50 build/usbd_ioreq.o
 .debug_aranges
                0x0000000000001730       0x90 build/usbd_cdc.o
 .debug_aranges
                0x00000000000017c0       0x48 build/shell.o
 .debug_aranges
                0x0000000000001808       0x58 build/addressable_led_manager.o
 .debug_aranges
                0x0000000000001860       0x20 build/utils.o
 .debug_aranges
                0x0000000000001880       0x20 build/dma.o
 .debug_aranges
                0x00000000000018a0       0x38 build/tim.o
 .debug_aranges
                0x00000000000018d8       0x50 build/random_fade_animation.o
 .debug_aranges
                0x0000000000001928       0x50 build/random_triangles_animation.o
 .debug_aranges
                0x0000000000001978       0x20 build/color.o
 .debug_aranges
                0x0000000000001998       0x28 build/startup_stm32l476xx.o

.debug_ranges   0x0000000000000000     0x1d00
 .debug_ranges  0x0000000000000000       0x20 build/main.o
 .debug_ranges  0x0000000000000020       0x10 build/gpio.o
 .debug_ranges  0x0000000000000030       0x60 build/stm32l4xx_it.o
 .debug_ranges  0x0000000000000090       0x10 build/stm32l4xx_hal_msp.o
 .debug_ranges  0x00000000000000a0      0x3a8 build/stm32l4xx_hal_tim.o
 .debug_ranges  0x0000000000000448      0x158 build/stm32l4xx_hal_tim_ex.o
 .debug_ranges  0x00000000000005a0      0x120 build/stm32l4xx_hal.o
 .debug_ranges  0x00000000000006c0      0x280 build/stm32l4xx_hal_i2c.o
 .debug_ranges  0x0000000000000940       0x38 build/stm32l4xx_hal_i2c_ex.o
 .debug_ranges  0x0000000000000978       0x90 build/stm32l4xx_hal_rcc.o
 .debug_ranges  0x0000000000000a08       0xd0 build/stm32l4xx_hal_rcc_ex.o
 .debug_ranges  0x0000000000000ad8       0x48 build/stm32l4xx_hal_gpio.o
 .debug_ranges  0x0000000000000b20       0x70 build/stm32l4xx_hal_dma.o
 .debug_ranges  0x0000000000000b90      0x140 build/stm32l4xx_hal_pwr_ex.o
 .debug_ranges  0x0000000000000cd0       0xf8 build/stm32l4xx_hal_cortex.o
 .debug_ranges  0x0000000000000dc8       0x18 build/system_stm32l4xx.o
 .debug_ranges  0x0000000000000de0       0x20 build/adc.o
 .debug_ranges  0x0000000000000e00       0x28 build/i2c.o
 .debug_ranges  0x0000000000000e28      0x298 build/stm32l4xx_hal_adc.o
 .debug_ranges  0x00000000000010c0      0x2c0 build/stm32l4xx_hal_adc_ex.o
 .debug_ranges  0x0000000000001380      0x188 build/stm32l4xx_ll_usb.o
 .debug_ranges  0x0000000000001508       0x10 build/usb_device.o
 .debug_ranges  0x0000000000001518      0x108 build/usbd_conf.o
 .debug_ranges  0x0000000000001620       0x58 build/usbd_desc.o
 .debug_ranges  0x0000000000001678       0x30 build/usbd_cdc_if.o
 .debug_ranges  0x00000000000016a8      0x120 build/stm32l4xx_hal_pcd.o
 .debug_ranges  0x00000000000017c8       0x50 build/stm32l4xx_hal_pcd_ex.o
 .debug_ranges  0x0000000000001818       0xa8 build/usbd_core.o
 .debug_ranges  0x00000000000018c0       0x78 build/usbd_ctlreq.o
 .debug_ranges  0x0000000000001938       0x40 build/usbd_ioreq.o
 .debug_ranges  0x0000000000001978       0x80 build/usbd_cdc.o
 .debug_ranges  0x00000000000019f8       0x50 build/shell.o
 .debug_ranges  0x0000000000001a48       0x60 build/addressable_led_manager.o
 .debug_ranges  0x0000000000001aa8       0x10 build/utils.o
 .debug_ranges  0x0000000000001ab8       0x10 build/dma.o
 .debug_ranges  0x0000000000001ac8       0x28 build/tim.o
 .debug_ranges  0x0000000000001af0       0xc8 build/random_fade_animation.o
 .debug_ranges  0x0000000000001bb8      0x118 build/random_triangles_animation.o
 .debug_ranges  0x0000000000001cd0       0x10 build/color.o
 .debug_ranges  0x0000000000001ce0       0x20 build/startup_stm32l476xx.o

.debug_line     0x0000000000000000     0xed4d
 .debug_line    0x0000000000000000      0x453 build/main.o
 .debug_line    0x0000000000000453      0x230 build/gpio.o
 .debug_line    0x0000000000000683      0x2f3 build/stm32l4xx_it.o
 .debug_line    0x0000000000000976      0x20d build/stm32l4xx_hal_msp.o
 .debug_line    0x0000000000000b83     0x1676 build/stm32l4xx_hal_tim.o
 .debug_line    0x00000000000021f9      0x9c4 build/stm32l4xx_hal_tim_ex.o
 .debug_line    0x0000000000002bbd      0x4d8 build/stm32l4xx_hal.o
 .debug_line    0x0000000000003095     0x16fc build/stm32l4xx_hal_i2c.o
 .debug_line    0x0000000000004791      0x38e build/stm32l4xx_hal_i2c_ex.o
 .debug_line    0x0000000000004b1f      0x61e build/stm32l4xx_hal_rcc.o
 .debug_line    0x000000000000513d      0x8a6 build/stm32l4xx_hal_rcc_ex.o
 .debug_line    0x00000000000059e3      0x3b0 build/stm32l4xx_hal_gpio.o
 .debug_line    0x0000000000005d93      0x4a6 build/stm32l4xx_hal_dma.o
 .debug_line    0x0000000000006239      0x6c1 build/stm32l4xx_hal_pwr_ex.o
 .debug_line    0x00000000000068fa      0x4a2 build/stm32l4xx_hal_cortex.o
 .debug_line    0x0000000000006d9c      0x25e build/system_stm32l4xx.o
 .debug_line    0x0000000000006ffa      0x2e2 build/adc.o
 .debug_line    0x00000000000072dc      0x2f4 build/i2c.o
 .debug_line    0x00000000000075d0      0xecd build/stm32l4xx_hal_adc.o
 .debug_line    0x000000000000849d      0xced build/stm32l4xx_hal_adc_ex.o
 .debug_line    0x000000000000918a      0x8b0 build/stm32l4xx_ll_usb.o
 .debug_line    0x0000000000009a3a      0x3c1 build/usb_device.o
 .debug_line    0x0000000000009dfb      0x726 build/usbd_conf.o
 .debug_line    0x000000000000a521      0x427 build/usbd_desc.o
 .debug_line    0x000000000000a948      0x3ee build/usbd_cdc_if.o
 .debug_line    0x000000000000ad36      0x7e5 build/stm32l4xx_hal_pcd.o
 .debug_line    0x000000000000b51b      0x331 build/stm32l4xx_hal_pcd_ex.o
 .debug_line    0x000000000000b84c      0x5be build/usbd_core.o
 .debug_line    0x000000000000be0a      0x674 build/usbd_ctlreq.o
 .debug_line    0x000000000000c47e      0x3e6 build/usbd_ioreq.o
 .debug_line    0x000000000000c864      0x5e6 build/usbd_cdc.o
 .debug_line    0x000000000000ce4a      0x46e build/shell.o
 .debug_line    0x000000000000d2b8      0x4d6 build/addressable_led_manager.o
 .debug_line    0x000000000000d78e      0x358 build/utils.o
 .debug_line    0x000000000000dae6      0x219 build/dma.o
 .debug_line    0x000000000000dcff      0x2e0 build/tim.o
 .debug_line    0x000000000000dfdf      0x522 build/random_fade_animation.o
 .debug_line    0x000000000000e501      0x602 build/random_triangles_animation.o
 .debug_line    0x000000000000eb03      0x1d7 build/color.o
 .debug_line    0x000000000000ecda       0x73 build/startup_stm32l476xx.o

.debug_str      0x0000000000000000     0x88fe
 .debug_str     0x0000000000000000     0x14ae build/main.o
                                       0x1607 (size before relaxing)
 .debug_str     0x00000000000014ae      0x1b3 build/gpio.o
                                        0x5d9 (size before relaxing)
 .debug_str     0x0000000000001661      0x489 build/stm32l4xx_it.o
                                        0xa0b (size before relaxing)
 .debug_str     0x0000000000001aea       0x24 build/stm32l4xx_hal_msp.o
                                        0x523 (size before relaxing)
 .debug_str     0x0000000000001b0e      0xe71 build/stm32l4xx_hal_tim.o
                                       0x16ae (size before relaxing)
 .debug_str     0x000000000000297f      0x646 build/stm32l4xx_hal_tim_ex.o
                                        0xfce (size before relaxing)
 .debug_str     0x0000000000002fc5      0x8e9 build/stm32l4xx_hal.o
                                        0xe70 (size before relaxing)
 .debug_str     0x00000000000038ae      0x8a3 build/stm32l4xx_hal_i2c.o
                                       0x115f (size before relaxing)
 .debug_str     0x0000000000004151       0xf0 build/stm32l4xx_hal_i2c_ex.o
                                        0xad1 (size before relaxing)
 .debug_str     0x0000000000004241      0x2c5 build/stm32l4xx_hal_rcc.o
                                        0xa48 (size before relaxing)
 .debug_str     0x0000000000004506      0x33b build/stm32l4xx_hal_rcc_ex.o
                                        0xccd (size before relaxing)
 .debug_str     0x0000000000004841       0xea build/stm32l4xx_hal_gpio.o
                                        0x760 (size before relaxing)
 .debug_str     0x000000000000492b      0x228 build/stm32l4xx_hal_dma.o
                                        0x82c (size before relaxing)
 .debug_str     0x0000000000004b53      0x4fc build/stm32l4xx_hal_pwr_ex.o
                                        0xa12 (size before relaxing)
 .debug_str     0x000000000000504f      0x44a build/stm32l4xx_hal_cortex.o
                                        0xe1b (size before relaxing)
 .debug_str     0x0000000000005499       0x38 build/system_stm32l4xx.o
                                        0x5ae (size before relaxing)
 .debug_str     0x00000000000054d1       0xcf build/adc.o
                                        0xb0c (size before relaxing)
 .debug_str     0x00000000000055a0       0x14 build/i2c.o
                                        0xacb (size before relaxing)
 .debug_str     0x00000000000055b4      0x947 build/stm32l4xx_hal_adc.o
                                       0x12e6 (size before relaxing)
 .debug_str     0x0000000000005efb      0x585 build/stm32l4xx_hal_adc_ex.o
                                       0x12a4 (size before relaxing)
 .debug_str     0x0000000000006480      0x821 build/stm32l4xx_ll_usb.o
                                        0xe9d (size before relaxing)
 .debug_str     0x0000000000006ca1      0x3b7 build/usb_device.o
                                        0xc4d (size before relaxing)
 .debug_str     0x0000000000007058      0x510 build/usbd_conf.o
                                       0x1c21 (size before relaxing)
 .debug_str     0x0000000000007568      0x19b build/usbd_desc.o
                                        0xa82 (size before relaxing)
 .debug_str     0x0000000000007703      0x13a build/usbd_cdc_if.o
                                        0xd34 (size before relaxing)
 .debug_str     0x000000000000783d      0x13c build/stm32l4xx_hal_pcd.o
                                        0xf6a (size before relaxing)
 .debug_str     0x0000000000007979      0x171 build/stm32l4xx_hal_pcd_ex.o
                                        0x9ba (size before relaxing)
 .debug_str     0x0000000000007aea      0x13e build/usbd_core.o
                                        0xe43 (size before relaxing)
 .debug_str     0x0000000000007c28       0xe2 build/usbd_ctlreq.o
                                        0xd5d (size before relaxing)
 .debug_str     0x0000000000007d0a       0x60 build/usbd_ioreq.o
                                        0xc8a (size before relaxing)
 .debug_str     0x0000000000007d6a      0x18f build/usbd_cdc.o
                                       0x1260 (size before relaxing)
 .debug_str     0x0000000000007ef9      0x197 build/shell.o
                                       0x1377 (size before relaxing)
 .debug_str     0x0000000000008090      0x4f5 build/addressable_led_manager.o
                                       0x10e8 (size before relaxing)
 .debug_str     0x0000000000008585       0x27 build/utils.o
                                        0xbca (size before relaxing)
 .debug_str     0x00000000000085ac        0xa build/dma.o
                                        0xa1e (size before relaxing)
 .debug_str     0x00000000000085b6       0x40 build/tim.o
                                        0xb3c (size before relaxing)
 .debug_str     0x00000000000085f6      0x16b build/random_fade_animation.o
                                        0xf4c (size before relaxing)
 .debug_str     0x0000000000008761      0x107 build/random_triangles_animation.o
                                        0xf97 (size before relaxing)
 .debug_str     0x0000000000008868       0x72 build/color.o
                                        0x5eb (size before relaxing)
 .debug_str     0x00000000000088da       0x24 build/startup_stm32l476xx.o
                                         0x59 (size before relaxing)

.comment        0x0000000000000000       0x7f
 .comment       0x0000000000000000       0x7f build/main.o
                                         0x80 (size before relaxing)
 .comment       0x000000000000007f       0x80 build/gpio.o
 .comment       0x000000000000007f       0x80 build/stm32l4xx_it.o
 .comment       0x000000000000007f       0x80 build/stm32l4xx_hal_msp.o
 .comment       0x000000000000007f       0x80 build/stm32l4xx_hal_tim.o
 .comment       0x000000000000007f       0x80 build/stm32l4xx_hal_tim_ex.o
 .comment       0x000000000000007f       0x80 build/stm32l4xx_hal.o
 .comment       0x000000000000007f       0x80 build/stm32l4xx_hal_i2c.o
 .comment       0x000000000000007f       0x80 build/stm32l4xx_hal_i2c_ex.o
 .comment       0x000000000000007f       0x80 build/stm32l4xx_hal_rcc.o
 .comment       0x000000000000007f       0x80 build/stm32l4xx_hal_rcc_ex.o
 .comment       0x000000000000007f       0x80 build/stm32l4xx_hal_gpio.o
 .comment       0x000000000000007f       0x80 build/stm32l4xx_hal_dma.o
 .comment       0x000000000000007f       0x80 build/stm32l4xx_hal_pwr_ex.o
 .comment       0x000000000000007f       0x80 build/stm32l4xx_hal_cortex.o
 .comment       0x000000000000007f       0x80 build/system_stm32l4xx.o
 .comment       0x000000000000007f       0x80 build/adc.o
 .comment       0x000000000000007f       0x80 build/i2c.o
 .comment       0x000000000000007f       0x80 build/stm32l4xx_hal_adc.o
 .comment       0x000000000000007f       0x80 build/stm32l4xx_hal_adc_ex.o
 .comment       0x000000000000007f       0x80 build/stm32l4xx_ll_usb.o
 .comment       0x000000000000007f       0x80 build/usb_device.o
 .comment       0x000000000000007f       0x80 build/usbd_conf.o
 .comment       0x000000000000007f       0x80 build/usbd_desc.o
 .comment       0x000000000000007f       0x80 build/usbd_cdc_if.o
 .comment       0x000000000000007f       0x80 build/stm32l4xx_hal_pcd.o
 .comment       0x000000000000007f       0x80 build/stm32l4xx_hal_pcd_ex.o
 .comment       0x000000000000007f       0x80 build/usbd_core.o
 .comment       0x000000000000007f       0x80 build/usbd_ctlreq.o
 .comment       0x000000000000007f       0x80 build/usbd_ioreq.o
 .comment       0x000000000000007f       0x80 build/usbd_cdc.o
 .comment       0x000000000000007f       0x80 build/shell.o
 .comment       0x000000000000007f       0x80 build/addressable_led_manager.o
 .comment       0x000000000000007f       0x80 build/utils.o
 .comment       0x000000000000007f       0x80 build/dma.o
 .comment       0x000000000000007f       0x80 build/tim.o
 .comment       0x000000000000007f       0x80 build/random_fade_animation.o
 .comment       0x000000000000007f       0x80 build/random_triangles_animation.o
 .comment       0x000000000000007f       0x80 build/color.o

.debug_frame    0x0000000000000000     0x52a4
 .debug_frame   0x0000000000000000       0x68 build/main.o
 .debug_frame   0x0000000000000068       0x3c build/gpio.o
 .debug_frame   0x00000000000000a4       0xe4 build/stm32l4xx_it.o
 .debug_frame   0x0000000000000188       0x28 build/stm32l4xx_hal_msp.o
 .debug_frame   0x00000000000001b0      0xc10 build/stm32l4xx_hal_tim.o
 .debug_frame   0x0000000000000dc0      0x4a0 build/stm32l4xx_hal_tim_ex.o
 .debug_frame   0x0000000000001260      0x290 build/stm32l4xx_hal.o
 .debug_frame   0x00000000000014f0      0xa70 build/stm32l4xx_hal_i2c.o
 .debug_frame   0x0000000000001f60       0x80 build/stm32l4xx_hal_i2c_ex.o
 .debug_frame   0x0000000000001fe0      0x1c0 build/stm32l4xx_hal_rcc.o
 .debug_frame   0x00000000000021a0      0x23c build/stm32l4xx_hal_rcc_ex.o
 .debug_frame   0x00000000000023dc       0xe4 build/stm32l4xx_hal_gpio.o
 .debug_frame   0x00000000000024c0      0x1a0 build/stm32l4xx_hal_dma.o
 .debug_frame   0x0000000000002660      0x2a4 build/stm32l4xx_hal_pwr_ex.o
 .debug_frame   0x0000000000002904      0x16c build/stm32l4xx_hal_cortex.o
 .debug_frame   0x0000000000002a70       0x30 build/system_stm32l4xx.o
 .debug_frame   0x0000000000002aa0       0x70 build/adc.o
 .debug_frame   0x0000000000002b10       0x88 build/i2c.o
 .debug_frame   0x0000000000002b98      0x33c build/stm32l4xx_hal_adc.o
 .debug_frame   0x0000000000002ed4      0x31c build/stm32l4xx_hal_adc_ex.o
 .debug_frame   0x00000000000031f0      0x4d0 build/stm32l4xx_ll_usb.o
 .debug_frame   0x00000000000036c0       0x2c build/usb_device.o
 .debug_frame   0x00000000000036ec      0x37c build/usbd_conf.o
 .debug_frame   0x0000000000003a68      0x10c build/usbd_desc.o
 .debug_frame   0x0000000000003b74       0x88 build/usbd_cdc_if.o
 .debug_frame   0x0000000000003bfc      0x3b4 build/stm32l4xx_hal_pcd.o
 .debug_frame   0x0000000000003fb0       0xc0 build/stm32l4xx_hal_pcd_ex.o
 .debug_frame   0x0000000000004070      0x1f0 build/usbd_core.o
 .debug_frame   0x0000000000004260      0x1ac build/usbd_ctlreq.o
 .debug_frame   0x000000000000440c       0xd4 build/usbd_ioreq.o
 .debug_frame   0x00000000000044e0      0x184 build/usbd_cdc.o
 .debug_frame   0x0000000000004664       0xc4 build/shell.o
 .debug_frame   0x0000000000004728       0xec build/addressable_led_manager.o
 .debug_frame   0x0000000000004814       0x38 build/utils.o
 .debug_frame   0x000000000000484c       0x2c build/dma.o
 .debug_frame   0x0000000000004878       0x90 build/tim.o
 .debug_frame   0x0000000000004908       0xe4 build/random_fade_animation.o
 .debug_frame   0x00000000000049ec      0x134 build/random_triangles_animation.o
 .debug_frame   0x0000000000004b20       0x6c build/color.o
 .debug_frame   0x0000000000004b8c       0x2c /home/jon/KODMOD/EMBEDDED_TOOLCHAINS/gcc-arm-none-eabi-7-2018-q2-update/bin/../lib/gcc/arm-none-eabi/7.3.1/../../../../arm-none-eabi/lib/thumb/v7e-m/fpv4-sp/hard/libc_nano.a(lib_a-init.o)
 .debug_frame   0x0000000000004bb8       0x20 /home/jon/KODMOD/EMBEDDED_TOOLCHAINS/gcc-arm-none-eabi-7-2018-q2-update/bin/../lib/gcc/arm-none-eabi/7.3.1/../../../../arm-none-eabi/lib/thumb/v7e-m/fpv4-sp/hard/libc_nano.a(lib_a-memset.o)
 .debug_frame   0x0000000000004bd8       0x48 /home/jon/KODMOD/EMBEDDED_TOOLCHAINS/gcc-arm-none-eabi-7-2018-q2-update/bin/../lib/gcc/arm-none-eabi/7.3.1/../../../../arm-none-eabi/lib/thumb/v7e-m/fpv4-sp/hard/libc_nano.a(lib_a-rand.o)
 .debug_frame   0x0000000000004c20       0x6c /home/jon/KODMOD/EMBEDDED_TOOLCHAINS/gcc-arm-none-eabi-7-2018-q2-update/bin/../lib/gcc/arm-none-eabi/7.3.1/../../../../arm-none-eabi/lib/thumb/v7e-m/fpv4-sp/hard/libc_nano.a(lib_a-sprintf.o)
 .debug_frame   0x0000000000004c8c       0x28 /home/jon/KODMOD/EMBEDDED_TOOLCHAINS/gcc-arm-none-eabi-7-2018-q2-update/bin/../lib/gcc/arm-none-eabi/7.3.1/../../../../arm-none-eabi/lib/thumb/v7e-m/fpv4-sp/hard/libc_nano.a(lib_a-strncmp.o)
 .debug_frame   0x0000000000004cb4       0x30 /home/jon/KODMOD/EMBEDDED_TOOLCHAINS/gcc-arm-none-eabi-7-2018-q2-update/bin/../lib/gcc/arm-none-eabi/7.3.1/../../../../arm-none-eabi/lib/thumb/v7e-m/fpv4-sp/hard/libc_nano.a(lib_a-malloc.o)
 .debug_frame   0x0000000000004ce4       0x38 /home/jon/KODMOD/EMBEDDED_TOOLCHAINS/gcc-arm-none-eabi-7-2018-q2-update/bin/../lib/gcc/arm-none-eabi/7.3.1/../../../../arm-none-eabi/lib/thumb/v7e-m/fpv4-sp/hard/libc_nano.a(lib_a-nano-freer.o)
 .debug_frame   0x0000000000004d1c       0x2c /home/jon/KODMOD/EMBEDDED_TOOLCHAINS/gcc-arm-none-eabi-7-2018-q2-update/bin/../lib/gcc/arm-none-eabi/7.3.1/../../../../arm-none-eabi/lib/thumb/v7e-m/fpv4-sp/hard/libc_nano.a(lib_a-nano-mallocr.o)
 .debug_frame   0x0000000000004d48       0x90 /home/jon/KODMOD/EMBEDDED_TOOLCHAINS/gcc-arm-none-eabi-7-2018-q2-update/bin/../lib/gcc/arm-none-eabi/7.3.1/../../../../arm-none-eabi/lib/thumb/v7e-m/fpv4-sp/hard/libc_nano.a(lib_a-nano-svfprintf.o)
 .debug_frame   0x0000000000004dd8       0x60 /home/jon/KODMOD/EMBEDDED_TOOLCHAINS/gcc-arm-none-eabi-7-2018-q2-update/bin/../lib/gcc/arm-none-eabi/7.3.1/../../../../arm-none-eabi/lib/thumb/v7e-m/fpv4-sp/hard/libc_nano.a(lib_a-nano-vfprintf_i.o)
 .debug_frame   0x0000000000004e38       0x2c /home/jon/KODMOD/EMBEDDED_TOOLCHAINS/gcc-arm-none-eabi-7-2018-q2-update/bin/../lib/gcc/arm-none-eabi/7.3.1/../../../../arm-none-eabi/lib/thumb/v7e-m/fpv4-sp/hard/libc_nano.a(lib_a-sbrkr.o)
 .debug_frame   0x0000000000004e64       0x28 /home/jon/KODMOD/EMBEDDED_TOOLCHAINS/gcc-arm-none-eabi-7-2018-q2-update/bin/../lib/gcc/arm-none-eabi/7.3.1/../../../../arm-none-eabi/lib/thumb/v7e-m/fpv4-sp/hard/libc_nano.a(lib_a-memcpy-stub.o)
 .debug_frame   0x0000000000004e8c       0x28 /home/jon/KODMOD/EMBEDDED_TOOLCHAINS/gcc-arm-none-eabi-7-2018-q2-update/bin/../lib/gcc/arm-none-eabi/7.3.1/../../../../arm-none-eabi/lib/thumb/v7e-m/fpv4-sp/hard/libc_nano.a(lib_a-memmove.o)
 .debug_frame   0x0000000000004eb4       0x30 /home/jon/KODMOD/EMBEDDED_TOOLCHAINS/gcc-arm-none-eabi-7-2018-q2-update/bin/../lib/gcc/arm-none-eabi/7.3.1/../../../../arm-none-eabi/lib/thumb/v7e-m/fpv4-sp/hard/libc_nano.a(lib_a-mlock.o)
 .debug_frame   0x0000000000004ee4       0x3c /home/jon/KODMOD/EMBEDDED_TOOLCHAINS/gcc-arm-none-eabi-7-2018-q2-update/bin/../lib/gcc/arm-none-eabi/7.3.1/../../../../arm-none-eabi/lib/thumb/v7e-m/fpv4-sp/hard/libc_nano.a(lib_a-nano-reallocr.o)
 .debug_frame   0x0000000000004f20       0x5c /home/jon/KODMOD/EMBEDDED_TOOLCHAINS/gcc-arm-none-eabi-7-2018-q2-update/bin/../lib/gcc/arm-none-eabi/7.3.1/../../../../arm-none-eabi/lib/thumb/v7e-m/fpv4-sp/hard/libc_nano.a(lib_a-reent.o)
 .debug_frame   0x0000000000004f7c       0x20 /home/jon/KODMOD/EMBEDDED_TOOLCHAINS/gcc-arm-none-eabi-7-2018-q2-update/bin/../lib/gcc/arm-none-eabi/7.3.1/../../../../arm-none-eabi/lib/thumb/v7e-m/fpv4-sp/hard/libc_nano.a(lib_a-nano-msizer.o)
 .debug_frame   0x0000000000004f9c       0x4c /home/jon/KODMOD/EMBEDDED_TOOLCHAINS/gcc-arm-none-eabi-7-2018-q2-update/bin/../lib/gcc/arm-none-eabi/7.3.1/../../../../arm-none-eabi/lib/thumb/v7e-m/fpv4-sp/hard/libm.a(lib_a-w_fmod.o)
 .debug_frame   0x0000000000004fe8       0x34 /home/jon/KODMOD/EMBEDDED_TOOLCHAINS/gcc-arm-none-eabi-7-2018-q2-update/bin/../lib/gcc/arm-none-eabi/7.3.1/../../../../arm-none-eabi/lib/thumb/v7e-m/fpv4-sp/hard/libm.a(lib_a-e_fmod.o)
 .debug_frame   0x000000000000501c       0x20 /home/jon/KODMOD/EMBEDDED_TOOLCHAINS/gcc-arm-none-eabi-7-2018-q2-update/bin/../lib/gcc/arm-none-eabi/7.3.1/../../../../arm-none-eabi/lib/thumb/v7e-m/fpv4-sp/hard/libm.a(lib_a-s_matherr.o)
 .debug_frame   0x000000000000503c       0x20 /home/jon/KODMOD/EMBEDDED_TOOLCHAINS/gcc-arm-none-eabi-7-2018-q2-update/bin/../lib/gcc/arm-none-eabi/7.3.1/../../../../arm-none-eabi/lib/thumb/v7e-m/fpv4-sp/hard/libnosys.a(sbrk.o)
 .debug_frame   0x000000000000505c       0xac /home/jon/KODMOD/EMBEDDED_TOOLCHAINS/gcc-arm-none-eabi-7-2018-q2-update/bin/../lib/gcc/arm-none-eabi/7.3.1/thumb/v7e-m/fpv4-sp/hard/libgcc.a(_arm_addsubdf3.o)
 .debug_frame   0x0000000000005108       0x50 /home/jon/KODMOD/EMBEDDED_TOOLCHAINS/gcc-arm-none-eabi-7-2018-q2-update/bin/../lib/gcc/arm-none-eabi/7.3.1/thumb/v7e-m/fpv4-sp/hard/libgcc.a(_arm_muldivdf3.o)
 .debug_frame   0x0000000000005158       0xc4 /home/jon/KODMOD/EMBEDDED_TOOLCHAINS/gcc-arm-none-eabi-7-2018-q2-update/bin/../lib/gcc/arm-none-eabi/7.3.1/thumb/v7e-m/fpv4-sp/hard/libgcc.a(_arm_cmpdf2.o)
 .debug_frame   0x000000000000521c       0x20 /home/jon/KODMOD/EMBEDDED_TOOLCHAINS/gcc-arm-none-eabi-7-2018-q2-update/bin/../lib/gcc/arm-none-eabi/7.3.1/thumb/v7e-m/fpv4-sp/hard/libgcc.a(_arm_unorddf2.o)
 .debug_frame   0x000000000000523c       0x24 /home/jon/KODMOD/EMBEDDED_TOOLCHAINS/gcc-arm-none-eabi-7-2018-q2-update/bin/../lib/gcc/arm-none-eabi/7.3.1/thumb/v7e-m/fpv4-sp/hard/libgcc.a(_arm_fixdfsi.o)
 .debug_frame   0x0000000000005260       0x24 /home/jon/KODMOD/EMBEDDED_TOOLCHAINS/gcc-arm-none-eabi-7-2018-q2-update/bin/../lib/gcc/arm-none-eabi/7.3.1/thumb/v7e-m/fpv4-sp/hard/libgcc.a(_arm_fixunsdfsi.o)
 .debug_frame   0x0000000000005284       0x20 /home/jon/KODMOD/EMBEDDED_TOOLCHAINS/gcc-arm-none-eabi-7-2018-q2-update/bin/../lib/gcc/arm-none-eabi/7.3.1/../../../../arm-none-eabi/lib/thumb/v7e-m/fpv4-sp/hard/libc_nano.a(lib_a-errno.o)

Cross Reference Table

Symbol                                            File
ADC1_2_IRQHandler                                 build/startup_stm32l476xx.o
ADC3_IRQHandler                                   build/startup_stm32l476xx.o
ADC_ConversionStop                                build/stm32l4xx_hal_adc.o
                                                  build/stm32l4xx_hal_adc_ex.o
ADC_DMAConvCplt                                   build/stm32l4xx_hal_adc.o
                                                  build/stm32l4xx_hal_adc_ex.o
ADC_DMAError                                      build/stm32l4xx_hal_adc.o
                                                  build/stm32l4xx_hal_adc_ex.o
ADC_DMAHalfConvCplt                               build/stm32l4xx_hal_adc.o
                                                  build/stm32l4xx_hal_adc_ex.o
ADC_Disable                                       build/stm32l4xx_hal_adc.o
                                                  build/stm32l4xx_hal_adc_ex.o
ADC_Enable                                        build/stm32l4xx_hal_adc.o
                                                  build/stm32l4xx_hal_adc_ex.o
AHBPrescTable                                     build/system_stm32l4xx.o
                                                  build/stm32l4xx_hal_rcc.o
APBPrescTable                                     build/system_stm32l4xx.o
                                                  build/stm32l4xx_hal_rcc.o
Accelerometer_Init                                build/accelerometer.o
AddrLEDManager_Init                               build/addressable_led_manager.o
AddrLEDManager_PlayNextAnimation                  build/addressable_led_manager.o
                                                  build/shell.o
AddrLEDManager_RefreshTimerStart                  build/addressable_led_manager.o
AddrLEDManager_SanityTest                         build/addressable_led_manager.o
AddrLED_DisplayStrip                              build/addressable_led_driver.o
                                                  build/addressable_led_manager.o
AddrLED_Init                                      build/addressable_led_driver.o
                                                  build/addressable_led_manager.o
AddrLED_NaiveISR                                  build/addressable_led_driver.o
AddrLED_SanityTest                                build/addressable_led_driver.o
AddrLED_SendReset                                 build/addressable_led_driver.o
AddrLED_StartPWM                                  build/addressable_led_driver.o
AddrLED_StopPWM                                   build/addressable_led_driver.o
Animation_RandomFade_GetState                     build/random_fade_animation.o
                                                  build/addressable_led_manager.o
Animation_RandomFade_Init                         build/random_fade_animation.o
                                                  build/addressable_led_manager.o
Animation_RandomFade_SendMessage                  build/random_fade_animation.o
                                                  build/addressable_led_manager.o
Animation_RandomFade_Update                       build/random_fade_animation.o
                                                  build/addressable_led_manager.o
Animation_RandomTriangles_GetState                build/random_triangles_animation.o
                                                  build/addressable_led_manager.o
Animation_RandomTriangles_Init                    build/random_triangles_animation.o
                                                  build/addressable_led_manager.o
Animation_RandomTriangles_SendMessage             build/random_triangles_animation.o
                                                  build/addressable_led_manager.o
Animation_RandomTriangles_Update                  build/random_triangles_animation.o
                                                  build/addressable_led_manager.o
BusFault_Handler                                  build/stm32l4xx_it.o
CAN1_RX0_IRQHandler                               build/startup_stm32l476xx.o
CAN1_RX1_IRQHandler                               build/startup_stm32l476xx.o
CAN1_SCE_IRQHandler                               build/startup_stm32l476xx.o
CAN1_TX_IRQHandler                                build/startup_stm32l476xx.o
CDC_Transmit_FS                                   build/usbd_cdc_if.o
                                                  build/shell.o
COMP_IRQHandler                                   build/startup_stm32l476xx.o
DFSDM1_FLT0_IRQHandler                            build/startup_stm32l476xx.o
DFSDM1_FLT1_IRQHandler                            build/startup_stm32l476xx.o
DFSDM1_FLT2_IRQHandler                            build/startup_stm32l476xx.o
DFSDM1_FLT3_IRQHandler                            build/startup_stm32l476xx.o
DMA1_Channel1_IRQHandler                          build/startup_stm32l476xx.o
DMA1_Channel2_IRQHandler                          build/startup_stm32l476xx.o
DMA1_Channel3_IRQHandler                          build/stm32l4xx_it.o
DMA1_Channel4_IRQHandler                          build/startup_stm32l476xx.o
DMA1_Channel5_IRQHandler                          build/startup_stm32l476xx.o
DMA1_Channel6_IRQHandler                          build/startup_stm32l476xx.o
DMA1_Channel7_IRQHandler                          build/startup_stm32l476xx.o
DMA2_Channel1_IRQHandler                          build/startup_stm32l476xx.o
DMA2_Channel2_IRQHandler                          build/startup_stm32l476xx.o
DMA2_Channel3_IRQHandler                          build/startup_stm32l476xx.o
DMA2_Channel4_IRQHandler                          build/startup_stm32l476xx.o
DMA2_Channel5_IRQHandler                          build/startup_stm32l476xx.o
DMA2_Channel6_IRQHandler                          build/startup_stm32l476xx.o
DMA2_Channel7_IRQHandler                          build/startup_stm32l476xx.o
DebugMon_Handler                                  build/stm32l4xx_it.o
Default_Handler                                   build/startup_stm32l476xx.o
EXTI0_IRQHandler                                  build/startup_stm32l476xx.o
EXTI15_10_IRQHandler                              build/startup_stm32l476xx.o
EXTI1_IRQHandler                                  build/startup_stm32l476xx.o
EXTI2_IRQHandler                                  build/startup_stm32l476xx.o
EXTI3_IRQHandler                                  build/startup_stm32l476xx.o
EXTI4_IRQHandler                                  build/startup_stm32l476xx.o
EXTI9_5_IRQHandler                                build/startup_stm32l476xx.o
Error_Handler                                     build/main.o
                                                  build/tim.o
                                                  build/usbd_conf.o
                                                  build/usb_device.o
                                                  build/i2c.o
                                                  build/adc.o
FLASH_FlushCaches                                 build/stm32l4xx_hal_flash_ex.o
                                                  build/stm32l4xx_hal_flash.o
FLASH_IRQHandler                                  build/startup_stm32l476xx.o
FLASH_PageErase                                   build/stm32l4xx_hal_flash_ex.o
                                                  build/stm32l4xx_hal_flash.o
FLASH_WaitForLastOperation                        build/stm32l4xx_hal_flash.o
                                                  build/stm32l4xx_hal_flash_ex.o
FMC_IRQHandler                                    build/startup_stm32l476xx.o
FPU_IRQHandler                                    build/startup_stm32l476xx.o
FS_Desc                                           build/usbd_desc.o
                                                  build/usb_device.o
GetPixelByGlobalCoordinate                        build/addressable_led_manager.o
GetPixelByLocalCoordinate                         build/addressable_led_manager.o
                                                  build/random_triangles_animation.o
HAL_ADCEx_Calibration_GetValue                    build/stm32l4xx_hal_adc_ex.o
HAL_ADCEx_Calibration_SetValue                    build/stm32l4xx_hal_adc_ex.o
HAL_ADCEx_Calibration_Start                       build/stm32l4xx_hal_adc_ex.o
HAL_ADCEx_DisableInjectedQueue                    build/stm32l4xx_hal_adc_ex.o
HAL_ADCEx_DisableVoltageRegulator                 build/stm32l4xx_hal_adc_ex.o
HAL_ADCEx_EnableInjectedQueue                     build/stm32l4xx_hal_adc_ex.o
HAL_ADCEx_EndOfSamplingCallback                   build/stm32l4xx_hal_adc_ex.o
                                                  build/stm32l4xx_hal_adc.o
HAL_ADCEx_EnterADCDeepPowerDownMode               build/stm32l4xx_hal_adc_ex.o
HAL_ADCEx_InjectedConfigChannel                   build/stm32l4xx_hal_adc_ex.o
HAL_ADCEx_InjectedConvCpltCallback                build/stm32l4xx_hal_adc_ex.o
                                                  build/stm32l4xx_hal_adc.o
HAL_ADCEx_InjectedGetValue                        build/stm32l4xx_hal_adc_ex.o
HAL_ADCEx_InjectedPollForConversion               build/stm32l4xx_hal_adc_ex.o
HAL_ADCEx_InjectedQueueOverflowCallback           build/stm32l4xx_hal_adc_ex.o
                                                  build/stm32l4xx_hal_adc.o
HAL_ADCEx_InjectedStart                           build/stm32l4xx_hal_adc_ex.o
HAL_ADCEx_InjectedStart_IT                        build/stm32l4xx_hal_adc_ex.o
HAL_ADCEx_InjectedStop                            build/stm32l4xx_hal_adc_ex.o
HAL_ADCEx_InjectedStop_IT                         build/stm32l4xx_hal_adc_ex.o
HAL_ADCEx_LevelOutOfWindow2Callback               build/stm32l4xx_hal_adc_ex.o
                                                  build/stm32l4xx_hal_adc.o
HAL_ADCEx_LevelOutOfWindow3Callback               build/stm32l4xx_hal_adc_ex.o
                                                  build/stm32l4xx_hal_adc.o
HAL_ADCEx_MultiModeConfigChannel                  build/stm32l4xx_hal_adc_ex.o
                                                  build/adc.o
HAL_ADCEx_MultiModeGetValue                       build/stm32l4xx_hal_adc_ex.o
HAL_ADCEx_MultiModeStart_DMA                      build/stm32l4xx_hal_adc_ex.o
HAL_ADCEx_MultiModeStop_DMA                       build/stm32l4xx_hal_adc_ex.o
HAL_ADCEx_RegularMultiModeStop_DMA                build/stm32l4xx_hal_adc_ex.o
HAL_ADCEx_RegularStop                             build/stm32l4xx_hal_adc_ex.o
HAL_ADCEx_RegularStop_DMA                         build/stm32l4xx_hal_adc_ex.o
HAL_ADCEx_RegularStop_IT                          build/stm32l4xx_hal_adc_ex.o
HAL_ADC_AnalogWDGConfig                           build/stm32l4xx_hal_adc.o
HAL_ADC_ConfigChannel                             build/stm32l4xx_hal_adc.o
                                                  build/adc.o
HAL_ADC_ConvCpltCallback                          build/stm32l4xx_hal_adc.o
HAL_ADC_ConvHalfCpltCallback                      build/stm32l4xx_hal_adc.o
HAL_ADC_DeInit                                    build/stm32l4xx_hal_adc.o
HAL_ADC_ErrorCallback                             build/stm32l4xx_hal_adc.o
HAL_ADC_GetError                                  build/stm32l4xx_hal_adc.o
HAL_ADC_GetState                                  build/stm32l4xx_hal_adc.o
HAL_ADC_GetValue                                  build/stm32l4xx_hal_adc.o
                                                  build/shell.o
HAL_ADC_IRQHandler                                build/stm32l4xx_hal_adc.o
HAL_ADC_Init                                      build/stm32l4xx_hal_adc.o
                                                  build/adc.o
HAL_ADC_LevelOutOfWindowCallback                  build/stm32l4xx_hal_adc.o
HAL_ADC_MspDeInit                                 build/adc.o
HAL_ADC_MspInit                                   build/adc.o
HAL_ADC_PollForConversion                         build/stm32l4xx_hal_adc.o
                                                  build/shell.o
HAL_ADC_PollForEvent                              build/stm32l4xx_hal_adc.o
HAL_ADC_Start                                     build/stm32l4xx_hal_adc.o
                                                  build/shell.o
HAL_ADC_Start_DMA                                 build/stm32l4xx_hal_adc.o
HAL_ADC_Start_IT                                  build/stm32l4xx_hal_adc.o
HAL_ADC_Stop                                      build/stm32l4xx_hal_adc.o
                                                  build/shell.o
HAL_ADC_Stop_DMA                                  build/stm32l4xx_hal_adc.o
HAL_ADC_Stop_IT                                   build/stm32l4xx_hal_adc.o
HAL_DBGMCU_DisableDBGSleepMode                    build/stm32l4xx_hal.o
HAL_DBGMCU_DisableDBGStandbyMode                  build/stm32l4xx_hal.o
HAL_DBGMCU_DisableDBGStopMode                     build/stm32l4xx_hal.o
HAL_DBGMCU_EnableDBGSleepMode                     build/stm32l4xx_hal.o
HAL_DBGMCU_EnableDBGStandbyMode                   build/stm32l4xx_hal.o
HAL_DBGMCU_EnableDBGStopMode                      build/stm32l4xx_hal.o
HAL_DMA_Abort                                     build/stm32l4xx_hal_dma.o
                                                  build/stm32l4xx_hal_adc_ex.o
                                                  build/stm32l4xx_hal_adc.o
HAL_DMA_Abort_IT                                  build/stm32l4xx_hal_dma.o
                                                  build/stm32l4xx_hal_i2c.o
                                                  build/stm32l4xx_hal_tim_ex.o
                                                  build/stm32l4xx_hal_tim.o
HAL_DMA_DeInit                                    build/stm32l4xx_hal_dma.o
                                                  build/tim.o
HAL_DMA_GetError                                  build/stm32l4xx_hal_dma.o
HAL_DMA_GetState                                  build/stm32l4xx_hal_dma.o
                                                  build/stm32l4xx_hal_i2c.o
HAL_DMA_IRQHandler                                build/stm32l4xx_hal_dma.o
                                                  build/stm32l4xx_it.o
HAL_DMA_Init                                      build/stm32l4xx_hal_dma.o
                                                  build/tim.o
HAL_DMA_PollForTransfer                           build/stm32l4xx_hal_dma.o
HAL_DMA_RegisterCallback                          build/stm32l4xx_hal_dma.o
HAL_DMA_Start                                     build/stm32l4xx_hal_dma.o
HAL_DMA_Start_IT                                  build/stm32l4xx_hal_dma.o
                                                  build/stm32l4xx_hal_adc_ex.o
                                                  build/stm32l4xx_hal_adc.o
                                                  build/stm32l4xx_hal_i2c.o
                                                  build/stm32l4xx_hal_tim_ex.o
                                                  build/stm32l4xx_hal_tim.o
HAL_DMA_UnRegisterCallback                        build/stm32l4xx_hal_dma.o
HAL_DeInit                                        build/stm32l4xx_hal.o
HAL_Delay                                         build/stm32l4xx_hal.o
                                                  build/addressable_led_manager.o
                                                  build/addressable_led_driver.o
                                                  build/stm32l4xx_hal_pcd_ex.o
                                                  build/usbd_conf.o
                                                  build/stm32l4xx_ll_usb.o
HAL_EXTI_ClearConfigLine                          build/stm32l4xx_hal_exti.o
HAL_EXTI_ClearPending                             build/stm32l4xx_hal_exti.o
HAL_EXTI_GenerateSWI                              build/stm32l4xx_hal_exti.o
HAL_EXTI_GetConfigLine                            build/stm32l4xx_hal_exti.o
HAL_EXTI_GetHandle                                build/stm32l4xx_hal_exti.o
HAL_EXTI_GetPending                               build/stm32l4xx_hal_exti.o
HAL_EXTI_IRQHandler                               build/stm32l4xx_hal_exti.o
HAL_EXTI_RegisterCallback                         build/stm32l4xx_hal_exti.o
HAL_EXTI_SetConfigLine                            build/stm32l4xx_hal_exti.o
HAL_FLASHEx_DisableRunPowerDown                   build/stm32l4xx_hal_flash_ramfunc.o
HAL_FLASHEx_EnableRunPowerDown                    build/stm32l4xx_hal_flash_ramfunc.o
HAL_FLASHEx_Erase                                 build/stm32l4xx_hal_flash_ex.o
HAL_FLASHEx_Erase_IT                              build/stm32l4xx_hal_flash_ex.o
HAL_FLASHEx_OBGetConfig                           build/stm32l4xx_hal_flash_ex.o
HAL_FLASHEx_OBProgram                             build/stm32l4xx_hal_flash_ex.o
HAL_FLASH_EndOfOperationCallback                  build/stm32l4xx_hal_flash.o
HAL_FLASH_GetError                                build/stm32l4xx_hal_flash.o
HAL_FLASH_IRQHandler                              build/stm32l4xx_hal_flash.o
HAL_FLASH_Lock                                    build/stm32l4xx_hal_flash.o
HAL_FLASH_OB_Launch                               build/stm32l4xx_hal_flash.o
HAL_FLASH_OB_Lock                                 build/stm32l4xx_hal_flash.o
HAL_FLASH_OB_Unlock                               build/stm32l4xx_hal_flash.o
HAL_FLASH_OperationErrorCallback                  build/stm32l4xx_hal_flash.o
HAL_FLASH_Program                                 build/stm32l4xx_hal_flash.o
HAL_FLASH_Program_IT                              build/stm32l4xx_hal_flash.o
HAL_FLASH_Unlock                                  build/stm32l4xx_hal_flash.o
HAL_GPIO_DeInit                                   build/stm32l4xx_hal_gpio.o
                                                  build/usbd_conf.o
                                                  build/i2c.o
                                                  build/adc.o
HAL_GPIO_EXTI_Callback                            build/stm32l4xx_hal_gpio.o
HAL_GPIO_EXTI_IRQHandler                          build/stm32l4xx_hal_gpio.o
HAL_GPIO_Init                                     build/stm32l4xx_hal_gpio.o
                                                  build/tim.o
                                                  build/usbd_conf.o
                                                  build/i2c.o
                                                  build/adc.o
                                                  build/stm32l4xx_hal_rcc_ex.o
                                                  build/stm32l4xx_hal_rcc.o
                                                  build/gpio.o
HAL_GPIO_LockPin                                  build/stm32l4xx_hal_gpio.o
HAL_GPIO_ReadPin                                  build/stm32l4xx_hal_gpio.o
HAL_GPIO_TogglePin                                build/stm32l4xx_hal_gpio.o
                                                  build/addressable_led_driver.o
HAL_GPIO_WritePin                                 build/stm32l4xx_hal_gpio.o
                                                  build/shell.o
                                                  build/gpio.o
HAL_GetDEVID                                      build/stm32l4xx_hal.o
HAL_GetHalVersion                                 build/stm32l4xx_hal.o
HAL_GetREVID                                      build/stm32l4xx_hal.o
HAL_GetTick                                       build/stm32l4xx_hal.o
                                                  build/stm32l4xx_hal_pcd_ex.o
                                                  build/stm32l4xx_hal_adc_ex.o
                                                  build/stm32l4xx_hal_adc.o
                                                  build/stm32l4xx_hal_dma.o
                                                  build/stm32l4xx_hal_flash.o
                                                  build/stm32l4xx_hal_rcc_ex.o
                                                  build/stm32l4xx_hal_rcc.o
                                                  build/stm32l4xx_hal_i2c.o
HAL_GetTickFreq                                   build/stm32l4xx_hal.o
HAL_GetTickPrio                                   build/stm32l4xx_hal.o
HAL_GetUIDw0                                      build/stm32l4xx_hal.o
HAL_GetUIDw1                                      build/stm32l4xx_hal.o
HAL_GetUIDw2                                      build/stm32l4xx_hal.o
HAL_I2CEx_ConfigAnalogFilter                      build/stm32l4xx_hal_i2c_ex.o
                                                  build/i2c.o
HAL_I2CEx_ConfigDigitalFilter                     build/stm32l4xx_hal_i2c_ex.o
                                                  build/i2c.o
HAL_I2CEx_DisableFastModePlus                     build/stm32l4xx_hal_i2c_ex.o
HAL_I2CEx_DisableWakeUp                           build/stm32l4xx_hal_i2c_ex.o
HAL_I2CEx_EnableFastModePlus                      build/stm32l4xx_hal_i2c_ex.o
HAL_I2CEx_EnableWakeUp                            build/stm32l4xx_hal_i2c_ex.o
HAL_I2C_AbortCpltCallback                         build/stm32l4xx_hal_i2c.o
HAL_I2C_AddrCallback                              build/stm32l4xx_hal_i2c.o
HAL_I2C_DeInit                                    build/stm32l4xx_hal_i2c.o
HAL_I2C_DisableListen_IT                          build/stm32l4xx_hal_i2c.o
HAL_I2C_ER_IRQHandler                             build/stm32l4xx_hal_i2c.o
HAL_I2C_EV_IRQHandler                             build/stm32l4xx_hal_i2c.o
HAL_I2C_EnableListen_IT                           build/stm32l4xx_hal_i2c.o
HAL_I2C_ErrorCallback                             build/stm32l4xx_hal_i2c.o
HAL_I2C_GetError                                  build/stm32l4xx_hal_i2c.o
HAL_I2C_GetMode                                   build/stm32l4xx_hal_i2c.o
HAL_I2C_GetState                                  build/stm32l4xx_hal_i2c.o
HAL_I2C_Init                                      build/stm32l4xx_hal_i2c.o
                                                  build/i2c.o
HAL_I2C_IsDeviceReady                             build/stm32l4xx_hal_i2c.o
HAL_I2C_ListenCpltCallback                        build/stm32l4xx_hal_i2c.o
HAL_I2C_MasterRxCpltCallback                      build/stm32l4xx_hal_i2c.o
HAL_I2C_MasterTxCpltCallback                      build/stm32l4xx_hal_i2c.o
HAL_I2C_Master_Abort_IT                           build/stm32l4xx_hal_i2c.o
HAL_I2C_Master_Receive                            build/stm32l4xx_hal_i2c.o
HAL_I2C_Master_Receive_DMA                        build/stm32l4xx_hal_i2c.o
HAL_I2C_Master_Receive_IT                         build/stm32l4xx_hal_i2c.o
HAL_I2C_Master_Seq_Receive_DMA                    build/stm32l4xx_hal_i2c.o
HAL_I2C_Master_Seq_Receive_IT                     build/stm32l4xx_hal_i2c.o
HAL_I2C_Master_Seq_Transmit_DMA                   build/stm32l4xx_hal_i2c.o
HAL_I2C_Master_Seq_Transmit_IT                    build/stm32l4xx_hal_i2c.o
HAL_I2C_Master_Transmit                           build/stm32l4xx_hal_i2c.o
HAL_I2C_Master_Transmit_DMA                       build/stm32l4xx_hal_i2c.o
HAL_I2C_Master_Transmit_IT                        build/stm32l4xx_hal_i2c.o
HAL_I2C_MemRxCpltCallback                         build/stm32l4xx_hal_i2c.o
HAL_I2C_MemTxCpltCallback                         build/stm32l4xx_hal_i2c.o
HAL_I2C_Mem_Read                                  build/stm32l4xx_hal_i2c.o
HAL_I2C_Mem_Read_DMA                              build/stm32l4xx_hal_i2c.o
HAL_I2C_Mem_Read_IT                               build/stm32l4xx_hal_i2c.o
HAL_I2C_Mem_Write                                 build/stm32l4xx_hal_i2c.o
HAL_I2C_Mem_Write_DMA                             build/stm32l4xx_hal_i2c.o
HAL_I2C_Mem_Write_IT                              build/stm32l4xx_hal_i2c.o
HAL_I2C_MspDeInit                                 build/i2c.o
                                                  build/stm32l4xx_hal_i2c.o
HAL_I2C_MspInit                                   build/i2c.o
                                                  build/stm32l4xx_hal_i2c.o
HAL_I2C_SlaveRxCpltCallback                       build/stm32l4xx_hal_i2c.o
HAL_I2C_SlaveTxCpltCallback                       build/stm32l4xx_hal_i2c.o
HAL_I2C_Slave_Receive                             build/stm32l4xx_hal_i2c.o
HAL_I2C_Slave_Receive_DMA                         build/stm32l4xx_hal_i2c.o
HAL_I2C_Slave_Receive_IT                          build/stm32l4xx_hal_i2c.o
HAL_I2C_Slave_Seq_Receive_DMA                     build/stm32l4xx_hal_i2c.o
HAL_I2C_Slave_Seq_Receive_IT                      build/stm32l4xx_hal_i2c.o
HAL_I2C_Slave_Seq_Transmit_DMA                    build/stm32l4xx_hal_i2c.o
HAL_I2C_Slave_Seq_Transmit_IT                     build/stm32l4xx_hal_i2c.o
HAL_I2C_Slave_Transmit                            build/stm32l4xx_hal_i2c.o
HAL_I2C_Slave_Transmit_DMA                        build/stm32l4xx_hal_i2c.o
HAL_I2C_Slave_Transmit_IT                         build/stm32l4xx_hal_i2c.o
HAL_IncTick                                       build/stm32l4xx_hal.o
                                                  build/stm32l4xx_it.o
HAL_Init                                          build/stm32l4xx_hal.o
                                                  build/main.o
HAL_InitTick                                      build/stm32l4xx_hal.o
                                                  build/stm32l4xx_hal_rcc.o
HAL_MPU_ConfigRegion                              build/stm32l4xx_hal_cortex.o
HAL_MPU_Disable                                   build/stm32l4xx_hal_cortex.o
HAL_MPU_Enable                                    build/stm32l4xx_hal_cortex.o
HAL_MspDeInit                                     build/stm32l4xx_hal.o
HAL_MspInit                                       build/stm32l4xx_hal_msp.o
HAL_NVIC_ClearPendingIRQ                          build/stm32l4xx_hal_cortex.o
HAL_NVIC_DisableIRQ                               build/stm32l4xx_hal_cortex.o
                                                  build/usbd_conf.o
HAL_NVIC_EnableIRQ                                build/stm32l4xx_hal_cortex.o
                                                  build/dma.o
                                                  build/usbd_conf.o
HAL_NVIC_GetActive                                build/stm32l4xx_hal_cortex.o
HAL_NVIC_GetPendingIRQ                            build/stm32l4xx_hal_cortex.o
HAL_NVIC_GetPriority                              build/stm32l4xx_hal_cortex.o
HAL_NVIC_GetPriorityGrouping                      build/stm32l4xx_hal_cortex.o
HAL_NVIC_SetPendingIRQ                            build/stm32l4xx_hal_cortex.o
HAL_NVIC_SetPriority                              build/stm32l4xx_hal_cortex.o
                                                  build/dma.o
                                                  build/usbd_conf.o
                                                  build/stm32l4xx_hal.o
HAL_NVIC_SetPriorityGrouping                      build/stm32l4xx_hal_cortex.o
                                                  build/stm32l4xx_hal.o
HAL_NVIC_SystemReset                              build/stm32l4xx_hal_cortex.o
HAL_PCDEx_ActivateBCD                             build/stm32l4xx_hal_pcd_ex.o
HAL_PCDEx_ActivateLPM                             build/stm32l4xx_hal_pcd_ex.o
                                                  build/stm32l4xx_hal_pcd.o
HAL_PCDEx_BCD_Callback                            build/stm32l4xx_hal_pcd_ex.o
HAL_PCDEx_BCD_VBUSDetect                          build/stm32l4xx_hal_pcd_ex.o
HAL_PCDEx_DeActivateBCD                           build/stm32l4xx_hal_pcd_ex.o
HAL_PCDEx_DeActivateLPM                           build/stm32l4xx_hal_pcd_ex.o
HAL_PCDEx_LPM_Callback                            build/usbd_conf.o
                                                  build/stm32l4xx_hal_pcd.o
HAL_PCDEx_SetRxFiFo                               build/stm32l4xx_hal_pcd_ex.o
                                                  build/usbd_conf.o
HAL_PCDEx_SetTxFiFo                               build/stm32l4xx_hal_pcd_ex.o
                                                  build/usbd_conf.o
HAL_PCD_ActivateRemoteWakeup                      build/stm32l4xx_hal_pcd.o
HAL_PCD_ConnectCallback                           build/usbd_conf.o
HAL_PCD_DataInStageCallback                       build/usbd_conf.o
HAL_PCD_DataOutStageCallback                      build/usbd_conf.o
HAL_PCD_DeActivateRemoteWakeup                    build/stm32l4xx_hal_pcd.o
HAL_PCD_DeInit                                    build/stm32l4xx_hal_pcd.o
                                                  build/usbd_conf.o
HAL_PCD_DevConnect                                build/stm32l4xx_hal_pcd.o
HAL_PCD_DevDisconnect                             build/stm32l4xx_hal_pcd.o
HAL_PCD_DisconnectCallback                        build/usbd_conf.o
HAL_PCD_EP_Close                                  build/stm32l4xx_hal_pcd.o
                                                  build/usbd_conf.o
HAL_PCD_EP_ClrStall                               build/stm32l4xx_hal_pcd.o
                                                  build/usbd_conf.o
HAL_PCD_EP_Flush                                  build/stm32l4xx_hal_pcd.o
                                                  build/usbd_conf.o
HAL_PCD_EP_GetRxCount                             build/stm32l4xx_hal_pcd.o
                                                  build/usbd_conf.o
HAL_PCD_EP_Open                                   build/stm32l4xx_hal_pcd.o
                                                  build/usbd_conf.o
HAL_PCD_EP_Receive                                build/stm32l4xx_hal_pcd.o
                                                  build/usbd_conf.o
HAL_PCD_EP_SetStall                               build/stm32l4xx_hal_pcd.o
                                                  build/usbd_conf.o
HAL_PCD_EP_Transmit                               build/stm32l4xx_hal_pcd.o
                                                  build/usbd_conf.o
HAL_PCD_GetState                                  build/stm32l4xx_hal_pcd.o
HAL_PCD_IRQHandler                                build/stm32l4xx_hal_pcd.o
                                                  build/stm32l4xx_it.o
HAL_PCD_ISOINIncompleteCallback                   build/usbd_conf.o
HAL_PCD_ISOOUTIncompleteCallback                  build/usbd_conf.o
HAL_PCD_Init                                      build/stm32l4xx_hal_pcd.o
                                                  build/usbd_conf.o
HAL_PCD_MspDeInit                                 build/usbd_conf.o
HAL_PCD_MspInit                                   build/usbd_conf.o
HAL_PCD_ResetCallback                             build/usbd_conf.o
HAL_PCD_ResumeCallback                            build/usbd_conf.o
HAL_PCD_SOFCallback                               build/usbd_conf.o
HAL_PCD_SetAddress                                build/stm32l4xx_hal_pcd.o
                                                  build/usbd_conf.o
HAL_PCD_SetupStageCallback                        build/usbd_conf.o
HAL_PCD_Start                                     build/stm32l4xx_hal_pcd.o
                                                  build/usbd_conf.o
HAL_PCD_Stop                                      build/stm32l4xx_hal_pcd.o
                                                  build/usbd_conf.o
HAL_PCD_SuspendCallback                           build/usbd_conf.o
HAL_PWREx_ConfigPVM                               build/stm32l4xx_hal_pwr_ex.o
HAL_PWREx_ControlVoltageScaling                   build/stm32l4xx_hal_pwr_ex.o
                                                  build/main.o
HAL_PWREx_DisableBatteryCharging                  build/stm32l4xx_hal_pwr_ex.o
HAL_PWREx_DisableGPIOPullDown                     build/stm32l4xx_hal_pwr_ex.o
HAL_PWREx_DisableGPIOPullUp                       build/stm32l4xx_hal_pwr_ex.o
HAL_PWREx_DisableInternalWakeUpLine               build/stm32l4xx_hal_pwr_ex.o
HAL_PWREx_DisableLowPowerRunMode                  build/stm32l4xx_hal_pwr_ex.o
                                                  build/stm32l4xx_hal_pwr.o
HAL_PWREx_DisablePVM1                             build/stm32l4xx_hal_pwr_ex.o
HAL_PWREx_DisablePVM2                             build/stm32l4xx_hal_pwr_ex.o
HAL_PWREx_DisablePVM3                             build/stm32l4xx_hal_pwr_ex.o
HAL_PWREx_DisablePVM4                             build/stm32l4xx_hal_pwr_ex.o
HAL_PWREx_DisablePullUpPullDownConfig             build/stm32l4xx_hal_pwr_ex.o
HAL_PWREx_DisableSRAM2ContentRetention            build/stm32l4xx_hal_pwr_ex.o
HAL_PWREx_DisableVddIO2                           build/stm32l4xx_hal_pwr_ex.o
HAL_PWREx_DisableVddUSB                           build/stm32l4xx_hal_pwr_ex.o
                                                  build/usbd_conf.o
HAL_PWREx_EnableBatteryCharging                   build/stm32l4xx_hal_pwr_ex.o
HAL_PWREx_EnableGPIOPullDown                      build/stm32l4xx_hal_pwr_ex.o
HAL_PWREx_EnableGPIOPullUp                        build/stm32l4xx_hal_pwr_ex.o
HAL_PWREx_EnableInternalWakeUpLine                build/stm32l4xx_hal_pwr_ex.o
HAL_PWREx_EnableLowPowerRunMode                   build/stm32l4xx_hal_pwr_ex.o
                                                  build/stm32l4xx_hal_pwr.o
HAL_PWREx_EnablePVM1                              build/stm32l4xx_hal_pwr_ex.o
HAL_PWREx_EnablePVM2                              build/stm32l4xx_hal_pwr_ex.o
HAL_PWREx_EnablePVM3                              build/stm32l4xx_hal_pwr_ex.o
HAL_PWREx_EnablePVM4                              build/stm32l4xx_hal_pwr_ex.o
HAL_PWREx_EnablePullUpPullDownConfig              build/stm32l4xx_hal_pwr_ex.o
HAL_PWREx_EnableSRAM2ContentRetention             build/stm32l4xx_hal_pwr_ex.o
HAL_PWREx_EnableVddIO2                            build/stm32l4xx_hal_pwr_ex.o
HAL_PWREx_EnableVddUSB                            build/stm32l4xx_hal_pwr_ex.o
                                                  build/usbd_conf.o
HAL_PWREx_EnterSHUTDOWNMode                       build/stm32l4xx_hal_pwr_ex.o
HAL_PWREx_EnterSTOP0Mode                          build/stm32l4xx_hal_pwr_ex.o
                                                  build/stm32l4xx_hal_pwr.o
HAL_PWREx_EnterSTOP1Mode                          build/stm32l4xx_hal_pwr_ex.o
                                                  build/stm32l4xx_hal_pwr.o
HAL_PWREx_EnterSTOP2Mode                          build/stm32l4xx_hal_pwr_ex.o
HAL_PWREx_GetVoltageRange                         build/stm32l4xx_hal_pwr_ex.o
                                                  build/stm32l4xx_hal_rcc.o
HAL_PWREx_PVD_PVM_IRQHandler                      build/stm32l4xx_hal_pwr_ex.o
HAL_PWREx_PVM1Callback                            build/stm32l4xx_hal_pwr_ex.o
HAL_PWREx_PVM2Callback                            build/stm32l4xx_hal_pwr_ex.o
HAL_PWREx_PVM3Callback                            build/stm32l4xx_hal_pwr_ex.o
HAL_PWREx_PVM4Callback                            build/stm32l4xx_hal_pwr_ex.o
HAL_PWREx_SetSRAM2ContentRetention                build/stm32l4xx_hal_pwr_ex.o
HAL_PWR_ConfigPVD                                 build/stm32l4xx_hal_pwr.o
HAL_PWR_DeInit                                    build/stm32l4xx_hal_pwr.o
HAL_PWR_DisableBkUpAccess                         build/stm32l4xx_hal_pwr.o
                                                  build/stm32l4xx_hal_rcc_ex.o
HAL_PWR_DisablePVD                                build/stm32l4xx_hal_pwr.o
HAL_PWR_DisableSEVOnPend                          build/stm32l4xx_hal_pwr.o
HAL_PWR_DisableSleepOnExit                        build/stm32l4xx_hal_pwr.o
HAL_PWR_DisableWakeUpPin                          build/stm32l4xx_hal_pwr.o
HAL_PWR_EnableBkUpAccess                          build/stm32l4xx_hal_pwr.o
                                                  build/stm32l4xx_hal_rcc_ex.o
HAL_PWR_EnablePVD                                 build/stm32l4xx_hal_pwr.o
HAL_PWR_EnableSEVOnPend                           build/stm32l4xx_hal_pwr.o
HAL_PWR_EnableSleepOnExit                         build/stm32l4xx_hal_pwr.o
HAL_PWR_EnableWakeUpPin                           build/stm32l4xx_hal_pwr.o
HAL_PWR_EnterSLEEPMode                            build/stm32l4xx_hal_pwr.o
HAL_PWR_EnterSTANDBYMode                          build/stm32l4xx_hal_pwr.o
HAL_PWR_EnterSTOPMode                             build/stm32l4xx_hal_pwr.o
HAL_PWR_PVDCallback                               build/stm32l4xx_hal_pwr.o
                                                  build/stm32l4xx_hal_pwr_ex.o
HAL_RCCEx_DisableLSCO                             build/stm32l4xx_hal_rcc_ex.o
HAL_RCCEx_DisableLSECSS                           build/stm32l4xx_hal_rcc_ex.o
HAL_RCCEx_DisableMSIPLLMode                       build/stm32l4xx_hal_rcc_ex.o
HAL_RCCEx_DisablePLLSAI1                          build/stm32l4xx_hal_rcc_ex.o
HAL_RCCEx_DisablePLLSAI2                          build/stm32l4xx_hal_rcc_ex.o
HAL_RCCEx_EnableLSCO                              build/stm32l4xx_hal_rcc_ex.o
HAL_RCCEx_EnableLSECSS                            build/stm32l4xx_hal_rcc_ex.o
HAL_RCCEx_EnableLSECSS_IT                         build/stm32l4xx_hal_rcc_ex.o
HAL_RCCEx_EnableMSIPLLMode                        build/stm32l4xx_hal_rcc_ex.o
HAL_RCCEx_EnablePLLSAI1                           build/stm32l4xx_hal_rcc_ex.o
HAL_RCCEx_EnablePLLSAI2                           build/stm32l4xx_hal_rcc_ex.o
HAL_RCCEx_GetPeriphCLKConfig                      build/stm32l4xx_hal_rcc_ex.o
HAL_RCCEx_GetPeriphCLKFreq                        build/stm32l4xx_hal_rcc_ex.o
HAL_RCCEx_LSECSS_Callback                         build/stm32l4xx_hal_rcc_ex.o
HAL_RCCEx_LSECSS_IRQHandler                       build/stm32l4xx_hal_rcc_ex.o
HAL_RCCEx_PeriphCLKConfig                         build/stm32l4xx_hal_rcc_ex.o
                                                  build/main.o
HAL_RCCEx_StandbyMSIRangeConfig                   build/stm32l4xx_hal_rcc_ex.o
HAL_RCCEx_WakeUpStopCLKConfig                     build/stm32l4xx_hal_rcc_ex.o
HAL_RCC_CSSCallback                               build/stm32l4xx_hal_rcc.o
HAL_RCC_ClockConfig                               build/stm32l4xx_hal_rcc.o
                                                  build/main.o
HAL_RCC_DeInit                                    build/stm32l4xx_hal_rcc.o
HAL_RCC_EnableCSS                                 build/stm32l4xx_hal_rcc.o
HAL_RCC_GetClockConfig                            build/stm32l4xx_hal_rcc.o
HAL_RCC_GetHCLKFreq                               build/stm32l4xx_hal_rcc.o
                                                  build/stm32l4xx_hal_pcd.o
HAL_RCC_GetOscConfig                              build/stm32l4xx_hal_rcc.o
HAL_RCC_GetPCLK1Freq                              build/stm32l4xx_hal_rcc.o
                                                  build/stm32l4xx_hal_rcc_ex.o
HAL_RCC_GetPCLK2Freq                              build/stm32l4xx_hal_rcc.o
                                                  build/stm32l4xx_hal_rcc_ex.o
HAL_RCC_GetSysClockFreq                           build/stm32l4xx_hal_rcc.o
                                                  build/addressable_led_driver.o
                                                  build/stm32l4xx_hal_rcc_ex.o
HAL_RCC_MCOConfig                                 build/stm32l4xx_hal_rcc.o
HAL_RCC_NMI_IRQHandler                            build/stm32l4xx_hal_rcc.o
HAL_RCC_OscConfig                                 build/stm32l4xx_hal_rcc.o
                                                  build/main.o
HAL_ResumeTick                                    build/stm32l4xx_hal.o
HAL_SYSCFG_DisableIOAnalogSwitchBooster           build/stm32l4xx_hal.o
HAL_SYSCFG_DisableMemorySwappingBank              build/stm32l4xx_hal.o
HAL_SYSCFG_DisableVREFBUF                         build/stm32l4xx_hal.o
HAL_SYSCFG_EnableIOAnalogSwitchBooster            build/stm32l4xx_hal.o
HAL_SYSCFG_EnableMemorySwappingBank               build/stm32l4xx_hal.o
HAL_SYSCFG_EnableVREFBUF                          build/stm32l4xx_hal.o
HAL_SYSCFG_SRAM2Erase                             build/stm32l4xx_hal.o
HAL_SYSCFG_VREFBUF_HighImpedanceConfig            build/stm32l4xx_hal.o
HAL_SYSCFG_VREFBUF_TrimmingConfig                 build/stm32l4xx_hal.o
HAL_SYSCFG_VREFBUF_VoltageScalingConfig           build/stm32l4xx_hal.o
HAL_SYSTICK_CLKSourceConfig                       build/stm32l4xx_hal_cortex.o
HAL_SYSTICK_Callback                              build/stm32l4xx_hal_cortex.o
HAL_SYSTICK_Config                                build/stm32l4xx_hal_cortex.o
                                                  build/stm32l4xx_hal.o
HAL_SYSTICK_IRQHandler                            build/stm32l4xx_hal_cortex.o
HAL_SetTickFreq                                   build/stm32l4xx_hal.o
HAL_SuspendTick                                   build/stm32l4xx_hal.o
HAL_TIMEx_Break2Callback                          build/stm32l4xx_hal_tim_ex.o
                                                  build/stm32l4xx_hal_tim.o
HAL_TIMEx_BreakCallback                           build/stm32l4xx_hal_tim_ex.o
                                                  build/stm32l4xx_hal_tim.o
HAL_TIMEx_CommutCallback                          build/stm32l4xx_hal_tim_ex.o
                                                  build/stm32l4xx_hal_tim.o
HAL_TIMEx_CommutHalfCpltCallback                  build/stm32l4xx_hal_tim_ex.o
HAL_TIMEx_ConfigBreakDeadTime                     build/stm32l4xx_hal_tim_ex.o
HAL_TIMEx_ConfigBreakInput                        build/stm32l4xx_hal_tim_ex.o
HAL_TIMEx_ConfigCommutEvent                       build/stm32l4xx_hal_tim_ex.o
HAL_TIMEx_ConfigCommutEvent_DMA                   build/stm32l4xx_hal_tim_ex.o
HAL_TIMEx_ConfigCommutEvent_IT                    build/stm32l4xx_hal_tim_ex.o
HAL_TIMEx_GroupChannel5                           build/stm32l4xx_hal_tim_ex.o
HAL_TIMEx_HallSensor_DeInit                       build/stm32l4xx_hal_tim_ex.o
HAL_TIMEx_HallSensor_GetState                     build/stm32l4xx_hal_tim_ex.o
HAL_TIMEx_HallSensor_Init                         build/stm32l4xx_hal_tim_ex.o
HAL_TIMEx_HallSensor_MspDeInit                    build/stm32l4xx_hal_tim_ex.o
HAL_TIMEx_HallSensor_MspInit                      build/stm32l4xx_hal_tim_ex.o
HAL_TIMEx_HallSensor_Start                        build/stm32l4xx_hal_tim_ex.o
HAL_TIMEx_HallSensor_Start_DMA                    build/stm32l4xx_hal_tim_ex.o
HAL_TIMEx_HallSensor_Start_IT                     build/stm32l4xx_hal_tim_ex.o
HAL_TIMEx_HallSensor_Stop                         build/stm32l4xx_hal_tim_ex.o
HAL_TIMEx_HallSensor_Stop_DMA                     build/stm32l4xx_hal_tim_ex.o
HAL_TIMEx_HallSensor_Stop_IT                      build/stm32l4xx_hal_tim_ex.o
HAL_TIMEx_MasterConfigSynchronization             build/stm32l4xx_hal_tim_ex.o
                                                  build/tim.o
HAL_TIMEx_OCN_Start                               build/stm32l4xx_hal_tim_ex.o
HAL_TIMEx_OCN_Start_DMA                           build/stm32l4xx_hal_tim_ex.o
HAL_TIMEx_OCN_Start_IT                            build/stm32l4xx_hal_tim_ex.o
HAL_TIMEx_OCN_Stop                                build/stm32l4xx_hal_tim_ex.o
HAL_TIMEx_OCN_Stop_DMA                            build/stm32l4xx_hal_tim_ex.o
HAL_TIMEx_OCN_Stop_IT                             build/stm32l4xx_hal_tim_ex.o
HAL_TIMEx_OnePulseN_Start                         build/stm32l4xx_hal_tim_ex.o
HAL_TIMEx_OnePulseN_Start_IT                      build/stm32l4xx_hal_tim_ex.o
HAL_TIMEx_OnePulseN_Stop                          build/stm32l4xx_hal_tim_ex.o
HAL_TIMEx_OnePulseN_Stop_IT                       build/stm32l4xx_hal_tim_ex.o
HAL_TIMEx_PWMN_Start                              build/stm32l4xx_hal_tim_ex.o
HAL_TIMEx_PWMN_Start_DMA                          build/stm32l4xx_hal_tim_ex.o
HAL_TIMEx_PWMN_Start_IT                           build/stm32l4xx_hal_tim_ex.o
HAL_TIMEx_PWMN_Stop                               build/stm32l4xx_hal_tim_ex.o
HAL_TIMEx_PWMN_Stop_DMA                           build/stm32l4xx_hal_tim_ex.o
HAL_TIMEx_PWMN_Stop_IT                            build/stm32l4xx_hal_tim_ex.o
HAL_TIMEx_RemapConfig                             build/stm32l4xx_hal_tim_ex.o
HAL_TIM_Base_DeInit                               build/stm32l4xx_hal_tim.o
HAL_TIM_Base_GetState                             build/stm32l4xx_hal_tim.o
HAL_TIM_Base_Init                                 build/stm32l4xx_hal_tim.o
HAL_TIM_Base_MspDeInit                            build/stm32l4xx_hal_tim.o
HAL_TIM_Base_MspInit                              build/stm32l4xx_hal_tim.o
HAL_TIM_Base_Start                                build/stm32l4xx_hal_tim.o
HAL_TIM_Base_Start_DMA                            build/stm32l4xx_hal_tim.o
HAL_TIM_Base_Start_IT                             build/stm32l4xx_hal_tim.o
HAL_TIM_Base_Stop                                 build/stm32l4xx_hal_tim.o
HAL_TIM_Base_Stop_DMA                             build/stm32l4xx_hal_tim.o
HAL_TIM_Base_Stop_IT                              build/stm32l4xx_hal_tim.o
HAL_TIM_ConfigClockSource                         build/stm32l4xx_hal_tim.o
HAL_TIM_ConfigOCrefClear                          build/stm32l4xx_hal_tim.o
HAL_TIM_ConfigTI1Input                            build/stm32l4xx_hal_tim.o
HAL_TIM_DMABurst_ReadStart                        build/stm32l4xx_hal_tim.o
HAL_TIM_DMABurst_ReadStop                         build/stm32l4xx_hal_tim.o
HAL_TIM_DMABurst_WriteStart                       build/stm32l4xx_hal_tim.o
HAL_TIM_DMABurst_WriteStop                        build/stm32l4xx_hal_tim.o
HAL_TIM_Encoder_DeInit                            build/stm32l4xx_hal_tim.o
HAL_TIM_Encoder_GetState                          build/stm32l4xx_hal_tim.o
HAL_TIM_Encoder_Init                              build/stm32l4xx_hal_tim.o
HAL_TIM_Encoder_MspDeInit                         build/stm32l4xx_hal_tim.o
HAL_TIM_Encoder_MspInit                           build/stm32l4xx_hal_tim.o
HAL_TIM_Encoder_Start                             build/stm32l4xx_hal_tim.o
HAL_TIM_Encoder_Start_DMA                         build/stm32l4xx_hal_tim.o
HAL_TIM_Encoder_Start_IT                          build/stm32l4xx_hal_tim.o
HAL_TIM_Encoder_Stop                              build/stm32l4xx_hal_tim.o
HAL_TIM_Encoder_Stop_DMA                          build/stm32l4xx_hal_tim.o
HAL_TIM_Encoder_Stop_IT                           build/stm32l4xx_hal_tim.o
HAL_TIM_ErrorCallback                             build/stm32l4xx_hal_tim.o
HAL_TIM_GenerateEvent                             build/stm32l4xx_hal_tim.o
HAL_TIM_IC_CaptureCallback                        build/stm32l4xx_hal_tim.o
HAL_TIM_IC_CaptureHalfCpltCallback                build/stm32l4xx_hal_tim.o
HAL_TIM_IC_ConfigChannel                          build/stm32l4xx_hal_tim.o
HAL_TIM_IC_DeInit                                 build/stm32l4xx_hal_tim.o
HAL_TIM_IC_GetState                               build/stm32l4xx_hal_tim.o
HAL_TIM_IC_Init                                   build/stm32l4xx_hal_tim.o
HAL_TIM_IC_MspDeInit                              build/stm32l4xx_hal_tim.o
HAL_TIM_IC_MspInit                                build/stm32l4xx_hal_tim.o
HAL_TIM_IC_Start                                  build/stm32l4xx_hal_tim.o
HAL_TIM_IC_Start_DMA                              build/stm32l4xx_hal_tim.o
HAL_TIM_IC_Start_IT                               build/stm32l4xx_hal_tim.o
HAL_TIM_IC_Stop                                   build/stm32l4xx_hal_tim.o
HAL_TIM_IC_Stop_DMA                               build/stm32l4xx_hal_tim.o
HAL_TIM_IC_Stop_IT                                build/stm32l4xx_hal_tim.o
HAL_TIM_IRQHandler                                build/stm32l4xx_hal_tim.o
HAL_TIM_MspPostInit                               build/tim.o
HAL_TIM_OC_ConfigChannel                          build/stm32l4xx_hal_tim.o
HAL_TIM_OC_DeInit                                 build/stm32l4xx_hal_tim.o
HAL_TIM_OC_DelayElapsedCallback                   build/stm32l4xx_hal_tim.o
HAL_TIM_OC_GetState                               build/stm32l4xx_hal_tim.o
HAL_TIM_OC_Init                                   build/stm32l4xx_hal_tim.o
HAL_TIM_OC_MspDeInit                              build/stm32l4xx_hal_tim.o
HAL_TIM_OC_MspInit                                build/stm32l4xx_hal_tim.o
HAL_TIM_OC_Start                                  build/stm32l4xx_hal_tim.o
HAL_TIM_OC_Start_DMA                              build/stm32l4xx_hal_tim.o
HAL_TIM_OC_Start_IT                               build/stm32l4xx_hal_tim.o
HAL_TIM_OC_Stop                                   build/stm32l4xx_hal_tim.o
HAL_TIM_OC_Stop_DMA                               build/stm32l4xx_hal_tim.o
HAL_TIM_OC_Stop_IT                                build/stm32l4xx_hal_tim.o
HAL_TIM_OnePulse_ConfigChannel                    build/stm32l4xx_hal_tim.o
HAL_TIM_OnePulse_DeInit                           build/stm32l4xx_hal_tim.o
HAL_TIM_OnePulse_GetState                         build/stm32l4xx_hal_tim.o
HAL_TIM_OnePulse_Init                             build/stm32l4xx_hal_tim.o
HAL_TIM_OnePulse_MspDeInit                        build/stm32l4xx_hal_tim.o
HAL_TIM_OnePulse_MspInit                          build/stm32l4xx_hal_tim.o
HAL_TIM_OnePulse_Start                            build/stm32l4xx_hal_tim.o
HAL_TIM_OnePulse_Start_IT                         build/stm32l4xx_hal_tim.o
HAL_TIM_OnePulse_Stop                             build/stm32l4xx_hal_tim.o
HAL_TIM_OnePulse_Stop_IT                          build/stm32l4xx_hal_tim.o
HAL_TIM_PWM_ConfigChannel                         build/stm32l4xx_hal_tim.o
                                                  build/tim.o
HAL_TIM_PWM_DeInit                                build/stm32l4xx_hal_tim.o
HAL_TIM_PWM_GetState                              build/stm32l4xx_hal_tim.o
HAL_TIM_PWM_Init                                  build/stm32l4xx_hal_tim.o
                                                  build/tim.o
HAL_TIM_PWM_MspDeInit                             build/tim.o
                                                  build/stm32l4xx_hal_tim.o
HAL_TIM_PWM_MspInit                               build/tim.o
                                                  build/stm32l4xx_hal_tim.o
HAL_TIM_PWM_PulseFinishedCallback                 build/stm32l4xx_hal_tim.o
HAL_TIM_PWM_PulseFinishedHalfCpltCallback         build/stm32l4xx_hal_tim.o
HAL_TIM_PWM_Start                                 build/stm32l4xx_hal_tim.o
                                                  build/addressable_led_driver.o
HAL_TIM_PWM_Start_DMA                             build/stm32l4xx_hal_tim.o
                                                  build/addressable_led_driver.o
HAL_TIM_PWM_Start_IT                              build/stm32l4xx_hal_tim.o
HAL_TIM_PWM_Stop                                  build/stm32l4xx_hal_tim.o
                                                  build/addressable_led_driver.o
HAL_TIM_PWM_Stop_DMA                              build/stm32l4xx_hal_tim.o
HAL_TIM_PWM_Stop_IT                               build/stm32l4xx_hal_tim.o
HAL_TIM_PeriodElapsedCallback                     build/stm32l4xx_hal_tim.o
HAL_TIM_PeriodElapsedHalfCpltCallback             build/stm32l4xx_hal_tim.o
HAL_TIM_ReadCapturedValue                         build/stm32l4xx_hal_tim.o
HAL_TIM_SlaveConfigSynchro                        build/stm32l4xx_hal_tim.o
HAL_TIM_SlaveConfigSynchro_IT                     build/stm32l4xx_hal_tim.o
HAL_TIM_TriggerCallback                           build/stm32l4xx_hal_tim.o
HAL_TIM_TriggerHalfCpltCallback                   build/stm32l4xx_hal_tim.o
HardFault_Handler                                 build/stm32l4xx_it.o
HsvToRgb                                          build/color.o
                                                  build/random_triangles_animation.o
I2C1_ER_IRQHandler                                build/startup_stm32l476xx.o
I2C1_EV_IRQHandler                                build/startup_stm32l476xx.o
I2C2_ER_IRQHandler                                build/startup_stm32l476xx.o
I2C2_EV_IRQHandler                                build/startup_stm32l476xx.o
I2C3_ER_IRQHandler                                build/startup_stm32l476xx.o
I2C3_EV_IRQHandler                                build/startup_stm32l476xx.o
LCD_IRQHandler                                    build/startup_stm32l476xx.o
LPTIM1_IRQHandler                                 build/startup_stm32l476xx.o
LPTIM2_IRQHandler                                 build/startup_stm32l476xx.o
LPUART1_IRQHandler                                build/startup_stm32l476xx.o
MICROSECOND_PRESCALER                             build/addressable_led_driver.o
MILLISECOND_PRESCALER                             build/addressable_led_driver.o
MSIRangeTable                                     build/system_stm32l4xx.o
                                                  build/stm32l4xx_hal_rcc_ex.o
                                                  build/stm32l4xx_hal_rcc.o
MX_ADC1_Init                                      build/adc.o
                                                  build/main.o
MX_DMA_Init                                       build/dma.o
                                                  build/main.o
MX_GPIO_Init                                      build/gpio.o
                                                  build/main.o
MX_I2C1_Init                                      build/i2c.o
                                                  build/main.o
MX_I2C2_Init                                      build/i2c.o
                                                  build/main.o
MX_TIM3_Init                                      build/tim.o
                                                  build/main.o
MX_USB_DEVICE_Init                                build/usb_device.o
                                                  build/main.o
MemManage_Handler                                 build/stm32l4xx_it.o
NMI_Handler                                       build/stm32l4xx_it.o
OTG_FS_IRQHandler                                 build/stm32l4xx_it.o
PVD_PVM_IRQHandler                                build/startup_stm32l476xx.o
PendSV_Handler                                    build/stm32l4xx_it.o
QUADSPI_IRQHandler                                build/startup_stm32l476xx.o
RCC_IRQHandler                                    build/startup_stm32l476xx.o
RNG_IRQHandler                                    build/startup_stm32l476xx.o
RTC_Alarm_IRQHandler                              build/startup_stm32l476xx.o
RTC_WKUP_IRQHandler                               build/startup_stm32l476xx.o
Reset_Handler                                     build/startup_stm32l476xx.o
SAI1_IRQHandler                                   build/startup_stm32l476xx.o
SAI2_IRQHandler                                   build/startup_stm32l476xx.o
SDMMC1_IRQHandler                                 build/startup_stm32l476xx.o
SPI1_IRQHandler                                   build/startup_stm32l476xx.o
SPI2_IRQHandler                                   build/startup_stm32l476xx.o
SPI3_IRQHandler                                   build/startup_stm32l476xx.o
SVC_Handler                                       build/stm32l4xx_it.o
SWPMI1_IRQHandler                                 build/startup_stm32l476xx.o
ShellCommandStarted                               build/shell.o
ShellCommands                                     build/shell.o
ShellNewline                                      build/shell.o
ShellRxBuffer                                     build/shell.o
ShellRxBufferHead                                 build/shell.o
Shell_CdcReceive                                  build/shell.o
                                                  build/usbd_cdc_if.o
Shell_Init                                        build/shell.o
Shell_ProcessCommand                              build/shell.o
SwTimer_ISR                                       build/sw_timers.o
SwTimer_Start                                     build/sw_timers.o
                                                  build/addressable_led_manager.o
SwTimer_Stop                                      build/sw_timers.o
SysTick_Handler                                   build/stm32l4xx_it.o
SystemClock_Config                                build/main.o
                                                  build/usbd_conf.o
SystemCoreClock                                   build/system_stm32l4xx.o
                                                  build/stm32l4xx_hal_adc_ex.o
                                                  build/stm32l4xx_hal_adc.o
                                                  build/stm32l4xx_hal_pwr_ex.o
                                                  build/stm32l4xx_hal_rcc.o
                                                  build/stm32l4xx_hal.o
SystemCoreClockUpdate                             build/system_stm32l4xx.o
SystemInit                                        build/system_stm32l4xx.o
                                                  build/startup_stm32l476xx.o
TAMP_STAMP_IRQHandler                             build/startup_stm32l476xx.o
TIM1_BRK_TIM15_IRQHandler                         build/startup_stm32l476xx.o
TIM1_CC_IRQHandler                                build/startup_stm32l476xx.o
TIM1_TRG_COM_TIM17_IRQHandler                     build/startup_stm32l476xx.o
TIM1_UP_TIM16_IRQHandler                          build/startup_stm32l476xx.o
TIM2_IRQHandler                                   build/startup_stm32l476xx.o
TIM3_IRQHandler                                   build/startup_stm32l476xx.o
TIM4_IRQHandler                                   build/startup_stm32l476xx.o
TIM5_IRQHandler                                   build/startup_stm32l476xx.o
TIM6_DAC_IRQHandler                               build/startup_stm32l476xx.o
TIM7_IRQHandler                                   build/startup_stm32l476xx.o
TIM8_BRK_IRQHandler                               build/startup_stm32l476xx.o
TIM8_CC_IRQHandler                                build/startup_stm32l476xx.o
TIM8_TRG_COM_IRQHandler                           build/startup_stm32l476xx.o
TIM8_UP_IRQHandler                                build/startup_stm32l476xx.o
TIMEx_DMACommutationCplt                          build/stm32l4xx_hal_tim_ex.o
                                                  build/stm32l4xx_hal_tim.o
TIMEx_DMACommutationHalfCplt                      build/stm32l4xx_hal_tim_ex.o
                                                  build/stm32l4xx_hal_tim.o
TIM_Base_SetConfig                                build/stm32l4xx_hal_tim.o
                                                  build/stm32l4xx_hal_tim_ex.o
TIM_CCxChannelCmd                                 build/stm32l4xx_hal_tim.o
                                                  build/stm32l4xx_hal_tim_ex.o
TIM_DMACaptureCplt                                build/stm32l4xx_hal_tim.o
                                                  build/stm32l4xx_hal_tim_ex.o
TIM_DMACaptureHalfCplt                            build/stm32l4xx_hal_tim.o
                                                  build/stm32l4xx_hal_tim_ex.o
TIM_DMADelayPulseCplt                             build/stm32l4xx_hal_tim.o
                                                  build/stm32l4xx_hal_tim_ex.o
TIM_DMADelayPulseHalfCplt                         build/stm32l4xx_hal_tim.o
                                                  build/stm32l4xx_hal_tim_ex.o
TIM_DMAError                                      build/stm32l4xx_hal_tim.o
                                                  build/stm32l4xx_hal_tim_ex.o
TIM_ETR_SetConfig                                 build/stm32l4xx_hal_tim.o
TIM_OC2_SetConfig                                 build/stm32l4xx_hal_tim.o
                                                  build/stm32l4xx_hal_tim_ex.o
TIM_TI1_SetConfig                                 build/stm32l4xx_hal_tim.o
                                                  build/stm32l4xx_hal_tim_ex.o
TSC_IRQHandler                                    build/startup_stm32l476xx.o
UART4_IRQHandler                                  build/startup_stm32l476xx.o
UART5_IRQHandler                                  build/startup_stm32l476xx.o
USART1_IRQHandler                                 build/startup_stm32l476xx.o
USART2_IRQHandler                                 build/startup_stm32l476xx.o
USART3_IRQHandler                                 build/startup_stm32l476xx.o
USBD_CDC                                          build/usbd_cdc.o
                                                  build/usb_device.o
USBD_CDC_CfgFSDesc                                build/usbd_cdc.o
USBD_CDC_CfgHSDesc                                build/usbd_cdc.o
USBD_CDC_GetDeviceQualifierDescriptor             build/usbd_cdc.o
USBD_CDC_OtherSpeedCfgDesc                        build/usbd_cdc.o
USBD_CDC_ReceivePacket                            build/usbd_cdc.o
                                                  build/usbd_cdc_if.o
USBD_CDC_RegisterInterface                        build/usbd_cdc.o
                                                  build/usb_device.o
USBD_CDC_SetRxBuffer                              build/usbd_cdc.o
                                                  build/usbd_cdc_if.o
USBD_CDC_SetTxBuffer                              build/usbd_cdc.o
                                                  build/usbd_cdc_if.o
USBD_CDC_TransmitPacket                           build/usbd_cdc.o
                                                  build/usbd_cdc_if.o
USBD_ClrClassConfig                               build/usbd_core.o
                                                  build/usbd_ctlreq.o
USBD_CtlContinueRx                                build/usbd_ioreq.o
                                                  build/usbd_core.o
USBD_CtlContinueSendData                          build/usbd_ioreq.o
                                                  build/usbd_core.o
USBD_CtlError                                     build/usbd_ctlreq.o
                                                  build/usbd_cdc.o
USBD_CtlPrepareRx                                 build/usbd_ioreq.o
                                                  build/usbd_cdc.o
USBD_CtlReceiveStatus                             build/usbd_ioreq.o
                                                  build/usbd_core.o
USBD_CtlSendData                                  build/usbd_ioreq.o
                                                  build/usbd_cdc.o
                                                  build/usbd_ctlreq.o
USBD_CtlSendStatus                                build/usbd_ioreq.o
                                                  build/usbd_ctlreq.o
                                                  build/usbd_core.o
USBD_DeInit                                       build/usbd_core.o
USBD_FS_BOSDesc                                   build/usbd_desc.o
USBD_FS_ConfigStrDescriptor                       build/usbd_desc.o
USBD_FS_DeviceDesc                                build/usbd_desc.o
USBD_FS_DeviceDescriptor                          build/usbd_desc.o
USBD_FS_InterfaceStrDescriptor                    build/usbd_desc.o
USBD_FS_LangIDStrDescriptor                       build/usbd_desc.o
USBD_FS_ManufacturerStrDescriptor                 build/usbd_desc.o
USBD_FS_ProductStrDescriptor                      build/usbd_desc.o
USBD_FS_SerialStrDescriptor                       build/usbd_desc.o
USBD_FS_USR_BOSDescriptor                         build/usbd_desc.o
USBD_GetRxCount                                   build/usbd_ioreq.o
USBD_GetString                                    build/usbd_ctlreq.o
                                                  build/usbd_desc.o
USBD_Init                                         build/usbd_core.o
                                                  build/usb_device.o
USBD_Interface_fops_FS                            build/usbd_cdc_if.o
                                                  build/usb_device.o
USBD_LL_ClearStallEP                              build/usbd_conf.o
                                                  build/usbd_ctlreq.o
USBD_LL_CloseEP                                   build/usbd_conf.o
                                                  build/usbd_cdc.o
USBD_LL_DataInStage                               build/usbd_core.o
                                                  build/usbd_conf.o
USBD_LL_DataOutStage                              build/usbd_core.o
                                                  build/usbd_conf.o
USBD_LL_DeInit                                    build/usbd_conf.o
                                                  build/usbd_core.o
USBD_LL_Delay                                     build/usbd_conf.o
USBD_LL_DevConnected                              build/usbd_core.o
                                                  build/usbd_conf.o
USBD_LL_DevDisconnected                           build/usbd_core.o
                                                  build/usbd_conf.o
USBD_LL_FlushEP                                   build/usbd_conf.o
USBD_LL_GetRxDataSize                             build/usbd_conf.o
                                                  build/usbd_cdc.o
                                                  build/usbd_ioreq.o
USBD_LL_Init                                      build/usbd_conf.o
                                                  build/usbd_core.o
USBD_LL_IsStallEP                                 build/usbd_conf.o
                                                  build/usbd_ctlreq.o
USBD_LL_IsoINIncomplete                           build/usbd_core.o
                                                  build/usbd_conf.o
USBD_LL_IsoOUTIncomplete                          build/usbd_core.o
                                                  build/usbd_conf.o
USBD_LL_OpenEP                                    build/usbd_conf.o
                                                  build/usbd_cdc.o
                                                  build/usbd_core.o
USBD_LL_PrepareReceive                            build/usbd_conf.o
                                                  build/usbd_cdc.o
                                                  build/usbd_ioreq.o
                                                  build/usbd_core.o
USBD_LL_Reset                                     build/usbd_core.o
                                                  build/usbd_conf.o
USBD_LL_Resume                                    build/usbd_core.o
                                                  build/usbd_conf.o
USBD_LL_SOF                                       build/usbd_core.o
                                                  build/usbd_conf.o
USBD_LL_SetSpeed                                  build/usbd_core.o
                                                  build/usbd_conf.o
USBD_LL_SetUSBAddress                             build/usbd_conf.o
                                                  build/usbd_ctlreq.o
USBD_LL_SetupStage                                build/usbd_core.o
                                                  build/usbd_conf.o
USBD_LL_StallEP                                   build/usbd_conf.o
                                                  build/usbd_ctlreq.o
                                                  build/usbd_core.o
USBD_LL_Start                                     build/usbd_conf.o
                                                  build/usbd_core.o
USBD_LL_Stop                                      build/usbd_conf.o
                                                  build/usbd_core.o
USBD_LL_Suspend                                   build/usbd_core.o
                                                  build/usbd_conf.o
USBD_LL_Transmit                                  build/usbd_conf.o
                                                  build/usbd_cdc.o
                                                  build/usbd_ioreq.o
USBD_LangIDDesc                                   build/usbd_desc.o
USBD_ParseSetupRequest                            build/usbd_ctlreq.o
                                                  build/usbd_core.o
USBD_RegisterClass                                build/usbd_core.o
                                                  build/usb_device.o
USBD_RunTestMode                                  build/usbd_core.o
USBD_SetClassConfig                               build/usbd_core.o
                                                  build/usbd_ctlreq.o
USBD_Start                                        build/usbd_core.o
                                                  build/usb_device.o
USBD_StdDevReq                                    build/usbd_ctlreq.o
                                                  build/usbd_core.o
USBD_StdEPReq                                     build/usbd_ctlreq.o
                                                  build/usbd_core.o
USBD_StdItfReq                                    build/usbd_ctlreq.o
                                                  build/usbd_core.o
USBD_Stop                                         build/usbd_core.o
USBD_StrDesc                                      build/usbd_desc.o
USBD_StringSerial                                 build/usbd_desc.o
USBD_static_free                                  build/usbd_conf.o
                                                  build/usbd_cdc.o
USBD_static_malloc                                build/usbd_conf.o
                                                  build/usbd_cdc.o
USB_ActivateDedicatedEndpoint                     build/stm32l4xx_ll_usb.o
USB_ActivateEndpoint                              build/stm32l4xx_ll_usb.o
                                                  build/stm32l4xx_hal_pcd.o
USB_ActivateRemoteWakeup                          build/stm32l4xx_ll_usb.o
                                                  build/stm32l4xx_hal_pcd.o
USB_ActivateSetup                                 build/stm32l4xx_ll_usb.o
                                                  build/stm32l4xx_hal_pcd.o
USB_ClearInterrupts                               build/stm32l4xx_ll_usb.o
USB_CoreInit                                      build/stm32l4xx_ll_usb.o
                                                  build/stm32l4xx_hal_pcd.o
USB_DeActivateRemoteWakeup                        build/stm32l4xx_ll_usb.o
                                                  build/stm32l4xx_hal_pcd.o
USB_DeactivateDedicatedEndpoint                   build/stm32l4xx_ll_usb.o
USB_DeactivateEndpoint                            build/stm32l4xx_ll_usb.o
                                                  build/stm32l4xx_hal_pcd.o
USB_DevConnect                                    build/stm32l4xx_ll_usb.o
                                                  build/stm32l4xx_hal_pcd.o
USB_DevDisconnect                                 build/stm32l4xx_ll_usb.o
                                                  build/stm32l4xx_hal_pcd.o
USB_DevInit                                       build/stm32l4xx_ll_usb.o
                                                  build/stm32l4xx_hal_pcd.o
USB_DisableGlobalInt                              build/stm32l4xx_ll_usb.o
                                                  build/stm32l4xx_hal_pcd.o
USB_DoPing                                        build/stm32l4xx_ll_usb.o
USB_DriveVbus                                     build/stm32l4xx_ll_usb.o
USB_EP0StartXfer                                  build/stm32l4xx_ll_usb.o
                                                  build/stm32l4xx_hal_pcd.o
USB_EP0_OutStart                                  build/stm32l4xx_ll_usb.o
                                                  build/stm32l4xx_hal_pcd.o
USB_EPClearStall                                  build/stm32l4xx_ll_usb.o
                                                  build/stm32l4xx_hal_pcd.o
USB_EPSetStall                                    build/stm32l4xx_ll_usb.o
                                                  build/stm32l4xx_hal_pcd.o
USB_EPStartXfer                                   build/stm32l4xx_ll_usb.o
                                                  build/stm32l4xx_hal_pcd.o
USB_EnableGlobalInt                               build/stm32l4xx_ll_usb.o
                                                  build/stm32l4xx_hal_pcd.o
USB_FlushRxFifo                                   build/stm32l4xx_ll_usb.o
                                                  build/stm32l4xx_hal_pcd.o
USB_FlushTxFifo                                   build/stm32l4xx_ll_usb.o
                                                  build/stm32l4xx_hal_pcd.o
USB_GetCurrentFrame                               build/stm32l4xx_ll_usb.o
USB_GetDevSpeed                                   build/stm32l4xx_ll_usb.o
                                                  build/stm32l4xx_hal_pcd.o
USB_GetHostSpeed                                  build/stm32l4xx_ll_usb.o
USB_GetMode                                       build/stm32l4xx_ll_usb.o
                                                  build/stm32l4xx_hal_pcd.o
USB_HC_Halt                                       build/stm32l4xx_ll_usb.o
USB_HC_Init                                       build/stm32l4xx_ll_usb.o
USB_HC_ReadInterrupt                              build/stm32l4xx_ll_usb.o
USB_HC_StartXfer                                  build/stm32l4xx_ll_usb.o
USB_HostInit                                      build/stm32l4xx_ll_usb.o
USB_InitFSLSPClkSel                               build/stm32l4xx_ll_usb.o
USB_ReadDevAllInEpInterrupt                       build/stm32l4xx_ll_usb.o
                                                  build/stm32l4xx_hal_pcd.o
USB_ReadDevAllOutEpInterrupt                      build/stm32l4xx_ll_usb.o
                                                  build/stm32l4xx_hal_pcd.o
USB_ReadDevInEPInterrupt                          build/stm32l4xx_ll_usb.o
                                                  build/stm32l4xx_hal_pcd.o
USB_ReadDevOutEPInterrupt                         build/stm32l4xx_ll_usb.o
                                                  build/stm32l4xx_hal_pcd.o
USB_ReadInterrupts                                build/stm32l4xx_ll_usb.o
                                                  build/stm32l4xx_hal_pcd.o
USB_ReadPacket                                    build/stm32l4xx_ll_usb.o
                                                  build/stm32l4xx_hal_pcd.o
USB_ResetPort                                     build/stm32l4xx_ll_usb.o
USB_SetCurrentMode                                build/stm32l4xx_ll_usb.o
                                                  build/stm32l4xx_hal_pcd.o
USB_SetDevAddress                                 build/stm32l4xx_ll_usb.o
                                                  build/stm32l4xx_hal_pcd.o
USB_SetDevSpeed                                   build/stm32l4xx_ll_usb.o
USB_SetTurnaroundTime                             build/stm32l4xx_ll_usb.o
                                                  build/stm32l4xx_hal_pcd.o
USB_StopDevice                                    build/stm32l4xx_ll_usb.o
                                                  build/stm32l4xx_hal_pcd.o
USB_StopHost                                      build/stm32l4xx_ll_usb.o
USB_WritePacket                                   build/stm32l4xx_ll_usb.o
                                                  build/stm32l4xx_hal_pcd.o
UsageFault_Handler                                build/stm32l4xx_it.o
UserRxBufferFS                                    build/usbd_cdc_if.o
UserTxBufferFS                                    build/usbd_cdc_if.o
WWDG_IRQHandler                                   build/startup_stm32l476xx.o
__adddf3                                          /home/jon/KODMOD/EMBEDDED_TOOLCHAINS/gcc-arm-none-eabi-7-2018-q2-update/bin/../lib/gcc/arm-none-eabi/7.3.1/thumb/v7e-m/fpv4-sp/hard/libgcc.a(_arm_addsubdf3.o)
__aeabi_cdcmpeq                                   /home/jon/KODMOD/EMBEDDED_TOOLCHAINS/gcc-arm-none-eabi-7-2018-q2-update/bin/../lib/gcc/arm-none-eabi/7.3.1/thumb/v7e-m/fpv4-sp/hard/libgcc.a(_arm_cmpdf2.o)
__aeabi_cdcmple                                   /home/jon/KODMOD/EMBEDDED_TOOLCHAINS/gcc-arm-none-eabi-7-2018-q2-update/bin/../lib/gcc/arm-none-eabi/7.3.1/thumb/v7e-m/fpv4-sp/hard/libgcc.a(_arm_cmpdf2.o)
__aeabi_cdrcmple                                  /home/jon/KODMOD/EMBEDDED_TOOLCHAINS/gcc-arm-none-eabi-7-2018-q2-update/bin/../lib/gcc/arm-none-eabi/7.3.1/thumb/v7e-m/fpv4-sp/hard/libgcc.a(_arm_cmpdf2.o)
__aeabi_d2iz                                      /home/jon/KODMOD/EMBEDDED_TOOLCHAINS/gcc-arm-none-eabi-7-2018-q2-update/bin/../lib/gcc/arm-none-eabi/7.3.1/thumb/v7e-m/fpv4-sp/hard/libgcc.a(_arm_fixdfsi.o)
                                                  build/color.o
__aeabi_d2uiz                                     /home/jon/KODMOD/EMBEDDED_TOOLCHAINS/gcc-arm-none-eabi-7-2018-q2-update/bin/../lib/gcc/arm-none-eabi/7.3.1/thumb/v7e-m/fpv4-sp/hard/libgcc.a(_arm_fixunsdfsi.o)
                                                  build/random_triangles_animation.o
__aeabi_dadd                                      /home/jon/KODMOD/EMBEDDED_TOOLCHAINS/gcc-arm-none-eabi-7-2018-q2-update/bin/../lib/gcc/arm-none-eabi/7.3.1/thumb/v7e-m/fpv4-sp/hard/libgcc.a(_arm_addsubdf3.o)
                                                  build/random_triangles_animation.o
__aeabi_dcmpeq                                    /home/jon/KODMOD/EMBEDDED_TOOLCHAINS/gcc-arm-none-eabi-7-2018-q2-update/bin/../lib/gcc/arm-none-eabi/7.3.1/thumb/v7e-m/fpv4-sp/hard/libgcc.a(_arm_cmpdf2.o)
                                                  /home/jon/KODMOD/EMBEDDED_TOOLCHAINS/gcc-arm-none-eabi-7-2018-q2-update/bin/../lib/gcc/arm-none-eabi/7.3.1/../../../../arm-none-eabi/lib/thumb/v7e-m/fpv4-sp/hard/libm.a(lib_a-w_fmod.o)
                                                  build/color.o
__aeabi_dcmpge                                    /home/jon/KODMOD/EMBEDDED_TOOLCHAINS/gcc-arm-none-eabi-7-2018-q2-update/bin/../lib/gcc/arm-none-eabi/7.3.1/thumb/v7e-m/fpv4-sp/hard/libgcc.a(_arm_cmpdf2.o)
                                                  build/random_triangles_animation.o
__aeabi_dcmpgt                                    /home/jon/KODMOD/EMBEDDED_TOOLCHAINS/gcc-arm-none-eabi-7-2018-q2-update/bin/../lib/gcc/arm-none-eabi/7.3.1/thumb/v7e-m/fpv4-sp/hard/libgcc.a(_arm_cmpdf2.o)
                                                  build/color.o
__aeabi_dcmple                                    /home/jon/KODMOD/EMBEDDED_TOOLCHAINS/gcc-arm-none-eabi-7-2018-q2-update/bin/../lib/gcc/arm-none-eabi/7.3.1/thumb/v7e-m/fpv4-sp/hard/libgcc.a(_arm_cmpdf2.o)
                                                  build/random_triangles_animation.o
__aeabi_dcmplt                                    /home/jon/KODMOD/EMBEDDED_TOOLCHAINS/gcc-arm-none-eabi-7-2018-q2-update/bin/../lib/gcc/arm-none-eabi/7.3.1/thumb/v7e-m/fpv4-sp/hard/libgcc.a(_arm_cmpdf2.o)
                                                  build/random_triangles_animation.o
__aeabi_dcmpun                                    /home/jon/KODMOD/EMBEDDED_TOOLCHAINS/gcc-arm-none-eabi-7-2018-q2-update/bin/../lib/gcc/arm-none-eabi/7.3.1/thumb/v7e-m/fpv4-sp/hard/libgcc.a(_arm_unorddf2.o)
                                                  /home/jon/KODMOD/EMBEDDED_TOOLCHAINS/gcc-arm-none-eabi-7-2018-q2-update/bin/../lib/gcc/arm-none-eabi/7.3.1/../../../../arm-none-eabi/lib/thumb/v7e-m/fpv4-sp/hard/libm.a(lib_a-w_fmod.o)
__aeabi_ddiv                                      /home/jon/KODMOD/EMBEDDED_TOOLCHAINS/gcc-arm-none-eabi-7-2018-q2-update/bin/../lib/gcc/arm-none-eabi/7.3.1/thumb/v7e-m/fpv4-sp/hard/libgcc.a(_arm_muldivdf3.o)
                                                  /home/jon/KODMOD/EMBEDDED_TOOLCHAINS/gcc-arm-none-eabi-7-2018-q2-update/bin/../lib/gcc/arm-none-eabi/7.3.1/../../../../arm-none-eabi/lib/thumb/v7e-m/fpv4-sp/hard/libm.a(lib_a-e_fmod.o)
                                                  /home/jon/KODMOD/EMBEDDED_TOOLCHAINS/gcc-arm-none-eabi-7-2018-q2-update/bin/../lib/gcc/arm-none-eabi/7.3.1/../../../../arm-none-eabi/lib/thumb/v7e-m/fpv4-sp/hard/libm.a(lib_a-w_fmod.o)
                                                  build/color.o
__aeabi_dmul                                      /home/jon/KODMOD/EMBEDDED_TOOLCHAINS/gcc-arm-none-eabi-7-2018-q2-update/bin/../lib/gcc/arm-none-eabi/7.3.1/thumb/v7e-m/fpv4-sp/hard/libgcc.a(_arm_muldivdf3.o)
                                                  /home/jon/KODMOD/EMBEDDED_TOOLCHAINS/gcc-arm-none-eabi-7-2018-q2-update/bin/../lib/gcc/arm-none-eabi/7.3.1/../../../../arm-none-eabi/lib/thumb/v7e-m/fpv4-sp/hard/libm.a(lib_a-e_fmod.o)
                                                  build/color.o
                                                  build/random_triangles_animation.o
__aeabi_drsub                                     /home/jon/KODMOD/EMBEDDED_TOOLCHAINS/gcc-arm-none-eabi-7-2018-q2-update/bin/../lib/gcc/arm-none-eabi/7.3.1/thumb/v7e-m/fpv4-sp/hard/libgcc.a(_arm_addsubdf3.o)
__aeabi_dsub                                      /home/jon/KODMOD/EMBEDDED_TOOLCHAINS/gcc-arm-none-eabi-7-2018-q2-update/bin/../lib/gcc/arm-none-eabi/7.3.1/thumb/v7e-m/fpv4-sp/hard/libgcc.a(_arm_addsubdf3.o)
                                                  build/color.o
__aeabi_f2d                                       /home/jon/KODMOD/EMBEDDED_TOOLCHAINS/gcc-arm-none-eabi-7-2018-q2-update/bin/../lib/gcc/arm-none-eabi/7.3.1/thumb/v7e-m/fpv4-sp/hard/libgcc.a(_arm_addsubdf3.o)
__aeabi_i2d                                       /home/jon/KODMOD/EMBEDDED_TOOLCHAINS/gcc-arm-none-eabi-7-2018-q2-update/bin/../lib/gcc/arm-none-eabi/7.3.1/thumb/v7e-m/fpv4-sp/hard/libgcc.a(_arm_addsubdf3.o)
                                                  build/color.o
                                                  build/random_triangles_animation.o
__aeabi_l2d                                       /home/jon/KODMOD/EMBEDDED_TOOLCHAINS/gcc-arm-none-eabi-7-2018-q2-update/bin/../lib/gcc/arm-none-eabi/7.3.1/thumb/v7e-m/fpv4-sp/hard/libgcc.a(_arm_addsubdf3.o)
__aeabi_ui2d                                      /home/jon/KODMOD/EMBEDDED_TOOLCHAINS/gcc-arm-none-eabi-7-2018-q2-update/bin/../lib/gcc/arm-none-eabi/7.3.1/thumb/v7e-m/fpv4-sp/hard/libgcc.a(_arm_addsubdf3.o)
__aeabi_ul2d                                      /home/jon/KODMOD/EMBEDDED_TOOLCHAINS/gcc-arm-none-eabi-7-2018-q2-update/bin/../lib/gcc/arm-none-eabi/7.3.1/thumb/v7e-m/fpv4-sp/hard/libgcc.a(_arm_addsubdf3.o)
__bss_end__                                       /home/jon/KODMOD/EMBEDDED_TOOLCHAINS/gcc-arm-none-eabi-7-2018-q2-update/bin/../lib/gcc/arm-none-eabi/7.3.1/../../../../arm-none-eabi/lib/thumb/v7e-m/fpv4-sp/hard/crt0.o
__bss_start__                                     /home/jon/KODMOD/EMBEDDED_TOOLCHAINS/gcc-arm-none-eabi-7-2018-q2-update/bin/../lib/gcc/arm-none-eabi/7.3.1/../../../../arm-none-eabi/lib/thumb/v7e-m/fpv4-sp/hard/crt0.o
__call_exitprocs                                  /home/jon/KODMOD/EMBEDDED_TOOLCHAINS/gcc-arm-none-eabi-7-2018-q2-update/bin/../lib/gcc/arm-none-eabi/7.3.1/../../../../arm-none-eabi/lib/thumb/v7e-m/fpv4-sp/hard/libc_nano.a(lib_a-exit.o)
__cmpdf2                                          /home/jon/KODMOD/EMBEDDED_TOOLCHAINS/gcc-arm-none-eabi-7-2018-q2-update/bin/../lib/gcc/arm-none-eabi/7.3.1/thumb/v7e-m/fpv4-sp/hard/libgcc.a(_arm_cmpdf2.o)
__deregister_frame_info                           /home/jon/KODMOD/EMBEDDED_TOOLCHAINS/gcc-arm-none-eabi-7-2018-q2-update/bin/../lib/gcc/arm-none-eabi/7.3.1/thumb/v7e-m/fpv4-sp/hard/crtbegin.o
__divdf3                                          /home/jon/KODMOD/EMBEDDED_TOOLCHAINS/gcc-arm-none-eabi-7-2018-q2-update/bin/../lib/gcc/arm-none-eabi/7.3.1/thumb/v7e-m/fpv4-sp/hard/libgcc.a(_arm_muldivdf3.o)
__dso_handle                                      /home/jon/KODMOD/EMBEDDED_TOOLCHAINS/gcc-arm-none-eabi-7-2018-q2-update/bin/../lib/gcc/arm-none-eabi/7.3.1/thumb/v7e-m/fpv4-sp/hard/crtbegin.o
__eqdf2                                           /home/jon/KODMOD/EMBEDDED_TOOLCHAINS/gcc-arm-none-eabi-7-2018-q2-update/bin/../lib/gcc/arm-none-eabi/7.3.1/thumb/v7e-m/fpv4-sp/hard/libgcc.a(_arm_cmpdf2.o)
__errno                                           /home/jon/KODMOD/EMBEDDED_TOOLCHAINS/gcc-arm-none-eabi-7-2018-q2-update/bin/../lib/gcc/arm-none-eabi/7.3.1/../../../../arm-none-eabi/lib/thumb/v7e-m/fpv4-sp/hard/libc_nano.a(lib_a-errno.o)
                                                  /home/jon/KODMOD/EMBEDDED_TOOLCHAINS/gcc-arm-none-eabi-7-2018-q2-update/bin/../lib/gcc/arm-none-eabi/7.3.1/../../../../arm-none-eabi/lib/thumb/v7e-m/fpv4-sp/hard/libm.a(lib_a-w_fmod.o)
__extendsfdf2                                     /home/jon/KODMOD/EMBEDDED_TOOLCHAINS/gcc-arm-none-eabi-7-2018-q2-update/bin/../lib/gcc/arm-none-eabi/7.3.1/thumb/v7e-m/fpv4-sp/hard/libgcc.a(_arm_addsubdf3.o)
__fdlib_version                                   /home/jon/KODMOD/EMBEDDED_TOOLCHAINS/gcc-arm-none-eabi-7-2018-q2-update/bin/../lib/gcc/arm-none-eabi/7.3.1/../../../../arm-none-eabi/lib/thumb/v7e-m/fpv4-sp/hard/libm.a(lib_a-s_lib_ver.o)
                                                  /home/jon/KODMOD/EMBEDDED_TOOLCHAINS/gcc-arm-none-eabi-7-2018-q2-update/bin/../lib/gcc/arm-none-eabi/7.3.1/../../../../arm-none-eabi/lib/thumb/v7e-m/fpv4-sp/hard/libm.a(lib_a-w_fmod.o)
__fixdfsi                                         /home/jon/KODMOD/EMBEDDED_TOOLCHAINS/gcc-arm-none-eabi-7-2018-q2-update/bin/../lib/gcc/arm-none-eabi/7.3.1/thumb/v7e-m/fpv4-sp/hard/libgcc.a(_arm_fixdfsi.o)
__fixunsdfsi                                      /home/jon/KODMOD/EMBEDDED_TOOLCHAINS/gcc-arm-none-eabi-7-2018-q2-update/bin/../lib/gcc/arm-none-eabi/7.3.1/thumb/v7e-m/fpv4-sp/hard/libgcc.a(_arm_fixunsdfsi.o)
__floatdidf                                       /home/jon/KODMOD/EMBEDDED_TOOLCHAINS/gcc-arm-none-eabi-7-2018-q2-update/bin/../lib/gcc/arm-none-eabi/7.3.1/thumb/v7e-m/fpv4-sp/hard/libgcc.a(_arm_addsubdf3.o)
__floatsidf                                       /home/jon/KODMOD/EMBEDDED_TOOLCHAINS/gcc-arm-none-eabi-7-2018-q2-update/bin/../lib/gcc/arm-none-eabi/7.3.1/thumb/v7e-m/fpv4-sp/hard/libgcc.a(_arm_addsubdf3.o)
__floatundidf                                     /home/jon/KODMOD/EMBEDDED_TOOLCHAINS/gcc-arm-none-eabi-7-2018-q2-update/bin/../lib/gcc/arm-none-eabi/7.3.1/thumb/v7e-m/fpv4-sp/hard/libgcc.a(_arm_addsubdf3.o)
__floatunsidf                                     /home/jon/KODMOD/EMBEDDED_TOOLCHAINS/gcc-arm-none-eabi-7-2018-q2-update/bin/../lib/gcc/arm-none-eabi/7.3.1/thumb/v7e-m/fpv4-sp/hard/libgcc.a(_arm_addsubdf3.o)
__gedf2                                           /home/jon/KODMOD/EMBEDDED_TOOLCHAINS/gcc-arm-none-eabi-7-2018-q2-update/bin/../lib/gcc/arm-none-eabi/7.3.1/thumb/v7e-m/fpv4-sp/hard/libgcc.a(_arm_cmpdf2.o)
__gtdf2                                           /home/jon/KODMOD/EMBEDDED_TOOLCHAINS/gcc-arm-none-eabi-7-2018-q2-update/bin/../lib/gcc/arm-none-eabi/7.3.1/thumb/v7e-m/fpv4-sp/hard/libgcc.a(_arm_cmpdf2.o)
__ieee754_fmod                                    /home/jon/KODMOD/EMBEDDED_TOOLCHAINS/gcc-arm-none-eabi-7-2018-q2-update/bin/../lib/gcc/arm-none-eabi/7.3.1/../../../../arm-none-eabi/lib/thumb/v7e-m/fpv4-sp/hard/libm.a(lib_a-e_fmod.o)
                                                  /home/jon/KODMOD/EMBEDDED_TOOLCHAINS/gcc-arm-none-eabi-7-2018-q2-update/bin/../lib/gcc/arm-none-eabi/7.3.1/../../../../arm-none-eabi/lib/thumb/v7e-m/fpv4-sp/hard/libm.a(lib_a-w_fmod.o)
__init_array_end                                  /home/jon/KODMOD/EMBEDDED_TOOLCHAINS/gcc-arm-none-eabi-7-2018-q2-update/bin/../lib/gcc/arm-none-eabi/7.3.1/../../../../arm-none-eabi/lib/thumb/v7e-m/fpv4-sp/hard/libc_nano.a(lib_a-init.o)
__init_array_start                                /home/jon/KODMOD/EMBEDDED_TOOLCHAINS/gcc-arm-none-eabi-7-2018-q2-update/bin/../lib/gcc/arm-none-eabi/7.3.1/../../../../arm-none-eabi/lib/thumb/v7e-m/fpv4-sp/hard/libc_nano.a(lib_a-init.o)
__ledf2                                           /home/jon/KODMOD/EMBEDDED_TOOLCHAINS/gcc-arm-none-eabi-7-2018-q2-update/bin/../lib/gcc/arm-none-eabi/7.3.1/thumb/v7e-m/fpv4-sp/hard/libgcc.a(_arm_cmpdf2.o)
__libc_fini_array                                 /home/jon/KODMOD/EMBEDDED_TOOLCHAINS/gcc-arm-none-eabi-7-2018-q2-update/bin/../lib/gcc/arm-none-eabi/7.3.1/../../../../arm-none-eabi/lib/thumb/v7e-m/fpv4-sp/hard/crt0.o
__libc_init_array                                 /home/jon/KODMOD/EMBEDDED_TOOLCHAINS/gcc-arm-none-eabi-7-2018-q2-update/bin/../lib/gcc/arm-none-eabi/7.3.1/../../../../arm-none-eabi/lib/thumb/v7e-m/fpv4-sp/hard/libc_nano.a(lib_a-init.o)
                                                  build/startup_stm32l476xx.o
                                                  /home/jon/KODMOD/EMBEDDED_TOOLCHAINS/gcc-arm-none-eabi-7-2018-q2-update/bin/../lib/gcc/arm-none-eabi/7.3.1/../../../../arm-none-eabi/lib/thumb/v7e-m/fpv4-sp/hard/crt0.o
__ltdf2                                           /home/jon/KODMOD/EMBEDDED_TOOLCHAINS/gcc-arm-none-eabi-7-2018-q2-update/bin/../lib/gcc/arm-none-eabi/7.3.1/thumb/v7e-m/fpv4-sp/hard/libgcc.a(_arm_cmpdf2.o)
__malloc_free_list                                /home/jon/KODMOD/EMBEDDED_TOOLCHAINS/gcc-arm-none-eabi-7-2018-q2-update/bin/../lib/gcc/arm-none-eabi/7.3.1/../../../../arm-none-eabi/lib/thumb/v7e-m/fpv4-sp/hard/libc_nano.a(lib_a-nano-mallocr.o)
                                                  /home/jon/KODMOD/EMBEDDED_TOOLCHAINS/gcc-arm-none-eabi-7-2018-q2-update/bin/../lib/gcc/arm-none-eabi/7.3.1/../../../../arm-none-eabi/lib/thumb/v7e-m/fpv4-sp/hard/libc_nano.a(lib_a-nano-freer.o)
__malloc_lock                                     /home/jon/KODMOD/EMBEDDED_TOOLCHAINS/gcc-arm-none-eabi-7-2018-q2-update/bin/../lib/gcc/arm-none-eabi/7.3.1/../../../../arm-none-eabi/lib/thumb/v7e-m/fpv4-sp/hard/libc_nano.a(lib_a-mlock.o)
                                                  /home/jon/KODMOD/EMBEDDED_TOOLCHAINS/gcc-arm-none-eabi-7-2018-q2-update/bin/../lib/gcc/arm-none-eabi/7.3.1/../../../../arm-none-eabi/lib/thumb/v7e-m/fpv4-sp/hard/libc_nano.a(lib_a-nano-mallocr.o)
                                                  /home/jon/KODMOD/EMBEDDED_TOOLCHAINS/gcc-arm-none-eabi-7-2018-q2-update/bin/../lib/gcc/arm-none-eabi/7.3.1/../../../../arm-none-eabi/lib/thumb/v7e-m/fpv4-sp/hard/libc_nano.a(lib_a-nano-freer.o)
__malloc_sbrk_start                               /home/jon/KODMOD/EMBEDDED_TOOLCHAINS/gcc-arm-none-eabi-7-2018-q2-update/bin/../lib/gcc/arm-none-eabi/7.3.1/../../../../arm-none-eabi/lib/thumb/v7e-m/fpv4-sp/hard/libc_nano.a(lib_a-nano-mallocr.o)
__malloc_unlock                                   /home/jon/KODMOD/EMBEDDED_TOOLCHAINS/gcc-arm-none-eabi-7-2018-q2-update/bin/../lib/gcc/arm-none-eabi/7.3.1/../../../../arm-none-eabi/lib/thumb/v7e-m/fpv4-sp/hard/libc_nano.a(lib_a-mlock.o)
                                                  /home/jon/KODMOD/EMBEDDED_TOOLCHAINS/gcc-arm-none-eabi-7-2018-q2-update/bin/../lib/gcc/arm-none-eabi/7.3.1/../../../../arm-none-eabi/lib/thumb/v7e-m/fpv4-sp/hard/libc_nano.a(lib_a-nano-mallocr.o)
                                                  /home/jon/KODMOD/EMBEDDED_TOOLCHAINS/gcc-arm-none-eabi-7-2018-q2-update/bin/../lib/gcc/arm-none-eabi/7.3.1/../../../../arm-none-eabi/lib/thumb/v7e-m/fpv4-sp/hard/libc_nano.a(lib_a-nano-freer.o)
__muldf3                                          /home/jon/KODMOD/EMBEDDED_TOOLCHAINS/gcc-arm-none-eabi-7-2018-q2-update/bin/../lib/gcc/arm-none-eabi/7.3.1/thumb/v7e-m/fpv4-sp/hard/libgcc.a(_arm_muldivdf3.o)
__nedf2                                           /home/jon/KODMOD/EMBEDDED_TOOLCHAINS/gcc-arm-none-eabi-7-2018-q2-update/bin/../lib/gcc/arm-none-eabi/7.3.1/thumb/v7e-m/fpv4-sp/hard/libgcc.a(_arm_cmpdf2.o)
__preinit_array_end                               /home/jon/KODMOD/EMBEDDED_TOOLCHAINS/gcc-arm-none-eabi-7-2018-q2-update/bin/../lib/gcc/arm-none-eabi/7.3.1/../../../../arm-none-eabi/lib/thumb/v7e-m/fpv4-sp/hard/libc_nano.a(lib_a-init.o)
__preinit_array_start                             /home/jon/KODMOD/EMBEDDED_TOOLCHAINS/gcc-arm-none-eabi-7-2018-q2-update/bin/../lib/gcc/arm-none-eabi/7.3.1/../../../../arm-none-eabi/lib/thumb/v7e-m/fpv4-sp/hard/libc_nano.a(lib_a-init.o)
__register_frame_info                             /home/jon/KODMOD/EMBEDDED_TOOLCHAINS/gcc-arm-none-eabi-7-2018-q2-update/bin/../lib/gcc/arm-none-eabi/7.3.1/thumb/v7e-m/fpv4-sp/hard/crtbegin.o
__sf_fake_stderr                                  /home/jon/KODMOD/EMBEDDED_TOOLCHAINS/gcc-arm-none-eabi-7-2018-q2-update/bin/../lib/gcc/arm-none-eabi/7.3.1/../../../../arm-none-eabi/lib/thumb/v7e-m/fpv4-sp/hard/libc_nano.a(lib_a-impure.o)
__sf_fake_stdin                                   /home/jon/KODMOD/EMBEDDED_TOOLCHAINS/gcc-arm-none-eabi-7-2018-q2-update/bin/../lib/gcc/arm-none-eabi/7.3.1/../../../../arm-none-eabi/lib/thumb/v7e-m/fpv4-sp/hard/libc_nano.a(lib_a-impure.o)
__sf_fake_stdout                                  /home/jon/KODMOD/EMBEDDED_TOOLCHAINS/gcc-arm-none-eabi-7-2018-q2-update/bin/../lib/gcc/arm-none-eabi/7.3.1/../../../../arm-none-eabi/lib/thumb/v7e-m/fpv4-sp/hard/libc_nano.a(lib_a-impure.o)
__ssprint_r                                       /home/jon/KODMOD/EMBEDDED_TOOLCHAINS/gcc-arm-none-eabi-7-2018-q2-update/bin/../lib/gcc/arm-none-eabi/7.3.1/../../../../arm-none-eabi/lib/thumb/v7e-m/fpv4-sp/hard/libc_nano.a(lib_a-nano-svfprintf.o)
__ssputs_r                                        /home/jon/KODMOD/EMBEDDED_TOOLCHAINS/gcc-arm-none-eabi-7-2018-q2-update/bin/../lib/gcc/arm-none-eabi/7.3.1/../../../../arm-none-eabi/lib/thumb/v7e-m/fpv4-sp/hard/libc_nano.a(lib_a-nano-svfprintf.o)
__stack                                           /home/jon/KODMOD/EMBEDDED_TOOLCHAINS/gcc-arm-none-eabi-7-2018-q2-update/bin/../lib/gcc/arm-none-eabi/7.3.1/../../../../arm-none-eabi/lib/thumb/v7e-m/fpv4-sp/hard/crt0.o
__subdf3                                          /home/jon/KODMOD/EMBEDDED_TOOLCHAINS/gcc-arm-none-eabi-7-2018-q2-update/bin/../lib/gcc/arm-none-eabi/7.3.1/thumb/v7e-m/fpv4-sp/hard/libgcc.a(_arm_addsubdf3.o)
__unorddf2                                        /home/jon/KODMOD/EMBEDDED_TOOLCHAINS/gcc-arm-none-eabi-7-2018-q2-update/bin/../lib/gcc/arm-none-eabi/7.3.1/thumb/v7e-m/fpv4-sp/hard/libgcc.a(_arm_unorddf2.o)
_ebss                                             build/startup_stm32l476xx.o
_edata                                            build/startup_stm32l476xx.o
_estack                                           build/startup_stm32l476xx.o
_exit                                             /home/jon/KODMOD/EMBEDDED_TOOLCHAINS/gcc-arm-none-eabi-7-2018-q2-update/bin/../lib/gcc/arm-none-eabi/7.3.1/../../../../arm-none-eabi/lib/thumb/v7e-m/fpv4-sp/hard/libnosys.a(_exit.o)
                                                  /home/jon/KODMOD/EMBEDDED_TOOLCHAINS/gcc-arm-none-eabi-7-2018-q2-update/bin/../lib/gcc/arm-none-eabi/7.3.1/../../../../arm-none-eabi/lib/thumb/v7e-m/fpv4-sp/hard/libc_nano.a(lib_a-exit.o)
_fini                                             /home/jon/KODMOD/EMBEDDED_TOOLCHAINS/gcc-arm-none-eabi-7-2018-q2-update/bin/../lib/gcc/arm-none-eabi/7.3.1/thumb/v7e-m/fpv4-sp/hard/crti.o
_free_r                                           /home/jon/KODMOD/EMBEDDED_TOOLCHAINS/gcc-arm-none-eabi-7-2018-q2-update/bin/../lib/gcc/arm-none-eabi/7.3.1/../../../../arm-none-eabi/lib/thumb/v7e-m/fpv4-sp/hard/libc_nano.a(lib_a-nano-freer.o)
                                                  /home/jon/KODMOD/EMBEDDED_TOOLCHAINS/gcc-arm-none-eabi-7-2018-q2-update/bin/../lib/gcc/arm-none-eabi/7.3.1/../../../../arm-none-eabi/lib/thumb/v7e-m/fpv4-sp/hard/libc_nano.a(lib_a-reent.o)
                                                  /home/jon/KODMOD/EMBEDDED_TOOLCHAINS/gcc-arm-none-eabi-7-2018-q2-update/bin/../lib/gcc/arm-none-eabi/7.3.1/../../../../arm-none-eabi/lib/thumb/v7e-m/fpv4-sp/hard/libc_nano.a(lib_a-nano-reallocr.o)
                                                  /home/jon/KODMOD/EMBEDDED_TOOLCHAINS/gcc-arm-none-eabi-7-2018-q2-update/bin/../lib/gcc/arm-none-eabi/7.3.1/../../../../arm-none-eabi/lib/thumb/v7e-m/fpv4-sp/hard/libc_nano.a(lib_a-nano-svfprintf.o)
                                                  /home/jon/KODMOD/EMBEDDED_TOOLCHAINS/gcc-arm-none-eabi-7-2018-q2-update/bin/../lib/gcc/arm-none-eabi/7.3.1/../../../../arm-none-eabi/lib/thumb/v7e-m/fpv4-sp/hard/libc_nano.a(lib_a-malloc.o)
_global_impure_ptr                                /home/jon/KODMOD/EMBEDDED_TOOLCHAINS/gcc-arm-none-eabi-7-2018-q2-update/bin/../lib/gcc/arm-none-eabi/7.3.1/../../../../arm-none-eabi/lib/thumb/v7e-m/fpv4-sp/hard/libc_nano.a(lib_a-impure.o)
                                                  /home/jon/KODMOD/EMBEDDED_TOOLCHAINS/gcc-arm-none-eabi-7-2018-q2-update/bin/../lib/gcc/arm-none-eabi/7.3.1/../../../../arm-none-eabi/lib/thumb/v7e-m/fpv4-sp/hard/libc_nano.a(lib_a-exit.o)
_impure_ptr                                       /home/jon/KODMOD/EMBEDDED_TOOLCHAINS/gcc-arm-none-eabi-7-2018-q2-update/bin/../lib/gcc/arm-none-eabi/7.3.1/../../../../arm-none-eabi/lib/thumb/v7e-m/fpv4-sp/hard/libc_nano.a(lib_a-impure.o)
                                                  /home/jon/KODMOD/EMBEDDED_TOOLCHAINS/gcc-arm-none-eabi-7-2018-q2-update/bin/../lib/gcc/arm-none-eabi/7.3.1/../../../../arm-none-eabi/lib/thumb/v7e-m/fpv4-sp/hard/libc_nano.a(lib_a-errno.o)
                                                  /home/jon/KODMOD/EMBEDDED_TOOLCHAINS/gcc-arm-none-eabi-7-2018-q2-update/bin/../lib/gcc/arm-none-eabi/7.3.1/../../../../arm-none-eabi/lib/thumb/v7e-m/fpv4-sp/hard/libc_nano.a(lib_a-reent.o)
                                                  /home/jon/KODMOD/EMBEDDED_TOOLCHAINS/gcc-arm-none-eabi-7-2018-q2-update/bin/../lib/gcc/arm-none-eabi/7.3.1/../../../../arm-none-eabi/lib/thumb/v7e-m/fpv4-sp/hard/libc_nano.a(lib_a-malloc.o)
                                                  /home/jon/KODMOD/EMBEDDED_TOOLCHAINS/gcc-arm-none-eabi-7-2018-q2-update/bin/../lib/gcc/arm-none-eabi/7.3.1/../../../../arm-none-eabi/lib/thumb/v7e-m/fpv4-sp/hard/libc_nano.a(lib_a-sprintf.o)
                                                  /home/jon/KODMOD/EMBEDDED_TOOLCHAINS/gcc-arm-none-eabi-7-2018-q2-update/bin/../lib/gcc/arm-none-eabi/7.3.1/../../../../arm-none-eabi/lib/thumb/v7e-m/fpv4-sp/hard/libc_nano.a(lib_a-rand.o)
_init                                             /home/jon/KODMOD/EMBEDDED_TOOLCHAINS/gcc-arm-none-eabi-7-2018-q2-update/bin/../lib/gcc/arm-none-eabi/7.3.1/thumb/v7e-m/fpv4-sp/hard/crti.o
                                                  /home/jon/KODMOD/EMBEDDED_TOOLCHAINS/gcc-arm-none-eabi-7-2018-q2-update/bin/../lib/gcc/arm-none-eabi/7.3.1/../../../../arm-none-eabi/lib/thumb/v7e-m/fpv4-sp/hard/libc_nano.a(lib_a-init.o)
_mainCRTStartup                                   /home/jon/KODMOD/EMBEDDED_TOOLCHAINS/gcc-arm-none-eabi-7-2018-q2-update/bin/../lib/gcc/arm-none-eabi/7.3.1/../../../../arm-none-eabi/lib/thumb/v7e-m/fpv4-sp/hard/crt0.o
_malloc_r                                         /home/jon/KODMOD/EMBEDDED_TOOLCHAINS/gcc-arm-none-eabi-7-2018-q2-update/bin/../lib/gcc/arm-none-eabi/7.3.1/../../../../arm-none-eabi/lib/thumb/v7e-m/fpv4-sp/hard/libc_nano.a(lib_a-nano-mallocr.o)
                                                  /home/jon/KODMOD/EMBEDDED_TOOLCHAINS/gcc-arm-none-eabi-7-2018-q2-update/bin/../lib/gcc/arm-none-eabi/7.3.1/../../../../arm-none-eabi/lib/thumb/v7e-m/fpv4-sp/hard/libc_nano.a(lib_a-nano-reallocr.o)
                                                  /home/jon/KODMOD/EMBEDDED_TOOLCHAINS/gcc-arm-none-eabi-7-2018-q2-update/bin/../lib/gcc/arm-none-eabi/7.3.1/../../../../arm-none-eabi/lib/thumb/v7e-m/fpv4-sp/hard/libc_nano.a(lib_a-nano-svfprintf.o)
                                                  /home/jon/KODMOD/EMBEDDED_TOOLCHAINS/gcc-arm-none-eabi-7-2018-q2-update/bin/../lib/gcc/arm-none-eabi/7.3.1/../../../../arm-none-eabi/lib/thumb/v7e-m/fpv4-sp/hard/libc_nano.a(lib_a-malloc.o)
_malloc_usable_size_r                             /home/jon/KODMOD/EMBEDDED_TOOLCHAINS/gcc-arm-none-eabi-7-2018-q2-update/bin/../lib/gcc/arm-none-eabi/7.3.1/../../../../arm-none-eabi/lib/thumb/v7e-m/fpv4-sp/hard/libc_nano.a(lib_a-nano-msizer.o)
                                                  /home/jon/KODMOD/EMBEDDED_TOOLCHAINS/gcc-arm-none-eabi-7-2018-q2-update/bin/../lib/gcc/arm-none-eabi/7.3.1/../../../../arm-none-eabi/lib/thumb/v7e-m/fpv4-sp/hard/libc_nano.a(lib_a-nano-reallocr.o)
_printf_common                                    /home/jon/KODMOD/EMBEDDED_TOOLCHAINS/gcc-arm-none-eabi-7-2018-q2-update/bin/../lib/gcc/arm-none-eabi/7.3.1/../../../../arm-none-eabi/lib/thumb/v7e-m/fpv4-sp/hard/libc_nano.a(lib_a-nano-vfprintf_i.o)
_printf_float                                     /home/jon/KODMOD/EMBEDDED_TOOLCHAINS/gcc-arm-none-eabi-7-2018-q2-update/bin/../lib/gcc/arm-none-eabi/7.3.1/../../../../arm-none-eabi/lib/thumb/v7e-m/fpv4-sp/hard/libc_nano.a(lib_a-nano-svfprintf.o)
_printf_i                                         /home/jon/KODMOD/EMBEDDED_TOOLCHAINS/gcc-arm-none-eabi-7-2018-q2-update/bin/../lib/gcc/arm-none-eabi/7.3.1/../../../../arm-none-eabi/lib/thumb/v7e-m/fpv4-sp/hard/libc_nano.a(lib_a-nano-vfprintf_i.o)
                                                  /home/jon/KODMOD/EMBEDDED_TOOLCHAINS/gcc-arm-none-eabi-7-2018-q2-update/bin/../lib/gcc/arm-none-eabi/7.3.1/../../../../arm-none-eabi/lib/thumb/v7e-m/fpv4-sp/hard/libc_nano.a(lib_a-nano-svfprintf.o)
_realloc_r                                        /home/jon/KODMOD/EMBEDDED_TOOLCHAINS/gcc-arm-none-eabi-7-2018-q2-update/bin/../lib/gcc/arm-none-eabi/7.3.1/../../../../arm-none-eabi/lib/thumb/v7e-m/fpv4-sp/hard/libc_nano.a(lib_a-nano-reallocr.o)
                                                  /home/jon/KODMOD/EMBEDDED_TOOLCHAINS/gcc-arm-none-eabi-7-2018-q2-update/bin/../lib/gcc/arm-none-eabi/7.3.1/../../../../arm-none-eabi/lib/thumb/v7e-m/fpv4-sp/hard/libc_nano.a(lib_a-nano-svfprintf.o)
_reclaim_reent                                    /home/jon/KODMOD/EMBEDDED_TOOLCHAINS/gcc-arm-none-eabi-7-2018-q2-update/bin/../lib/gcc/arm-none-eabi/7.3.1/../../../../arm-none-eabi/lib/thumb/v7e-m/fpv4-sp/hard/libc_nano.a(lib_a-reent.o)
_sbrk                                             /home/jon/KODMOD/EMBEDDED_TOOLCHAINS/gcc-arm-none-eabi-7-2018-q2-update/bin/../lib/gcc/arm-none-eabi/7.3.1/../../../../arm-none-eabi/lib/thumb/v7e-m/fpv4-sp/hard/libnosys.a(sbrk.o)
                                                  /home/jon/KODMOD/EMBEDDED_TOOLCHAINS/gcc-arm-none-eabi-7-2018-q2-update/bin/../lib/gcc/arm-none-eabi/7.3.1/../../../../arm-none-eabi/lib/thumb/v7e-m/fpv4-sp/hard/libc_nano.a(lib_a-sbrkr.o)
_sbrk_r                                           /home/jon/KODMOD/EMBEDDED_TOOLCHAINS/gcc-arm-none-eabi-7-2018-q2-update/bin/../lib/gcc/arm-none-eabi/7.3.1/../../../../arm-none-eabi/lib/thumb/v7e-m/fpv4-sp/hard/libc_nano.a(lib_a-sbrkr.o)
                                                  /home/jon/KODMOD/EMBEDDED_TOOLCHAINS/gcc-arm-none-eabi-7-2018-q2-update/bin/../lib/gcc/arm-none-eabi/7.3.1/../../../../arm-none-eabi/lib/thumb/v7e-m/fpv4-sp/hard/libc_nano.a(lib_a-nano-mallocr.o)
_sbss                                             build/startup_stm32l476xx.o
_sdata                                            build/startup_stm32l476xx.o
_sidata                                           build/startup_stm32l476xx.o
_siprintf_r                                       /home/jon/KODMOD/EMBEDDED_TOOLCHAINS/gcc-arm-none-eabi-7-2018-q2-update/bin/../lib/gcc/arm-none-eabi/7.3.1/../../../../arm-none-eabi/lib/thumb/v7e-m/fpv4-sp/hard/libc_nano.a(lib_a-sprintf.o)
_sprintf_r                                        /home/jon/KODMOD/EMBEDDED_TOOLCHAINS/gcc-arm-none-eabi-7-2018-q2-update/bin/../lib/gcc/arm-none-eabi/7.3.1/../../../../arm-none-eabi/lib/thumb/v7e-m/fpv4-sp/hard/libc_nano.a(lib_a-sprintf.o)
_start                                            /home/jon/KODMOD/EMBEDDED_TOOLCHAINS/gcc-arm-none-eabi-7-2018-q2-update/bin/../lib/gcc/arm-none-eabi/7.3.1/../../../../arm-none-eabi/lib/thumb/v7e-m/fpv4-sp/hard/crt0.o
_svfiprintf_r                                     /home/jon/KODMOD/EMBEDDED_TOOLCHAINS/gcc-arm-none-eabi-7-2018-q2-update/bin/../lib/gcc/arm-none-eabi/7.3.1/../../../../arm-none-eabi/lib/thumb/v7e-m/fpv4-sp/hard/libc_nano.a(lib_a-nano-svfprintf.o)
_svfprintf_r                                      /home/jon/KODMOD/EMBEDDED_TOOLCHAINS/gcc-arm-none-eabi-7-2018-q2-update/bin/../lib/gcc/arm-none-eabi/7.3.1/../../../../arm-none-eabi/lib/thumb/v7e-m/fpv4-sp/hard/libc_nano.a(lib_a-nano-svfprintf.o)
                                                  /home/jon/KODMOD/EMBEDDED_TOOLCHAINS/gcc-arm-none-eabi-7-2018-q2-update/bin/../lib/gcc/arm-none-eabi/7.3.1/../../../../arm-none-eabi/lib/thumb/v7e-m/fpv4-sp/hard/libc_nano.a(lib_a-sprintf.o)
animationIndex                                    build/addressable_led_manager.o
animationSkipInProgress                           build/addressable_led_manager.o
animations                                        build/addressable_led_manager.o
atexit                                            /home/jon/KODMOD/EMBEDDED_TOOLCHAINS/gcc-arm-none-eabi-7-2018-q2-update/bin/../lib/gcc/arm-none-eabi/7.3.1/../../../../arm-none-eabi/lib/thumb/v7e-m/fpv4-sp/hard/crt0.o
cleanup_glue                                      /home/jon/KODMOD/EMBEDDED_TOOLCHAINS/gcc-arm-none-eabi-7-2018-q2-update/bin/../lib/gcc/arm-none-eabi/7.3.1/../../../../arm-none-eabi/lib/thumb/v7e-m/fpv4-sp/hard/libc_nano.a(lib_a-reent.o)
counterMs                                         build/sw_timers.o
end                                               /home/jon/KODMOD/EMBEDDED_TOOLCHAINS/gcc-arm-none-eabi-7-2018-q2-update/bin/../lib/gcc/arm-none-eabi/7.3.1/../../../../arm-none-eabi/lib/thumb/v7e-m/fpv4-sp/hard/libnosys.a(sbrk.o)
errno                                             /home/jon/KODMOD/EMBEDDED_TOOLCHAINS/gcc-arm-none-eabi-7-2018-q2-update/bin/../lib/gcc/arm-none-eabi/7.3.1/../../../../arm-none-eabi/lib/thumb/v7e-m/fpv4-sp/hard/libc_nano.a(lib_a-reent.o)
                                                  /home/jon/KODMOD/EMBEDDED_TOOLCHAINS/gcc-arm-none-eabi-7-2018-q2-update/bin/../lib/gcc/arm-none-eabi/7.3.1/../../../../arm-none-eabi/lib/thumb/v7e-m/fpv4-sp/hard/libc_nano.a(lib_a-sbrkr.o)
exit                                              /home/jon/KODMOD/EMBEDDED_TOOLCHAINS/gcc-arm-none-eabi-7-2018-q2-update/bin/../lib/gcc/arm-none-eabi/7.3.1/../../../../arm-none-eabi/lib/thumb/v7e-m/fpv4-sp/hard/libc_nano.a(lib_a-exit.o)
                                                  /home/jon/KODMOD/EMBEDDED_TOOLCHAINS/gcc-arm-none-eabi-7-2018-q2-update/bin/../lib/gcc/arm-none-eabi/7.3.1/../../../../arm-none-eabi/lib/thumb/v7e-m/fpv4-sp/hard/crt0.o
fmod                                              /home/jon/KODMOD/EMBEDDED_TOOLCHAINS/gcc-arm-none-eabi-7-2018-q2-update/bin/../lib/gcc/arm-none-eabi/7.3.1/../../../../arm-none-eabi/lib/thumb/v7e-m/fpv4-sp/hard/libm.a(lib_a-w_fmod.o)
                                                  build/color.o
free                                              /home/jon/KODMOD/EMBEDDED_TOOLCHAINS/gcc-arm-none-eabi-7-2018-q2-update/bin/../lib/gcc/arm-none-eabi/7.3.1/../../../../arm-none-eabi/lib/thumb/v7e-m/fpv4-sp/hard/libc_nano.a(lib_a-malloc.o)
g_pfnVectors                                      build/startup_stm32l476xx.o
getRandomColor                                    build/utils.o
                                                  build/random_fade_animation.o
hUsbDeviceFS                                      build/usb_device.o
                                                  build/usbd_cdc_if.o
hadc1                                             build/adc.o
                                                  build/shell.o
hardware_init_hook                                /home/jon/KODMOD/EMBEDDED_TOOLCHAINS/gcc-arm-none-eabi-7-2018-q2-update/bin/../lib/gcc/arm-none-eabi/7.3.1/../../../../arm-none-eabi/lib/thumb/v7e-m/fpv4-sp/hard/crt0.o
hdma_tim3_ch4_up                                  build/tim.o
                                                  build/stm32l4xx_it.o
hi2c1                                             build/i2c.o
hi2c2                                             build/i2c.o
hpcd_USB_OTG_FS                                   build/usbd_conf.o
                                                  build/stm32l4xx_it.o
htim3                                             build/tim.o
                                                  build/addressable_led_manager.o
                                                  build/addressable_led_driver.o
ledStrip1                                         build/addressable_led_manager.o
ledStrip1PacketBuffer                             build/addressable_led_manager.o
ledStrip1Pixels                                   build/addressable_led_manager.o
ledStrip1Size                                     build/addressable_led_manager.o
main                                              build/main.o
                                                  build/startup_stm32l476xx.o
                                                  /home/jon/KODMOD/EMBEDDED_TOOLCHAINS/gcc-arm-none-eabi-7-2018-q2-update/bin/../lib/gcc/arm-none-eabi/7.3.1/../../../../arm-none-eabi/lib/thumb/v7e-m/fpv4-sp/hard/crt0.o
malloc                                            /home/jon/KODMOD/EMBEDDED_TOOLCHAINS/gcc-arm-none-eabi-7-2018-q2-update/bin/../lib/gcc/arm-none-eabi/7.3.1/../../../../arm-none-eabi/lib/thumb/v7e-m/fpv4-sp/hard/libc_nano.a(lib_a-malloc.o)
                                                  /home/jon/KODMOD/EMBEDDED_TOOLCHAINS/gcc-arm-none-eabi-7-2018-q2-update/bin/../lib/gcc/arm-none-eabi/7.3.1/../../../../arm-none-eabi/lib/thumb/v7e-m/fpv4-sp/hard/libc_nano.a(lib_a-rand.o)
matherr                                           /home/jon/KODMOD/EMBEDDED_TOOLCHAINS/gcc-arm-none-eabi-7-2018-q2-update/bin/../lib/gcc/arm-none-eabi/7.3.1/../../../../arm-none-eabi/lib/thumb/v7e-m/fpv4-sp/hard/libm.a(lib_a-s_matherr.o)
                                                  /home/jon/KODMOD/EMBEDDED_TOOLCHAINS/gcc-arm-none-eabi-7-2018-q2-update/bin/../lib/gcc/arm-none-eabi/7.3.1/../../../../arm-none-eabi/lib/thumb/v7e-m/fpv4-sp/hard/libm.a(lib_a-w_fmod.o)
memchr                                            /home/jon/KODMOD/EMBEDDED_TOOLCHAINS/gcc-arm-none-eabi-7-2018-q2-update/bin/../lib/gcc/arm-none-eabi/7.3.1/../../../../arm-none-eabi/lib/thumb/v7e-m/fpv4-sp/hard/libc_nano.a(lib_a-memchr.o)
                                                  /home/jon/KODMOD/EMBEDDED_TOOLCHAINS/gcc-arm-none-eabi-7-2018-q2-update/bin/../lib/gcc/arm-none-eabi/7.3.1/../../../../arm-none-eabi/lib/thumb/v7e-m/fpv4-sp/hard/libc_nano.a(lib_a-nano-vfprintf_i.o)
                                                  /home/jon/KODMOD/EMBEDDED_TOOLCHAINS/gcc-arm-none-eabi-7-2018-q2-update/bin/../lib/gcc/arm-none-eabi/7.3.1/../../../../arm-none-eabi/lib/thumb/v7e-m/fpv4-sp/hard/libc_nano.a(lib_a-nano-svfprintf.o)
memcpy                                            /home/jon/KODMOD/EMBEDDED_TOOLCHAINS/gcc-arm-none-eabi-7-2018-q2-update/bin/../lib/gcc/arm-none-eabi/7.3.1/../../../../arm-none-eabi/lib/thumb/v7e-m/fpv4-sp/hard/libc_nano.a(lib_a-memcpy-stub.o)
                                                  /home/jon/KODMOD/EMBEDDED_TOOLCHAINS/gcc-arm-none-eabi-7-2018-q2-update/bin/../lib/gcc/arm-none-eabi/7.3.1/../../../../arm-none-eabi/lib/thumb/v7e-m/fpv4-sp/hard/libc_nano.a(lib_a-nano-reallocr.o)
                                                  /home/jon/KODMOD/EMBEDDED_TOOLCHAINS/gcc-arm-none-eabi-7-2018-q2-update/bin/../lib/gcc/arm-none-eabi/7.3.1/../../../../arm-none-eabi/lib/thumb/v7e-m/fpv4-sp/hard/libc_nano.a(lib_a-nano-svfprintf.o)
memmove                                           /home/jon/KODMOD/EMBEDDED_TOOLCHAINS/gcc-arm-none-eabi-7-2018-q2-update/bin/../lib/gcc/arm-none-eabi/7.3.1/../../../../arm-none-eabi/lib/thumb/v7e-m/fpv4-sp/hard/libc_nano.a(lib_a-memmove.o)
                                                  /home/jon/KODMOD/EMBEDDED_TOOLCHAINS/gcc-arm-none-eabi-7-2018-q2-update/bin/../lib/gcc/arm-none-eabi/7.3.1/../../../../arm-none-eabi/lib/thumb/v7e-m/fpv4-sp/hard/libc_nano.a(lib_a-nano-svfprintf.o)
memset                                            /home/jon/KODMOD/EMBEDDED_TOOLCHAINS/gcc-arm-none-eabi-7-2018-q2-update/bin/../lib/gcc/arm-none-eabi/7.3.1/../../../../arm-none-eabi/lib/thumb/v7e-m/fpv4-sp/hard/libc_nano.a(lib_a-memset.o)
                                                  build/random_triangles_animation.o
                                                  build/addressable_led_manager.o
                                                  build/main.o
                                                  /home/jon/KODMOD/EMBEDDED_TOOLCHAINS/gcc-arm-none-eabi-7-2018-q2-update/bin/../lib/gcc/arm-none-eabi/7.3.1/../../../../arm-none-eabi/lib/thumb/v7e-m/fpv4-sp/hard/crt0.o
pFlash                                            build/stm32l4xx_hal_flash.o
                                                  build/stm32l4xx_hal_flash_ex.o
panels                                            build/addressable_led_manager.o
rand                                              /home/jon/KODMOD/EMBEDDED_TOOLCHAINS/gcc-arm-none-eabi-7-2018-q2-update/bin/../lib/gcc/arm-none-eabi/7.3.1/../../../../arm-none-eabi/lib/thumb/v7e-m/fpv4-sp/hard/libc_nano.a(lib_a-rand.o)
                                                  build/random_fade_animation.o
                                                  build/utils.o
randomFadePixelData                               build/addressable_led_manager.o
randomTrianglesPixelData                          build/addressable_led_manager.o
refreshTimer                                      build/addressable_led_manager.o
siprintf                                          /home/jon/KODMOD/EMBEDDED_TOOLCHAINS/gcc-arm-none-eabi-7-2018-q2-update/bin/../lib/gcc/arm-none-eabi/7.3.1/../../../../arm-none-eabi/lib/thumb/v7e-m/fpv4-sp/hard/libc_nano.a(lib_a-sprintf.o)
software_init_hook                                /home/jon/KODMOD/EMBEDDED_TOOLCHAINS/gcc-arm-none-eabi-7-2018-q2-update/bin/../lib/gcc/arm-none-eabi/7.3.1/../../../../arm-none-eabi/lib/thumb/v7e-m/fpv4-sp/hard/crt0.o
sprintf                                           /home/jon/KODMOD/EMBEDDED_TOOLCHAINS/gcc-arm-none-eabi-7-2018-q2-update/bin/../lib/gcc/arm-none-eabi/7.3.1/../../../../arm-none-eabi/lib/thumb/v7e-m/fpv4-sp/hard/libc_nano.a(lib_a-sprintf.o)
                                                  build/shell.o
srand                                             /home/jon/KODMOD/EMBEDDED_TOOLCHAINS/gcc-arm-none-eabi-7-2018-q2-update/bin/../lib/gcc/arm-none-eabi/7.3.1/../../../../arm-none-eabi/lib/thumb/v7e-m/fpv4-sp/hard/libc_nano.a(lib_a-rand.o)
strlen                                            /home/jon/KODMOD/EMBEDDED_TOOLCHAINS/gcc-arm-none-eabi-7-2018-q2-update/bin/../lib/gcc/arm-none-eabi/7.3.1/../../../../arm-none-eabi/lib/thumb/v7e-m/fpv4-sp/hard/libc_nano.a(lib_a-strlen.o)
                                                  build/shell.o
strncmp                                           /home/jon/KODMOD/EMBEDDED_TOOLCHAINS/gcc-arm-none-eabi-7-2018-q2-update/bin/../lib/gcc/arm-none-eabi/7.3.1/../../../../arm-none-eabi/lib/thumb/v7e-m/fpv4-sp/hard/libc_nano.a(lib_a-strncmp.o)
                                                  build/shell.o
timerListHead                                     build/sw_timers.o
timerListTail                                     build/sw_timers.o
uwTick                                            build/stm32l4xx_hal.o
uwTickFreq                                        build/stm32l4xx_hal.o
uwTickPrio                                        build/stm32l4xx_hal.o
                                                  build/stm32l4xx_hal_rcc.o
