ARM GAS  /tmp/cc7pTFvD.s 			page 1


   1              		.cpu cortex-m4
   2              		.eabi_attribute 27, 1
   3              		.eabi_attribute 28, 1
   4              		.eabi_attribute 20, 1
   5              		.eabi_attribute 21, 1
   6              		.eabi_attribute 23, 3
   7              		.eabi_attribute 24, 1
   8              		.eabi_attribute 25, 1
   9              		.eabi_attribute 26, 1
  10              		.eabi_attribute 30, 6
  11              		.eabi_attribute 34, 1
  12              		.eabi_attribute 18, 4
  13              		.file	"gpio.c"
  14              		.text
  15              	.Ltext0:
  16              		.cfi_sections	.debug_frame
  17              		.section	.text.MX_GPIO_Init,"ax",%progbits
  18              		.align	1
  19              		.global	MX_GPIO_Init
  20              		.syntax unified
  21              		.thumb
  22              		.thumb_func
  23              		.fpu fpv4-sp-d16
  25              	MX_GPIO_Init:
  26              	.LFB130:
  27              		.file 1 "../Core/Src/gpio.c"
   1:../Core/Src/gpio.c **** /**
   2:../Core/Src/gpio.c ****   ******************************************************************************
   3:../Core/Src/gpio.c ****   * File Name          : gpio.c
   4:../Core/Src/gpio.c ****   * Description        : This file provides code for the configuration
   5:../Core/Src/gpio.c ****   *                      of all used GPIO pins.
   6:../Core/Src/gpio.c ****   ******************************************************************************
   7:../Core/Src/gpio.c ****   * @attention
   8:../Core/Src/gpio.c ****   *
   9:../Core/Src/gpio.c ****   * <h2><center>&copy; Copyright (c) 2020 STMicroelectronics.
  10:../Core/Src/gpio.c ****   * All rights reserved.</center></h2>
  11:../Core/Src/gpio.c ****   *
  12:../Core/Src/gpio.c ****   * This software component is licensed by ST under Ultimate Liberty license
  13:../Core/Src/gpio.c ****   * SLA0044, the "License"; You may not use this file except in compliance with
  14:../Core/Src/gpio.c ****   * the License. You may obtain a copy of the License at:
  15:../Core/Src/gpio.c ****   *                             www.st.com/SLA0044
  16:../Core/Src/gpio.c ****   *
  17:../Core/Src/gpio.c ****   ******************************************************************************
  18:../Core/Src/gpio.c ****   */
  19:../Core/Src/gpio.c **** 
  20:../Core/Src/gpio.c **** /* Includes ------------------------------------------------------------------*/
  21:../Core/Src/gpio.c **** #include "gpio.h"
  22:../Core/Src/gpio.c **** /* USER CODE BEGIN 0 */
  23:../Core/Src/gpio.c **** 
  24:../Core/Src/gpio.c **** /* USER CODE END 0 */
  25:../Core/Src/gpio.c **** 
  26:../Core/Src/gpio.c **** /*----------------------------------------------------------------------------*/
  27:../Core/Src/gpio.c **** /* Configure GPIO                                                             */
  28:../Core/Src/gpio.c **** /*----------------------------------------------------------------------------*/
  29:../Core/Src/gpio.c **** /* USER CODE BEGIN 1 */
  30:../Core/Src/gpio.c **** 
  31:../Core/Src/gpio.c **** /* USER CODE END 1 */
ARM GAS  /tmp/cc7pTFvD.s 			page 2


  32:../Core/Src/gpio.c **** 
  33:../Core/Src/gpio.c **** /** Configure pins as 
  34:../Core/Src/gpio.c ****         * Analog 
  35:../Core/Src/gpio.c ****         * Input 
  36:../Core/Src/gpio.c ****         * Output
  37:../Core/Src/gpio.c ****         * EVENT_OUT
  38:../Core/Src/gpio.c ****         * EXTI
  39:../Core/Src/gpio.c **** */
  40:../Core/Src/gpio.c **** void MX_GPIO_Init(void)
  41:../Core/Src/gpio.c **** {
  28              		.loc 1 41 0
  29              		.cfi_startproc
  30              		@ args = 0, pretend = 0, frame = 32
  31              		@ frame_needed = 1, uses_anonymous_args = 0
  32 0000 80B5     		push	{r7, lr}
  33              	.LCFI0:
  34              		.cfi_def_cfa_offset 8
  35              		.cfi_offset 7, -8
  36              		.cfi_offset 14, -4
  37 0002 88B0     		sub	sp, sp, #32
  38              	.LCFI1:
  39              		.cfi_def_cfa_offset 40
  40 0004 00AF     		add	r7, sp, #0
  41              	.LCFI2:
  42              		.cfi_def_cfa_register 7
  42:../Core/Src/gpio.c **** 
  43:../Core/Src/gpio.c ****   GPIO_InitTypeDef GPIO_InitStruct = {0};
  43              		.loc 1 43 0
  44 0006 07F10C03 		add	r3, r7, #12
  45 000a 0022     		movs	r2, #0
  46 000c 1A60     		str	r2, [r3]
  47 000e 5A60     		str	r2, [r3, #4]
  48 0010 9A60     		str	r2, [r3, #8]
  49 0012 DA60     		str	r2, [r3, #12]
  50 0014 1A61     		str	r2, [r3, #16]
  51              	.LBB2:
  44:../Core/Src/gpio.c **** 
  45:../Core/Src/gpio.c ****   /* GPIO Ports Clock Enable */
  46:../Core/Src/gpio.c ****   __HAL_RCC_GPIOC_CLK_ENABLE();
  52              		.loc 1 46 0
  53 0016 1E4A     		ldr	r2, .L2
  54 0018 1D4B     		ldr	r3, .L2
  55 001a 5B69     		ldr	r3, [r3, #20]
  56 001c 43F40023 		orr	r3, r3, #524288
  57 0020 5361     		str	r3, [r2, #20]
  58 0022 1B4B     		ldr	r3, .L2
  59 0024 5B69     		ldr	r3, [r3, #20]
  60 0026 03F40023 		and	r3, r3, #524288
  61 002a BB60     		str	r3, [r7, #8]
  62 002c BB68     		ldr	r3, [r7, #8]
  63              	.LBE2:
  64              	.LBB3:
  47:../Core/Src/gpio.c ****   __HAL_RCC_GPIOF_CLK_ENABLE();
  65              		.loc 1 47 0
  66 002e 184A     		ldr	r2, .L2
  67 0030 174B     		ldr	r3, .L2
  68 0032 5B69     		ldr	r3, [r3, #20]
ARM GAS  /tmp/cc7pTFvD.s 			page 3


  69 0034 43F48003 		orr	r3, r3, #4194304
  70 0038 5361     		str	r3, [r2, #20]
  71 003a 154B     		ldr	r3, .L2
  72 003c 5B69     		ldr	r3, [r3, #20]
  73 003e 03F48003 		and	r3, r3, #4194304
  74 0042 7B60     		str	r3, [r7, #4]
  75 0044 7B68     		ldr	r3, [r7, #4]
  76              	.LBE3:
  77              	.LBB4:
  48:../Core/Src/gpio.c ****   __HAL_RCC_GPIOA_CLK_ENABLE();
  78              		.loc 1 48 0
  79 0046 124A     		ldr	r2, .L2
  80 0048 114B     		ldr	r3, .L2
  81 004a 5B69     		ldr	r3, [r3, #20]
  82 004c 43F40033 		orr	r3, r3, #131072
  83 0050 5361     		str	r3, [r2, #20]
  84 0052 0F4B     		ldr	r3, .L2
  85 0054 5B69     		ldr	r3, [r3, #20]
  86 0056 03F40033 		and	r3, r3, #131072
  87 005a 3B60     		str	r3, [r7]
  88 005c 3B68     		ldr	r3, [r7]
  89              	.LBE4:
  49:../Core/Src/gpio.c **** 
  50:../Core/Src/gpio.c ****   /*Configure GPIO pin Output Level */
  51:../Core/Src/gpio.c ****   HAL_GPIO_WritePin(GPIOC, GPIO_PIN_13, GPIO_PIN_RESET);
  90              		.loc 1 51 0
  91 005e 0022     		movs	r2, #0
  92 0060 4FF40051 		mov	r1, #8192
  93 0064 0B48     		ldr	r0, .L2+4
  94 0066 FFF7FEFF 		bl	HAL_GPIO_WritePin
  52:../Core/Src/gpio.c **** 
  53:../Core/Src/gpio.c ****   /*Configure GPIO pin : PC13 */
  54:../Core/Src/gpio.c ****   GPIO_InitStruct.Pin = GPIO_PIN_13;
  95              		.loc 1 54 0
  96 006a 4FF40053 		mov	r3, #8192
  97 006e FB60     		str	r3, [r7, #12]
  55:../Core/Src/gpio.c ****   GPIO_InitStruct.Mode = GPIO_MODE_OUTPUT_PP;
  98              		.loc 1 55 0
  99 0070 0123     		movs	r3, #1
 100 0072 3B61     		str	r3, [r7, #16]
  56:../Core/Src/gpio.c ****   GPIO_InitStruct.Pull = GPIO_NOPULL;
 101              		.loc 1 56 0
 102 0074 0023     		movs	r3, #0
 103 0076 7B61     		str	r3, [r7, #20]
  57:../Core/Src/gpio.c ****   GPIO_InitStruct.Speed = GPIO_SPEED_FREQ_LOW;
 104              		.loc 1 57 0
 105 0078 0023     		movs	r3, #0
 106 007a BB61     		str	r3, [r7, #24]
  58:../Core/Src/gpio.c ****   HAL_GPIO_Init(GPIOC, &GPIO_InitStruct);
 107              		.loc 1 58 0
 108 007c 07F10C03 		add	r3, r7, #12
 109 0080 1946     		mov	r1, r3
 110 0082 0448     		ldr	r0, .L2+4
 111 0084 FFF7FEFF 		bl	HAL_GPIO_Init
  59:../Core/Src/gpio.c **** 
  60:../Core/Src/gpio.c **** }
 112              		.loc 1 60 0
ARM GAS  /tmp/cc7pTFvD.s 			page 4


 113 0088 00BF     		nop
 114 008a 2037     		adds	r7, r7, #32
 115              	.LCFI3:
 116              		.cfi_def_cfa_offset 8
 117 008c BD46     		mov	sp, r7
 118              	.LCFI4:
 119              		.cfi_def_cfa_register 13
 120              		@ sp needed
 121 008e 80BD     		pop	{r7, pc}
 122              	.L3:
 123              		.align	2
 124              	.L2:
 125 0090 00100240 		.word	1073876992
 126 0094 00080048 		.word	1207961600
 127              		.cfi_endproc
 128              	.LFE130:
 130              		.text
 131              	.Letext0:
 132              		.file 2 "/usr/include/newlib/machine/_default_types.h"
 133              		.file 3 "/usr/include/newlib/sys/_stdint.h"
 134              		.file 4 "../Drivers/CMSIS/Include/core_cm4.h"
 135              		.file 5 "../Drivers/CMSIS/Device/ST/STM32F3xx/Include/system_stm32f3xx.h"
 136              		.file 6 "../Drivers/CMSIS/Device/ST/STM32F3xx/Include/stm32f303xc.h"
 137              		.file 7 "../Drivers/STM32F3xx_HAL_Driver/Inc/stm32f3xx_hal_gpio.h"
 138              		.file 8 "../Drivers/STM32F3xx_HAL_Driver/Inc/stm32f3xx_hal.h"
ARM GAS  /tmp/cc7pTFvD.s 			page 5

