ARM GAS  /tmp/ccfF5rlH.s 			page 1


   1              		.cpu cortex-m4
   2              		.eabi_attribute 27, 1
   3              		.eabi_attribute 28, 1
   4              		.eabi_attribute 20, 1
   5              		.eabi_attribute 21, 1
   6              		.eabi_attribute 23, 3
   7              		.eabi_attribute 24, 1
   8              		.eabi_attribute 25, 1
   9              		.eabi_attribute 26, 1
  10              		.eabi_attribute 30, 6
  11              		.eabi_attribute 34, 1
  12              		.eabi_attribute 18, 4
  13              		.file	"led.c"
  14              		.text
  15              	.Ltext0:
  16              		.cfi_sections	.debug_frame
  17              		.comm	led1,20,4
  18              		.section	.rodata
  19              		.align	2
  20              	.LC0:
  21 0000 0000     		.short	0
  22 0002 0400     		.short	4
  23 0004 0800     		.short	8
  24 0006 0000     		.short	0
  25 0008 0000     		.short	0
  26 000a 0000     		.short	0
  27 000c 00000000 		.word	htim2
  28 0010 00000000 		.word	htim1
  29              		.section	.text.LED_Init,"ax",%progbits
  30              		.align	1
  31              		.global	LED_Init
  32              		.syntax unified
  33              		.thumb
  34              		.thumb_func
  35              		.fpu fpv4-sp-d16
  37              	LED_Init:
  38              	.LFB130:
  39              		.file 1 "../Core/Src/led.c"
   1:../Core/Src/led.c **** 
   2:../Core/Src/led.c **** #include "led.h"
   3:../Core/Src/led.c **** #include "tim.h"
   4:../Core/Src/led.c **** 
   5:../Core/Src/led.c **** LEDInstance led1;
   6:../Core/Src/led.c **** 
   7:../Core/Src/led.c **** 
   8:../Core/Src/led.c **** void LED_Init(void)
   9:../Core/Src/led.c **** {
  40              		.loc 1 9 0
  41              		.cfi_startproc
  42              		@ args = 0, pretend = 0, frame = 0
  43              		@ frame_needed = 1, uses_anonymous_args = 0
  44 0000 B0B5     		push	{r4, r5, r7, lr}
  45              	.LCFI0:
  46              		.cfi_def_cfa_offset 16
  47              		.cfi_offset 4, -16
  48              		.cfi_offset 5, -12
  49              		.cfi_offset 7, -8
ARM GAS  /tmp/ccfF5rlH.s 			page 2


  50              		.cfi_offset 14, -4
  51 0002 00AF     		add	r7, sp, #0
  52              	.LCFI1:
  53              		.cfi_def_cfa_register 7
  10:../Core/Src/led.c ****   // Initialize LED 1
  11:../Core/Src/led.c ****   led1 = (LEDInstance) {
  54              		.loc 1 11 0
  55 0004 084A     		ldr	r2, .L2
  56 0006 094B     		ldr	r3, .L2+4
  57 0008 1446     		mov	r4, r2
  58 000a 1D46     		mov	r5, r3
  59 000c 0FCD     		ldmia	r5!, {r0, r1, r2, r3}
  60 000e 0FC4     		stmia	r4!, {r0, r1, r2, r3}
  61 0010 2B68     		ldr	r3, [r5]
  62 0012 2360     		str	r3, [r4]
  12:../Core/Src/led.c ****     .channelBrightness = {0, 0, 0},
  13:../Core/Src/led.c ****     .pwmTimerHandle = &htim2,
  14:../Core/Src/led.c ****     .updateTimerHandle = &htim1,
  15:../Core/Src/led.c ****     .timChannel = {
  16:../Core/Src/led.c ****       [RED]   = TIM_CHANNEL_1, 
  17:../Core/Src/led.c ****       [GREEN] = TIM_CHANNEL_2, 
  18:../Core/Src/led.c ****       [BLUE]  = TIM_CHANNEL_3
  19:../Core/Src/led.c ****     },
  20:../Core/Src/led.c ****   };
  21:../Core/Src/led.c **** 
  22:../Core/Src/led.c ****   // Start LED 1s timers
  23:../Core/Src/led.c ****   MX_TIM1_Init(); // update timer 
  63              		.loc 1 23 0
  64 0014 FFF7FEFF 		bl	MX_TIM1_Init
  24:../Core/Src/led.c ****   MX_TIM2_Init(); // pwm timer
  65              		.loc 1 24 0
  66 0018 FFF7FEFF 		bl	MX_TIM2_Init
  25:../Core/Src/led.c **** 
  26:../Core/Src/led.c ****   // Start LED 1
  27:../Core/Src/led.c ****   LED_Start(&led1);
  67              		.loc 1 27 0
  68 001c 0248     		ldr	r0, .L2
  69 001e FFF7FEFF 		bl	LED_Start
  28:../Core/Src/led.c **** }
  70              		.loc 1 28 0
  71 0022 00BF     		nop
  72 0024 B0BD     		pop	{r4, r5, r7, pc}
  73              	.L3:
  74 0026 00BF     		.align	2
  75              	.L2:
  76 0028 00000000 		.word	led1
  77 002c 00000000 		.word	.LC0
  78              		.cfi_endproc
  79              	.LFE130:
  81              		.section	.text.LED_Start,"ax",%progbits
  82              		.align	1
  83              		.global	LED_Start
  84              		.syntax unified
  85              		.thumb
  86              		.thumb_func
  87              		.fpu fpv4-sp-d16
  89              	LED_Start:
ARM GAS  /tmp/ccfF5rlH.s 			page 3


  90              	.LFB131:
  29:../Core/Src/led.c **** 
  30:../Core/Src/led.c **** void LED_Start(LEDInstance *led)
  31:../Core/Src/led.c **** {
  91              		.loc 1 31 0
  92              		.cfi_startproc
  93              		@ args = 0, pretend = 0, frame = 8
  94              		@ frame_needed = 1, uses_anonymous_args = 0
  95 0000 80B5     		push	{r7, lr}
  96              	.LCFI2:
  97              		.cfi_def_cfa_offset 8
  98              		.cfi_offset 7, -8
  99              		.cfi_offset 14, -4
 100 0002 82B0     		sub	sp, sp, #8
 101              	.LCFI3:
 102              		.cfi_def_cfa_offset 16
 103 0004 00AF     		add	r7, sp, #0
 104              	.LCFI4:
 105              		.cfi_def_cfa_register 7
 106 0006 7860     		str	r0, [r7, #4]
  32:../Core/Src/led.c ****   // Start pwms
  33:../Core/Src/led.c ****   HAL_TIM_PWM_Start(led->pwmTimerHandle, led->timChannel[RED]);
 107              		.loc 1 33 0
 108 0008 7B68     		ldr	r3, [r7, #4]
 109 000a DA68     		ldr	r2, [r3, #12]
 110 000c 7B68     		ldr	r3, [r7, #4]
 111 000e 1B88     		ldrh	r3, [r3]
 112 0010 1946     		mov	r1, r3
 113 0012 1046     		mov	r0, r2
 114 0014 FFF7FEFF 		bl	HAL_TIM_PWM_Start
  34:../Core/Src/led.c ****   HAL_TIM_PWM_Start(led->pwmTimerHandle, led->timChannel[GREEN]);
 115              		.loc 1 34 0
 116 0018 7B68     		ldr	r3, [r7, #4]
 117 001a DA68     		ldr	r2, [r3, #12]
 118 001c 7B68     		ldr	r3, [r7, #4]
 119 001e 5B88     		ldrh	r3, [r3, #2]
 120 0020 1946     		mov	r1, r3
 121 0022 1046     		mov	r0, r2
 122 0024 FFF7FEFF 		bl	HAL_TIM_PWM_Start
  35:../Core/Src/led.c ****   HAL_TIM_PWM_Start(led->pwmTimerHandle, led->timChannel[BLUE]);
 123              		.loc 1 35 0
 124 0028 7B68     		ldr	r3, [r7, #4]
 125 002a DA68     		ldr	r2, [r3, #12]
 126 002c 7B68     		ldr	r3, [r7, #4]
 127 002e 9B88     		ldrh	r3, [r3, #4]
 128 0030 1946     		mov	r1, r3
 129 0032 1046     		mov	r0, r2
 130 0034 FFF7FEFF 		bl	HAL_TIM_PWM_Start
  36:../Core/Src/led.c **** 
  37:../Core/Src/led.c ****   // Start update timer
  38:../Core/Src/led.c ****   led->updateTimerHandle->Instance->ARR = 10; 
 131              		.loc 1 38 0
 132 0038 7B68     		ldr	r3, [r7, #4]
 133 003a 1B69     		ldr	r3, [r3, #16]
 134 003c 1B68     		ldr	r3, [r3]
 135 003e 0A22     		movs	r2, #10
 136 0040 DA62     		str	r2, [r3, #44]
ARM GAS  /tmp/ccfF5rlH.s 			page 4


  39:../Core/Src/led.c ****   HAL_TIM_GenerateEvent(led->updateTimerHandle, TIM_EVENTSOURCE_UPDATE);
 137              		.loc 1 39 0
 138 0042 7B68     		ldr	r3, [r7, #4]
 139 0044 1B69     		ldr	r3, [r3, #16]
 140 0046 0121     		movs	r1, #1
 141 0048 1846     		mov	r0, r3
 142 004a FFF7FEFF 		bl	HAL_TIM_GenerateEvent
  40:../Core/Src/led.c ****   HAL_TIM_Base_Start_IT(led->updateTimerHandle);
 143              		.loc 1 40 0
 144 004e 7B68     		ldr	r3, [r7, #4]
 145 0050 1B69     		ldr	r3, [r3, #16]
 146 0052 1846     		mov	r0, r3
 147 0054 FFF7FEFF 		bl	HAL_TIM_Base_Start_IT
  41:../Core/Src/led.c **** }
 148              		.loc 1 41 0
 149 0058 00BF     		nop
 150 005a 0837     		adds	r7, r7, #8
 151              	.LCFI5:
 152              		.cfi_def_cfa_offset 8
 153 005c BD46     		mov	sp, r7
 154              	.LCFI6:
 155              		.cfi_def_cfa_register 13
 156              		@ sp needed
 157 005e 80BD     		pop	{r7, pc}
 158              		.cfi_endproc
 159              	.LFE131:
 161              		.section	.text.LED_SetBrightness,"ax",%progbits
 162              		.align	1
 163              		.global	LED_SetBrightness
 164              		.syntax unified
 165              		.thumb
 166              		.thumb_func
 167              		.fpu fpv4-sp-d16
 169              	LED_SetBrightness:
 170              	.LFB132:
  42:../Core/Src/led.c **** 
  43:../Core/Src/led.c **** void LED_SetBrightness(LEDInstance *led, LEDColorChannel color, uint16_t brightness)
  44:../Core/Src/led.c **** {
 171              		.loc 1 44 0
 172              		.cfi_startproc
 173              		@ args = 0, pretend = 0, frame = 8
 174              		@ frame_needed = 1, uses_anonymous_args = 0
 175              		@ link register save eliminated.
 176 0000 80B4     		push	{r7}
 177              	.LCFI7:
 178              		.cfi_def_cfa_offset 4
 179              		.cfi_offset 7, -4
 180 0002 83B0     		sub	sp, sp, #12
 181              	.LCFI8:
 182              		.cfi_def_cfa_offset 16
 183 0004 00AF     		add	r7, sp, #0
 184              	.LCFI9:
 185              		.cfi_def_cfa_register 7
 186 0006 7860     		str	r0, [r7, #4]
 187 0008 0B46     		mov	r3, r1
 188 000a FB70     		strb	r3, [r7, #3]
 189 000c 1346     		mov	r3, r2	@ movhi
ARM GAS  /tmp/ccfF5rlH.s 			page 5


 190 000e 3B80     		strh	r3, [r7]	@ movhi
  45:../Core/Src/led.c ****   __HAL_TIM_SET_COMPARE(led->pwmTimerHandle, 
 191              		.loc 1 45 0
 192 0010 FA78     		ldrb	r2, [r7, #3]	@ zero_extendqisi2
 193 0012 7B68     		ldr	r3, [r7, #4]
 194 0014 33F81230 		ldrh	r3, [r3, r2, lsl #1]
 195 0018 002B     		cmp	r3, #0
 196 001a 05D1     		bne	.L6
 197              		.loc 1 45 0 is_stmt 0 discriminator 1
 198 001c 7B68     		ldr	r3, [r7, #4]
 199 001e DB68     		ldr	r3, [r3, #12]
 200 0020 1B68     		ldr	r3, [r3]
 201 0022 3A88     		ldrh	r2, [r7]
 202 0024 5A63     		str	r2, [r3, #52]
 203 0026 34E0     		b	.L7
 204              	.L6:
 205              		.loc 1 45 0 discriminator 2
 206 0028 FA78     		ldrb	r2, [r7, #3]	@ zero_extendqisi2
 207 002a 7B68     		ldr	r3, [r7, #4]
 208 002c 33F81230 		ldrh	r3, [r3, r2, lsl #1]
 209 0030 042B     		cmp	r3, #4
 210 0032 05D1     		bne	.L8
 211              		.loc 1 45 0 discriminator 3
 212 0034 7B68     		ldr	r3, [r7, #4]
 213 0036 DB68     		ldr	r3, [r3, #12]
 214 0038 1B68     		ldr	r3, [r3]
 215 003a 3A88     		ldrh	r2, [r7]
 216 003c 9A63     		str	r2, [r3, #56]
 217 003e 28E0     		b	.L7
 218              	.L8:
 219              		.loc 1 45 0 discriminator 4
 220 0040 FA78     		ldrb	r2, [r7, #3]	@ zero_extendqisi2
 221 0042 7B68     		ldr	r3, [r7, #4]
 222 0044 33F81230 		ldrh	r3, [r3, r2, lsl #1]
 223 0048 082B     		cmp	r3, #8
 224 004a 05D1     		bne	.L10
 225              		.loc 1 45 0 discriminator 6
 226 004c 7B68     		ldr	r3, [r7, #4]
 227 004e DB68     		ldr	r3, [r3, #12]
 228 0050 1B68     		ldr	r3, [r3]
 229 0052 3A88     		ldrh	r2, [r7]
 230 0054 DA63     		str	r2, [r3, #60]
 231 0056 1CE0     		b	.L7
 232              	.L10:
 233              		.loc 1 45 0 discriminator 7
 234 0058 FA78     		ldrb	r2, [r7, #3]	@ zero_extendqisi2
 235 005a 7B68     		ldr	r3, [r7, #4]
 236 005c 33F81230 		ldrh	r3, [r3, r2, lsl #1]
 237 0060 0C2B     		cmp	r3, #12
 238 0062 05D1     		bne	.L12
 239              		.loc 1 45 0 discriminator 9
 240 0064 7B68     		ldr	r3, [r7, #4]
 241 0066 DB68     		ldr	r3, [r3, #12]
 242 0068 1B68     		ldr	r3, [r3]
 243 006a 3A88     		ldrh	r2, [r7]
 244 006c 1A64     		str	r2, [r3, #64]
 245 006e 10E0     		b	.L7
ARM GAS  /tmp/ccfF5rlH.s 			page 6


 246              	.L12:
 247              		.loc 1 45 0 discriminator 10
 248 0070 FA78     		ldrb	r2, [r7, #3]	@ zero_extendqisi2
 249 0072 7B68     		ldr	r3, [r7, #4]
 250 0074 33F81230 		ldrh	r3, [r3, r2, lsl #1]
 251 0078 102B     		cmp	r3, #16
 252 007a 05D1     		bne	.L14
 253              		.loc 1 45 0 discriminator 12
 254 007c 7B68     		ldr	r3, [r7, #4]
 255 007e DB68     		ldr	r3, [r3, #12]
 256 0080 1B68     		ldr	r3, [r3]
 257 0082 3A88     		ldrh	r2, [r7]
 258 0084 9A65     		str	r2, [r3, #88]
 259 0086 04E0     		b	.L7
 260              	.L14:
 261              		.loc 1 45 0 discriminator 13
 262 0088 7B68     		ldr	r3, [r7, #4]
 263 008a DB68     		ldr	r3, [r3, #12]
 264 008c 1B68     		ldr	r3, [r3]
 265 008e 3A88     		ldrh	r2, [r7]
 266 0090 DA65     		str	r2, [r3, #92]
 267              	.L7:
  46:../Core/Src/led.c ****                         led->timChannel[color],
  47:../Core/Src/led.c ****                         brightness);
  48:../Core/Src/led.c ****   led->channelBrightness[color] = brightness;
 268              		.loc 1 48 0 is_stmt 1
 269 0092 FB78     		ldrb	r3, [r7, #3]	@ zero_extendqisi2
 270 0094 7A68     		ldr	r2, [r7, #4]
 271 0096 5B00     		lsls	r3, r3, #1
 272 0098 1344     		add	r3, r3, r2
 273 009a 3A88     		ldrh	r2, [r7]	@ movhi
 274 009c DA80     		strh	r2, [r3, #6]	@ movhi
  49:../Core/Src/led.c **** }
 275              		.loc 1 49 0
 276 009e 00BF     		nop
 277 00a0 0C37     		adds	r7, r7, #12
 278              	.LCFI10:
 279              		.cfi_def_cfa_offset 4
 280 00a2 BD46     		mov	sp, r7
 281              	.LCFI11:
 282              		.cfi_def_cfa_register 13
 283              		@ sp needed
 284 00a4 5DF8047B 		ldr	r7, [sp], #4
 285              	.LCFI12:
 286              		.cfi_restore 7
 287              		.cfi_def_cfa_offset 0
 288 00a8 7047     		bx	lr
 289              		.cfi_endproc
 290              	.LFE132:
 292              		.section	.text.LED_Update,"ax",%progbits
 293              		.align	1
 294              		.global	LED_Update
 295              		.syntax unified
 296              		.thumb
 297              		.thumb_func
 298              		.fpu fpv4-sp-d16
 300              	LED_Update:
ARM GAS  /tmp/ccfF5rlH.s 			page 7


 301              	.LFB133:
  50:../Core/Src/led.c **** 
  51:../Core/Src/led.c **** void LED_Update(void)
  52:../Core/Src/led.c **** {
 302              		.loc 1 52 0
 303              		.cfi_startproc
 304              		@ args = 0, pretend = 0, frame = 0
 305              		@ frame_needed = 1, uses_anonymous_args = 0
 306 0000 80B5     		push	{r7, lr}
 307              	.LCFI13:
 308              		.cfi_def_cfa_offset 8
 309              		.cfi_offset 7, -8
 310              		.cfi_offset 14, -4
 311 0002 00AF     		add	r7, sp, #0
 312              	.LCFI14:
 313              		.cfi_def_cfa_register 7
  53:../Core/Src/led.c ****   static int i = 100;
  54:../Core/Src/led.c ****   static bool add = true;
  55:../Core/Src/led.c **** 
  56:../Core/Src/led.c ****   static LEDColorChannel goingUp   = RED;
  57:../Core/Src/led.c ****   static LEDColorChannel goingDown = GREEN;
  58:../Core/Src/led.c **** 
  59:../Core/Src/led.c ****   LED_SetBrightness(&led1, BLUE, i);
 314              		.loc 1 59 0
 315 0004 184B     		ldr	r3, .L22
 316 0006 1B68     		ldr	r3, [r3]
 317 0008 9BB2     		uxth	r3, r3
 318 000a 1A46     		mov	r2, r3
 319 000c 0221     		movs	r1, #2
 320 000e 1748     		ldr	r0, .L22+4
 321 0010 FFF7FEFF 		bl	LED_SetBrightness
  60:../Core/Src/led.c ****   //LED_SetBrightness(&led1, GREEN, i);
  61:../Core/Src/led.c ****   LED_SetBrightness(&led1, RED, 999-i);
 322              		.loc 1 61 0
 323 0014 144B     		ldr	r3, .L22
 324 0016 1B68     		ldr	r3, [r3]
 325 0018 9BB2     		uxth	r3, r3
 326 001a C3F57973 		rsb	r3, r3, #996
 327 001e 0333     		adds	r3, r3, #3
 328 0020 9BB2     		uxth	r3, r3
 329 0022 1A46     		mov	r2, r3
 330 0024 0021     		movs	r1, #0
 331 0026 1148     		ldr	r0, .L22+4
 332 0028 FFF7FEFF 		bl	LED_SetBrightness
  62:../Core/Src/led.c ****   
  63:../Core/Src/led.c ****   i += (add) ? 1 : -1;
 333              		.loc 1 63 0
 334 002c 104B     		ldr	r3, .L22+8
 335 002e 1B78     		ldrb	r3, [r3]	@ zero_extendqisi2
 336 0030 002B     		cmp	r3, #0
 337 0032 01D0     		beq	.L17
 338              		.loc 1 63 0 is_stmt 0 discriminator 1
 339 0034 0122     		movs	r2, #1
 340 0036 01E0     		b	.L18
 341              	.L17:
 342              		.loc 1 63 0 discriminator 2
 343 0038 4FF0FF32 		mov	r2, #-1
ARM GAS  /tmp/ccfF5rlH.s 			page 8


 344              	.L18:
 345              		.loc 1 63 0 discriminator 4
 346 003c 0A4B     		ldr	r3, .L22
 347 003e 1B68     		ldr	r3, [r3]
 348 0040 1344     		add	r3, r3, r2
 349 0042 094A     		ldr	r2, .L22
 350 0044 1360     		str	r3, [r2]
  64:../Core/Src/led.c ****   
  65:../Core/Src/led.c ****   if (i > 999)
 351              		.loc 1 65 0 is_stmt 1 discriminator 4
 352 0046 084B     		ldr	r3, .L22
 353 0048 1B68     		ldr	r3, [r3]
 354 004a B3F57A7F 		cmp	r3, #1000
 355 004e 02DB     		blt	.L19
  66:../Core/Src/led.c ****   {
  67:../Core/Src/led.c ****     add = false;
 356              		.loc 1 67 0
 357 0050 074B     		ldr	r3, .L22+8
 358 0052 0022     		movs	r2, #0
 359 0054 1A70     		strb	r2, [r3]
 360              	.L19:
  68:../Core/Src/led.c ****   }
  69:../Core/Src/led.c ****   if (i < 100)
 361              		.loc 1 69 0
 362 0056 044B     		ldr	r3, .L22
 363 0058 1B68     		ldr	r3, [r3]
 364 005a 632B     		cmp	r3, #99
 365 005c 02DC     		bgt	.L21
  70:../Core/Src/led.c ****   {
  71:../Core/Src/led.c ****     add = true;
 366              		.loc 1 71 0
 367 005e 044B     		ldr	r3, .L22+8
 368 0060 0122     		movs	r2, #1
 369 0062 1A70     		strb	r2, [r3]
 370              	.L21:
  72:../Core/Src/led.c **** 
  73:../Core/Src/led.c ****     // ROTATE COLORS
  74:../Core/Src/led.c ****     //goingUp   = (goingUp + 1) % (NUM_COLORS);
  75:../Core/Src/led.c ****   }
  76:../Core/Src/led.c **** 
  77:../Core/Src/led.c ****   
  78:../Core/Src/led.c **** }
 371              		.loc 1 78 0
 372 0064 00BF     		nop
 373 0066 80BD     		pop	{r7, pc}
 374              	.L23:
 375              		.align	2
 376              	.L22:
 377 0068 00000000 		.word	i.8118
 378 006c 00000000 		.word	led1
 379 0070 00000000 		.word	add.8119
 380              		.cfi_endproc
 381              	.LFE133:
 383              		.section	.data.i.8118,"aw",%progbits
 384              		.align	2
 387              	i.8118:
 388 0000 64000000 		.word	100
ARM GAS  /tmp/ccfF5rlH.s 			page 9


 389              		.section	.data.add.8119,"aw",%progbits
 392              	add.8119:
 393 0000 01       		.byte	1
 394              		.section	.data.goingDown.8121,"aw",%progbits
 397              	goingDown.8121:
 398 0000 01       		.byte	1
 399              		.section	.bss.goingUp.8120,"aw",%nobits
 402              	goingUp.8120:
 403 0000 00       		.space	1
 404              		.text
 405              	.Letext0:
 406              		.file 2 "/usr/include/newlib/machine/_default_types.h"
 407              		.file 3 "/usr/include/newlib/sys/_stdint.h"
 408              		.file 4 "../Drivers/CMSIS/Include/core_cm4.h"
 409              		.file 5 "../Drivers/CMSIS/Device/ST/STM32F3xx/Include/system_stm32f3xx.h"
 410              		.file 6 "../Drivers/CMSIS/Device/ST/STM32F3xx/Include/stm32f303xc.h"
 411              		.file 7 "../Drivers/STM32F3xx_HAL_Driver/Inc/stm32f3xx_hal_def.h"
 412              		.file 8 "../Drivers/STM32F3xx_HAL_Driver/Inc/stm32f3xx_hal_dma.h"
 413              		.file 9 "../Drivers/STM32F3xx_HAL_Driver/Inc/stm32f3xx_hal_tim.h"
 414              		.file 10 "../Drivers/STM32F3xx_HAL_Driver/Inc/stm32f3xx_hal.h"
 415              		.file 11 "../Core/Inc/led.h"
 416              		.file 12 "../Core/Inc/tim.h"
ARM GAS  /tmp/ccfF5rlH.s 			page 10

