ARM GAS  /tmp/ccmjhst0.s 			page 1


   1              		.cpu cortex-m4
   2              		.eabi_attribute 27, 1
   3              		.eabi_attribute 28, 1
   4              		.eabi_attribute 20, 1
   5              		.eabi_attribute 21, 1
   6              		.eabi_attribute 23, 3
   7              		.eabi_attribute 24, 1
   8              		.eabi_attribute 25, 1
   9              		.eabi_attribute 26, 1
  10              		.eabi_attribute 30, 6
  11              		.eabi_attribute 34, 1
  12              		.eabi_attribute 18, 4
  13              		.file	"stm32f3xx_hal_pcd.c"
  14              		.text
  15              	.Ltext0:
  16              		.cfi_sections	.debug_frame
  17              		.section	.text.HAL_PCD_Init,"ax",%progbits
  18              		.align	1
  19              		.global	HAL_PCD_Init
  20              		.syntax unified
  21              		.thumb
  22              		.thumb_func
  23              		.fpu fpv4-sp-d16
  25              	HAL_PCD_Init:
  26              	.LFB130:
  27              		.file 1 "../Drivers/STM32F3xx_HAL_Driver/Src/stm32f3xx_hal_pcd.c"
   1:../Drivers/STM32F3xx_HAL_Driver/Src/stm32f3xx_hal_pcd.c **** /**
   2:../Drivers/STM32F3xx_HAL_Driver/Src/stm32f3xx_hal_pcd.c ****   ******************************************************************************
   3:../Drivers/STM32F3xx_HAL_Driver/Src/stm32f3xx_hal_pcd.c ****   * @file    stm32f3xx_hal_pcd.c
   4:../Drivers/STM32F3xx_HAL_Driver/Src/stm32f3xx_hal_pcd.c ****   * @author  MCD Application Team
   5:../Drivers/STM32F3xx_HAL_Driver/Src/stm32f3xx_hal_pcd.c ****   * @brief   PCD HAL module driver.
   6:../Drivers/STM32F3xx_HAL_Driver/Src/stm32f3xx_hal_pcd.c ****   *          This file provides firmware functions to manage the following
   7:../Drivers/STM32F3xx_HAL_Driver/Src/stm32f3xx_hal_pcd.c ****   *          functionalities of the USB Peripheral Controller:
   8:../Drivers/STM32F3xx_HAL_Driver/Src/stm32f3xx_hal_pcd.c ****   *           + Initialization and de-initialization functions
   9:../Drivers/STM32F3xx_HAL_Driver/Src/stm32f3xx_hal_pcd.c ****   *           + IO operation functions
  10:../Drivers/STM32F3xx_HAL_Driver/Src/stm32f3xx_hal_pcd.c ****   *           + Peripheral Control functions
  11:../Drivers/STM32F3xx_HAL_Driver/Src/stm32f3xx_hal_pcd.c ****   *           + Peripheral State functions
  12:../Drivers/STM32F3xx_HAL_Driver/Src/stm32f3xx_hal_pcd.c ****   *
  13:../Drivers/STM32F3xx_HAL_Driver/Src/stm32f3xx_hal_pcd.c ****   @verbatim
  14:../Drivers/STM32F3xx_HAL_Driver/Src/stm32f3xx_hal_pcd.c ****   ==============================================================================
  15:../Drivers/STM32F3xx_HAL_Driver/Src/stm32f3xx_hal_pcd.c ****                     ##### How to use this driver #####
  16:../Drivers/STM32F3xx_HAL_Driver/Src/stm32f3xx_hal_pcd.c ****   ==============================================================================
  17:../Drivers/STM32F3xx_HAL_Driver/Src/stm32f3xx_hal_pcd.c ****     [..]
  18:../Drivers/STM32F3xx_HAL_Driver/Src/stm32f3xx_hal_pcd.c ****       The PCD HAL driver can be used as follows:
  19:../Drivers/STM32F3xx_HAL_Driver/Src/stm32f3xx_hal_pcd.c **** 
  20:../Drivers/STM32F3xx_HAL_Driver/Src/stm32f3xx_hal_pcd.c ****      (#) Declare a PCD_HandleTypeDef handle structure, for example:
  21:../Drivers/STM32F3xx_HAL_Driver/Src/stm32f3xx_hal_pcd.c ****          PCD_HandleTypeDef  hpcd;
  22:../Drivers/STM32F3xx_HAL_Driver/Src/stm32f3xx_hal_pcd.c **** 
  23:../Drivers/STM32F3xx_HAL_Driver/Src/stm32f3xx_hal_pcd.c ****      (#) Fill parameters of Init structure in HCD handle
  24:../Drivers/STM32F3xx_HAL_Driver/Src/stm32f3xx_hal_pcd.c **** 
  25:../Drivers/STM32F3xx_HAL_Driver/Src/stm32f3xx_hal_pcd.c ****      (#) Call HAL_PCD_Init() API to initialize the PCD peripheral (Core, Device core, ...)
  26:../Drivers/STM32F3xx_HAL_Driver/Src/stm32f3xx_hal_pcd.c **** 
  27:../Drivers/STM32F3xx_HAL_Driver/Src/stm32f3xx_hal_pcd.c ****      (#) Initialize the PCD low level resources through the HAL_PCD_MspInit() API:
  28:../Drivers/STM32F3xx_HAL_Driver/Src/stm32f3xx_hal_pcd.c ****          (##) Enable the PCD/USB Low Level interface clock using
  29:../Drivers/STM32F3xx_HAL_Driver/Src/stm32f3xx_hal_pcd.c ****               (+++) __HAL_RCC_USB_CLK_ENABLE(); For USB Device only FS peripheral
  30:../Drivers/STM32F3xx_HAL_Driver/Src/stm32f3xx_hal_pcd.c **** 
  31:../Drivers/STM32F3xx_HAL_Driver/Src/stm32f3xx_hal_pcd.c ****          (##) Initialize the related GPIO clocks
ARM GAS  /tmp/ccmjhst0.s 			page 2


  32:../Drivers/STM32F3xx_HAL_Driver/Src/stm32f3xx_hal_pcd.c ****          (##) Configure PCD pin-out
  33:../Drivers/STM32F3xx_HAL_Driver/Src/stm32f3xx_hal_pcd.c ****          (##) Configure PCD NVIC interrupt
  34:../Drivers/STM32F3xx_HAL_Driver/Src/stm32f3xx_hal_pcd.c **** 
  35:../Drivers/STM32F3xx_HAL_Driver/Src/stm32f3xx_hal_pcd.c ****      (#)Associate the Upper USB device stack to the HAL PCD Driver:
  36:../Drivers/STM32F3xx_HAL_Driver/Src/stm32f3xx_hal_pcd.c ****          (##) hpcd.pData = pdev;
  37:../Drivers/STM32F3xx_HAL_Driver/Src/stm32f3xx_hal_pcd.c **** 
  38:../Drivers/STM32F3xx_HAL_Driver/Src/stm32f3xx_hal_pcd.c ****      (#)Enable PCD transmission and reception:
  39:../Drivers/STM32F3xx_HAL_Driver/Src/stm32f3xx_hal_pcd.c ****          (##) HAL_PCD_Start();
  40:../Drivers/STM32F3xx_HAL_Driver/Src/stm32f3xx_hal_pcd.c **** 
  41:../Drivers/STM32F3xx_HAL_Driver/Src/stm32f3xx_hal_pcd.c ****   @endverbatim
  42:../Drivers/STM32F3xx_HAL_Driver/Src/stm32f3xx_hal_pcd.c ****   ******************************************************************************
  43:../Drivers/STM32F3xx_HAL_Driver/Src/stm32f3xx_hal_pcd.c ****   * @attention
  44:../Drivers/STM32F3xx_HAL_Driver/Src/stm32f3xx_hal_pcd.c ****   *
  45:../Drivers/STM32F3xx_HAL_Driver/Src/stm32f3xx_hal_pcd.c ****   * <h2><center>&copy; Copyright (c) 2016 STMicroelectronics.
  46:../Drivers/STM32F3xx_HAL_Driver/Src/stm32f3xx_hal_pcd.c ****   * All rights reserved.</center></h2>
  47:../Drivers/STM32F3xx_HAL_Driver/Src/stm32f3xx_hal_pcd.c ****   *
  48:../Drivers/STM32F3xx_HAL_Driver/Src/stm32f3xx_hal_pcd.c ****   * This software component is licensed by ST under BSD 3-Clause license,
  49:../Drivers/STM32F3xx_HAL_Driver/Src/stm32f3xx_hal_pcd.c ****   * the "License"; You may not use this file except in compliance with the
  50:../Drivers/STM32F3xx_HAL_Driver/Src/stm32f3xx_hal_pcd.c ****   * License. You may obtain a copy of the License at:
  51:../Drivers/STM32F3xx_HAL_Driver/Src/stm32f3xx_hal_pcd.c ****   *                        opensource.org/licenses/BSD-3-Clause
  52:../Drivers/STM32F3xx_HAL_Driver/Src/stm32f3xx_hal_pcd.c ****   *
  53:../Drivers/STM32F3xx_HAL_Driver/Src/stm32f3xx_hal_pcd.c ****   ******************************************************************************
  54:../Drivers/STM32F3xx_HAL_Driver/Src/stm32f3xx_hal_pcd.c ****   */
  55:../Drivers/STM32F3xx_HAL_Driver/Src/stm32f3xx_hal_pcd.c **** 
  56:../Drivers/STM32F3xx_HAL_Driver/Src/stm32f3xx_hal_pcd.c **** /* Includes ------------------------------------------------------------------*/
  57:../Drivers/STM32F3xx_HAL_Driver/Src/stm32f3xx_hal_pcd.c **** #include "stm32f3xx_hal.h"
  58:../Drivers/STM32F3xx_HAL_Driver/Src/stm32f3xx_hal_pcd.c **** 
  59:../Drivers/STM32F3xx_HAL_Driver/Src/stm32f3xx_hal_pcd.c **** /** @addtogroup STM32F3xx_HAL_Driver
  60:../Drivers/STM32F3xx_HAL_Driver/Src/stm32f3xx_hal_pcd.c ****   * @{
  61:../Drivers/STM32F3xx_HAL_Driver/Src/stm32f3xx_hal_pcd.c ****   */
  62:../Drivers/STM32F3xx_HAL_Driver/Src/stm32f3xx_hal_pcd.c **** 
  63:../Drivers/STM32F3xx_HAL_Driver/Src/stm32f3xx_hal_pcd.c **** /** @defgroup PCD PCD
  64:../Drivers/STM32F3xx_HAL_Driver/Src/stm32f3xx_hal_pcd.c ****   * @brief PCD HAL module driver
  65:../Drivers/STM32F3xx_HAL_Driver/Src/stm32f3xx_hal_pcd.c ****   * @{
  66:../Drivers/STM32F3xx_HAL_Driver/Src/stm32f3xx_hal_pcd.c ****   */
  67:../Drivers/STM32F3xx_HAL_Driver/Src/stm32f3xx_hal_pcd.c **** 
  68:../Drivers/STM32F3xx_HAL_Driver/Src/stm32f3xx_hal_pcd.c **** #ifdef HAL_PCD_MODULE_ENABLED
  69:../Drivers/STM32F3xx_HAL_Driver/Src/stm32f3xx_hal_pcd.c **** 
  70:../Drivers/STM32F3xx_HAL_Driver/Src/stm32f3xx_hal_pcd.c **** #if defined (USB)
  71:../Drivers/STM32F3xx_HAL_Driver/Src/stm32f3xx_hal_pcd.c **** 
  72:../Drivers/STM32F3xx_HAL_Driver/Src/stm32f3xx_hal_pcd.c **** /* Private types -------------------------------------------------------------*/
  73:../Drivers/STM32F3xx_HAL_Driver/Src/stm32f3xx_hal_pcd.c **** /* Private variables ---------------------------------------------------------*/
  74:../Drivers/STM32F3xx_HAL_Driver/Src/stm32f3xx_hal_pcd.c **** /* Private constants ---------------------------------------------------------*/
  75:../Drivers/STM32F3xx_HAL_Driver/Src/stm32f3xx_hal_pcd.c **** /* Private macros ------------------------------------------------------------*/
  76:../Drivers/STM32F3xx_HAL_Driver/Src/stm32f3xx_hal_pcd.c **** /** @defgroup PCD_Private_Macros PCD Private Macros
  77:../Drivers/STM32F3xx_HAL_Driver/Src/stm32f3xx_hal_pcd.c ****   * @{
  78:../Drivers/STM32F3xx_HAL_Driver/Src/stm32f3xx_hal_pcd.c ****   */
  79:../Drivers/STM32F3xx_HAL_Driver/Src/stm32f3xx_hal_pcd.c **** #define PCD_MIN(a, b)  (((a) < (b)) ? (a) : (b))
  80:../Drivers/STM32F3xx_HAL_Driver/Src/stm32f3xx_hal_pcd.c **** #define PCD_MAX(a, b)  (((a) > (b)) ? (a) : (b))
  81:../Drivers/STM32F3xx_HAL_Driver/Src/stm32f3xx_hal_pcd.c **** /**
  82:../Drivers/STM32F3xx_HAL_Driver/Src/stm32f3xx_hal_pcd.c ****   * @}
  83:../Drivers/STM32F3xx_HAL_Driver/Src/stm32f3xx_hal_pcd.c ****   */
  84:../Drivers/STM32F3xx_HAL_Driver/Src/stm32f3xx_hal_pcd.c **** 
  85:../Drivers/STM32F3xx_HAL_Driver/Src/stm32f3xx_hal_pcd.c **** /* Private functions prototypes ----------------------------------------------*/
  86:../Drivers/STM32F3xx_HAL_Driver/Src/stm32f3xx_hal_pcd.c **** /** @defgroup PCD_Private_Functions PCD Private Functions
  87:../Drivers/STM32F3xx_HAL_Driver/Src/stm32f3xx_hal_pcd.c ****   * @{
  88:../Drivers/STM32F3xx_HAL_Driver/Src/stm32f3xx_hal_pcd.c ****   */
ARM GAS  /tmp/ccmjhst0.s 			page 3


  89:../Drivers/STM32F3xx_HAL_Driver/Src/stm32f3xx_hal_pcd.c **** 
  90:../Drivers/STM32F3xx_HAL_Driver/Src/stm32f3xx_hal_pcd.c **** static HAL_StatusTypeDef PCD_EP_ISR_Handler(PCD_HandleTypeDef *hpcd);
  91:../Drivers/STM32F3xx_HAL_Driver/Src/stm32f3xx_hal_pcd.c **** 
  92:../Drivers/STM32F3xx_HAL_Driver/Src/stm32f3xx_hal_pcd.c **** /**
  93:../Drivers/STM32F3xx_HAL_Driver/Src/stm32f3xx_hal_pcd.c ****   * @}
  94:../Drivers/STM32F3xx_HAL_Driver/Src/stm32f3xx_hal_pcd.c ****   */
  95:../Drivers/STM32F3xx_HAL_Driver/Src/stm32f3xx_hal_pcd.c **** 
  96:../Drivers/STM32F3xx_HAL_Driver/Src/stm32f3xx_hal_pcd.c **** /* Exported functions --------------------------------------------------------*/
  97:../Drivers/STM32F3xx_HAL_Driver/Src/stm32f3xx_hal_pcd.c **** /** @defgroup PCD_Exported_Functions PCD Exported Functions
  98:../Drivers/STM32F3xx_HAL_Driver/Src/stm32f3xx_hal_pcd.c ****   * @{
  99:../Drivers/STM32F3xx_HAL_Driver/Src/stm32f3xx_hal_pcd.c ****   */
 100:../Drivers/STM32F3xx_HAL_Driver/Src/stm32f3xx_hal_pcd.c **** 
 101:../Drivers/STM32F3xx_HAL_Driver/Src/stm32f3xx_hal_pcd.c **** /** @defgroup PCD_Exported_Functions_Group1 Initialization and de-initialization functions
 102:../Drivers/STM32F3xx_HAL_Driver/Src/stm32f3xx_hal_pcd.c ****  *  @brief    Initialization and Configuration functions
 103:../Drivers/STM32F3xx_HAL_Driver/Src/stm32f3xx_hal_pcd.c ****  *
 104:../Drivers/STM32F3xx_HAL_Driver/Src/stm32f3xx_hal_pcd.c **** @verbatim
 105:../Drivers/STM32F3xx_HAL_Driver/Src/stm32f3xx_hal_pcd.c ****  ===============================================================================
 106:../Drivers/STM32F3xx_HAL_Driver/Src/stm32f3xx_hal_pcd.c ****             ##### Initialization and de-initialization functions #####
 107:../Drivers/STM32F3xx_HAL_Driver/Src/stm32f3xx_hal_pcd.c ****  ===============================================================================
 108:../Drivers/STM32F3xx_HAL_Driver/Src/stm32f3xx_hal_pcd.c ****     [..]  This section provides functions allowing to:
 109:../Drivers/STM32F3xx_HAL_Driver/Src/stm32f3xx_hal_pcd.c **** 
 110:../Drivers/STM32F3xx_HAL_Driver/Src/stm32f3xx_hal_pcd.c **** @endverbatim
 111:../Drivers/STM32F3xx_HAL_Driver/Src/stm32f3xx_hal_pcd.c ****   * @{
 112:../Drivers/STM32F3xx_HAL_Driver/Src/stm32f3xx_hal_pcd.c ****   */
 113:../Drivers/STM32F3xx_HAL_Driver/Src/stm32f3xx_hal_pcd.c **** 
 114:../Drivers/STM32F3xx_HAL_Driver/Src/stm32f3xx_hal_pcd.c **** /**
 115:../Drivers/STM32F3xx_HAL_Driver/Src/stm32f3xx_hal_pcd.c ****   * @brief  Initializes the PCD according to the specified
 116:../Drivers/STM32F3xx_HAL_Driver/Src/stm32f3xx_hal_pcd.c ****   *         parameters in the PCD_InitTypeDef and initialize the associated handle.
 117:../Drivers/STM32F3xx_HAL_Driver/Src/stm32f3xx_hal_pcd.c ****   * @param  hpcd PCD handle
 118:../Drivers/STM32F3xx_HAL_Driver/Src/stm32f3xx_hal_pcd.c ****   * @retval HAL status
 119:../Drivers/STM32F3xx_HAL_Driver/Src/stm32f3xx_hal_pcd.c ****   */
 120:../Drivers/STM32F3xx_HAL_Driver/Src/stm32f3xx_hal_pcd.c **** HAL_StatusTypeDef HAL_PCD_Init(PCD_HandleTypeDef *hpcd)
 121:../Drivers/STM32F3xx_HAL_Driver/Src/stm32f3xx_hal_pcd.c **** {
  28              		.loc 1 121 0
  29              		.cfi_startproc
  30              		@ args = 0, pretend = 0, frame = 16
  31              		@ frame_needed = 1, uses_anonymous_args = 0
  32 0000 F0B5     		push	{r4, r5, r6, r7, lr}
  33              	.LCFI0:
  34              		.cfi_def_cfa_offset 20
  35              		.cfi_offset 4, -20
  36              		.cfi_offset 5, -16
  37              		.cfi_offset 6, -12
  38              		.cfi_offset 7, -8
  39              		.cfi_offset 14, -4
  40 0002 8BB0     		sub	sp, sp, #44
  41              	.LCFI1:
  42              		.cfi_def_cfa_offset 64
  43 0004 06AF     		add	r7, sp, #24
  44              	.LCFI2:
  45              		.cfi_def_cfa 7, 40
  46 0006 7860     		str	r0, [r7, #4]
 122:../Drivers/STM32F3xx_HAL_Driver/Src/stm32f3xx_hal_pcd.c ****   uint8_t i;
 123:../Drivers/STM32F3xx_HAL_Driver/Src/stm32f3xx_hal_pcd.c **** 
 124:../Drivers/STM32F3xx_HAL_Driver/Src/stm32f3xx_hal_pcd.c ****   /* Check the PCD handle allocation */
 125:../Drivers/STM32F3xx_HAL_Driver/Src/stm32f3xx_hal_pcd.c ****   if (hpcd == NULL)
  47              		.loc 1 125 0
ARM GAS  /tmp/ccmjhst0.s 			page 4


  48 0008 7B68     		ldr	r3, [r7, #4]
  49 000a 002B     		cmp	r3, #0
  50 000c 01D1     		bne	.L2
 126:../Drivers/STM32F3xx_HAL_Driver/Src/stm32f3xx_hal_pcd.c ****   {
 127:../Drivers/STM32F3xx_HAL_Driver/Src/stm32f3xx_hal_pcd.c ****     return HAL_ERROR;
  51              		.loc 1 127 0
  52 000e 0123     		movs	r3, #1
  53 0010 A6E0     		b	.L3
  54              	.L2:
 128:../Drivers/STM32F3xx_HAL_Driver/Src/stm32f3xx_hal_pcd.c ****   }
 129:../Drivers/STM32F3xx_HAL_Driver/Src/stm32f3xx_hal_pcd.c **** 
 130:../Drivers/STM32F3xx_HAL_Driver/Src/stm32f3xx_hal_pcd.c ****   /* Check the parameters */
 131:../Drivers/STM32F3xx_HAL_Driver/Src/stm32f3xx_hal_pcd.c ****   assert_param(IS_PCD_ALL_INSTANCE(hpcd->Instance));
 132:../Drivers/STM32F3xx_HAL_Driver/Src/stm32f3xx_hal_pcd.c **** 
 133:../Drivers/STM32F3xx_HAL_Driver/Src/stm32f3xx_hal_pcd.c ****   if (hpcd->State == HAL_PCD_STATE_RESET)
  55              		.loc 1 133 0
  56 0012 7B68     		ldr	r3, [r7, #4]
  57 0014 93F82932 		ldrb	r3, [r3, #553]
  58 0018 DBB2     		uxtb	r3, r3
  59 001a 002B     		cmp	r3, #0
  60 001c 06D1     		bne	.L4
 134:../Drivers/STM32F3xx_HAL_Driver/Src/stm32f3xx_hal_pcd.c ****   {
 135:../Drivers/STM32F3xx_HAL_Driver/Src/stm32f3xx_hal_pcd.c ****     /* Allocate lock resource and initialize it */
 136:../Drivers/STM32F3xx_HAL_Driver/Src/stm32f3xx_hal_pcd.c ****     hpcd->Lock = HAL_UNLOCKED;
  61              		.loc 1 136 0
  62 001e 7B68     		ldr	r3, [r7, #4]
  63 0020 0022     		movs	r2, #0
  64 0022 83F82822 		strb	r2, [r3, #552]
 137:../Drivers/STM32F3xx_HAL_Driver/Src/stm32f3xx_hal_pcd.c **** 
 138:../Drivers/STM32F3xx_HAL_Driver/Src/stm32f3xx_hal_pcd.c **** #if (USE_HAL_PCD_REGISTER_CALLBACKS == 1U)
 139:../Drivers/STM32F3xx_HAL_Driver/Src/stm32f3xx_hal_pcd.c ****     hpcd->SOFCallback = HAL_PCD_SOFCallback;
 140:../Drivers/STM32F3xx_HAL_Driver/Src/stm32f3xx_hal_pcd.c ****     hpcd->SetupStageCallback = HAL_PCD_SetupStageCallback;
 141:../Drivers/STM32F3xx_HAL_Driver/Src/stm32f3xx_hal_pcd.c ****     hpcd->ResetCallback = HAL_PCD_ResetCallback;
 142:../Drivers/STM32F3xx_HAL_Driver/Src/stm32f3xx_hal_pcd.c ****     hpcd->SuspendCallback = HAL_PCD_SuspendCallback;
 143:../Drivers/STM32F3xx_HAL_Driver/Src/stm32f3xx_hal_pcd.c ****     hpcd->ResumeCallback = HAL_PCD_ResumeCallback;
 144:../Drivers/STM32F3xx_HAL_Driver/Src/stm32f3xx_hal_pcd.c ****     hpcd->ConnectCallback = HAL_PCD_ConnectCallback;
 145:../Drivers/STM32F3xx_HAL_Driver/Src/stm32f3xx_hal_pcd.c ****     hpcd->DisconnectCallback = HAL_PCD_DisconnectCallback;
 146:../Drivers/STM32F3xx_HAL_Driver/Src/stm32f3xx_hal_pcd.c ****     hpcd->DataOutStageCallback = HAL_PCD_DataOutStageCallback;
 147:../Drivers/STM32F3xx_HAL_Driver/Src/stm32f3xx_hal_pcd.c ****     hpcd->DataInStageCallback = HAL_PCD_DataInStageCallback;
 148:../Drivers/STM32F3xx_HAL_Driver/Src/stm32f3xx_hal_pcd.c ****     hpcd->ISOOUTIncompleteCallback = HAL_PCD_ISOOUTIncompleteCallback;
 149:../Drivers/STM32F3xx_HAL_Driver/Src/stm32f3xx_hal_pcd.c ****     hpcd->ISOINIncompleteCallback = HAL_PCD_ISOINIncompleteCallback;
 150:../Drivers/STM32F3xx_HAL_Driver/Src/stm32f3xx_hal_pcd.c **** 
 151:../Drivers/STM32F3xx_HAL_Driver/Src/stm32f3xx_hal_pcd.c ****     if (hpcd->MspInitCallback == NULL)
 152:../Drivers/STM32F3xx_HAL_Driver/Src/stm32f3xx_hal_pcd.c ****     {
 153:../Drivers/STM32F3xx_HAL_Driver/Src/stm32f3xx_hal_pcd.c ****       hpcd->MspInitCallback = HAL_PCD_MspInit;
 154:../Drivers/STM32F3xx_HAL_Driver/Src/stm32f3xx_hal_pcd.c ****     }
 155:../Drivers/STM32F3xx_HAL_Driver/Src/stm32f3xx_hal_pcd.c **** 
 156:../Drivers/STM32F3xx_HAL_Driver/Src/stm32f3xx_hal_pcd.c ****     /* Init the low level hardware */
 157:../Drivers/STM32F3xx_HAL_Driver/Src/stm32f3xx_hal_pcd.c ****     hpcd->MspInitCallback(hpcd);
 158:../Drivers/STM32F3xx_HAL_Driver/Src/stm32f3xx_hal_pcd.c **** #else
 159:../Drivers/STM32F3xx_HAL_Driver/Src/stm32f3xx_hal_pcd.c ****     /* Init the low level hardware : GPIO, CLOCK, NVIC... */
 160:../Drivers/STM32F3xx_HAL_Driver/Src/stm32f3xx_hal_pcd.c ****     HAL_PCD_MspInit(hpcd);
  65              		.loc 1 160 0
  66 0026 7868     		ldr	r0, [r7, #4]
  67 0028 FFF7FEFF 		bl	HAL_PCD_MspInit
  68              	.L4:
 161:../Drivers/STM32F3xx_HAL_Driver/Src/stm32f3xx_hal_pcd.c **** #endif /* (USE_HAL_PCD_REGISTER_CALLBACKS) */
ARM GAS  /tmp/ccmjhst0.s 			page 5


 162:../Drivers/STM32F3xx_HAL_Driver/Src/stm32f3xx_hal_pcd.c ****   }
 163:../Drivers/STM32F3xx_HAL_Driver/Src/stm32f3xx_hal_pcd.c **** 
 164:../Drivers/STM32F3xx_HAL_Driver/Src/stm32f3xx_hal_pcd.c ****   hpcd->State = HAL_PCD_STATE_BUSY;
  69              		.loc 1 164 0
  70 002c 7B68     		ldr	r3, [r7, #4]
  71 002e 0322     		movs	r2, #3
  72 0030 83F82922 		strb	r2, [r3, #553]
 165:../Drivers/STM32F3xx_HAL_Driver/Src/stm32f3xx_hal_pcd.c **** 
 166:../Drivers/STM32F3xx_HAL_Driver/Src/stm32f3xx_hal_pcd.c ****   /* Disable the Interrupts */
 167:../Drivers/STM32F3xx_HAL_Driver/Src/stm32f3xx_hal_pcd.c ****   __HAL_PCD_DISABLE(hpcd);
  73              		.loc 1 167 0
  74 0034 7B68     		ldr	r3, [r7, #4]
  75 0036 1B68     		ldr	r3, [r3]
  76 0038 1846     		mov	r0, r3
  77 003a FFF7FEFF 		bl	USB_DisableGlobalInt
 168:../Drivers/STM32F3xx_HAL_Driver/Src/stm32f3xx_hal_pcd.c **** 
 169:../Drivers/STM32F3xx_HAL_Driver/Src/stm32f3xx_hal_pcd.c ****   /* Init endpoints structures */
 170:../Drivers/STM32F3xx_HAL_Driver/Src/stm32f3xx_hal_pcd.c ****   for (i = 0U; i < hpcd->Init.dev_endpoints; i++)
  78              		.loc 1 170 0
  79 003e 0023     		movs	r3, #0
  80 0040 FB73     		strb	r3, [r7, #15]
  81 0042 35E0     		b	.L5
  82              	.L6:
 171:../Drivers/STM32F3xx_HAL_Driver/Src/stm32f3xx_hal_pcd.c ****   {
 172:../Drivers/STM32F3xx_HAL_Driver/Src/stm32f3xx_hal_pcd.c ****     /* Init ep structure */
 173:../Drivers/STM32F3xx_HAL_Driver/Src/stm32f3xx_hal_pcd.c ****     hpcd->IN_ep[i].is_in = 1U;
  83              		.loc 1 173 0 discriminator 3
  84 0044 FB7B     		ldrb	r3, [r7, #15]	@ zero_extendqisi2
  85 0046 7A68     		ldr	r2, [r7, #4]
  86 0048 5B01     		lsls	r3, r3, #5
  87 004a 1344     		add	r3, r3, r2
  88 004c 2933     		adds	r3, r3, #41
  89 004e 0122     		movs	r2, #1
  90 0050 1A70     		strb	r2, [r3]
 174:../Drivers/STM32F3xx_HAL_Driver/Src/stm32f3xx_hal_pcd.c ****     hpcd->IN_ep[i].num = i;
  91              		.loc 1 174 0 discriminator 3
  92 0052 FB7B     		ldrb	r3, [r7, #15]	@ zero_extendqisi2
  93 0054 7A68     		ldr	r2, [r7, #4]
  94 0056 5B01     		lsls	r3, r3, #5
  95 0058 1344     		add	r3, r3, r2
  96 005a 2833     		adds	r3, r3, #40
  97 005c FA7B     		ldrb	r2, [r7, #15]
  98 005e 1A70     		strb	r2, [r3]
 175:../Drivers/STM32F3xx_HAL_Driver/Src/stm32f3xx_hal_pcd.c ****     hpcd->IN_ep[i].tx_fifo_num = i;
  99              		.loc 1 175 0 discriminator 3
 100 0060 FB7B     		ldrb	r3, [r7, #15]	@ zero_extendqisi2
 101 0062 FA7B     		ldrb	r2, [r7, #15]	@ zero_extendqisi2
 102 0064 91B2     		uxth	r1, r2
 103 0066 7A68     		ldr	r2, [r7, #4]
 104 0068 5B01     		lsls	r3, r3, #5
 105 006a 1344     		add	r3, r3, r2
 106 006c 3633     		adds	r3, r3, #54
 107 006e 0A46     		mov	r2, r1	@ movhi
 108 0070 1A80     		strh	r2, [r3]	@ movhi
 176:../Drivers/STM32F3xx_HAL_Driver/Src/stm32f3xx_hal_pcd.c ****     /* Control until ep is activated */
 177:../Drivers/STM32F3xx_HAL_Driver/Src/stm32f3xx_hal_pcd.c ****     hpcd->IN_ep[i].type = EP_TYPE_CTRL;
 109              		.loc 1 177 0 discriminator 3
ARM GAS  /tmp/ccmjhst0.s 			page 6


 110 0072 FB7B     		ldrb	r3, [r7, #15]	@ zero_extendqisi2
 111 0074 7A68     		ldr	r2, [r7, #4]
 112 0076 5B01     		lsls	r3, r3, #5
 113 0078 1344     		add	r3, r3, r2
 114 007a 2B33     		adds	r3, r3, #43
 115 007c 0022     		movs	r2, #0
 116 007e 1A70     		strb	r2, [r3]
 178:../Drivers/STM32F3xx_HAL_Driver/Src/stm32f3xx_hal_pcd.c ****     hpcd->IN_ep[i].maxpacket = 0U;
 117              		.loc 1 178 0 discriminator 3
 118 0080 FB7B     		ldrb	r3, [r7, #15]	@ zero_extendqisi2
 119 0082 7A68     		ldr	r2, [r7, #4]
 120 0084 5B01     		lsls	r3, r3, #5
 121 0086 1344     		add	r3, r3, r2
 122 0088 3833     		adds	r3, r3, #56
 123 008a 0022     		movs	r2, #0
 124 008c 1A60     		str	r2, [r3]
 179:../Drivers/STM32F3xx_HAL_Driver/Src/stm32f3xx_hal_pcd.c ****     hpcd->IN_ep[i].xfer_buff = 0U;
 125              		.loc 1 179 0 discriminator 3
 126 008e FB7B     		ldrb	r3, [r7, #15]	@ zero_extendqisi2
 127 0090 7A68     		ldr	r2, [r7, #4]
 128 0092 5B01     		lsls	r3, r3, #5
 129 0094 1344     		add	r3, r3, r2
 130 0096 3C33     		adds	r3, r3, #60
 131 0098 0022     		movs	r2, #0
 132 009a 1A60     		str	r2, [r3]
 180:../Drivers/STM32F3xx_HAL_Driver/Src/stm32f3xx_hal_pcd.c ****     hpcd->IN_ep[i].xfer_len = 0U;
 133              		.loc 1 180 0 discriminator 3
 134 009c FB7B     		ldrb	r3, [r7, #15]	@ zero_extendqisi2
 135 009e 7A68     		ldr	r2, [r7, #4]
 136 00a0 0233     		adds	r3, r3, #2
 137 00a2 5B01     		lsls	r3, r3, #5
 138 00a4 1344     		add	r3, r3, r2
 139 00a6 0022     		movs	r2, #0
 140 00a8 1A60     		str	r2, [r3]
 170:../Drivers/STM32F3xx_HAL_Driver/Src/stm32f3xx_hal_pcd.c ****   {
 141              		.loc 1 170 0 discriminator 3
 142 00aa FB7B     		ldrb	r3, [r7, #15]	@ zero_extendqisi2
 143 00ac 0133     		adds	r3, r3, #1
 144 00ae FB73     		strb	r3, [r7, #15]
 145              	.L5:
 170:../Drivers/STM32F3xx_HAL_Driver/Src/stm32f3xx_hal_pcd.c ****   {
 146              		.loc 1 170 0 is_stmt 0 discriminator 1
 147 00b0 FA7B     		ldrb	r2, [r7, #15]	@ zero_extendqisi2
 148 00b2 7B68     		ldr	r3, [r7, #4]
 149 00b4 5B68     		ldr	r3, [r3, #4]
 150 00b6 9A42     		cmp	r2, r3
 151 00b8 C4D3     		bcc	.L6
 181:../Drivers/STM32F3xx_HAL_Driver/Src/stm32f3xx_hal_pcd.c ****   }
 182:../Drivers/STM32F3xx_HAL_Driver/Src/stm32f3xx_hal_pcd.c **** 
 183:../Drivers/STM32F3xx_HAL_Driver/Src/stm32f3xx_hal_pcd.c ****   for (i = 0U; i < hpcd->Init.dev_endpoints; i++)
 152              		.loc 1 183 0 is_stmt 1
 153 00ba 0023     		movs	r3, #0
 154 00bc FB73     		strb	r3, [r7, #15]
 155 00be 31E0     		b	.L7
 156              	.L8:
 184:../Drivers/STM32F3xx_HAL_Driver/Src/stm32f3xx_hal_pcd.c ****   {
 185:../Drivers/STM32F3xx_HAL_Driver/Src/stm32f3xx_hal_pcd.c ****     hpcd->OUT_ep[i].is_in = 0U;
ARM GAS  /tmp/ccmjhst0.s 			page 7


 157              		.loc 1 185 0 discriminator 3
 158 00c0 FB7B     		ldrb	r3, [r7, #15]	@ zero_extendqisi2
 159 00c2 7A68     		ldr	r2, [r7, #4]
 160 00c4 5B01     		lsls	r3, r3, #5
 161 00c6 1344     		add	r3, r3, r2
 162 00c8 03F22913 		addw	r3, r3, #297
 163 00cc 0022     		movs	r2, #0
 164 00ce 1A70     		strb	r2, [r3]
 186:../Drivers/STM32F3xx_HAL_Driver/Src/stm32f3xx_hal_pcd.c ****     hpcd->OUT_ep[i].num = i;
 165              		.loc 1 186 0 discriminator 3
 166 00d0 FB7B     		ldrb	r3, [r7, #15]	@ zero_extendqisi2
 167 00d2 7A68     		ldr	r2, [r7, #4]
 168 00d4 5B01     		lsls	r3, r3, #5
 169 00d6 1344     		add	r3, r3, r2
 170 00d8 03F59473 		add	r3, r3, #296
 171 00dc FA7B     		ldrb	r2, [r7, #15]
 172 00de 1A70     		strb	r2, [r3]
 187:../Drivers/STM32F3xx_HAL_Driver/Src/stm32f3xx_hal_pcd.c ****     /* Control until ep is activated */
 188:../Drivers/STM32F3xx_HAL_Driver/Src/stm32f3xx_hal_pcd.c ****     hpcd->OUT_ep[i].type = EP_TYPE_CTRL;
 173              		.loc 1 188 0 discriminator 3
 174 00e0 FB7B     		ldrb	r3, [r7, #15]	@ zero_extendqisi2
 175 00e2 7A68     		ldr	r2, [r7, #4]
 176 00e4 5B01     		lsls	r3, r3, #5
 177 00e6 1344     		add	r3, r3, r2
 178 00e8 03F22B13 		addw	r3, r3, #299
 179 00ec 0022     		movs	r2, #0
 180 00ee 1A70     		strb	r2, [r3]
 189:../Drivers/STM32F3xx_HAL_Driver/Src/stm32f3xx_hal_pcd.c ****     hpcd->OUT_ep[i].maxpacket = 0U;
 181              		.loc 1 189 0 discriminator 3
 182 00f0 FB7B     		ldrb	r3, [r7, #15]	@ zero_extendqisi2
 183 00f2 7A68     		ldr	r2, [r7, #4]
 184 00f4 5B01     		lsls	r3, r3, #5
 185 00f6 1344     		add	r3, r3, r2
 186 00f8 03F59C73 		add	r3, r3, #312
 187 00fc 0022     		movs	r2, #0
 188 00fe 1A60     		str	r2, [r3]
 190:../Drivers/STM32F3xx_HAL_Driver/Src/stm32f3xx_hal_pcd.c ****     hpcd->OUT_ep[i].xfer_buff = 0U;
 189              		.loc 1 190 0 discriminator 3
 190 0100 FB7B     		ldrb	r3, [r7, #15]	@ zero_extendqisi2
 191 0102 7A68     		ldr	r2, [r7, #4]
 192 0104 5B01     		lsls	r3, r3, #5
 193 0106 1344     		add	r3, r3, r2
 194 0108 03F59E73 		add	r3, r3, #316
 195 010c 0022     		movs	r2, #0
 196 010e 1A60     		str	r2, [r3]
 191:../Drivers/STM32F3xx_HAL_Driver/Src/stm32f3xx_hal_pcd.c ****     hpcd->OUT_ep[i].xfer_len = 0U;
 197              		.loc 1 191 0 discriminator 3
 198 0110 FB7B     		ldrb	r3, [r7, #15]	@ zero_extendqisi2
 199 0112 7A68     		ldr	r2, [r7, #4]
 200 0114 0A33     		adds	r3, r3, #10
 201 0116 5B01     		lsls	r3, r3, #5
 202 0118 1344     		add	r3, r3, r2
 203 011a 0022     		movs	r2, #0
 204 011c 1A60     		str	r2, [r3]
 183:../Drivers/STM32F3xx_HAL_Driver/Src/stm32f3xx_hal_pcd.c ****   {
 205              		.loc 1 183 0 discriminator 3
 206 011e FB7B     		ldrb	r3, [r7, #15]	@ zero_extendqisi2
ARM GAS  /tmp/ccmjhst0.s 			page 8


 207 0120 0133     		adds	r3, r3, #1
 208 0122 FB73     		strb	r3, [r7, #15]
 209              	.L7:
 183:../Drivers/STM32F3xx_HAL_Driver/Src/stm32f3xx_hal_pcd.c ****   {
 210              		.loc 1 183 0 is_stmt 0 discriminator 1
 211 0124 FA7B     		ldrb	r2, [r7, #15]	@ zero_extendqisi2
 212 0126 7B68     		ldr	r3, [r7, #4]
 213 0128 5B68     		ldr	r3, [r3, #4]
 214 012a 9A42     		cmp	r2, r3
 215 012c C8D3     		bcc	.L8
 192:../Drivers/STM32F3xx_HAL_Driver/Src/stm32f3xx_hal_pcd.c ****   }
 193:../Drivers/STM32F3xx_HAL_Driver/Src/stm32f3xx_hal_pcd.c **** 
 194:../Drivers/STM32F3xx_HAL_Driver/Src/stm32f3xx_hal_pcd.c ****   /* Init Device */
 195:../Drivers/STM32F3xx_HAL_Driver/Src/stm32f3xx_hal_pcd.c ****   (void)USB_DevInit(hpcd->Instance, hpcd->Init);
 216              		.loc 1 195 0 is_stmt 1
 217 012e 7B68     		ldr	r3, [r7, #4]
 218 0130 1B68     		ldr	r3, [r3]
 219 0132 3B60     		str	r3, [r7]
 220 0134 7E68     		ldr	r6, [r7, #4]
 221 0136 6D46     		mov	r5, sp
 222 0138 06F11004 		add	r4, r6, #16
 223 013c 0FCC     		ldmia	r4!, {r0, r1, r2, r3}
 224 013e 0FC5     		stmia	r5!, {r0, r1, r2, r3}
 225 0140 2368     		ldr	r3, [r4]
 226 0142 2B60     		str	r3, [r5]
 227 0144 331D     		adds	r3, r6, #4
 228 0146 0ECB     		ldm	r3, {r1, r2, r3}
 229 0148 3868     		ldr	r0, [r7]
 230 014a FFF7FEFF 		bl	USB_DevInit
 196:../Drivers/STM32F3xx_HAL_Driver/Src/stm32f3xx_hal_pcd.c **** 
 197:../Drivers/STM32F3xx_HAL_Driver/Src/stm32f3xx_hal_pcd.c ****   hpcd->USB_Address = 0U;
 231              		.loc 1 197 0
 232 014e 7B68     		ldr	r3, [r7, #4]
 233 0150 0022     		movs	r2, #0
 234 0152 83F82420 		strb	r2, [r3, #36]
 198:../Drivers/STM32F3xx_HAL_Driver/Src/stm32f3xx_hal_pcd.c ****   hpcd->State = HAL_PCD_STATE_READY;
 235              		.loc 1 198 0
 236 0156 7B68     		ldr	r3, [r7, #4]
 237 0158 0122     		movs	r2, #1
 238 015a 83F82922 		strb	r2, [r3, #553]
 199:../Drivers/STM32F3xx_HAL_Driver/Src/stm32f3xx_hal_pcd.c ****   return HAL_OK;
 239              		.loc 1 199 0
 240 015e 0023     		movs	r3, #0
 241              	.L3:
 200:../Drivers/STM32F3xx_HAL_Driver/Src/stm32f3xx_hal_pcd.c **** }
 242              		.loc 1 200 0
 243 0160 1846     		mov	r0, r3
 244 0162 1437     		adds	r7, r7, #20
 245              	.LCFI3:
 246              		.cfi_def_cfa_offset 20
 247 0164 BD46     		mov	sp, r7
 248              	.LCFI4:
 249              		.cfi_def_cfa_register 13
 250              		@ sp needed
 251 0166 F0BD     		pop	{r4, r5, r6, r7, pc}
 252              		.cfi_endproc
 253              	.LFE130:
ARM GAS  /tmp/ccmjhst0.s 			page 9


 255              		.section	.text.HAL_PCD_DeInit,"ax",%progbits
 256              		.align	1
 257              		.global	HAL_PCD_DeInit
 258              		.syntax unified
 259              		.thumb
 260              		.thumb_func
 261              		.fpu fpv4-sp-d16
 263              	HAL_PCD_DeInit:
 264              	.LFB131:
 201:../Drivers/STM32F3xx_HAL_Driver/Src/stm32f3xx_hal_pcd.c **** 
 202:../Drivers/STM32F3xx_HAL_Driver/Src/stm32f3xx_hal_pcd.c **** /**
 203:../Drivers/STM32F3xx_HAL_Driver/Src/stm32f3xx_hal_pcd.c ****   * @brief  DeInitializes the PCD peripheral.
 204:../Drivers/STM32F3xx_HAL_Driver/Src/stm32f3xx_hal_pcd.c ****   * @param  hpcd PCD handle
 205:../Drivers/STM32F3xx_HAL_Driver/Src/stm32f3xx_hal_pcd.c ****   * @retval HAL status
 206:../Drivers/STM32F3xx_HAL_Driver/Src/stm32f3xx_hal_pcd.c ****   */
 207:../Drivers/STM32F3xx_HAL_Driver/Src/stm32f3xx_hal_pcd.c **** HAL_StatusTypeDef HAL_PCD_DeInit(PCD_HandleTypeDef *hpcd)
 208:../Drivers/STM32F3xx_HAL_Driver/Src/stm32f3xx_hal_pcd.c **** {
 265              		.loc 1 208 0
 266              		.cfi_startproc
 267              		@ args = 0, pretend = 0, frame = 8
 268              		@ frame_needed = 1, uses_anonymous_args = 0
 269 0000 80B5     		push	{r7, lr}
 270              	.LCFI5:
 271              		.cfi_def_cfa_offset 8
 272              		.cfi_offset 7, -8
 273              		.cfi_offset 14, -4
 274 0002 82B0     		sub	sp, sp, #8
 275              	.LCFI6:
 276              		.cfi_def_cfa_offset 16
 277 0004 00AF     		add	r7, sp, #0
 278              	.LCFI7:
 279              		.cfi_def_cfa_register 7
 280 0006 7860     		str	r0, [r7, #4]
 209:../Drivers/STM32F3xx_HAL_Driver/Src/stm32f3xx_hal_pcd.c ****   /* Check the PCD handle allocation */
 210:../Drivers/STM32F3xx_HAL_Driver/Src/stm32f3xx_hal_pcd.c ****   if (hpcd == NULL)
 281              		.loc 1 210 0
 282 0008 7B68     		ldr	r3, [r7, #4]
 283 000a 002B     		cmp	r3, #0
 284 000c 01D1     		bne	.L10
 211:../Drivers/STM32F3xx_HAL_Driver/Src/stm32f3xx_hal_pcd.c ****   {
 212:../Drivers/STM32F3xx_HAL_Driver/Src/stm32f3xx_hal_pcd.c ****     return HAL_ERROR;
 285              		.loc 1 212 0
 286 000e 0123     		movs	r3, #1
 287 0010 0EE0     		b	.L11
 288              	.L10:
 213:../Drivers/STM32F3xx_HAL_Driver/Src/stm32f3xx_hal_pcd.c ****   }
 214:../Drivers/STM32F3xx_HAL_Driver/Src/stm32f3xx_hal_pcd.c **** 
 215:../Drivers/STM32F3xx_HAL_Driver/Src/stm32f3xx_hal_pcd.c ****   hpcd->State = HAL_PCD_STATE_BUSY;
 289              		.loc 1 215 0
 290 0012 7B68     		ldr	r3, [r7, #4]
 291 0014 0322     		movs	r2, #3
 292 0016 83F82922 		strb	r2, [r3, #553]
 216:../Drivers/STM32F3xx_HAL_Driver/Src/stm32f3xx_hal_pcd.c **** 
 217:../Drivers/STM32F3xx_HAL_Driver/Src/stm32f3xx_hal_pcd.c ****   /* Stop Device */
 218:../Drivers/STM32F3xx_HAL_Driver/Src/stm32f3xx_hal_pcd.c ****   (void)HAL_PCD_Stop(hpcd);
 293              		.loc 1 218 0
 294 001a 7868     		ldr	r0, [r7, #4]
ARM GAS  /tmp/ccmjhst0.s 			page 10


 295 001c FFF7FEFF 		bl	HAL_PCD_Stop
 219:../Drivers/STM32F3xx_HAL_Driver/Src/stm32f3xx_hal_pcd.c **** 
 220:../Drivers/STM32F3xx_HAL_Driver/Src/stm32f3xx_hal_pcd.c **** #if (USE_HAL_PCD_REGISTER_CALLBACKS == 1U)
 221:../Drivers/STM32F3xx_HAL_Driver/Src/stm32f3xx_hal_pcd.c ****   if (hpcd->MspDeInitCallback == NULL)
 222:../Drivers/STM32F3xx_HAL_Driver/Src/stm32f3xx_hal_pcd.c ****   {
 223:../Drivers/STM32F3xx_HAL_Driver/Src/stm32f3xx_hal_pcd.c ****     hpcd->MspDeInitCallback = HAL_PCD_MspDeInit; /* Legacy weak MspDeInit  */
 224:../Drivers/STM32F3xx_HAL_Driver/Src/stm32f3xx_hal_pcd.c ****   }
 225:../Drivers/STM32F3xx_HAL_Driver/Src/stm32f3xx_hal_pcd.c **** 
 226:../Drivers/STM32F3xx_HAL_Driver/Src/stm32f3xx_hal_pcd.c ****   /* DeInit the low level hardware */
 227:../Drivers/STM32F3xx_HAL_Driver/Src/stm32f3xx_hal_pcd.c ****   hpcd->MspDeInitCallback(hpcd);
 228:../Drivers/STM32F3xx_HAL_Driver/Src/stm32f3xx_hal_pcd.c **** #else
 229:../Drivers/STM32F3xx_HAL_Driver/Src/stm32f3xx_hal_pcd.c ****   /* DeInit the low level hardware: CLOCK, NVIC.*/
 230:../Drivers/STM32F3xx_HAL_Driver/Src/stm32f3xx_hal_pcd.c ****   HAL_PCD_MspDeInit(hpcd);
 296              		.loc 1 230 0
 297 0020 7868     		ldr	r0, [r7, #4]
 298 0022 FFF7FEFF 		bl	HAL_PCD_MspDeInit
 231:../Drivers/STM32F3xx_HAL_Driver/Src/stm32f3xx_hal_pcd.c **** #endif /* USE_HAL_PCD_REGISTER_CALLBACKS */
 232:../Drivers/STM32F3xx_HAL_Driver/Src/stm32f3xx_hal_pcd.c **** 
 233:../Drivers/STM32F3xx_HAL_Driver/Src/stm32f3xx_hal_pcd.c ****   hpcd->State = HAL_PCD_STATE_RESET;
 299              		.loc 1 233 0
 300 0026 7B68     		ldr	r3, [r7, #4]
 301 0028 0022     		movs	r2, #0
 302 002a 83F82922 		strb	r2, [r3, #553]
 234:../Drivers/STM32F3xx_HAL_Driver/Src/stm32f3xx_hal_pcd.c **** 
 235:../Drivers/STM32F3xx_HAL_Driver/Src/stm32f3xx_hal_pcd.c ****   return HAL_OK;
 303              		.loc 1 235 0
 304 002e 0023     		movs	r3, #0
 305              	.L11:
 236:../Drivers/STM32F3xx_HAL_Driver/Src/stm32f3xx_hal_pcd.c **** }
 306              		.loc 1 236 0
 307 0030 1846     		mov	r0, r3
 308 0032 0837     		adds	r7, r7, #8
 309              	.LCFI8:
 310              		.cfi_def_cfa_offset 8
 311 0034 BD46     		mov	sp, r7
 312              	.LCFI9:
 313              		.cfi_def_cfa_register 13
 314              		@ sp needed
 315 0036 80BD     		pop	{r7, pc}
 316              		.cfi_endproc
 317              	.LFE131:
 319              		.section	.text.HAL_PCD_MspInit,"ax",%progbits
 320              		.align	1
 321              		.weak	HAL_PCD_MspInit
 322              		.syntax unified
 323              		.thumb
 324              		.thumb_func
 325              		.fpu fpv4-sp-d16
 327              	HAL_PCD_MspInit:
 328              	.LFB132:
 237:../Drivers/STM32F3xx_HAL_Driver/Src/stm32f3xx_hal_pcd.c **** 
 238:../Drivers/STM32F3xx_HAL_Driver/Src/stm32f3xx_hal_pcd.c **** /**
 239:../Drivers/STM32F3xx_HAL_Driver/Src/stm32f3xx_hal_pcd.c ****   * @brief  Initializes the PCD MSP.
 240:../Drivers/STM32F3xx_HAL_Driver/Src/stm32f3xx_hal_pcd.c ****   * @param  hpcd PCD handle
 241:../Drivers/STM32F3xx_HAL_Driver/Src/stm32f3xx_hal_pcd.c ****   * @retval None
 242:../Drivers/STM32F3xx_HAL_Driver/Src/stm32f3xx_hal_pcd.c ****   */
 243:../Drivers/STM32F3xx_HAL_Driver/Src/stm32f3xx_hal_pcd.c **** __weak void HAL_PCD_MspInit(PCD_HandleTypeDef *hpcd)
ARM GAS  /tmp/ccmjhst0.s 			page 11


 244:../Drivers/STM32F3xx_HAL_Driver/Src/stm32f3xx_hal_pcd.c **** {
 329              		.loc 1 244 0
 330              		.cfi_startproc
 331              		@ args = 0, pretend = 0, frame = 8
 332              		@ frame_needed = 1, uses_anonymous_args = 0
 333              		@ link register save eliminated.
 334 0000 80B4     		push	{r7}
 335              	.LCFI10:
 336              		.cfi_def_cfa_offset 4
 337              		.cfi_offset 7, -4
 338 0002 83B0     		sub	sp, sp, #12
 339              	.LCFI11:
 340              		.cfi_def_cfa_offset 16
 341 0004 00AF     		add	r7, sp, #0
 342              	.LCFI12:
 343              		.cfi_def_cfa_register 7
 344 0006 7860     		str	r0, [r7, #4]
 245:../Drivers/STM32F3xx_HAL_Driver/Src/stm32f3xx_hal_pcd.c ****   /* Prevent unused argument(s) compilation warning */
 246:../Drivers/STM32F3xx_HAL_Driver/Src/stm32f3xx_hal_pcd.c ****   UNUSED(hpcd);
 247:../Drivers/STM32F3xx_HAL_Driver/Src/stm32f3xx_hal_pcd.c **** 
 248:../Drivers/STM32F3xx_HAL_Driver/Src/stm32f3xx_hal_pcd.c ****   /* NOTE : This function should not be modified, when the callback is needed,
 249:../Drivers/STM32F3xx_HAL_Driver/Src/stm32f3xx_hal_pcd.c ****             the HAL_PCD_MspInit could be implemented in the user file
 250:../Drivers/STM32F3xx_HAL_Driver/Src/stm32f3xx_hal_pcd.c ****    */
 251:../Drivers/STM32F3xx_HAL_Driver/Src/stm32f3xx_hal_pcd.c **** }
 345              		.loc 1 251 0
 346 0008 00BF     		nop
 347 000a 0C37     		adds	r7, r7, #12
 348              	.LCFI13:
 349              		.cfi_def_cfa_offset 4
 350 000c BD46     		mov	sp, r7
 351              	.LCFI14:
 352              		.cfi_def_cfa_register 13
 353              		@ sp needed
 354 000e 5DF8047B 		ldr	r7, [sp], #4
 355              	.LCFI15:
 356              		.cfi_restore 7
 357              		.cfi_def_cfa_offset 0
 358 0012 7047     		bx	lr
 359              		.cfi_endproc
 360              	.LFE132:
 362              		.section	.text.HAL_PCD_MspDeInit,"ax",%progbits
 363              		.align	1
 364              		.weak	HAL_PCD_MspDeInit
 365              		.syntax unified
 366              		.thumb
 367              		.thumb_func
 368              		.fpu fpv4-sp-d16
 370              	HAL_PCD_MspDeInit:
 371              	.LFB133:
 252:../Drivers/STM32F3xx_HAL_Driver/Src/stm32f3xx_hal_pcd.c **** 
 253:../Drivers/STM32F3xx_HAL_Driver/Src/stm32f3xx_hal_pcd.c **** /**
 254:../Drivers/STM32F3xx_HAL_Driver/Src/stm32f3xx_hal_pcd.c ****   * @brief  DeInitializes PCD MSP.
 255:../Drivers/STM32F3xx_HAL_Driver/Src/stm32f3xx_hal_pcd.c ****   * @param  hpcd PCD handle
 256:../Drivers/STM32F3xx_HAL_Driver/Src/stm32f3xx_hal_pcd.c ****   * @retval None
 257:../Drivers/STM32F3xx_HAL_Driver/Src/stm32f3xx_hal_pcd.c ****   */
 258:../Drivers/STM32F3xx_HAL_Driver/Src/stm32f3xx_hal_pcd.c **** __weak void HAL_PCD_MspDeInit(PCD_HandleTypeDef *hpcd)
 259:../Drivers/STM32F3xx_HAL_Driver/Src/stm32f3xx_hal_pcd.c **** {
ARM GAS  /tmp/ccmjhst0.s 			page 12


 372              		.loc 1 259 0
 373              		.cfi_startproc
 374              		@ args = 0, pretend = 0, frame = 8
 375              		@ frame_needed = 1, uses_anonymous_args = 0
 376              		@ link register save eliminated.
 377 0000 80B4     		push	{r7}
 378              	.LCFI16:
 379              		.cfi_def_cfa_offset 4
 380              		.cfi_offset 7, -4
 381 0002 83B0     		sub	sp, sp, #12
 382              	.LCFI17:
 383              		.cfi_def_cfa_offset 16
 384 0004 00AF     		add	r7, sp, #0
 385              	.LCFI18:
 386              		.cfi_def_cfa_register 7
 387 0006 7860     		str	r0, [r7, #4]
 260:../Drivers/STM32F3xx_HAL_Driver/Src/stm32f3xx_hal_pcd.c ****   /* Prevent unused argument(s) compilation warning */
 261:../Drivers/STM32F3xx_HAL_Driver/Src/stm32f3xx_hal_pcd.c ****   UNUSED(hpcd);
 262:../Drivers/STM32F3xx_HAL_Driver/Src/stm32f3xx_hal_pcd.c **** 
 263:../Drivers/STM32F3xx_HAL_Driver/Src/stm32f3xx_hal_pcd.c ****   /* NOTE : This function should not be modified, when the callback is needed,
 264:../Drivers/STM32F3xx_HAL_Driver/Src/stm32f3xx_hal_pcd.c ****             the HAL_PCD_MspDeInit could be implemented in the user file
 265:../Drivers/STM32F3xx_HAL_Driver/Src/stm32f3xx_hal_pcd.c ****    */
 266:../Drivers/STM32F3xx_HAL_Driver/Src/stm32f3xx_hal_pcd.c **** }
 388              		.loc 1 266 0
 389 0008 00BF     		nop
 390 000a 0C37     		adds	r7, r7, #12
 391              	.LCFI19:
 392              		.cfi_def_cfa_offset 4
 393 000c BD46     		mov	sp, r7
 394              	.LCFI20:
 395              		.cfi_def_cfa_register 13
 396              		@ sp needed
 397 000e 5DF8047B 		ldr	r7, [sp], #4
 398              	.LCFI21:
 399              		.cfi_restore 7
 400              		.cfi_def_cfa_offset 0
 401 0012 7047     		bx	lr
 402              		.cfi_endproc
 403              	.LFE133:
 405              		.section	.text.HAL_PCD_Start,"ax",%progbits
 406              		.align	1
 407              		.global	HAL_PCD_Start
 408              		.syntax unified
 409              		.thumb
 410              		.thumb_func
 411              		.fpu fpv4-sp-d16
 413              	HAL_PCD_Start:
 414              	.LFB134:
 267:../Drivers/STM32F3xx_HAL_Driver/Src/stm32f3xx_hal_pcd.c **** 
 268:../Drivers/STM32F3xx_HAL_Driver/Src/stm32f3xx_hal_pcd.c **** #if (USE_HAL_PCD_REGISTER_CALLBACKS == 1U)
 269:../Drivers/STM32F3xx_HAL_Driver/Src/stm32f3xx_hal_pcd.c **** /**
 270:../Drivers/STM32F3xx_HAL_Driver/Src/stm32f3xx_hal_pcd.c ****   * @brief  Register a User USB PCD Callback
 271:../Drivers/STM32F3xx_HAL_Driver/Src/stm32f3xx_hal_pcd.c ****   *         To be used instead of the weak predefined callback
 272:../Drivers/STM32F3xx_HAL_Driver/Src/stm32f3xx_hal_pcd.c ****   * @param  hpcd USB PCD handle
 273:../Drivers/STM32F3xx_HAL_Driver/Src/stm32f3xx_hal_pcd.c ****   * @param  CallbackID ID of the callback to be registered
 274:../Drivers/STM32F3xx_HAL_Driver/Src/stm32f3xx_hal_pcd.c ****   *         This parameter can be one of the following values:
 275:../Drivers/STM32F3xx_HAL_Driver/Src/stm32f3xx_hal_pcd.c ****   *          @arg @ref HAL_PCD_SOF_CB_ID USB PCD SOF callback ID
ARM GAS  /tmp/ccmjhst0.s 			page 13


 276:../Drivers/STM32F3xx_HAL_Driver/Src/stm32f3xx_hal_pcd.c ****   *          @arg @ref HAL_PCD_SETUPSTAGE_CB_ID USB PCD Setup callback ID
 277:../Drivers/STM32F3xx_HAL_Driver/Src/stm32f3xx_hal_pcd.c ****   *          @arg @ref HAL_PCD_RESET_CB_ID USB PCD Reset callback ID
 278:../Drivers/STM32F3xx_HAL_Driver/Src/stm32f3xx_hal_pcd.c ****   *          @arg @ref HAL_PCD_SUSPEND_CB_ID USB PCD Suspend callback ID
 279:../Drivers/STM32F3xx_HAL_Driver/Src/stm32f3xx_hal_pcd.c ****   *          @arg @ref HAL_PCD_RESUME_CB_ID USB PCD Resume callback ID
 280:../Drivers/STM32F3xx_HAL_Driver/Src/stm32f3xx_hal_pcd.c ****   *          @arg @ref HAL_PCD_CONNECT_CB_ID USB PCD Connect callback ID
 281:../Drivers/STM32F3xx_HAL_Driver/Src/stm32f3xx_hal_pcd.c ****   *          @arg @ref HAL_PCD_DISCONNECT_CB_ID OTG PCD Disconnect callback ID
 282:../Drivers/STM32F3xx_HAL_Driver/Src/stm32f3xx_hal_pcd.c ****   *          @arg @ref HAL_PCD_MSPINIT_CB_ID MspDeInit callback ID
 283:../Drivers/STM32F3xx_HAL_Driver/Src/stm32f3xx_hal_pcd.c ****   *          @arg @ref HAL_PCD_MSPDEINIT_CB_ID MspDeInit callback ID
 284:../Drivers/STM32F3xx_HAL_Driver/Src/stm32f3xx_hal_pcd.c ****   * @param  pCallback pointer to the Callback function
 285:../Drivers/STM32F3xx_HAL_Driver/Src/stm32f3xx_hal_pcd.c ****   * @retval HAL status
 286:../Drivers/STM32F3xx_HAL_Driver/Src/stm32f3xx_hal_pcd.c ****   */
 287:../Drivers/STM32F3xx_HAL_Driver/Src/stm32f3xx_hal_pcd.c **** HAL_StatusTypeDef HAL_PCD_RegisterCallback(PCD_HandleTypeDef *hpcd, HAL_PCD_CallbackIDTypeDef Callb
 288:../Drivers/STM32F3xx_HAL_Driver/Src/stm32f3xx_hal_pcd.c **** {
 289:../Drivers/STM32F3xx_HAL_Driver/Src/stm32f3xx_hal_pcd.c ****   HAL_StatusTypeDef status = HAL_OK;
 290:../Drivers/STM32F3xx_HAL_Driver/Src/stm32f3xx_hal_pcd.c **** 
 291:../Drivers/STM32F3xx_HAL_Driver/Src/stm32f3xx_hal_pcd.c ****   if (pCallback == NULL)
 292:../Drivers/STM32F3xx_HAL_Driver/Src/stm32f3xx_hal_pcd.c ****   {
 293:../Drivers/STM32F3xx_HAL_Driver/Src/stm32f3xx_hal_pcd.c ****     /* Update the error code */
 294:../Drivers/STM32F3xx_HAL_Driver/Src/stm32f3xx_hal_pcd.c ****     hpcd->ErrorCode |= HAL_PCD_ERROR_INVALID_CALLBACK;
 295:../Drivers/STM32F3xx_HAL_Driver/Src/stm32f3xx_hal_pcd.c ****     return HAL_ERROR;
 296:../Drivers/STM32F3xx_HAL_Driver/Src/stm32f3xx_hal_pcd.c ****   }
 297:../Drivers/STM32F3xx_HAL_Driver/Src/stm32f3xx_hal_pcd.c ****   /* Process locked */
 298:../Drivers/STM32F3xx_HAL_Driver/Src/stm32f3xx_hal_pcd.c ****   __HAL_LOCK(hpcd);
 299:../Drivers/STM32F3xx_HAL_Driver/Src/stm32f3xx_hal_pcd.c **** 
 300:../Drivers/STM32F3xx_HAL_Driver/Src/stm32f3xx_hal_pcd.c ****   if (hpcd->State == HAL_PCD_STATE_READY)
 301:../Drivers/STM32F3xx_HAL_Driver/Src/stm32f3xx_hal_pcd.c ****   {
 302:../Drivers/STM32F3xx_HAL_Driver/Src/stm32f3xx_hal_pcd.c ****     switch (CallbackID)
 303:../Drivers/STM32F3xx_HAL_Driver/Src/stm32f3xx_hal_pcd.c ****     {
 304:../Drivers/STM32F3xx_HAL_Driver/Src/stm32f3xx_hal_pcd.c ****       case HAL_PCD_SOF_CB_ID :
 305:../Drivers/STM32F3xx_HAL_Driver/Src/stm32f3xx_hal_pcd.c ****         hpcd->SOFCallback = pCallback;
 306:../Drivers/STM32F3xx_HAL_Driver/Src/stm32f3xx_hal_pcd.c ****         break;
 307:../Drivers/STM32F3xx_HAL_Driver/Src/stm32f3xx_hal_pcd.c **** 
 308:../Drivers/STM32F3xx_HAL_Driver/Src/stm32f3xx_hal_pcd.c ****       case HAL_PCD_SETUPSTAGE_CB_ID :
 309:../Drivers/STM32F3xx_HAL_Driver/Src/stm32f3xx_hal_pcd.c ****         hpcd->SetupStageCallback = pCallback;
 310:../Drivers/STM32F3xx_HAL_Driver/Src/stm32f3xx_hal_pcd.c ****         break;
 311:../Drivers/STM32F3xx_HAL_Driver/Src/stm32f3xx_hal_pcd.c **** 
 312:../Drivers/STM32F3xx_HAL_Driver/Src/stm32f3xx_hal_pcd.c ****       case HAL_PCD_RESET_CB_ID :
 313:../Drivers/STM32F3xx_HAL_Driver/Src/stm32f3xx_hal_pcd.c ****         hpcd->ResetCallback = pCallback;
 314:../Drivers/STM32F3xx_HAL_Driver/Src/stm32f3xx_hal_pcd.c ****         break;
 315:../Drivers/STM32F3xx_HAL_Driver/Src/stm32f3xx_hal_pcd.c **** 
 316:../Drivers/STM32F3xx_HAL_Driver/Src/stm32f3xx_hal_pcd.c ****       case HAL_PCD_SUSPEND_CB_ID :
 317:../Drivers/STM32F3xx_HAL_Driver/Src/stm32f3xx_hal_pcd.c ****         hpcd->SuspendCallback = pCallback;
 318:../Drivers/STM32F3xx_HAL_Driver/Src/stm32f3xx_hal_pcd.c ****         break;
 319:../Drivers/STM32F3xx_HAL_Driver/Src/stm32f3xx_hal_pcd.c **** 
 320:../Drivers/STM32F3xx_HAL_Driver/Src/stm32f3xx_hal_pcd.c ****       case HAL_PCD_RESUME_CB_ID :
 321:../Drivers/STM32F3xx_HAL_Driver/Src/stm32f3xx_hal_pcd.c ****         hpcd->ResumeCallback = pCallback;
 322:../Drivers/STM32F3xx_HAL_Driver/Src/stm32f3xx_hal_pcd.c ****         break;
 323:../Drivers/STM32F3xx_HAL_Driver/Src/stm32f3xx_hal_pcd.c **** 
 324:../Drivers/STM32F3xx_HAL_Driver/Src/stm32f3xx_hal_pcd.c ****       case HAL_PCD_CONNECT_CB_ID :
 325:../Drivers/STM32F3xx_HAL_Driver/Src/stm32f3xx_hal_pcd.c ****         hpcd->ConnectCallback = pCallback;
 326:../Drivers/STM32F3xx_HAL_Driver/Src/stm32f3xx_hal_pcd.c ****         break;
 327:../Drivers/STM32F3xx_HAL_Driver/Src/stm32f3xx_hal_pcd.c **** 
 328:../Drivers/STM32F3xx_HAL_Driver/Src/stm32f3xx_hal_pcd.c ****       case HAL_PCD_DISCONNECT_CB_ID :
 329:../Drivers/STM32F3xx_HAL_Driver/Src/stm32f3xx_hal_pcd.c ****         hpcd->DisconnectCallback = pCallback;
 330:../Drivers/STM32F3xx_HAL_Driver/Src/stm32f3xx_hal_pcd.c ****         break;
 331:../Drivers/STM32F3xx_HAL_Driver/Src/stm32f3xx_hal_pcd.c **** 
 332:../Drivers/STM32F3xx_HAL_Driver/Src/stm32f3xx_hal_pcd.c ****       case HAL_PCD_MSPINIT_CB_ID :
ARM GAS  /tmp/ccmjhst0.s 			page 14


 333:../Drivers/STM32F3xx_HAL_Driver/Src/stm32f3xx_hal_pcd.c ****         hpcd->MspInitCallback = pCallback;
 334:../Drivers/STM32F3xx_HAL_Driver/Src/stm32f3xx_hal_pcd.c ****         break;
 335:../Drivers/STM32F3xx_HAL_Driver/Src/stm32f3xx_hal_pcd.c **** 
 336:../Drivers/STM32F3xx_HAL_Driver/Src/stm32f3xx_hal_pcd.c ****       case HAL_PCD_MSPDEINIT_CB_ID :
 337:../Drivers/STM32F3xx_HAL_Driver/Src/stm32f3xx_hal_pcd.c ****         hpcd->MspDeInitCallback = pCallback;
 338:../Drivers/STM32F3xx_HAL_Driver/Src/stm32f3xx_hal_pcd.c ****         break;
 339:../Drivers/STM32F3xx_HAL_Driver/Src/stm32f3xx_hal_pcd.c **** 
 340:../Drivers/STM32F3xx_HAL_Driver/Src/stm32f3xx_hal_pcd.c ****       default :
 341:../Drivers/STM32F3xx_HAL_Driver/Src/stm32f3xx_hal_pcd.c ****         /* Update the error code */
 342:../Drivers/STM32F3xx_HAL_Driver/Src/stm32f3xx_hal_pcd.c ****         hpcd->ErrorCode |= HAL_PCD_ERROR_INVALID_CALLBACK;
 343:../Drivers/STM32F3xx_HAL_Driver/Src/stm32f3xx_hal_pcd.c ****         /* Return error status */
 344:../Drivers/STM32F3xx_HAL_Driver/Src/stm32f3xx_hal_pcd.c ****         status =  HAL_ERROR;
 345:../Drivers/STM32F3xx_HAL_Driver/Src/stm32f3xx_hal_pcd.c ****         break;
 346:../Drivers/STM32F3xx_HAL_Driver/Src/stm32f3xx_hal_pcd.c ****     }
 347:../Drivers/STM32F3xx_HAL_Driver/Src/stm32f3xx_hal_pcd.c ****   }
 348:../Drivers/STM32F3xx_HAL_Driver/Src/stm32f3xx_hal_pcd.c ****   else if (hpcd->State == HAL_PCD_STATE_RESET)
 349:../Drivers/STM32F3xx_HAL_Driver/Src/stm32f3xx_hal_pcd.c ****   {
 350:../Drivers/STM32F3xx_HAL_Driver/Src/stm32f3xx_hal_pcd.c ****     switch (CallbackID)
 351:../Drivers/STM32F3xx_HAL_Driver/Src/stm32f3xx_hal_pcd.c ****     {
 352:../Drivers/STM32F3xx_HAL_Driver/Src/stm32f3xx_hal_pcd.c ****       case HAL_PCD_MSPINIT_CB_ID :
 353:../Drivers/STM32F3xx_HAL_Driver/Src/stm32f3xx_hal_pcd.c ****         hpcd->MspInitCallback = pCallback;
 354:../Drivers/STM32F3xx_HAL_Driver/Src/stm32f3xx_hal_pcd.c ****         break;
 355:../Drivers/STM32F3xx_HAL_Driver/Src/stm32f3xx_hal_pcd.c **** 
 356:../Drivers/STM32F3xx_HAL_Driver/Src/stm32f3xx_hal_pcd.c ****       case HAL_PCD_MSPDEINIT_CB_ID :
 357:../Drivers/STM32F3xx_HAL_Driver/Src/stm32f3xx_hal_pcd.c ****         hpcd->MspDeInitCallback = pCallback;
 358:../Drivers/STM32F3xx_HAL_Driver/Src/stm32f3xx_hal_pcd.c ****         break;
 359:../Drivers/STM32F3xx_HAL_Driver/Src/stm32f3xx_hal_pcd.c **** 
 360:../Drivers/STM32F3xx_HAL_Driver/Src/stm32f3xx_hal_pcd.c ****       default :
 361:../Drivers/STM32F3xx_HAL_Driver/Src/stm32f3xx_hal_pcd.c ****         /* Update the error code */
 362:../Drivers/STM32F3xx_HAL_Driver/Src/stm32f3xx_hal_pcd.c ****         hpcd->ErrorCode |= HAL_PCD_ERROR_INVALID_CALLBACK;
 363:../Drivers/STM32F3xx_HAL_Driver/Src/stm32f3xx_hal_pcd.c ****         /* Return error status */
 364:../Drivers/STM32F3xx_HAL_Driver/Src/stm32f3xx_hal_pcd.c ****         status =  HAL_ERROR;
 365:../Drivers/STM32F3xx_HAL_Driver/Src/stm32f3xx_hal_pcd.c ****         break;
 366:../Drivers/STM32F3xx_HAL_Driver/Src/stm32f3xx_hal_pcd.c ****     }
 367:../Drivers/STM32F3xx_HAL_Driver/Src/stm32f3xx_hal_pcd.c ****   }
 368:../Drivers/STM32F3xx_HAL_Driver/Src/stm32f3xx_hal_pcd.c ****   else
 369:../Drivers/STM32F3xx_HAL_Driver/Src/stm32f3xx_hal_pcd.c ****   {
 370:../Drivers/STM32F3xx_HAL_Driver/Src/stm32f3xx_hal_pcd.c ****     /* Update the error code */
 371:../Drivers/STM32F3xx_HAL_Driver/Src/stm32f3xx_hal_pcd.c ****     hpcd->ErrorCode |= HAL_PCD_ERROR_INVALID_CALLBACK;
 372:../Drivers/STM32F3xx_HAL_Driver/Src/stm32f3xx_hal_pcd.c ****     /* Return error status */
 373:../Drivers/STM32F3xx_HAL_Driver/Src/stm32f3xx_hal_pcd.c ****     status =  HAL_ERROR;
 374:../Drivers/STM32F3xx_HAL_Driver/Src/stm32f3xx_hal_pcd.c ****   }
 375:../Drivers/STM32F3xx_HAL_Driver/Src/stm32f3xx_hal_pcd.c **** 
 376:../Drivers/STM32F3xx_HAL_Driver/Src/stm32f3xx_hal_pcd.c ****   /* Release Lock */
 377:../Drivers/STM32F3xx_HAL_Driver/Src/stm32f3xx_hal_pcd.c ****   __HAL_UNLOCK(hpcd);
 378:../Drivers/STM32F3xx_HAL_Driver/Src/stm32f3xx_hal_pcd.c ****   return status;
 379:../Drivers/STM32F3xx_HAL_Driver/Src/stm32f3xx_hal_pcd.c **** }
 380:../Drivers/STM32F3xx_HAL_Driver/Src/stm32f3xx_hal_pcd.c **** 
 381:../Drivers/STM32F3xx_HAL_Driver/Src/stm32f3xx_hal_pcd.c **** /**
 382:../Drivers/STM32F3xx_HAL_Driver/Src/stm32f3xx_hal_pcd.c ****   * @brief  Unregister an USB PCD Callback
 383:../Drivers/STM32F3xx_HAL_Driver/Src/stm32f3xx_hal_pcd.c ****   *         USB PCD callabck is redirected to the weak predefined callback
 384:../Drivers/STM32F3xx_HAL_Driver/Src/stm32f3xx_hal_pcd.c ****   * @param  hpcd USB PCD handle
 385:../Drivers/STM32F3xx_HAL_Driver/Src/stm32f3xx_hal_pcd.c ****   * @param  CallbackID ID of the callback to be unregistered
 386:../Drivers/STM32F3xx_HAL_Driver/Src/stm32f3xx_hal_pcd.c ****   *         This parameter can be one of the following values:
 387:../Drivers/STM32F3xx_HAL_Driver/Src/stm32f3xx_hal_pcd.c ****   *          @arg @ref HAL_PCD_SOF_CB_ID USB PCD SOF callback ID
 388:../Drivers/STM32F3xx_HAL_Driver/Src/stm32f3xx_hal_pcd.c ****   *          @arg @ref HAL_PCD_SETUPSTAGE_CB_ID USB PCD Setup callback ID
 389:../Drivers/STM32F3xx_HAL_Driver/Src/stm32f3xx_hal_pcd.c ****   *          @arg @ref HAL_PCD_RESET_CB_ID USB PCD Reset callback ID
ARM GAS  /tmp/ccmjhst0.s 			page 15


 390:../Drivers/STM32F3xx_HAL_Driver/Src/stm32f3xx_hal_pcd.c ****   *          @arg @ref HAL_PCD_SUSPEND_CB_ID USB PCD Suspend callback ID
 391:../Drivers/STM32F3xx_HAL_Driver/Src/stm32f3xx_hal_pcd.c ****   *          @arg @ref HAL_PCD_RESUME_CB_ID USB PCD Resume callback ID
 392:../Drivers/STM32F3xx_HAL_Driver/Src/stm32f3xx_hal_pcd.c ****   *          @arg @ref HAL_PCD_CONNECT_CB_ID USB PCD Connect callback ID
 393:../Drivers/STM32F3xx_HAL_Driver/Src/stm32f3xx_hal_pcd.c ****   *          @arg @ref HAL_PCD_DISCONNECT_CB_ID OTG PCD Disconnect callback ID
 394:../Drivers/STM32F3xx_HAL_Driver/Src/stm32f3xx_hal_pcd.c ****   *          @arg @ref HAL_PCD_MSPINIT_CB_ID MspDeInit callback ID
 395:../Drivers/STM32F3xx_HAL_Driver/Src/stm32f3xx_hal_pcd.c ****   *          @arg @ref HAL_PCD_MSPDEINIT_CB_ID MspDeInit callback ID
 396:../Drivers/STM32F3xx_HAL_Driver/Src/stm32f3xx_hal_pcd.c ****   * @retval HAL status
 397:../Drivers/STM32F3xx_HAL_Driver/Src/stm32f3xx_hal_pcd.c ****   */
 398:../Drivers/STM32F3xx_HAL_Driver/Src/stm32f3xx_hal_pcd.c **** HAL_StatusTypeDef HAL_PCD_UnRegisterCallback(PCD_HandleTypeDef *hpcd, HAL_PCD_CallbackIDTypeDef Cal
 399:../Drivers/STM32F3xx_HAL_Driver/Src/stm32f3xx_hal_pcd.c **** {
 400:../Drivers/STM32F3xx_HAL_Driver/Src/stm32f3xx_hal_pcd.c ****   HAL_StatusTypeDef status = HAL_OK;
 401:../Drivers/STM32F3xx_HAL_Driver/Src/stm32f3xx_hal_pcd.c **** 
 402:../Drivers/STM32F3xx_HAL_Driver/Src/stm32f3xx_hal_pcd.c ****   /* Process locked */
 403:../Drivers/STM32F3xx_HAL_Driver/Src/stm32f3xx_hal_pcd.c ****   __HAL_LOCK(hpcd);
 404:../Drivers/STM32F3xx_HAL_Driver/Src/stm32f3xx_hal_pcd.c **** 
 405:../Drivers/STM32F3xx_HAL_Driver/Src/stm32f3xx_hal_pcd.c ****   /* Setup Legacy weak Callbacks  */
 406:../Drivers/STM32F3xx_HAL_Driver/Src/stm32f3xx_hal_pcd.c ****   if (hpcd->State == HAL_PCD_STATE_READY)
 407:../Drivers/STM32F3xx_HAL_Driver/Src/stm32f3xx_hal_pcd.c ****   {
 408:../Drivers/STM32F3xx_HAL_Driver/Src/stm32f3xx_hal_pcd.c ****     switch (CallbackID)
 409:../Drivers/STM32F3xx_HAL_Driver/Src/stm32f3xx_hal_pcd.c ****     {
 410:../Drivers/STM32F3xx_HAL_Driver/Src/stm32f3xx_hal_pcd.c ****       case HAL_PCD_SOF_CB_ID :
 411:../Drivers/STM32F3xx_HAL_Driver/Src/stm32f3xx_hal_pcd.c ****         hpcd->SOFCallback = HAL_PCD_SOFCallback;
 412:../Drivers/STM32F3xx_HAL_Driver/Src/stm32f3xx_hal_pcd.c ****         break;
 413:../Drivers/STM32F3xx_HAL_Driver/Src/stm32f3xx_hal_pcd.c **** 
 414:../Drivers/STM32F3xx_HAL_Driver/Src/stm32f3xx_hal_pcd.c ****       case HAL_PCD_SETUPSTAGE_CB_ID :
 415:../Drivers/STM32F3xx_HAL_Driver/Src/stm32f3xx_hal_pcd.c ****         hpcd->SetupStageCallback = HAL_PCD_SetupStageCallback;
 416:../Drivers/STM32F3xx_HAL_Driver/Src/stm32f3xx_hal_pcd.c ****         break;
 417:../Drivers/STM32F3xx_HAL_Driver/Src/stm32f3xx_hal_pcd.c **** 
 418:../Drivers/STM32F3xx_HAL_Driver/Src/stm32f3xx_hal_pcd.c ****       case HAL_PCD_RESET_CB_ID :
 419:../Drivers/STM32F3xx_HAL_Driver/Src/stm32f3xx_hal_pcd.c ****         hpcd->ResetCallback = HAL_PCD_ResetCallback;
 420:../Drivers/STM32F3xx_HAL_Driver/Src/stm32f3xx_hal_pcd.c ****         break;
 421:../Drivers/STM32F3xx_HAL_Driver/Src/stm32f3xx_hal_pcd.c **** 
 422:../Drivers/STM32F3xx_HAL_Driver/Src/stm32f3xx_hal_pcd.c ****       case HAL_PCD_SUSPEND_CB_ID :
 423:../Drivers/STM32F3xx_HAL_Driver/Src/stm32f3xx_hal_pcd.c ****         hpcd->SuspendCallback = HAL_PCD_SuspendCallback;
 424:../Drivers/STM32F3xx_HAL_Driver/Src/stm32f3xx_hal_pcd.c ****         break;
 425:../Drivers/STM32F3xx_HAL_Driver/Src/stm32f3xx_hal_pcd.c **** 
 426:../Drivers/STM32F3xx_HAL_Driver/Src/stm32f3xx_hal_pcd.c ****       case HAL_PCD_RESUME_CB_ID :
 427:../Drivers/STM32F3xx_HAL_Driver/Src/stm32f3xx_hal_pcd.c ****         hpcd->ResumeCallback = HAL_PCD_ResumeCallback;
 428:../Drivers/STM32F3xx_HAL_Driver/Src/stm32f3xx_hal_pcd.c ****         break;
 429:../Drivers/STM32F3xx_HAL_Driver/Src/stm32f3xx_hal_pcd.c **** 
 430:../Drivers/STM32F3xx_HAL_Driver/Src/stm32f3xx_hal_pcd.c ****       case HAL_PCD_CONNECT_CB_ID :
 431:../Drivers/STM32F3xx_HAL_Driver/Src/stm32f3xx_hal_pcd.c ****         hpcd->ConnectCallback = HAL_PCD_ConnectCallback;
 432:../Drivers/STM32F3xx_HAL_Driver/Src/stm32f3xx_hal_pcd.c ****         break;
 433:../Drivers/STM32F3xx_HAL_Driver/Src/stm32f3xx_hal_pcd.c **** 
 434:../Drivers/STM32F3xx_HAL_Driver/Src/stm32f3xx_hal_pcd.c ****       case HAL_PCD_DISCONNECT_CB_ID :
 435:../Drivers/STM32F3xx_HAL_Driver/Src/stm32f3xx_hal_pcd.c ****         hpcd->DisconnectCallback = HAL_PCD_DisconnectCallback;
 436:../Drivers/STM32F3xx_HAL_Driver/Src/stm32f3xx_hal_pcd.c ****         break;
 437:../Drivers/STM32F3xx_HAL_Driver/Src/stm32f3xx_hal_pcd.c **** 
 438:../Drivers/STM32F3xx_HAL_Driver/Src/stm32f3xx_hal_pcd.c ****       case HAL_PCD_MSPINIT_CB_ID :
 439:../Drivers/STM32F3xx_HAL_Driver/Src/stm32f3xx_hal_pcd.c ****         hpcd->MspInitCallback = HAL_PCD_MspInit;
 440:../Drivers/STM32F3xx_HAL_Driver/Src/stm32f3xx_hal_pcd.c ****         break;
 441:../Drivers/STM32F3xx_HAL_Driver/Src/stm32f3xx_hal_pcd.c **** 
 442:../Drivers/STM32F3xx_HAL_Driver/Src/stm32f3xx_hal_pcd.c ****       case HAL_PCD_MSPDEINIT_CB_ID :
 443:../Drivers/STM32F3xx_HAL_Driver/Src/stm32f3xx_hal_pcd.c ****         hpcd->MspDeInitCallback = HAL_PCD_MspDeInit;
 444:../Drivers/STM32F3xx_HAL_Driver/Src/stm32f3xx_hal_pcd.c ****         break;
 445:../Drivers/STM32F3xx_HAL_Driver/Src/stm32f3xx_hal_pcd.c **** 
 446:../Drivers/STM32F3xx_HAL_Driver/Src/stm32f3xx_hal_pcd.c ****       default :
ARM GAS  /tmp/ccmjhst0.s 			page 16


 447:../Drivers/STM32F3xx_HAL_Driver/Src/stm32f3xx_hal_pcd.c ****         /* Update the error code */
 448:../Drivers/STM32F3xx_HAL_Driver/Src/stm32f3xx_hal_pcd.c ****         hpcd->ErrorCode |= HAL_PCD_ERROR_INVALID_CALLBACK;
 449:../Drivers/STM32F3xx_HAL_Driver/Src/stm32f3xx_hal_pcd.c **** 
 450:../Drivers/STM32F3xx_HAL_Driver/Src/stm32f3xx_hal_pcd.c ****         /* Return error status */
 451:../Drivers/STM32F3xx_HAL_Driver/Src/stm32f3xx_hal_pcd.c ****         status =  HAL_ERROR;
 452:../Drivers/STM32F3xx_HAL_Driver/Src/stm32f3xx_hal_pcd.c ****         break;
 453:../Drivers/STM32F3xx_HAL_Driver/Src/stm32f3xx_hal_pcd.c ****     }
 454:../Drivers/STM32F3xx_HAL_Driver/Src/stm32f3xx_hal_pcd.c ****   }
 455:../Drivers/STM32F3xx_HAL_Driver/Src/stm32f3xx_hal_pcd.c ****   else if (hpcd->State == HAL_PCD_STATE_RESET)
 456:../Drivers/STM32F3xx_HAL_Driver/Src/stm32f3xx_hal_pcd.c ****   {
 457:../Drivers/STM32F3xx_HAL_Driver/Src/stm32f3xx_hal_pcd.c ****     switch (CallbackID)
 458:../Drivers/STM32F3xx_HAL_Driver/Src/stm32f3xx_hal_pcd.c ****     {
 459:../Drivers/STM32F3xx_HAL_Driver/Src/stm32f3xx_hal_pcd.c ****       case HAL_PCD_MSPINIT_CB_ID :
 460:../Drivers/STM32F3xx_HAL_Driver/Src/stm32f3xx_hal_pcd.c ****         hpcd->MspInitCallback = HAL_PCD_MspInit;
 461:../Drivers/STM32F3xx_HAL_Driver/Src/stm32f3xx_hal_pcd.c ****         break;
 462:../Drivers/STM32F3xx_HAL_Driver/Src/stm32f3xx_hal_pcd.c **** 
 463:../Drivers/STM32F3xx_HAL_Driver/Src/stm32f3xx_hal_pcd.c ****       case HAL_PCD_MSPDEINIT_CB_ID :
 464:../Drivers/STM32F3xx_HAL_Driver/Src/stm32f3xx_hal_pcd.c ****         hpcd->MspDeInitCallback = HAL_PCD_MspDeInit;
 465:../Drivers/STM32F3xx_HAL_Driver/Src/stm32f3xx_hal_pcd.c ****         break;
 466:../Drivers/STM32F3xx_HAL_Driver/Src/stm32f3xx_hal_pcd.c **** 
 467:../Drivers/STM32F3xx_HAL_Driver/Src/stm32f3xx_hal_pcd.c ****       default :
 468:../Drivers/STM32F3xx_HAL_Driver/Src/stm32f3xx_hal_pcd.c ****         /* Update the error code */
 469:../Drivers/STM32F3xx_HAL_Driver/Src/stm32f3xx_hal_pcd.c ****         hpcd->ErrorCode |= HAL_PCD_ERROR_INVALID_CALLBACK;
 470:../Drivers/STM32F3xx_HAL_Driver/Src/stm32f3xx_hal_pcd.c **** 
 471:../Drivers/STM32F3xx_HAL_Driver/Src/stm32f3xx_hal_pcd.c ****         /* Return error status */
 472:../Drivers/STM32F3xx_HAL_Driver/Src/stm32f3xx_hal_pcd.c ****         status =  HAL_ERROR;
 473:../Drivers/STM32F3xx_HAL_Driver/Src/stm32f3xx_hal_pcd.c ****         break;
 474:../Drivers/STM32F3xx_HAL_Driver/Src/stm32f3xx_hal_pcd.c ****     }
 475:../Drivers/STM32F3xx_HAL_Driver/Src/stm32f3xx_hal_pcd.c ****   }
 476:../Drivers/STM32F3xx_HAL_Driver/Src/stm32f3xx_hal_pcd.c ****   else
 477:../Drivers/STM32F3xx_HAL_Driver/Src/stm32f3xx_hal_pcd.c ****   {
 478:../Drivers/STM32F3xx_HAL_Driver/Src/stm32f3xx_hal_pcd.c ****     /* Update the error code */
 479:../Drivers/STM32F3xx_HAL_Driver/Src/stm32f3xx_hal_pcd.c ****     hpcd->ErrorCode |= HAL_PCD_ERROR_INVALID_CALLBACK;
 480:../Drivers/STM32F3xx_HAL_Driver/Src/stm32f3xx_hal_pcd.c **** 
 481:../Drivers/STM32F3xx_HAL_Driver/Src/stm32f3xx_hal_pcd.c ****     /* Return error status */
 482:../Drivers/STM32F3xx_HAL_Driver/Src/stm32f3xx_hal_pcd.c ****     status =  HAL_ERROR;
 483:../Drivers/STM32F3xx_HAL_Driver/Src/stm32f3xx_hal_pcd.c ****   }
 484:../Drivers/STM32F3xx_HAL_Driver/Src/stm32f3xx_hal_pcd.c **** 
 485:../Drivers/STM32F3xx_HAL_Driver/Src/stm32f3xx_hal_pcd.c ****   /* Release Lock */
 486:../Drivers/STM32F3xx_HAL_Driver/Src/stm32f3xx_hal_pcd.c ****   __HAL_UNLOCK(hpcd);
 487:../Drivers/STM32F3xx_HAL_Driver/Src/stm32f3xx_hal_pcd.c ****   return status;
 488:../Drivers/STM32F3xx_HAL_Driver/Src/stm32f3xx_hal_pcd.c **** }
 489:../Drivers/STM32F3xx_HAL_Driver/Src/stm32f3xx_hal_pcd.c **** 
 490:../Drivers/STM32F3xx_HAL_Driver/Src/stm32f3xx_hal_pcd.c **** /**
 491:../Drivers/STM32F3xx_HAL_Driver/Src/stm32f3xx_hal_pcd.c ****   * @brief  Register USB PCD Data OUT Stage Callback
 492:../Drivers/STM32F3xx_HAL_Driver/Src/stm32f3xx_hal_pcd.c ****   *         To be used instead of the weak HAL_PCD_DataOutStageCallback() predefined callback
 493:../Drivers/STM32F3xx_HAL_Driver/Src/stm32f3xx_hal_pcd.c ****   * @param  hpcd PCD handle
 494:../Drivers/STM32F3xx_HAL_Driver/Src/stm32f3xx_hal_pcd.c ****   * @param  pCallback pointer to the USB PCD Data OUT Stage Callback function
 495:../Drivers/STM32F3xx_HAL_Driver/Src/stm32f3xx_hal_pcd.c ****   * @retval HAL status
 496:../Drivers/STM32F3xx_HAL_Driver/Src/stm32f3xx_hal_pcd.c ****   */
 497:../Drivers/STM32F3xx_HAL_Driver/Src/stm32f3xx_hal_pcd.c **** HAL_StatusTypeDef HAL_PCD_RegisterDataOutStageCallback(PCD_HandleTypeDef *hpcd, pPCD_DataOutStageCa
 498:../Drivers/STM32F3xx_HAL_Driver/Src/stm32f3xx_hal_pcd.c **** {
 499:../Drivers/STM32F3xx_HAL_Driver/Src/stm32f3xx_hal_pcd.c ****   HAL_StatusTypeDef status = HAL_OK;
 500:../Drivers/STM32F3xx_HAL_Driver/Src/stm32f3xx_hal_pcd.c **** 
 501:../Drivers/STM32F3xx_HAL_Driver/Src/stm32f3xx_hal_pcd.c ****   if (pCallback == NULL)
 502:../Drivers/STM32F3xx_HAL_Driver/Src/stm32f3xx_hal_pcd.c ****   {
 503:../Drivers/STM32F3xx_HAL_Driver/Src/stm32f3xx_hal_pcd.c ****     /* Update the error code */
ARM GAS  /tmp/ccmjhst0.s 			page 17


 504:../Drivers/STM32F3xx_HAL_Driver/Src/stm32f3xx_hal_pcd.c ****     hpcd->ErrorCode |= HAL_PCD_ERROR_INVALID_CALLBACK;
 505:../Drivers/STM32F3xx_HAL_Driver/Src/stm32f3xx_hal_pcd.c **** 
 506:../Drivers/STM32F3xx_HAL_Driver/Src/stm32f3xx_hal_pcd.c ****     return HAL_ERROR;
 507:../Drivers/STM32F3xx_HAL_Driver/Src/stm32f3xx_hal_pcd.c ****   }
 508:../Drivers/STM32F3xx_HAL_Driver/Src/stm32f3xx_hal_pcd.c **** 
 509:../Drivers/STM32F3xx_HAL_Driver/Src/stm32f3xx_hal_pcd.c ****   /* Process locked */
 510:../Drivers/STM32F3xx_HAL_Driver/Src/stm32f3xx_hal_pcd.c ****   __HAL_LOCK(hpcd);
 511:../Drivers/STM32F3xx_HAL_Driver/Src/stm32f3xx_hal_pcd.c **** 
 512:../Drivers/STM32F3xx_HAL_Driver/Src/stm32f3xx_hal_pcd.c ****   if (hpcd->State == HAL_PCD_STATE_READY)
 513:../Drivers/STM32F3xx_HAL_Driver/Src/stm32f3xx_hal_pcd.c ****   {
 514:../Drivers/STM32F3xx_HAL_Driver/Src/stm32f3xx_hal_pcd.c ****     hpcd->DataOutStageCallback = pCallback;
 515:../Drivers/STM32F3xx_HAL_Driver/Src/stm32f3xx_hal_pcd.c ****   }
 516:../Drivers/STM32F3xx_HAL_Driver/Src/stm32f3xx_hal_pcd.c ****   else
 517:../Drivers/STM32F3xx_HAL_Driver/Src/stm32f3xx_hal_pcd.c ****   {
 518:../Drivers/STM32F3xx_HAL_Driver/Src/stm32f3xx_hal_pcd.c ****     /* Update the error code */
 519:../Drivers/STM32F3xx_HAL_Driver/Src/stm32f3xx_hal_pcd.c ****     hpcd->ErrorCode |= HAL_PCD_ERROR_INVALID_CALLBACK;
 520:../Drivers/STM32F3xx_HAL_Driver/Src/stm32f3xx_hal_pcd.c **** 
 521:../Drivers/STM32F3xx_HAL_Driver/Src/stm32f3xx_hal_pcd.c ****     /* Return error status */
 522:../Drivers/STM32F3xx_HAL_Driver/Src/stm32f3xx_hal_pcd.c ****     status =  HAL_ERROR;
 523:../Drivers/STM32F3xx_HAL_Driver/Src/stm32f3xx_hal_pcd.c ****   }
 524:../Drivers/STM32F3xx_HAL_Driver/Src/stm32f3xx_hal_pcd.c **** 
 525:../Drivers/STM32F3xx_HAL_Driver/Src/stm32f3xx_hal_pcd.c ****   /* Release Lock */
 526:../Drivers/STM32F3xx_HAL_Driver/Src/stm32f3xx_hal_pcd.c ****   __HAL_UNLOCK(hpcd);
 527:../Drivers/STM32F3xx_HAL_Driver/Src/stm32f3xx_hal_pcd.c **** 
 528:../Drivers/STM32F3xx_HAL_Driver/Src/stm32f3xx_hal_pcd.c ****   return status;
 529:../Drivers/STM32F3xx_HAL_Driver/Src/stm32f3xx_hal_pcd.c **** }
 530:../Drivers/STM32F3xx_HAL_Driver/Src/stm32f3xx_hal_pcd.c **** 
 531:../Drivers/STM32F3xx_HAL_Driver/Src/stm32f3xx_hal_pcd.c **** /**
 532:../Drivers/STM32F3xx_HAL_Driver/Src/stm32f3xx_hal_pcd.c ****   * @brief  UnRegister the USB PCD Data OUT Stage Callback
 533:../Drivers/STM32F3xx_HAL_Driver/Src/stm32f3xx_hal_pcd.c ****   *         USB PCD Data OUT Stage Callback is redirected to the weak HAL_PCD_DataOutStageCallback(
 534:../Drivers/STM32F3xx_HAL_Driver/Src/stm32f3xx_hal_pcd.c ****   * @param  hpcd PCD handle
 535:../Drivers/STM32F3xx_HAL_Driver/Src/stm32f3xx_hal_pcd.c ****   * @retval HAL status
 536:../Drivers/STM32F3xx_HAL_Driver/Src/stm32f3xx_hal_pcd.c ****   */
 537:../Drivers/STM32F3xx_HAL_Driver/Src/stm32f3xx_hal_pcd.c **** HAL_StatusTypeDef HAL_PCD_UnRegisterDataOutStageCallback(PCD_HandleTypeDef *hpcd)
 538:../Drivers/STM32F3xx_HAL_Driver/Src/stm32f3xx_hal_pcd.c **** {
 539:../Drivers/STM32F3xx_HAL_Driver/Src/stm32f3xx_hal_pcd.c ****   HAL_StatusTypeDef status = HAL_OK;
 540:../Drivers/STM32F3xx_HAL_Driver/Src/stm32f3xx_hal_pcd.c **** 
 541:../Drivers/STM32F3xx_HAL_Driver/Src/stm32f3xx_hal_pcd.c ****   /* Process locked */
 542:../Drivers/STM32F3xx_HAL_Driver/Src/stm32f3xx_hal_pcd.c ****   __HAL_LOCK(hpcd);
 543:../Drivers/STM32F3xx_HAL_Driver/Src/stm32f3xx_hal_pcd.c **** 
 544:../Drivers/STM32F3xx_HAL_Driver/Src/stm32f3xx_hal_pcd.c ****   if (hpcd->State == HAL_PCD_STATE_READY)
 545:../Drivers/STM32F3xx_HAL_Driver/Src/stm32f3xx_hal_pcd.c ****   {
 546:../Drivers/STM32F3xx_HAL_Driver/Src/stm32f3xx_hal_pcd.c ****     hpcd->DataOutStageCallback = HAL_PCD_DataOutStageCallback; /* Legacy weak DataOutStageCallback 
 547:../Drivers/STM32F3xx_HAL_Driver/Src/stm32f3xx_hal_pcd.c ****   }
 548:../Drivers/STM32F3xx_HAL_Driver/Src/stm32f3xx_hal_pcd.c ****   else
 549:../Drivers/STM32F3xx_HAL_Driver/Src/stm32f3xx_hal_pcd.c ****   {
 550:../Drivers/STM32F3xx_HAL_Driver/Src/stm32f3xx_hal_pcd.c ****     /* Update the error code */
 551:../Drivers/STM32F3xx_HAL_Driver/Src/stm32f3xx_hal_pcd.c ****     hpcd->ErrorCode |= HAL_PCD_ERROR_INVALID_CALLBACK;
 552:../Drivers/STM32F3xx_HAL_Driver/Src/stm32f3xx_hal_pcd.c **** 
 553:../Drivers/STM32F3xx_HAL_Driver/Src/stm32f3xx_hal_pcd.c ****     /* Return error status */
 554:../Drivers/STM32F3xx_HAL_Driver/Src/stm32f3xx_hal_pcd.c ****     status =  HAL_ERROR;
 555:../Drivers/STM32F3xx_HAL_Driver/Src/stm32f3xx_hal_pcd.c ****   }
 556:../Drivers/STM32F3xx_HAL_Driver/Src/stm32f3xx_hal_pcd.c **** 
 557:../Drivers/STM32F3xx_HAL_Driver/Src/stm32f3xx_hal_pcd.c ****   /* Release Lock */
 558:../Drivers/STM32F3xx_HAL_Driver/Src/stm32f3xx_hal_pcd.c ****   __HAL_UNLOCK(hpcd);
 559:../Drivers/STM32F3xx_HAL_Driver/Src/stm32f3xx_hal_pcd.c **** 
 560:../Drivers/STM32F3xx_HAL_Driver/Src/stm32f3xx_hal_pcd.c ****   return status;
ARM GAS  /tmp/ccmjhst0.s 			page 18


 561:../Drivers/STM32F3xx_HAL_Driver/Src/stm32f3xx_hal_pcd.c **** }
 562:../Drivers/STM32F3xx_HAL_Driver/Src/stm32f3xx_hal_pcd.c **** 
 563:../Drivers/STM32F3xx_HAL_Driver/Src/stm32f3xx_hal_pcd.c **** /**
 564:../Drivers/STM32F3xx_HAL_Driver/Src/stm32f3xx_hal_pcd.c ****   * @brief  Register USB PCD Data IN Stage Callback
 565:../Drivers/STM32F3xx_HAL_Driver/Src/stm32f3xx_hal_pcd.c ****   *         To be used instead of the weak HAL_PCD_DataInStageCallback() predefined callback
 566:../Drivers/STM32F3xx_HAL_Driver/Src/stm32f3xx_hal_pcd.c ****   * @param  hpcd PCD handle
 567:../Drivers/STM32F3xx_HAL_Driver/Src/stm32f3xx_hal_pcd.c ****   * @param  pCallback pointer to the USB PCD Data IN Stage Callback function
 568:../Drivers/STM32F3xx_HAL_Driver/Src/stm32f3xx_hal_pcd.c ****   * @retval HAL status
 569:../Drivers/STM32F3xx_HAL_Driver/Src/stm32f3xx_hal_pcd.c ****   */
 570:../Drivers/STM32F3xx_HAL_Driver/Src/stm32f3xx_hal_pcd.c **** HAL_StatusTypeDef HAL_PCD_RegisterDataInStageCallback(PCD_HandleTypeDef *hpcd, pPCD_DataInStageCall
 571:../Drivers/STM32F3xx_HAL_Driver/Src/stm32f3xx_hal_pcd.c **** {
 572:../Drivers/STM32F3xx_HAL_Driver/Src/stm32f3xx_hal_pcd.c ****   HAL_StatusTypeDef status = HAL_OK;
 573:../Drivers/STM32F3xx_HAL_Driver/Src/stm32f3xx_hal_pcd.c **** 
 574:../Drivers/STM32F3xx_HAL_Driver/Src/stm32f3xx_hal_pcd.c ****   if (pCallback == NULL)
 575:../Drivers/STM32F3xx_HAL_Driver/Src/stm32f3xx_hal_pcd.c ****   {
 576:../Drivers/STM32F3xx_HAL_Driver/Src/stm32f3xx_hal_pcd.c ****     /* Update the error code */
 577:../Drivers/STM32F3xx_HAL_Driver/Src/stm32f3xx_hal_pcd.c ****     hpcd->ErrorCode |= HAL_PCD_ERROR_INVALID_CALLBACK;
 578:../Drivers/STM32F3xx_HAL_Driver/Src/stm32f3xx_hal_pcd.c **** 
 579:../Drivers/STM32F3xx_HAL_Driver/Src/stm32f3xx_hal_pcd.c ****     return HAL_ERROR;
 580:../Drivers/STM32F3xx_HAL_Driver/Src/stm32f3xx_hal_pcd.c ****   }
 581:../Drivers/STM32F3xx_HAL_Driver/Src/stm32f3xx_hal_pcd.c **** 
 582:../Drivers/STM32F3xx_HAL_Driver/Src/stm32f3xx_hal_pcd.c ****   /* Process locked */
 583:../Drivers/STM32F3xx_HAL_Driver/Src/stm32f3xx_hal_pcd.c ****   __HAL_LOCK(hpcd);
 584:../Drivers/STM32F3xx_HAL_Driver/Src/stm32f3xx_hal_pcd.c **** 
 585:../Drivers/STM32F3xx_HAL_Driver/Src/stm32f3xx_hal_pcd.c ****   if (hpcd->State == HAL_PCD_STATE_READY)
 586:../Drivers/STM32F3xx_HAL_Driver/Src/stm32f3xx_hal_pcd.c ****   {
 587:../Drivers/STM32F3xx_HAL_Driver/Src/stm32f3xx_hal_pcd.c ****     hpcd->DataInStageCallback = pCallback;
 588:../Drivers/STM32F3xx_HAL_Driver/Src/stm32f3xx_hal_pcd.c ****   }
 589:../Drivers/STM32F3xx_HAL_Driver/Src/stm32f3xx_hal_pcd.c ****   else
 590:../Drivers/STM32F3xx_HAL_Driver/Src/stm32f3xx_hal_pcd.c ****   {
 591:../Drivers/STM32F3xx_HAL_Driver/Src/stm32f3xx_hal_pcd.c ****     /* Update the error code */
 592:../Drivers/STM32F3xx_HAL_Driver/Src/stm32f3xx_hal_pcd.c ****     hpcd->ErrorCode |= HAL_PCD_ERROR_INVALID_CALLBACK;
 593:../Drivers/STM32F3xx_HAL_Driver/Src/stm32f3xx_hal_pcd.c **** 
 594:../Drivers/STM32F3xx_HAL_Driver/Src/stm32f3xx_hal_pcd.c ****     /* Return error status */
 595:../Drivers/STM32F3xx_HAL_Driver/Src/stm32f3xx_hal_pcd.c ****     status =  HAL_ERROR;
 596:../Drivers/STM32F3xx_HAL_Driver/Src/stm32f3xx_hal_pcd.c ****   }
 597:../Drivers/STM32F3xx_HAL_Driver/Src/stm32f3xx_hal_pcd.c **** 
 598:../Drivers/STM32F3xx_HAL_Driver/Src/stm32f3xx_hal_pcd.c ****   /* Release Lock */
 599:../Drivers/STM32F3xx_HAL_Driver/Src/stm32f3xx_hal_pcd.c ****   __HAL_UNLOCK(hpcd);
 600:../Drivers/STM32F3xx_HAL_Driver/Src/stm32f3xx_hal_pcd.c **** 
 601:../Drivers/STM32F3xx_HAL_Driver/Src/stm32f3xx_hal_pcd.c ****   return status;
 602:../Drivers/STM32F3xx_HAL_Driver/Src/stm32f3xx_hal_pcd.c **** }
 603:../Drivers/STM32F3xx_HAL_Driver/Src/stm32f3xx_hal_pcd.c **** 
 604:../Drivers/STM32F3xx_HAL_Driver/Src/stm32f3xx_hal_pcd.c **** /**
 605:../Drivers/STM32F3xx_HAL_Driver/Src/stm32f3xx_hal_pcd.c ****   * @brief  UnRegister the USB PCD Data IN Stage Callback
 606:../Drivers/STM32F3xx_HAL_Driver/Src/stm32f3xx_hal_pcd.c ****   *         USB PCD Data OUT Stage Callback is redirected to the weak HAL_PCD_DataInStageCallback()
 607:../Drivers/STM32F3xx_HAL_Driver/Src/stm32f3xx_hal_pcd.c ****   * @param  hpcd PCD handle
 608:../Drivers/STM32F3xx_HAL_Driver/Src/stm32f3xx_hal_pcd.c ****   * @retval HAL status
 609:../Drivers/STM32F3xx_HAL_Driver/Src/stm32f3xx_hal_pcd.c ****   */
 610:../Drivers/STM32F3xx_HAL_Driver/Src/stm32f3xx_hal_pcd.c **** HAL_StatusTypeDef HAL_PCD_UnRegisterDataInStageCallback(PCD_HandleTypeDef *hpcd)
 611:../Drivers/STM32F3xx_HAL_Driver/Src/stm32f3xx_hal_pcd.c **** {
 612:../Drivers/STM32F3xx_HAL_Driver/Src/stm32f3xx_hal_pcd.c ****   HAL_StatusTypeDef status = HAL_OK;
 613:../Drivers/STM32F3xx_HAL_Driver/Src/stm32f3xx_hal_pcd.c **** 
 614:../Drivers/STM32F3xx_HAL_Driver/Src/stm32f3xx_hal_pcd.c ****   /* Process locked */
 615:../Drivers/STM32F3xx_HAL_Driver/Src/stm32f3xx_hal_pcd.c ****   __HAL_LOCK(hpcd);
 616:../Drivers/STM32F3xx_HAL_Driver/Src/stm32f3xx_hal_pcd.c **** 
 617:../Drivers/STM32F3xx_HAL_Driver/Src/stm32f3xx_hal_pcd.c ****   if (hpcd->State == HAL_PCD_STATE_READY)
ARM GAS  /tmp/ccmjhst0.s 			page 19


 618:../Drivers/STM32F3xx_HAL_Driver/Src/stm32f3xx_hal_pcd.c ****   {
 619:../Drivers/STM32F3xx_HAL_Driver/Src/stm32f3xx_hal_pcd.c ****     hpcd->DataInStageCallback = HAL_PCD_DataInStageCallback; /* Legacy weak DataInStageCallback  */
 620:../Drivers/STM32F3xx_HAL_Driver/Src/stm32f3xx_hal_pcd.c ****   }
 621:../Drivers/STM32F3xx_HAL_Driver/Src/stm32f3xx_hal_pcd.c ****   else
 622:../Drivers/STM32F3xx_HAL_Driver/Src/stm32f3xx_hal_pcd.c ****   {
 623:../Drivers/STM32F3xx_HAL_Driver/Src/stm32f3xx_hal_pcd.c ****     /* Update the error code */
 624:../Drivers/STM32F3xx_HAL_Driver/Src/stm32f3xx_hal_pcd.c ****     hpcd->ErrorCode |= HAL_PCD_ERROR_INVALID_CALLBACK;
 625:../Drivers/STM32F3xx_HAL_Driver/Src/stm32f3xx_hal_pcd.c **** 
 626:../Drivers/STM32F3xx_HAL_Driver/Src/stm32f3xx_hal_pcd.c ****     /* Return error status */
 627:../Drivers/STM32F3xx_HAL_Driver/Src/stm32f3xx_hal_pcd.c ****     status =  HAL_ERROR;
 628:../Drivers/STM32F3xx_HAL_Driver/Src/stm32f3xx_hal_pcd.c ****   }
 629:../Drivers/STM32F3xx_HAL_Driver/Src/stm32f3xx_hal_pcd.c **** 
 630:../Drivers/STM32F3xx_HAL_Driver/Src/stm32f3xx_hal_pcd.c ****   /* Release Lock */
 631:../Drivers/STM32F3xx_HAL_Driver/Src/stm32f3xx_hal_pcd.c ****   __HAL_UNLOCK(hpcd);
 632:../Drivers/STM32F3xx_HAL_Driver/Src/stm32f3xx_hal_pcd.c **** 
 633:../Drivers/STM32F3xx_HAL_Driver/Src/stm32f3xx_hal_pcd.c ****   return status;
 634:../Drivers/STM32F3xx_HAL_Driver/Src/stm32f3xx_hal_pcd.c **** }
 635:../Drivers/STM32F3xx_HAL_Driver/Src/stm32f3xx_hal_pcd.c **** 
 636:../Drivers/STM32F3xx_HAL_Driver/Src/stm32f3xx_hal_pcd.c **** /**
 637:../Drivers/STM32F3xx_HAL_Driver/Src/stm32f3xx_hal_pcd.c ****   * @brief  Register USB PCD Iso OUT incomplete Callback
 638:../Drivers/STM32F3xx_HAL_Driver/Src/stm32f3xx_hal_pcd.c ****   *         To be used instead of the weak HAL_PCD_ISOOUTIncompleteCallback() predefined callback
 639:../Drivers/STM32F3xx_HAL_Driver/Src/stm32f3xx_hal_pcd.c ****   * @param  hpcd PCD handle
 640:../Drivers/STM32F3xx_HAL_Driver/Src/stm32f3xx_hal_pcd.c ****   * @param  pCallback pointer to the USB PCD Iso OUT incomplete Callback function
 641:../Drivers/STM32F3xx_HAL_Driver/Src/stm32f3xx_hal_pcd.c ****   * @retval HAL status
 642:../Drivers/STM32F3xx_HAL_Driver/Src/stm32f3xx_hal_pcd.c ****   */
 643:../Drivers/STM32F3xx_HAL_Driver/Src/stm32f3xx_hal_pcd.c **** HAL_StatusTypeDef HAL_PCD_RegisterIsoOutIncpltCallback(PCD_HandleTypeDef *hpcd, pPCD_IsoOutIncpltCa
 644:../Drivers/STM32F3xx_HAL_Driver/Src/stm32f3xx_hal_pcd.c **** {
 645:../Drivers/STM32F3xx_HAL_Driver/Src/stm32f3xx_hal_pcd.c ****   HAL_StatusTypeDef status = HAL_OK;
 646:../Drivers/STM32F3xx_HAL_Driver/Src/stm32f3xx_hal_pcd.c **** 
 647:../Drivers/STM32F3xx_HAL_Driver/Src/stm32f3xx_hal_pcd.c ****   if (pCallback == NULL)
 648:../Drivers/STM32F3xx_HAL_Driver/Src/stm32f3xx_hal_pcd.c ****   {
 649:../Drivers/STM32F3xx_HAL_Driver/Src/stm32f3xx_hal_pcd.c ****     /* Update the error code */
 650:../Drivers/STM32F3xx_HAL_Driver/Src/stm32f3xx_hal_pcd.c ****     hpcd->ErrorCode |= HAL_PCD_ERROR_INVALID_CALLBACK;
 651:../Drivers/STM32F3xx_HAL_Driver/Src/stm32f3xx_hal_pcd.c **** 
 652:../Drivers/STM32F3xx_HAL_Driver/Src/stm32f3xx_hal_pcd.c ****     return HAL_ERROR;
 653:../Drivers/STM32F3xx_HAL_Driver/Src/stm32f3xx_hal_pcd.c ****   }
 654:../Drivers/STM32F3xx_HAL_Driver/Src/stm32f3xx_hal_pcd.c **** 
 655:../Drivers/STM32F3xx_HAL_Driver/Src/stm32f3xx_hal_pcd.c ****   /* Process locked */
 656:../Drivers/STM32F3xx_HAL_Driver/Src/stm32f3xx_hal_pcd.c ****   __HAL_LOCK(hpcd);
 657:../Drivers/STM32F3xx_HAL_Driver/Src/stm32f3xx_hal_pcd.c **** 
 658:../Drivers/STM32F3xx_HAL_Driver/Src/stm32f3xx_hal_pcd.c ****   if (hpcd->State == HAL_PCD_STATE_READY)
 659:../Drivers/STM32F3xx_HAL_Driver/Src/stm32f3xx_hal_pcd.c ****   {
 660:../Drivers/STM32F3xx_HAL_Driver/Src/stm32f3xx_hal_pcd.c ****     hpcd->ISOOUTIncompleteCallback = pCallback;
 661:../Drivers/STM32F3xx_HAL_Driver/Src/stm32f3xx_hal_pcd.c ****   }
 662:../Drivers/STM32F3xx_HAL_Driver/Src/stm32f3xx_hal_pcd.c ****   else
 663:../Drivers/STM32F3xx_HAL_Driver/Src/stm32f3xx_hal_pcd.c ****   {
 664:../Drivers/STM32F3xx_HAL_Driver/Src/stm32f3xx_hal_pcd.c ****     /* Update the error code */
 665:../Drivers/STM32F3xx_HAL_Driver/Src/stm32f3xx_hal_pcd.c ****     hpcd->ErrorCode |= HAL_PCD_ERROR_INVALID_CALLBACK;
 666:../Drivers/STM32F3xx_HAL_Driver/Src/stm32f3xx_hal_pcd.c **** 
 667:../Drivers/STM32F3xx_HAL_Driver/Src/stm32f3xx_hal_pcd.c ****     /* Return error status */
 668:../Drivers/STM32F3xx_HAL_Driver/Src/stm32f3xx_hal_pcd.c ****     status =  HAL_ERROR;
 669:../Drivers/STM32F3xx_HAL_Driver/Src/stm32f3xx_hal_pcd.c ****   }
 670:../Drivers/STM32F3xx_HAL_Driver/Src/stm32f3xx_hal_pcd.c **** 
 671:../Drivers/STM32F3xx_HAL_Driver/Src/stm32f3xx_hal_pcd.c ****   /* Release Lock */
 672:../Drivers/STM32F3xx_HAL_Driver/Src/stm32f3xx_hal_pcd.c ****   __HAL_UNLOCK(hpcd);
 673:../Drivers/STM32F3xx_HAL_Driver/Src/stm32f3xx_hal_pcd.c **** 
 674:../Drivers/STM32F3xx_HAL_Driver/Src/stm32f3xx_hal_pcd.c ****   return status;
ARM GAS  /tmp/ccmjhst0.s 			page 20


 675:../Drivers/STM32F3xx_HAL_Driver/Src/stm32f3xx_hal_pcd.c **** }
 676:../Drivers/STM32F3xx_HAL_Driver/Src/stm32f3xx_hal_pcd.c **** 
 677:../Drivers/STM32F3xx_HAL_Driver/Src/stm32f3xx_hal_pcd.c **** /**
 678:../Drivers/STM32F3xx_HAL_Driver/Src/stm32f3xx_hal_pcd.c ****   * @brief  UnRegister the USB PCD Iso OUT incomplete Callback
 679:../Drivers/STM32F3xx_HAL_Driver/Src/stm32f3xx_hal_pcd.c ****   *         USB PCD Iso OUT incomplete Callback is redirected to the weak HAL_PCD_ISOOUTIncompleteC
 680:../Drivers/STM32F3xx_HAL_Driver/Src/stm32f3xx_hal_pcd.c ****   * @param  hpcd PCD handle
 681:../Drivers/STM32F3xx_HAL_Driver/Src/stm32f3xx_hal_pcd.c ****   * @retval HAL status
 682:../Drivers/STM32F3xx_HAL_Driver/Src/stm32f3xx_hal_pcd.c ****   */
 683:../Drivers/STM32F3xx_HAL_Driver/Src/stm32f3xx_hal_pcd.c **** HAL_StatusTypeDef HAL_PCD_UnRegisterIsoOutIncpltCallback(PCD_HandleTypeDef *hpcd)
 684:../Drivers/STM32F3xx_HAL_Driver/Src/stm32f3xx_hal_pcd.c **** {
 685:../Drivers/STM32F3xx_HAL_Driver/Src/stm32f3xx_hal_pcd.c ****   HAL_StatusTypeDef status = HAL_OK;
 686:../Drivers/STM32F3xx_HAL_Driver/Src/stm32f3xx_hal_pcd.c **** 
 687:../Drivers/STM32F3xx_HAL_Driver/Src/stm32f3xx_hal_pcd.c ****   /* Process locked */
 688:../Drivers/STM32F3xx_HAL_Driver/Src/stm32f3xx_hal_pcd.c ****   __HAL_LOCK(hpcd);
 689:../Drivers/STM32F3xx_HAL_Driver/Src/stm32f3xx_hal_pcd.c **** 
 690:../Drivers/STM32F3xx_HAL_Driver/Src/stm32f3xx_hal_pcd.c ****   if (hpcd->State == HAL_PCD_STATE_READY)
 691:../Drivers/STM32F3xx_HAL_Driver/Src/stm32f3xx_hal_pcd.c ****   {
 692:../Drivers/STM32F3xx_HAL_Driver/Src/stm32f3xx_hal_pcd.c ****     hpcd->ISOOUTIncompleteCallback = HAL_PCD_ISOOUTIncompleteCallback; /* Legacy weak ISOOUTIncompl
 693:../Drivers/STM32F3xx_HAL_Driver/Src/stm32f3xx_hal_pcd.c ****   }
 694:../Drivers/STM32F3xx_HAL_Driver/Src/stm32f3xx_hal_pcd.c ****   else
 695:../Drivers/STM32F3xx_HAL_Driver/Src/stm32f3xx_hal_pcd.c ****   {
 696:../Drivers/STM32F3xx_HAL_Driver/Src/stm32f3xx_hal_pcd.c ****     /* Update the error code */
 697:../Drivers/STM32F3xx_HAL_Driver/Src/stm32f3xx_hal_pcd.c ****     hpcd->ErrorCode |= HAL_PCD_ERROR_INVALID_CALLBACK;
 698:../Drivers/STM32F3xx_HAL_Driver/Src/stm32f3xx_hal_pcd.c **** 
 699:../Drivers/STM32F3xx_HAL_Driver/Src/stm32f3xx_hal_pcd.c ****     /* Return error status */
 700:../Drivers/STM32F3xx_HAL_Driver/Src/stm32f3xx_hal_pcd.c ****     status =  HAL_ERROR;
 701:../Drivers/STM32F3xx_HAL_Driver/Src/stm32f3xx_hal_pcd.c ****   }
 702:../Drivers/STM32F3xx_HAL_Driver/Src/stm32f3xx_hal_pcd.c **** 
 703:../Drivers/STM32F3xx_HAL_Driver/Src/stm32f3xx_hal_pcd.c ****   /* Release Lock */
 704:../Drivers/STM32F3xx_HAL_Driver/Src/stm32f3xx_hal_pcd.c ****   __HAL_UNLOCK(hpcd);
 705:../Drivers/STM32F3xx_HAL_Driver/Src/stm32f3xx_hal_pcd.c **** 
 706:../Drivers/STM32F3xx_HAL_Driver/Src/stm32f3xx_hal_pcd.c ****   return status;
 707:../Drivers/STM32F3xx_HAL_Driver/Src/stm32f3xx_hal_pcd.c **** }
 708:../Drivers/STM32F3xx_HAL_Driver/Src/stm32f3xx_hal_pcd.c **** 
 709:../Drivers/STM32F3xx_HAL_Driver/Src/stm32f3xx_hal_pcd.c **** /**
 710:../Drivers/STM32F3xx_HAL_Driver/Src/stm32f3xx_hal_pcd.c ****   * @brief  Register USB PCD Iso IN incomplete Callback
 711:../Drivers/STM32F3xx_HAL_Driver/Src/stm32f3xx_hal_pcd.c ****   *         To be used instead of the weak HAL_PCD_ISOINIncompleteCallback() predefined callback
 712:../Drivers/STM32F3xx_HAL_Driver/Src/stm32f3xx_hal_pcd.c ****   * @param  hpcd PCD handle
 713:../Drivers/STM32F3xx_HAL_Driver/Src/stm32f3xx_hal_pcd.c ****   * @param  pCallback pointer to the USB PCD Iso IN incomplete Callback function
 714:../Drivers/STM32F3xx_HAL_Driver/Src/stm32f3xx_hal_pcd.c ****   * @retval HAL status
 715:../Drivers/STM32F3xx_HAL_Driver/Src/stm32f3xx_hal_pcd.c ****   */
 716:../Drivers/STM32F3xx_HAL_Driver/Src/stm32f3xx_hal_pcd.c **** HAL_StatusTypeDef HAL_PCD_RegisterIsoInIncpltCallback(PCD_HandleTypeDef *hpcd, pPCD_IsoInIncpltCall
 717:../Drivers/STM32F3xx_HAL_Driver/Src/stm32f3xx_hal_pcd.c **** {
 718:../Drivers/STM32F3xx_HAL_Driver/Src/stm32f3xx_hal_pcd.c ****   HAL_StatusTypeDef status = HAL_OK;
 719:../Drivers/STM32F3xx_HAL_Driver/Src/stm32f3xx_hal_pcd.c **** 
 720:../Drivers/STM32F3xx_HAL_Driver/Src/stm32f3xx_hal_pcd.c ****   if (pCallback == NULL)
 721:../Drivers/STM32F3xx_HAL_Driver/Src/stm32f3xx_hal_pcd.c ****   {
 722:../Drivers/STM32F3xx_HAL_Driver/Src/stm32f3xx_hal_pcd.c ****     /* Update the error code */
 723:../Drivers/STM32F3xx_HAL_Driver/Src/stm32f3xx_hal_pcd.c ****     hpcd->ErrorCode |= HAL_PCD_ERROR_INVALID_CALLBACK;
 724:../Drivers/STM32F3xx_HAL_Driver/Src/stm32f3xx_hal_pcd.c **** 
 725:../Drivers/STM32F3xx_HAL_Driver/Src/stm32f3xx_hal_pcd.c ****     return HAL_ERROR;
 726:../Drivers/STM32F3xx_HAL_Driver/Src/stm32f3xx_hal_pcd.c ****   }
 727:../Drivers/STM32F3xx_HAL_Driver/Src/stm32f3xx_hal_pcd.c **** 
 728:../Drivers/STM32F3xx_HAL_Driver/Src/stm32f3xx_hal_pcd.c ****   /* Process locked */
 729:../Drivers/STM32F3xx_HAL_Driver/Src/stm32f3xx_hal_pcd.c ****   __HAL_LOCK(hpcd);
 730:../Drivers/STM32F3xx_HAL_Driver/Src/stm32f3xx_hal_pcd.c **** 
 731:../Drivers/STM32F3xx_HAL_Driver/Src/stm32f3xx_hal_pcd.c ****   if (hpcd->State == HAL_PCD_STATE_READY)
ARM GAS  /tmp/ccmjhst0.s 			page 21


 732:../Drivers/STM32F3xx_HAL_Driver/Src/stm32f3xx_hal_pcd.c ****   {
 733:../Drivers/STM32F3xx_HAL_Driver/Src/stm32f3xx_hal_pcd.c ****     hpcd->ISOINIncompleteCallback = pCallback;
 734:../Drivers/STM32F3xx_HAL_Driver/Src/stm32f3xx_hal_pcd.c ****   }
 735:../Drivers/STM32F3xx_HAL_Driver/Src/stm32f3xx_hal_pcd.c ****   else
 736:../Drivers/STM32F3xx_HAL_Driver/Src/stm32f3xx_hal_pcd.c ****   {
 737:../Drivers/STM32F3xx_HAL_Driver/Src/stm32f3xx_hal_pcd.c ****     /* Update the error code */
 738:../Drivers/STM32F3xx_HAL_Driver/Src/stm32f3xx_hal_pcd.c ****     hpcd->ErrorCode |= HAL_PCD_ERROR_INVALID_CALLBACK;
 739:../Drivers/STM32F3xx_HAL_Driver/Src/stm32f3xx_hal_pcd.c **** 
 740:../Drivers/STM32F3xx_HAL_Driver/Src/stm32f3xx_hal_pcd.c ****     /* Return error status */
 741:../Drivers/STM32F3xx_HAL_Driver/Src/stm32f3xx_hal_pcd.c ****     status =  HAL_ERROR;
 742:../Drivers/STM32F3xx_HAL_Driver/Src/stm32f3xx_hal_pcd.c ****   }
 743:../Drivers/STM32F3xx_HAL_Driver/Src/stm32f3xx_hal_pcd.c **** 
 744:../Drivers/STM32F3xx_HAL_Driver/Src/stm32f3xx_hal_pcd.c ****   /* Release Lock */
 745:../Drivers/STM32F3xx_HAL_Driver/Src/stm32f3xx_hal_pcd.c ****   __HAL_UNLOCK(hpcd);
 746:../Drivers/STM32F3xx_HAL_Driver/Src/stm32f3xx_hal_pcd.c **** 
 747:../Drivers/STM32F3xx_HAL_Driver/Src/stm32f3xx_hal_pcd.c ****   return status;
 748:../Drivers/STM32F3xx_HAL_Driver/Src/stm32f3xx_hal_pcd.c **** }
 749:../Drivers/STM32F3xx_HAL_Driver/Src/stm32f3xx_hal_pcd.c **** 
 750:../Drivers/STM32F3xx_HAL_Driver/Src/stm32f3xx_hal_pcd.c **** /**
 751:../Drivers/STM32F3xx_HAL_Driver/Src/stm32f3xx_hal_pcd.c ****   * @brief  UnRegister the USB PCD Iso IN incomplete Callback
 752:../Drivers/STM32F3xx_HAL_Driver/Src/stm32f3xx_hal_pcd.c ****   *         USB PCD Iso IN incomplete Callback is redirected to the weak HAL_PCD_ISOINIncompleteCal
 753:../Drivers/STM32F3xx_HAL_Driver/Src/stm32f3xx_hal_pcd.c ****   * @param  hpcd PCD handle
 754:../Drivers/STM32F3xx_HAL_Driver/Src/stm32f3xx_hal_pcd.c ****   * @retval HAL status
 755:../Drivers/STM32F3xx_HAL_Driver/Src/stm32f3xx_hal_pcd.c ****   */
 756:../Drivers/STM32F3xx_HAL_Driver/Src/stm32f3xx_hal_pcd.c **** HAL_StatusTypeDef HAL_PCD_UnRegisterIsoInIncpltCallback(PCD_HandleTypeDef *hpcd)
 757:../Drivers/STM32F3xx_HAL_Driver/Src/stm32f3xx_hal_pcd.c **** {
 758:../Drivers/STM32F3xx_HAL_Driver/Src/stm32f3xx_hal_pcd.c ****   HAL_StatusTypeDef status = HAL_OK;
 759:../Drivers/STM32F3xx_HAL_Driver/Src/stm32f3xx_hal_pcd.c **** 
 760:../Drivers/STM32F3xx_HAL_Driver/Src/stm32f3xx_hal_pcd.c ****   /* Process locked */
 761:../Drivers/STM32F3xx_HAL_Driver/Src/stm32f3xx_hal_pcd.c ****   __HAL_LOCK(hpcd);
 762:../Drivers/STM32F3xx_HAL_Driver/Src/stm32f3xx_hal_pcd.c **** 
 763:../Drivers/STM32F3xx_HAL_Driver/Src/stm32f3xx_hal_pcd.c ****   if (hpcd->State == HAL_PCD_STATE_READY)
 764:../Drivers/STM32F3xx_HAL_Driver/Src/stm32f3xx_hal_pcd.c ****   {
 765:../Drivers/STM32F3xx_HAL_Driver/Src/stm32f3xx_hal_pcd.c ****     hpcd->ISOINIncompleteCallback = HAL_PCD_ISOINIncompleteCallback; /* Legacy weak ISOINIncomplete
 766:../Drivers/STM32F3xx_HAL_Driver/Src/stm32f3xx_hal_pcd.c ****   }
 767:../Drivers/STM32F3xx_HAL_Driver/Src/stm32f3xx_hal_pcd.c ****   else
 768:../Drivers/STM32F3xx_HAL_Driver/Src/stm32f3xx_hal_pcd.c ****   {
 769:../Drivers/STM32F3xx_HAL_Driver/Src/stm32f3xx_hal_pcd.c ****     /* Update the error code */
 770:../Drivers/STM32F3xx_HAL_Driver/Src/stm32f3xx_hal_pcd.c ****     hpcd->ErrorCode |= HAL_PCD_ERROR_INVALID_CALLBACK;
 771:../Drivers/STM32F3xx_HAL_Driver/Src/stm32f3xx_hal_pcd.c **** 
 772:../Drivers/STM32F3xx_HAL_Driver/Src/stm32f3xx_hal_pcd.c ****     /* Return error status */
 773:../Drivers/STM32F3xx_HAL_Driver/Src/stm32f3xx_hal_pcd.c ****     status =  HAL_ERROR;
 774:../Drivers/STM32F3xx_HAL_Driver/Src/stm32f3xx_hal_pcd.c ****   }
 775:../Drivers/STM32F3xx_HAL_Driver/Src/stm32f3xx_hal_pcd.c **** 
 776:../Drivers/STM32F3xx_HAL_Driver/Src/stm32f3xx_hal_pcd.c ****   /* Release Lock */
 777:../Drivers/STM32F3xx_HAL_Driver/Src/stm32f3xx_hal_pcd.c ****   __HAL_UNLOCK(hpcd);
 778:../Drivers/STM32F3xx_HAL_Driver/Src/stm32f3xx_hal_pcd.c **** 
 779:../Drivers/STM32F3xx_HAL_Driver/Src/stm32f3xx_hal_pcd.c ****   return status;
 780:../Drivers/STM32F3xx_HAL_Driver/Src/stm32f3xx_hal_pcd.c **** }
 781:../Drivers/STM32F3xx_HAL_Driver/Src/stm32f3xx_hal_pcd.c **** 
 782:../Drivers/STM32F3xx_HAL_Driver/Src/stm32f3xx_hal_pcd.c **** #endif /* USE_HAL_PCD_REGISTER_CALLBACKS */
 783:../Drivers/STM32F3xx_HAL_Driver/Src/stm32f3xx_hal_pcd.c **** 
 784:../Drivers/STM32F3xx_HAL_Driver/Src/stm32f3xx_hal_pcd.c **** /**
 785:../Drivers/STM32F3xx_HAL_Driver/Src/stm32f3xx_hal_pcd.c ****   * @}
 786:../Drivers/STM32F3xx_HAL_Driver/Src/stm32f3xx_hal_pcd.c ****   */
 787:../Drivers/STM32F3xx_HAL_Driver/Src/stm32f3xx_hal_pcd.c **** 
 788:../Drivers/STM32F3xx_HAL_Driver/Src/stm32f3xx_hal_pcd.c **** /** @defgroup PCD_Exported_Functions_Group2 Input and Output operation functions
ARM GAS  /tmp/ccmjhst0.s 			page 22


 789:../Drivers/STM32F3xx_HAL_Driver/Src/stm32f3xx_hal_pcd.c ****  *  @brief   Data transfers functions
 790:../Drivers/STM32F3xx_HAL_Driver/Src/stm32f3xx_hal_pcd.c ****  *
 791:../Drivers/STM32F3xx_HAL_Driver/Src/stm32f3xx_hal_pcd.c **** @verbatim
 792:../Drivers/STM32F3xx_HAL_Driver/Src/stm32f3xx_hal_pcd.c ****  ===============================================================================
 793:../Drivers/STM32F3xx_HAL_Driver/Src/stm32f3xx_hal_pcd.c ****                       ##### IO operation functions #####
 794:../Drivers/STM32F3xx_HAL_Driver/Src/stm32f3xx_hal_pcd.c ****  ===============================================================================
 795:../Drivers/STM32F3xx_HAL_Driver/Src/stm32f3xx_hal_pcd.c ****     [..]
 796:../Drivers/STM32F3xx_HAL_Driver/Src/stm32f3xx_hal_pcd.c ****     This subsection provides a set of functions allowing to manage the PCD data
 797:../Drivers/STM32F3xx_HAL_Driver/Src/stm32f3xx_hal_pcd.c ****     transfers.
 798:../Drivers/STM32F3xx_HAL_Driver/Src/stm32f3xx_hal_pcd.c **** 
 799:../Drivers/STM32F3xx_HAL_Driver/Src/stm32f3xx_hal_pcd.c **** @endverbatim
 800:../Drivers/STM32F3xx_HAL_Driver/Src/stm32f3xx_hal_pcd.c ****   * @{
 801:../Drivers/STM32F3xx_HAL_Driver/Src/stm32f3xx_hal_pcd.c ****   */
 802:../Drivers/STM32F3xx_HAL_Driver/Src/stm32f3xx_hal_pcd.c **** 
 803:../Drivers/STM32F3xx_HAL_Driver/Src/stm32f3xx_hal_pcd.c **** /**
 804:../Drivers/STM32F3xx_HAL_Driver/Src/stm32f3xx_hal_pcd.c ****   * @brief  Start the USB device
 805:../Drivers/STM32F3xx_HAL_Driver/Src/stm32f3xx_hal_pcd.c ****   * @param  hpcd PCD handle
 806:../Drivers/STM32F3xx_HAL_Driver/Src/stm32f3xx_hal_pcd.c ****   * @retval HAL status
 807:../Drivers/STM32F3xx_HAL_Driver/Src/stm32f3xx_hal_pcd.c ****   */
 808:../Drivers/STM32F3xx_HAL_Driver/Src/stm32f3xx_hal_pcd.c **** HAL_StatusTypeDef HAL_PCD_Start(PCD_HandleTypeDef *hpcd)
 809:../Drivers/STM32F3xx_HAL_Driver/Src/stm32f3xx_hal_pcd.c **** {
 415              		.loc 1 809 0
 416              		.cfi_startproc
 417              		@ args = 0, pretend = 0, frame = 8
 418              		@ frame_needed = 1, uses_anonymous_args = 0
 419 0000 80B5     		push	{r7, lr}
 420              	.LCFI22:
 421              		.cfi_def_cfa_offset 8
 422              		.cfi_offset 7, -8
 423              		.cfi_offset 14, -4
 424 0002 82B0     		sub	sp, sp, #8
 425              	.LCFI23:
 426              		.cfi_def_cfa_offset 16
 427 0004 00AF     		add	r7, sp, #0
 428              	.LCFI24:
 429              		.cfi_def_cfa_register 7
 430 0006 7860     		str	r0, [r7, #4]
 810:../Drivers/STM32F3xx_HAL_Driver/Src/stm32f3xx_hal_pcd.c ****   __HAL_LOCK(hpcd);
 431              		.loc 1 810 0
 432 0008 7B68     		ldr	r3, [r7, #4]
 433 000a 93F82832 		ldrb	r3, [r3, #552]	@ zero_extendqisi2
 434 000e 012B     		cmp	r3, #1
 435 0010 01D1     		bne	.L15
 436              		.loc 1 810 0 is_stmt 0 discriminator 1
 437 0012 0223     		movs	r3, #2
 438 0014 16E0     		b	.L16
 439              	.L15:
 440              		.loc 1 810 0 discriminator 2
 441 0016 7B68     		ldr	r3, [r7, #4]
 442 0018 0122     		movs	r2, #1
 443 001a 83F82822 		strb	r2, [r3, #552]
 811:../Drivers/STM32F3xx_HAL_Driver/Src/stm32f3xx_hal_pcd.c **** 
 812:../Drivers/STM32F3xx_HAL_Driver/Src/stm32f3xx_hal_pcd.c ****   HAL_PCDEx_SetConnectionState(hpcd, 1U);
 444              		.loc 1 812 0 is_stmt 1 discriminator 2
 445 001e 0121     		movs	r1, #1
 446 0020 7868     		ldr	r0, [r7, #4]
 447 0022 FFF7FEFF 		bl	HAL_PCDEx_SetConnectionState
ARM GAS  /tmp/ccmjhst0.s 			page 23


 813:../Drivers/STM32F3xx_HAL_Driver/Src/stm32f3xx_hal_pcd.c **** 
 814:../Drivers/STM32F3xx_HAL_Driver/Src/stm32f3xx_hal_pcd.c ****   (void)USB_DevConnect(hpcd->Instance);
 448              		.loc 1 814 0 discriminator 2
 449 0026 7B68     		ldr	r3, [r7, #4]
 450 0028 1B68     		ldr	r3, [r3]
 451 002a 1846     		mov	r0, r3
 452 002c FFF7FEFF 		bl	USB_DevConnect
 815:../Drivers/STM32F3xx_HAL_Driver/Src/stm32f3xx_hal_pcd.c ****   __HAL_PCD_ENABLE(hpcd);
 453              		.loc 1 815 0 discriminator 2
 454 0030 7B68     		ldr	r3, [r7, #4]
 455 0032 1B68     		ldr	r3, [r3]
 456 0034 1846     		mov	r0, r3
 457 0036 FFF7FEFF 		bl	USB_EnableGlobalInt
 816:../Drivers/STM32F3xx_HAL_Driver/Src/stm32f3xx_hal_pcd.c ****   __HAL_UNLOCK(hpcd);
 458              		.loc 1 816 0 discriminator 2
 459 003a 7B68     		ldr	r3, [r7, #4]
 460 003c 0022     		movs	r2, #0
 461 003e 83F82822 		strb	r2, [r3, #552]
 817:../Drivers/STM32F3xx_HAL_Driver/Src/stm32f3xx_hal_pcd.c ****   return HAL_OK;
 462              		.loc 1 817 0 discriminator 2
 463 0042 0023     		movs	r3, #0
 464              	.L16:
 818:../Drivers/STM32F3xx_HAL_Driver/Src/stm32f3xx_hal_pcd.c **** }
 465              		.loc 1 818 0
 466 0044 1846     		mov	r0, r3
 467 0046 0837     		adds	r7, r7, #8
 468              	.LCFI25:
 469              		.cfi_def_cfa_offset 8
 470 0048 BD46     		mov	sp, r7
 471              	.LCFI26:
 472              		.cfi_def_cfa_register 13
 473              		@ sp needed
 474 004a 80BD     		pop	{r7, pc}
 475              		.cfi_endproc
 476              	.LFE134:
 478              		.section	.text.HAL_PCD_Stop,"ax",%progbits
 479              		.align	1
 480              		.global	HAL_PCD_Stop
 481              		.syntax unified
 482              		.thumb
 483              		.thumb_func
 484              		.fpu fpv4-sp-d16
 486              	HAL_PCD_Stop:
 487              	.LFB135:
 819:../Drivers/STM32F3xx_HAL_Driver/Src/stm32f3xx_hal_pcd.c **** 
 820:../Drivers/STM32F3xx_HAL_Driver/Src/stm32f3xx_hal_pcd.c **** /**
 821:../Drivers/STM32F3xx_HAL_Driver/Src/stm32f3xx_hal_pcd.c ****   * @brief  Stop the USB device.
 822:../Drivers/STM32F3xx_HAL_Driver/Src/stm32f3xx_hal_pcd.c ****   * @param  hpcd PCD handle
 823:../Drivers/STM32F3xx_HAL_Driver/Src/stm32f3xx_hal_pcd.c ****   * @retval HAL status
 824:../Drivers/STM32F3xx_HAL_Driver/Src/stm32f3xx_hal_pcd.c ****   */
 825:../Drivers/STM32F3xx_HAL_Driver/Src/stm32f3xx_hal_pcd.c **** HAL_StatusTypeDef HAL_PCD_Stop(PCD_HandleTypeDef *hpcd)
 826:../Drivers/STM32F3xx_HAL_Driver/Src/stm32f3xx_hal_pcd.c **** {
 488              		.loc 1 826 0
 489              		.cfi_startproc
 490              		@ args = 0, pretend = 0, frame = 8
 491              		@ frame_needed = 1, uses_anonymous_args = 0
 492 0000 80B5     		push	{r7, lr}
ARM GAS  /tmp/ccmjhst0.s 			page 24


 493              	.LCFI27:
 494              		.cfi_def_cfa_offset 8
 495              		.cfi_offset 7, -8
 496              		.cfi_offset 14, -4
 497 0002 82B0     		sub	sp, sp, #8
 498              	.LCFI28:
 499              		.cfi_def_cfa_offset 16
 500 0004 00AF     		add	r7, sp, #0
 501              	.LCFI29:
 502              		.cfi_def_cfa_register 7
 503 0006 7860     		str	r0, [r7, #4]
 827:../Drivers/STM32F3xx_HAL_Driver/Src/stm32f3xx_hal_pcd.c ****   __HAL_LOCK(hpcd);
 504              		.loc 1 827 0
 505 0008 7B68     		ldr	r3, [r7, #4]
 506 000a 93F82832 		ldrb	r3, [r3, #552]	@ zero_extendqisi2
 507 000e 012B     		cmp	r3, #1
 508 0010 01D1     		bne	.L18
 509              		.loc 1 827 0 is_stmt 0 discriminator 1
 510 0012 0223     		movs	r3, #2
 511 0014 12E0     		b	.L19
 512              	.L18:
 513              		.loc 1 827 0 discriminator 2
 514 0016 7B68     		ldr	r3, [r7, #4]
 515 0018 0122     		movs	r2, #1
 516 001a 83F82822 		strb	r2, [r3, #552]
 828:../Drivers/STM32F3xx_HAL_Driver/Src/stm32f3xx_hal_pcd.c ****   __HAL_PCD_DISABLE(hpcd);
 517              		.loc 1 828 0 is_stmt 1 discriminator 2
 518 001e 7B68     		ldr	r3, [r7, #4]
 519 0020 1B68     		ldr	r3, [r3]
 520 0022 1846     		mov	r0, r3
 521 0024 FFF7FEFF 		bl	USB_DisableGlobalInt
 829:../Drivers/STM32F3xx_HAL_Driver/Src/stm32f3xx_hal_pcd.c **** 
 830:../Drivers/STM32F3xx_HAL_Driver/Src/stm32f3xx_hal_pcd.c ****   (void)USB_StopDevice(hpcd->Instance);
 522              		.loc 1 830 0 discriminator 2
 523 0028 7B68     		ldr	r3, [r7, #4]
 524 002a 1B68     		ldr	r3, [r3]
 525 002c 1846     		mov	r0, r3
 526 002e FFF7FEFF 		bl	USB_StopDevice
 831:../Drivers/STM32F3xx_HAL_Driver/Src/stm32f3xx_hal_pcd.c **** 
 832:../Drivers/STM32F3xx_HAL_Driver/Src/stm32f3xx_hal_pcd.c ****   __HAL_UNLOCK(hpcd);
 527              		.loc 1 832 0 discriminator 2
 528 0032 7B68     		ldr	r3, [r7, #4]
 529 0034 0022     		movs	r2, #0
 530 0036 83F82822 		strb	r2, [r3, #552]
 833:../Drivers/STM32F3xx_HAL_Driver/Src/stm32f3xx_hal_pcd.c **** 
 834:../Drivers/STM32F3xx_HAL_Driver/Src/stm32f3xx_hal_pcd.c ****   return HAL_OK;
 531              		.loc 1 834 0 discriminator 2
 532 003a 0023     		movs	r3, #0
 533              	.L19:
 835:../Drivers/STM32F3xx_HAL_Driver/Src/stm32f3xx_hal_pcd.c **** }
 534              		.loc 1 835 0
 535 003c 1846     		mov	r0, r3
 536 003e 0837     		adds	r7, r7, #8
 537              	.LCFI30:
 538              		.cfi_def_cfa_offset 8
 539 0040 BD46     		mov	sp, r7
 540              	.LCFI31:
ARM GAS  /tmp/ccmjhst0.s 			page 25


 541              		.cfi_def_cfa_register 13
 542              		@ sp needed
 543 0042 80BD     		pop	{r7, pc}
 544              		.cfi_endproc
 545              	.LFE135:
 547              		.section	.text.HAL_PCD_IRQHandler,"ax",%progbits
 548              		.align	1
 549              		.global	HAL_PCD_IRQHandler
 550              		.syntax unified
 551              		.thumb
 552              		.thumb_func
 553              		.fpu fpv4-sp-d16
 555              	HAL_PCD_IRQHandler:
 556              	.LFB136:
 836:../Drivers/STM32F3xx_HAL_Driver/Src/stm32f3xx_hal_pcd.c **** 
 837:../Drivers/STM32F3xx_HAL_Driver/Src/stm32f3xx_hal_pcd.c **** 
 838:../Drivers/STM32F3xx_HAL_Driver/Src/stm32f3xx_hal_pcd.c **** /**
 839:../Drivers/STM32F3xx_HAL_Driver/Src/stm32f3xx_hal_pcd.c ****   * @brief  This function handles PCD interrupt request.
 840:../Drivers/STM32F3xx_HAL_Driver/Src/stm32f3xx_hal_pcd.c ****   * @param  hpcd PCD handle
 841:../Drivers/STM32F3xx_HAL_Driver/Src/stm32f3xx_hal_pcd.c ****   * @retval HAL status
 842:../Drivers/STM32F3xx_HAL_Driver/Src/stm32f3xx_hal_pcd.c ****   */
 843:../Drivers/STM32F3xx_HAL_Driver/Src/stm32f3xx_hal_pcd.c **** void HAL_PCD_IRQHandler(PCD_HandleTypeDef *hpcd)
 844:../Drivers/STM32F3xx_HAL_Driver/Src/stm32f3xx_hal_pcd.c **** {
 557              		.loc 1 844 0
 558              		.cfi_startproc
 559              		@ args = 0, pretend = 0, frame = 8
 560              		@ frame_needed = 1, uses_anonymous_args = 0
 561 0000 80B5     		push	{r7, lr}
 562              	.LCFI32:
 563              		.cfi_def_cfa_offset 8
 564              		.cfi_offset 7, -8
 565              		.cfi_offset 14, -4
 566 0002 82B0     		sub	sp, sp, #8
 567              	.LCFI33:
 568              		.cfi_def_cfa_offset 16
 569 0004 00AF     		add	r7, sp, #0
 570              	.LCFI34:
 571              		.cfi_def_cfa_register 7
 572 0006 7860     		str	r0, [r7, #4]
 845:../Drivers/STM32F3xx_HAL_Driver/Src/stm32f3xx_hal_pcd.c ****   if (__HAL_PCD_GET_FLAG(hpcd, USB_ISTR_CTR))
 573              		.loc 1 845 0
 574 0008 7B68     		ldr	r3, [r7, #4]
 575 000a 1B68     		ldr	r3, [r3]
 576 000c 1846     		mov	r0, r3
 577 000e FFF7FEFF 		bl	USB_ReadInterrupts
 578 0012 0346     		mov	r3, r0
 579 0014 03F40043 		and	r3, r3, #32768
 580 0018 B3F5004F 		cmp	r3, #32768
 581 001c 02D1     		bne	.L21
 846:../Drivers/STM32F3xx_HAL_Driver/Src/stm32f3xx_hal_pcd.c ****   {
 847:../Drivers/STM32F3xx_HAL_Driver/Src/stm32f3xx_hal_pcd.c ****     /* servicing of the endpoint correct transfer interrupt */
 848:../Drivers/STM32F3xx_HAL_Driver/Src/stm32f3xx_hal_pcd.c ****     /* clear of the CTR flag into the sub */
 849:../Drivers/STM32F3xx_HAL_Driver/Src/stm32f3xx_hal_pcd.c ****     (void)PCD_EP_ISR_Handler(hpcd);
 582              		.loc 1 849 0
 583 001e 7868     		ldr	r0, [r7, #4]
 584 0020 FFF7FEFF 		bl	PCD_EP_ISR_Handler
 585              	.L21:
ARM GAS  /tmp/ccmjhst0.s 			page 26


 850:../Drivers/STM32F3xx_HAL_Driver/Src/stm32f3xx_hal_pcd.c ****   }
 851:../Drivers/STM32F3xx_HAL_Driver/Src/stm32f3xx_hal_pcd.c **** 
 852:../Drivers/STM32F3xx_HAL_Driver/Src/stm32f3xx_hal_pcd.c ****   if (__HAL_PCD_GET_FLAG(hpcd, USB_ISTR_RESET))
 586              		.loc 1 852 0
 587 0024 7B68     		ldr	r3, [r7, #4]
 588 0026 1B68     		ldr	r3, [r3]
 589 0028 1846     		mov	r0, r3
 590 002a FFF7FEFF 		bl	USB_ReadInterrupts
 591 002e 0346     		mov	r3, r0
 592 0030 03F48063 		and	r3, r3, #1024
 593 0034 B3F5806F 		cmp	r3, #1024
 594 0038 12D1     		bne	.L22
 853:../Drivers/STM32F3xx_HAL_Driver/Src/stm32f3xx_hal_pcd.c ****   {
 854:../Drivers/STM32F3xx_HAL_Driver/Src/stm32f3xx_hal_pcd.c ****     __HAL_PCD_CLEAR_FLAG(hpcd, USB_ISTR_RESET);
 595              		.loc 1 854 0
 596 003a 7B68     		ldr	r3, [r7, #4]
 597 003c 1B68     		ldr	r3, [r3]
 598 003e 7A68     		ldr	r2, [r7, #4]
 599 0040 1268     		ldr	r2, [r2]
 600 0042 B2F84420 		ldrh	r2, [r2, #68]	@ movhi
 601 0046 92B2     		uxth	r2, r2
 602 0048 22F48062 		bic	r2, r2, #1024
 603 004c 92B2     		uxth	r2, r2
 604 004e A3F84420 		strh	r2, [r3, #68]	@ movhi
 855:../Drivers/STM32F3xx_HAL_Driver/Src/stm32f3xx_hal_pcd.c **** 
 856:../Drivers/STM32F3xx_HAL_Driver/Src/stm32f3xx_hal_pcd.c **** #if (USE_HAL_PCD_REGISTER_CALLBACKS == 1U)
 857:../Drivers/STM32F3xx_HAL_Driver/Src/stm32f3xx_hal_pcd.c ****     hpcd->ResetCallback(hpcd);
 858:../Drivers/STM32F3xx_HAL_Driver/Src/stm32f3xx_hal_pcd.c **** #else
 859:../Drivers/STM32F3xx_HAL_Driver/Src/stm32f3xx_hal_pcd.c ****     HAL_PCD_ResetCallback(hpcd);
 605              		.loc 1 859 0
 606 0052 7868     		ldr	r0, [r7, #4]
 607 0054 FFF7FEFF 		bl	HAL_PCD_ResetCallback
 860:../Drivers/STM32F3xx_HAL_Driver/Src/stm32f3xx_hal_pcd.c **** #endif /* USE_HAL_PCD_REGISTER_CALLBACKS */
 861:../Drivers/STM32F3xx_HAL_Driver/Src/stm32f3xx_hal_pcd.c **** 
 862:../Drivers/STM32F3xx_HAL_Driver/Src/stm32f3xx_hal_pcd.c ****     (void)HAL_PCD_SetAddress(hpcd, 0U);
 608              		.loc 1 862 0
 609 0058 0021     		movs	r1, #0
 610 005a 7868     		ldr	r0, [r7, #4]
 611 005c FFF7FEFF 		bl	HAL_PCD_SetAddress
 612              	.L22:
 863:../Drivers/STM32F3xx_HAL_Driver/Src/stm32f3xx_hal_pcd.c ****   }
 864:../Drivers/STM32F3xx_HAL_Driver/Src/stm32f3xx_hal_pcd.c **** 
 865:../Drivers/STM32F3xx_HAL_Driver/Src/stm32f3xx_hal_pcd.c ****   if (__HAL_PCD_GET_FLAG(hpcd, USB_ISTR_PMAOVR))
 613              		.loc 1 865 0
 614 0060 7B68     		ldr	r3, [r7, #4]
 615 0062 1B68     		ldr	r3, [r3]
 616 0064 1846     		mov	r0, r3
 617 0066 FFF7FEFF 		bl	USB_ReadInterrupts
 618 006a 0346     		mov	r3, r0
 619 006c 03F48043 		and	r3, r3, #16384
 620 0070 B3F5804F 		cmp	r3, #16384
 621 0074 0BD1     		bne	.L23
 866:../Drivers/STM32F3xx_HAL_Driver/Src/stm32f3xx_hal_pcd.c ****   {
 867:../Drivers/STM32F3xx_HAL_Driver/Src/stm32f3xx_hal_pcd.c ****     __HAL_PCD_CLEAR_FLAG(hpcd, USB_ISTR_PMAOVR);
 622              		.loc 1 867 0
 623 0076 7B68     		ldr	r3, [r7, #4]
 624 0078 1B68     		ldr	r3, [r3]
ARM GAS  /tmp/ccmjhst0.s 			page 27


 625 007a 7A68     		ldr	r2, [r7, #4]
 626 007c 1268     		ldr	r2, [r2]
 627 007e B2F84420 		ldrh	r2, [r2, #68]	@ movhi
 628 0082 92B2     		uxth	r2, r2
 629 0084 22F48042 		bic	r2, r2, #16384
 630 0088 92B2     		uxth	r2, r2
 631 008a A3F84420 		strh	r2, [r3, #68]	@ movhi
 632              	.L23:
 868:../Drivers/STM32F3xx_HAL_Driver/Src/stm32f3xx_hal_pcd.c ****   }
 869:../Drivers/STM32F3xx_HAL_Driver/Src/stm32f3xx_hal_pcd.c **** 
 870:../Drivers/STM32F3xx_HAL_Driver/Src/stm32f3xx_hal_pcd.c ****   if (__HAL_PCD_GET_FLAG(hpcd, USB_ISTR_ERR))
 633              		.loc 1 870 0
 634 008e 7B68     		ldr	r3, [r7, #4]
 635 0090 1B68     		ldr	r3, [r3]
 636 0092 1846     		mov	r0, r3
 637 0094 FFF7FEFF 		bl	USB_ReadInterrupts
 638 0098 0346     		mov	r3, r0
 639 009a 03F40053 		and	r3, r3, #8192
 640 009e B3F5005F 		cmp	r3, #8192
 641 00a2 0BD1     		bne	.L24
 871:../Drivers/STM32F3xx_HAL_Driver/Src/stm32f3xx_hal_pcd.c ****   {
 872:../Drivers/STM32F3xx_HAL_Driver/Src/stm32f3xx_hal_pcd.c ****     __HAL_PCD_CLEAR_FLAG(hpcd, USB_ISTR_ERR);
 642              		.loc 1 872 0
 643 00a4 7B68     		ldr	r3, [r7, #4]
 644 00a6 1B68     		ldr	r3, [r3]
 645 00a8 7A68     		ldr	r2, [r7, #4]
 646 00aa 1268     		ldr	r2, [r2]
 647 00ac B2F84420 		ldrh	r2, [r2, #68]	@ movhi
 648 00b0 92B2     		uxth	r2, r2
 649 00b2 22F40052 		bic	r2, r2, #8192
 650 00b6 92B2     		uxth	r2, r2
 651 00b8 A3F84420 		strh	r2, [r3, #68]	@ movhi
 652              	.L24:
 873:../Drivers/STM32F3xx_HAL_Driver/Src/stm32f3xx_hal_pcd.c ****   }
 874:../Drivers/STM32F3xx_HAL_Driver/Src/stm32f3xx_hal_pcd.c **** 
 875:../Drivers/STM32F3xx_HAL_Driver/Src/stm32f3xx_hal_pcd.c ****   if (__HAL_PCD_GET_FLAG(hpcd, USB_ISTR_WKUP))
 653              		.loc 1 875 0
 654 00bc 7B68     		ldr	r3, [r7, #4]
 655 00be 1B68     		ldr	r3, [r3]
 656 00c0 1846     		mov	r0, r3
 657 00c2 FFF7FEFF 		bl	USB_ReadInterrupts
 658 00c6 0346     		mov	r3, r0
 659 00c8 03F48053 		and	r3, r3, #4096
 660 00cc B3F5805F 		cmp	r3, #4096
 661 00d0 26D1     		bne	.L25
 876:../Drivers/STM32F3xx_HAL_Driver/Src/stm32f3xx_hal_pcd.c ****   {
 877:../Drivers/STM32F3xx_HAL_Driver/Src/stm32f3xx_hal_pcd.c ****     hpcd->Instance->CNTR &= (uint16_t) ~(USB_CNTR_LPMODE);
 662              		.loc 1 877 0
 663 00d2 7B68     		ldr	r3, [r7, #4]
 664 00d4 1B68     		ldr	r3, [r3]
 665 00d6 7A68     		ldr	r2, [r7, #4]
 666 00d8 1268     		ldr	r2, [r2]
 667 00da B2F84020 		ldrh	r2, [r2, #64]	@ movhi
 668 00de 92B2     		uxth	r2, r2
 669 00e0 22F00402 		bic	r2, r2, #4
 670 00e4 92B2     		uxth	r2, r2
 671 00e6 A3F84020 		strh	r2, [r3, #64]	@ movhi
ARM GAS  /tmp/ccmjhst0.s 			page 28


 878:../Drivers/STM32F3xx_HAL_Driver/Src/stm32f3xx_hal_pcd.c ****     hpcd->Instance->CNTR &= (uint16_t) ~(USB_CNTR_FSUSP);
 672              		.loc 1 878 0
 673 00ea 7B68     		ldr	r3, [r7, #4]
 674 00ec 1B68     		ldr	r3, [r3]
 675 00ee 7A68     		ldr	r2, [r7, #4]
 676 00f0 1268     		ldr	r2, [r2]
 677 00f2 B2F84020 		ldrh	r2, [r2, #64]	@ movhi
 678 00f6 92B2     		uxth	r2, r2
 679 00f8 22F00802 		bic	r2, r2, #8
 680 00fc 92B2     		uxth	r2, r2
 681 00fe A3F84020 		strh	r2, [r3, #64]	@ movhi
 879:../Drivers/STM32F3xx_HAL_Driver/Src/stm32f3xx_hal_pcd.c **** 
 880:../Drivers/STM32F3xx_HAL_Driver/Src/stm32f3xx_hal_pcd.c **** #if (USE_HAL_PCD_REGISTER_CALLBACKS == 1U)
 881:../Drivers/STM32F3xx_HAL_Driver/Src/stm32f3xx_hal_pcd.c ****     hpcd->ResumeCallback(hpcd);
 882:../Drivers/STM32F3xx_HAL_Driver/Src/stm32f3xx_hal_pcd.c **** #else
 883:../Drivers/STM32F3xx_HAL_Driver/Src/stm32f3xx_hal_pcd.c ****     HAL_PCD_ResumeCallback(hpcd);
 682              		.loc 1 883 0
 683 0102 7868     		ldr	r0, [r7, #4]
 684 0104 FFF7FEFF 		bl	HAL_PCD_ResumeCallback
 884:../Drivers/STM32F3xx_HAL_Driver/Src/stm32f3xx_hal_pcd.c **** #endif /* USE_HAL_PCD_REGISTER_CALLBACKS */
 885:../Drivers/STM32F3xx_HAL_Driver/Src/stm32f3xx_hal_pcd.c **** 
 886:../Drivers/STM32F3xx_HAL_Driver/Src/stm32f3xx_hal_pcd.c ****     __HAL_PCD_CLEAR_FLAG(hpcd, USB_ISTR_WKUP);
 685              		.loc 1 886 0
 686 0108 7B68     		ldr	r3, [r7, #4]
 687 010a 1B68     		ldr	r3, [r3]
 688 010c 7A68     		ldr	r2, [r7, #4]
 689 010e 1268     		ldr	r2, [r2]
 690 0110 B2F84420 		ldrh	r2, [r2, #68]	@ movhi
 691 0114 92B2     		uxth	r2, r2
 692 0116 22F48052 		bic	r2, r2, #4096
 693 011a 92B2     		uxth	r2, r2
 694 011c A3F84420 		strh	r2, [r3, #68]	@ movhi
 695              	.L25:
 887:../Drivers/STM32F3xx_HAL_Driver/Src/stm32f3xx_hal_pcd.c ****   }
 888:../Drivers/STM32F3xx_HAL_Driver/Src/stm32f3xx_hal_pcd.c **** 
 889:../Drivers/STM32F3xx_HAL_Driver/Src/stm32f3xx_hal_pcd.c ****   if (__HAL_PCD_GET_FLAG(hpcd, USB_ISTR_SUSP))
 696              		.loc 1 889 0
 697 0120 7B68     		ldr	r3, [r7, #4]
 698 0122 1B68     		ldr	r3, [r3]
 699 0124 1846     		mov	r0, r3
 700 0126 FFF7FEFF 		bl	USB_ReadInterrupts
 701 012a 0346     		mov	r3, r0
 702 012c 03F40063 		and	r3, r3, #2048
 703 0130 B3F5006F 		cmp	r3, #2048
 704 0134 31D1     		bne	.L26
 890:../Drivers/STM32F3xx_HAL_Driver/Src/stm32f3xx_hal_pcd.c ****   {
 891:../Drivers/STM32F3xx_HAL_Driver/Src/stm32f3xx_hal_pcd.c ****     /* Force low-power mode in the macrocell */
 892:../Drivers/STM32F3xx_HAL_Driver/Src/stm32f3xx_hal_pcd.c ****     hpcd->Instance->CNTR |= USB_CNTR_FSUSP;
 705              		.loc 1 892 0
 706 0136 7B68     		ldr	r3, [r7, #4]
 707 0138 1B68     		ldr	r3, [r3]
 708 013a 7A68     		ldr	r2, [r7, #4]
 709 013c 1268     		ldr	r2, [r2]
 710 013e B2F84020 		ldrh	r2, [r2, #64]	@ movhi
 711 0142 92B2     		uxth	r2, r2
 712 0144 42F00802 		orr	r2, r2, #8
 713 0148 92B2     		uxth	r2, r2
ARM GAS  /tmp/ccmjhst0.s 			page 29


 714 014a A3F84020 		strh	r2, [r3, #64]	@ movhi
 893:../Drivers/STM32F3xx_HAL_Driver/Src/stm32f3xx_hal_pcd.c **** 
 894:../Drivers/STM32F3xx_HAL_Driver/Src/stm32f3xx_hal_pcd.c ****     /* clear of the ISTR bit must be done after setting of CNTR_FSUSP */
 895:../Drivers/STM32F3xx_HAL_Driver/Src/stm32f3xx_hal_pcd.c ****     __HAL_PCD_CLEAR_FLAG(hpcd, USB_ISTR_SUSP);
 715              		.loc 1 895 0
 716 014e 7B68     		ldr	r3, [r7, #4]
 717 0150 1B68     		ldr	r3, [r3]
 718 0152 7A68     		ldr	r2, [r7, #4]
 719 0154 1268     		ldr	r2, [r2]
 720 0156 B2F84420 		ldrh	r2, [r2, #68]	@ movhi
 721 015a 92B2     		uxth	r2, r2
 722 015c 22F40062 		bic	r2, r2, #2048
 723 0160 92B2     		uxth	r2, r2
 724 0162 A3F84420 		strh	r2, [r3, #68]	@ movhi
 896:../Drivers/STM32F3xx_HAL_Driver/Src/stm32f3xx_hal_pcd.c **** 
 897:../Drivers/STM32F3xx_HAL_Driver/Src/stm32f3xx_hal_pcd.c ****     hpcd->Instance->CNTR |= USB_CNTR_LPMODE;
 725              		.loc 1 897 0
 726 0166 7B68     		ldr	r3, [r7, #4]
 727 0168 1B68     		ldr	r3, [r3]
 728 016a 7A68     		ldr	r2, [r7, #4]
 729 016c 1268     		ldr	r2, [r2]
 730 016e B2F84020 		ldrh	r2, [r2, #64]	@ movhi
 731 0172 92B2     		uxth	r2, r2
 732 0174 42F00402 		orr	r2, r2, #4
 733 0178 92B2     		uxth	r2, r2
 734 017a A3F84020 		strh	r2, [r3, #64]	@ movhi
 898:../Drivers/STM32F3xx_HAL_Driver/Src/stm32f3xx_hal_pcd.c **** 
 899:../Drivers/STM32F3xx_HAL_Driver/Src/stm32f3xx_hal_pcd.c ****     if (__HAL_PCD_GET_FLAG(hpcd, USB_ISTR_WKUP) == 0U)
 735              		.loc 1 899 0
 736 017e 7B68     		ldr	r3, [r7, #4]
 737 0180 1B68     		ldr	r3, [r3]
 738 0182 1846     		mov	r0, r3
 739 0184 FFF7FEFF 		bl	USB_ReadInterrupts
 740 0188 0346     		mov	r3, r0
 741 018a 03F48053 		and	r3, r3, #4096
 742 018e B3F5805F 		cmp	r3, #4096
 743 0192 02D0     		beq	.L26
 900:../Drivers/STM32F3xx_HAL_Driver/Src/stm32f3xx_hal_pcd.c ****     {
 901:../Drivers/STM32F3xx_HAL_Driver/Src/stm32f3xx_hal_pcd.c **** #if (USE_HAL_PCD_REGISTER_CALLBACKS == 1U)
 902:../Drivers/STM32F3xx_HAL_Driver/Src/stm32f3xx_hal_pcd.c ****       hpcd->SuspendCallback(hpcd);
 903:../Drivers/STM32F3xx_HAL_Driver/Src/stm32f3xx_hal_pcd.c **** #else
 904:../Drivers/STM32F3xx_HAL_Driver/Src/stm32f3xx_hal_pcd.c ****       HAL_PCD_SuspendCallback(hpcd);
 744              		.loc 1 904 0
 745 0194 7868     		ldr	r0, [r7, #4]
 746 0196 FFF7FEFF 		bl	HAL_PCD_SuspendCallback
 747              	.L26:
 905:../Drivers/STM32F3xx_HAL_Driver/Src/stm32f3xx_hal_pcd.c **** #endif /* USE_HAL_PCD_REGISTER_CALLBACKS */
 906:../Drivers/STM32F3xx_HAL_Driver/Src/stm32f3xx_hal_pcd.c ****     }
 907:../Drivers/STM32F3xx_HAL_Driver/Src/stm32f3xx_hal_pcd.c ****   }
 908:../Drivers/STM32F3xx_HAL_Driver/Src/stm32f3xx_hal_pcd.c **** 
 909:../Drivers/STM32F3xx_HAL_Driver/Src/stm32f3xx_hal_pcd.c ****   if (__HAL_PCD_GET_FLAG(hpcd, USB_ISTR_SOF))
 748              		.loc 1 909 0
 749 019a 7B68     		ldr	r3, [r7, #4]
 750 019c 1B68     		ldr	r3, [r3]
 751 019e 1846     		mov	r0, r3
 752 01a0 FFF7FEFF 		bl	USB_ReadInterrupts
 753 01a4 0346     		mov	r3, r0
ARM GAS  /tmp/ccmjhst0.s 			page 30


 754 01a6 03F40073 		and	r3, r3, #512
 755 01aa B3F5007F 		cmp	r3, #512
 756 01ae 0ED1     		bne	.L27
 910:../Drivers/STM32F3xx_HAL_Driver/Src/stm32f3xx_hal_pcd.c ****   {
 911:../Drivers/STM32F3xx_HAL_Driver/Src/stm32f3xx_hal_pcd.c ****     __HAL_PCD_CLEAR_FLAG(hpcd, USB_ISTR_SOF);
 757              		.loc 1 911 0
 758 01b0 7B68     		ldr	r3, [r7, #4]
 759 01b2 1B68     		ldr	r3, [r3]
 760 01b4 7A68     		ldr	r2, [r7, #4]
 761 01b6 1268     		ldr	r2, [r2]
 762 01b8 B2F84420 		ldrh	r2, [r2, #68]	@ movhi
 763 01bc 92B2     		uxth	r2, r2
 764 01be 22F40072 		bic	r2, r2, #512
 765 01c2 92B2     		uxth	r2, r2
 766 01c4 A3F84420 		strh	r2, [r3, #68]	@ movhi
 912:../Drivers/STM32F3xx_HAL_Driver/Src/stm32f3xx_hal_pcd.c **** 
 913:../Drivers/STM32F3xx_HAL_Driver/Src/stm32f3xx_hal_pcd.c **** #if (USE_HAL_PCD_REGISTER_CALLBACKS == 1U)
 914:../Drivers/STM32F3xx_HAL_Driver/Src/stm32f3xx_hal_pcd.c ****     hpcd->SOFCallback(hpcd);
 915:../Drivers/STM32F3xx_HAL_Driver/Src/stm32f3xx_hal_pcd.c **** #else
 916:../Drivers/STM32F3xx_HAL_Driver/Src/stm32f3xx_hal_pcd.c ****     HAL_PCD_SOFCallback(hpcd);
 767              		.loc 1 916 0
 768 01c8 7868     		ldr	r0, [r7, #4]
 769 01ca FFF7FEFF 		bl	HAL_PCD_SOFCallback
 770              	.L27:
 917:../Drivers/STM32F3xx_HAL_Driver/Src/stm32f3xx_hal_pcd.c **** #endif /* USE_HAL_PCD_REGISTER_CALLBACKS */
 918:../Drivers/STM32F3xx_HAL_Driver/Src/stm32f3xx_hal_pcd.c ****   }
 919:../Drivers/STM32F3xx_HAL_Driver/Src/stm32f3xx_hal_pcd.c **** 
 920:../Drivers/STM32F3xx_HAL_Driver/Src/stm32f3xx_hal_pcd.c ****   if (__HAL_PCD_GET_FLAG(hpcd, USB_ISTR_ESOF))
 771              		.loc 1 920 0
 772 01ce 7B68     		ldr	r3, [r7, #4]
 773 01d0 1B68     		ldr	r3, [r3]
 774 01d2 1846     		mov	r0, r3
 775 01d4 FFF7FEFF 		bl	USB_ReadInterrupts
 776 01d8 0346     		mov	r3, r0
 777 01da 03F48073 		and	r3, r3, #256
 778 01de B3F5807F 		cmp	r3, #256
 779 01e2 0BD1     		bne	.L29
 921:../Drivers/STM32F3xx_HAL_Driver/Src/stm32f3xx_hal_pcd.c ****   {
 922:../Drivers/STM32F3xx_HAL_Driver/Src/stm32f3xx_hal_pcd.c ****     /* clear ESOF flag in ISTR */
 923:../Drivers/STM32F3xx_HAL_Driver/Src/stm32f3xx_hal_pcd.c ****     __HAL_PCD_CLEAR_FLAG(hpcd, USB_ISTR_ESOF);
 780              		.loc 1 923 0
 781 01e4 7B68     		ldr	r3, [r7, #4]
 782 01e6 1B68     		ldr	r3, [r3]
 783 01e8 7A68     		ldr	r2, [r7, #4]
 784 01ea 1268     		ldr	r2, [r2]
 785 01ec B2F84420 		ldrh	r2, [r2, #68]	@ movhi
 786 01f0 92B2     		uxth	r2, r2
 787 01f2 22F48072 		bic	r2, r2, #256
 788 01f6 92B2     		uxth	r2, r2
 789 01f8 A3F84420 		strh	r2, [r3, #68]	@ movhi
 790              	.L29:
 924:../Drivers/STM32F3xx_HAL_Driver/Src/stm32f3xx_hal_pcd.c ****   }
 925:../Drivers/STM32F3xx_HAL_Driver/Src/stm32f3xx_hal_pcd.c **** }
 791              		.loc 1 925 0
 792 01fc 00BF     		nop
 793 01fe 0837     		adds	r7, r7, #8
 794              	.LCFI35:
ARM GAS  /tmp/ccmjhst0.s 			page 31


 795              		.cfi_def_cfa_offset 8
 796 0200 BD46     		mov	sp, r7
 797              	.LCFI36:
 798              		.cfi_def_cfa_register 13
 799              		@ sp needed
 800 0202 80BD     		pop	{r7, pc}
 801              		.cfi_endproc
 802              	.LFE136:
 804              		.section	.text.HAL_PCD_DataOutStageCallback,"ax",%progbits
 805              		.align	1
 806              		.weak	HAL_PCD_DataOutStageCallback
 807              		.syntax unified
 808              		.thumb
 809              		.thumb_func
 810              		.fpu fpv4-sp-d16
 812              	HAL_PCD_DataOutStageCallback:
 813              	.LFB137:
 926:../Drivers/STM32F3xx_HAL_Driver/Src/stm32f3xx_hal_pcd.c **** 
 927:../Drivers/STM32F3xx_HAL_Driver/Src/stm32f3xx_hal_pcd.c **** 
 928:../Drivers/STM32F3xx_HAL_Driver/Src/stm32f3xx_hal_pcd.c **** /**
 929:../Drivers/STM32F3xx_HAL_Driver/Src/stm32f3xx_hal_pcd.c ****   * @brief  Data OUT stage callback.
 930:../Drivers/STM32F3xx_HAL_Driver/Src/stm32f3xx_hal_pcd.c ****   * @param  hpcd PCD handle
 931:../Drivers/STM32F3xx_HAL_Driver/Src/stm32f3xx_hal_pcd.c ****   * @param  epnum endpoint number
 932:../Drivers/STM32F3xx_HAL_Driver/Src/stm32f3xx_hal_pcd.c ****   * @retval None
 933:../Drivers/STM32F3xx_HAL_Driver/Src/stm32f3xx_hal_pcd.c ****   */
 934:../Drivers/STM32F3xx_HAL_Driver/Src/stm32f3xx_hal_pcd.c **** __weak void HAL_PCD_DataOutStageCallback(PCD_HandleTypeDef *hpcd, uint8_t epnum)
 935:../Drivers/STM32F3xx_HAL_Driver/Src/stm32f3xx_hal_pcd.c **** {
 814              		.loc 1 935 0
 815              		.cfi_startproc
 816              		@ args = 0, pretend = 0, frame = 8
 817              		@ frame_needed = 1, uses_anonymous_args = 0
 818              		@ link register save eliminated.
 819 0000 80B4     		push	{r7}
 820              	.LCFI37:
 821              		.cfi_def_cfa_offset 4
 822              		.cfi_offset 7, -4
 823 0002 83B0     		sub	sp, sp, #12
 824              	.LCFI38:
 825              		.cfi_def_cfa_offset 16
 826 0004 00AF     		add	r7, sp, #0
 827              	.LCFI39:
 828              		.cfi_def_cfa_register 7
 829 0006 7860     		str	r0, [r7, #4]
 830 0008 0B46     		mov	r3, r1
 831 000a FB70     		strb	r3, [r7, #3]
 936:../Drivers/STM32F3xx_HAL_Driver/Src/stm32f3xx_hal_pcd.c ****   /* Prevent unused argument(s) compilation warning */
 937:../Drivers/STM32F3xx_HAL_Driver/Src/stm32f3xx_hal_pcd.c ****   UNUSED(hpcd);
 938:../Drivers/STM32F3xx_HAL_Driver/Src/stm32f3xx_hal_pcd.c ****   UNUSED(epnum);
 939:../Drivers/STM32F3xx_HAL_Driver/Src/stm32f3xx_hal_pcd.c **** 
 940:../Drivers/STM32F3xx_HAL_Driver/Src/stm32f3xx_hal_pcd.c ****   /* NOTE : This function should not be modified, when the callback is needed,
 941:../Drivers/STM32F3xx_HAL_Driver/Src/stm32f3xx_hal_pcd.c ****             the HAL_PCD_DataOutStageCallback could be implemented in the user file
 942:../Drivers/STM32F3xx_HAL_Driver/Src/stm32f3xx_hal_pcd.c ****    */
 943:../Drivers/STM32F3xx_HAL_Driver/Src/stm32f3xx_hal_pcd.c **** }
 832              		.loc 1 943 0
 833 000c 00BF     		nop
 834 000e 0C37     		adds	r7, r7, #12
 835              	.LCFI40:
ARM GAS  /tmp/ccmjhst0.s 			page 32


 836              		.cfi_def_cfa_offset 4
 837 0010 BD46     		mov	sp, r7
 838              	.LCFI41:
 839              		.cfi_def_cfa_register 13
 840              		@ sp needed
 841 0012 5DF8047B 		ldr	r7, [sp], #4
 842              	.LCFI42:
 843              		.cfi_restore 7
 844              		.cfi_def_cfa_offset 0
 845 0016 7047     		bx	lr
 846              		.cfi_endproc
 847              	.LFE137:
 849              		.section	.text.HAL_PCD_DataInStageCallback,"ax",%progbits
 850              		.align	1
 851              		.weak	HAL_PCD_DataInStageCallback
 852              		.syntax unified
 853              		.thumb
 854              		.thumb_func
 855              		.fpu fpv4-sp-d16
 857              	HAL_PCD_DataInStageCallback:
 858              	.LFB138:
 944:../Drivers/STM32F3xx_HAL_Driver/Src/stm32f3xx_hal_pcd.c **** 
 945:../Drivers/STM32F3xx_HAL_Driver/Src/stm32f3xx_hal_pcd.c **** /**
 946:../Drivers/STM32F3xx_HAL_Driver/Src/stm32f3xx_hal_pcd.c ****   * @brief  Data IN stage callback
 947:../Drivers/STM32F3xx_HAL_Driver/Src/stm32f3xx_hal_pcd.c ****   * @param  hpcd PCD handle
 948:../Drivers/STM32F3xx_HAL_Driver/Src/stm32f3xx_hal_pcd.c ****   * @param  epnum endpoint number
 949:../Drivers/STM32F3xx_HAL_Driver/Src/stm32f3xx_hal_pcd.c ****   * @retval None
 950:../Drivers/STM32F3xx_HAL_Driver/Src/stm32f3xx_hal_pcd.c ****   */
 951:../Drivers/STM32F3xx_HAL_Driver/Src/stm32f3xx_hal_pcd.c **** __weak void HAL_PCD_DataInStageCallback(PCD_HandleTypeDef *hpcd, uint8_t epnum)
 952:../Drivers/STM32F3xx_HAL_Driver/Src/stm32f3xx_hal_pcd.c **** {
 859              		.loc 1 952 0
 860              		.cfi_startproc
 861              		@ args = 0, pretend = 0, frame = 8
 862              		@ frame_needed = 1, uses_anonymous_args = 0
 863              		@ link register save eliminated.
 864 0000 80B4     		push	{r7}
 865              	.LCFI43:
 866              		.cfi_def_cfa_offset 4
 867              		.cfi_offset 7, -4
 868 0002 83B0     		sub	sp, sp, #12
 869              	.LCFI44:
 870              		.cfi_def_cfa_offset 16
 871 0004 00AF     		add	r7, sp, #0
 872              	.LCFI45:
 873              		.cfi_def_cfa_register 7
 874 0006 7860     		str	r0, [r7, #4]
 875 0008 0B46     		mov	r3, r1
 876 000a FB70     		strb	r3, [r7, #3]
 953:../Drivers/STM32F3xx_HAL_Driver/Src/stm32f3xx_hal_pcd.c ****   /* Prevent unused argument(s) compilation warning */
 954:../Drivers/STM32F3xx_HAL_Driver/Src/stm32f3xx_hal_pcd.c ****   UNUSED(hpcd);
 955:../Drivers/STM32F3xx_HAL_Driver/Src/stm32f3xx_hal_pcd.c ****   UNUSED(epnum);
 956:../Drivers/STM32F3xx_HAL_Driver/Src/stm32f3xx_hal_pcd.c **** 
 957:../Drivers/STM32F3xx_HAL_Driver/Src/stm32f3xx_hal_pcd.c ****   /* NOTE : This function should not be modified, when the callback is needed,
 958:../Drivers/STM32F3xx_HAL_Driver/Src/stm32f3xx_hal_pcd.c ****             the HAL_PCD_DataInStageCallback could be implemented in the user file
 959:../Drivers/STM32F3xx_HAL_Driver/Src/stm32f3xx_hal_pcd.c ****    */
 960:../Drivers/STM32F3xx_HAL_Driver/Src/stm32f3xx_hal_pcd.c **** }
 877              		.loc 1 960 0
ARM GAS  /tmp/ccmjhst0.s 			page 33


 878 000c 00BF     		nop
 879 000e 0C37     		adds	r7, r7, #12
 880              	.LCFI46:
 881              		.cfi_def_cfa_offset 4
 882 0010 BD46     		mov	sp, r7
 883              	.LCFI47:
 884              		.cfi_def_cfa_register 13
 885              		@ sp needed
 886 0012 5DF8047B 		ldr	r7, [sp], #4
 887              	.LCFI48:
 888              		.cfi_restore 7
 889              		.cfi_def_cfa_offset 0
 890 0016 7047     		bx	lr
 891              		.cfi_endproc
 892              	.LFE138:
 894              		.section	.text.HAL_PCD_SetupStageCallback,"ax",%progbits
 895              		.align	1
 896              		.weak	HAL_PCD_SetupStageCallback
 897              		.syntax unified
 898              		.thumb
 899              		.thumb_func
 900              		.fpu fpv4-sp-d16
 902              	HAL_PCD_SetupStageCallback:
 903              	.LFB139:
 961:../Drivers/STM32F3xx_HAL_Driver/Src/stm32f3xx_hal_pcd.c **** /**
 962:../Drivers/STM32F3xx_HAL_Driver/Src/stm32f3xx_hal_pcd.c ****   * @brief  Setup stage callback
 963:../Drivers/STM32F3xx_HAL_Driver/Src/stm32f3xx_hal_pcd.c ****   * @param  hpcd PCD handle
 964:../Drivers/STM32F3xx_HAL_Driver/Src/stm32f3xx_hal_pcd.c ****   * @retval None
 965:../Drivers/STM32F3xx_HAL_Driver/Src/stm32f3xx_hal_pcd.c ****   */
 966:../Drivers/STM32F3xx_HAL_Driver/Src/stm32f3xx_hal_pcd.c **** __weak void HAL_PCD_SetupStageCallback(PCD_HandleTypeDef *hpcd)
 967:../Drivers/STM32F3xx_HAL_Driver/Src/stm32f3xx_hal_pcd.c **** {
 904              		.loc 1 967 0
 905              		.cfi_startproc
 906              		@ args = 0, pretend = 0, frame = 8
 907              		@ frame_needed = 1, uses_anonymous_args = 0
 908              		@ link register save eliminated.
 909 0000 80B4     		push	{r7}
 910              	.LCFI49:
 911              		.cfi_def_cfa_offset 4
 912              		.cfi_offset 7, -4
 913 0002 83B0     		sub	sp, sp, #12
 914              	.LCFI50:
 915              		.cfi_def_cfa_offset 16
 916 0004 00AF     		add	r7, sp, #0
 917              	.LCFI51:
 918              		.cfi_def_cfa_register 7
 919 0006 7860     		str	r0, [r7, #4]
 968:../Drivers/STM32F3xx_HAL_Driver/Src/stm32f3xx_hal_pcd.c ****   /* Prevent unused argument(s) compilation warning */
 969:../Drivers/STM32F3xx_HAL_Driver/Src/stm32f3xx_hal_pcd.c ****   UNUSED(hpcd);
 970:../Drivers/STM32F3xx_HAL_Driver/Src/stm32f3xx_hal_pcd.c **** 
 971:../Drivers/STM32F3xx_HAL_Driver/Src/stm32f3xx_hal_pcd.c ****   /* NOTE : This function should not be modified, when the callback is needed,
 972:../Drivers/STM32F3xx_HAL_Driver/Src/stm32f3xx_hal_pcd.c ****             the HAL_PCD_SetupStageCallback could be implemented in the user file
 973:../Drivers/STM32F3xx_HAL_Driver/Src/stm32f3xx_hal_pcd.c ****    */
 974:../Drivers/STM32F3xx_HAL_Driver/Src/stm32f3xx_hal_pcd.c **** }
 920              		.loc 1 974 0
 921 0008 00BF     		nop
 922 000a 0C37     		adds	r7, r7, #12
ARM GAS  /tmp/ccmjhst0.s 			page 34


 923              	.LCFI52:
 924              		.cfi_def_cfa_offset 4
 925 000c BD46     		mov	sp, r7
 926              	.LCFI53:
 927              		.cfi_def_cfa_register 13
 928              		@ sp needed
 929 000e 5DF8047B 		ldr	r7, [sp], #4
 930              	.LCFI54:
 931              		.cfi_restore 7
 932              		.cfi_def_cfa_offset 0
 933 0012 7047     		bx	lr
 934              		.cfi_endproc
 935              	.LFE139:
 937              		.section	.text.HAL_PCD_SOFCallback,"ax",%progbits
 938              		.align	1
 939              		.weak	HAL_PCD_SOFCallback
 940              		.syntax unified
 941              		.thumb
 942              		.thumb_func
 943              		.fpu fpv4-sp-d16
 945              	HAL_PCD_SOFCallback:
 946              	.LFB140:
 975:../Drivers/STM32F3xx_HAL_Driver/Src/stm32f3xx_hal_pcd.c **** 
 976:../Drivers/STM32F3xx_HAL_Driver/Src/stm32f3xx_hal_pcd.c **** /**
 977:../Drivers/STM32F3xx_HAL_Driver/Src/stm32f3xx_hal_pcd.c ****   * @brief  USB Start Of Frame callback.
 978:../Drivers/STM32F3xx_HAL_Driver/Src/stm32f3xx_hal_pcd.c ****   * @param  hpcd PCD handle
 979:../Drivers/STM32F3xx_HAL_Driver/Src/stm32f3xx_hal_pcd.c ****   * @retval None
 980:../Drivers/STM32F3xx_HAL_Driver/Src/stm32f3xx_hal_pcd.c ****   */
 981:../Drivers/STM32F3xx_HAL_Driver/Src/stm32f3xx_hal_pcd.c **** __weak void HAL_PCD_SOFCallback(PCD_HandleTypeDef *hpcd)
 982:../Drivers/STM32F3xx_HAL_Driver/Src/stm32f3xx_hal_pcd.c **** {
 947              		.loc 1 982 0
 948              		.cfi_startproc
 949              		@ args = 0, pretend = 0, frame = 8
 950              		@ frame_needed = 1, uses_anonymous_args = 0
 951              		@ link register save eliminated.
 952 0000 80B4     		push	{r7}
 953              	.LCFI55:
 954              		.cfi_def_cfa_offset 4
 955              		.cfi_offset 7, -4
 956 0002 83B0     		sub	sp, sp, #12
 957              	.LCFI56:
 958              		.cfi_def_cfa_offset 16
 959 0004 00AF     		add	r7, sp, #0
 960              	.LCFI57:
 961              		.cfi_def_cfa_register 7
 962 0006 7860     		str	r0, [r7, #4]
 983:../Drivers/STM32F3xx_HAL_Driver/Src/stm32f3xx_hal_pcd.c ****   /* Prevent unused argument(s) compilation warning */
 984:../Drivers/STM32F3xx_HAL_Driver/Src/stm32f3xx_hal_pcd.c ****   UNUSED(hpcd);
 985:../Drivers/STM32F3xx_HAL_Driver/Src/stm32f3xx_hal_pcd.c **** 
 986:../Drivers/STM32F3xx_HAL_Driver/Src/stm32f3xx_hal_pcd.c ****   /* NOTE : This function should not be modified, when the callback is needed,
 987:../Drivers/STM32F3xx_HAL_Driver/Src/stm32f3xx_hal_pcd.c ****             the HAL_PCD_SOFCallback could be implemented in the user file
 988:../Drivers/STM32F3xx_HAL_Driver/Src/stm32f3xx_hal_pcd.c ****    */
 989:../Drivers/STM32F3xx_HAL_Driver/Src/stm32f3xx_hal_pcd.c **** }
 963              		.loc 1 989 0
 964 0008 00BF     		nop
 965 000a 0C37     		adds	r7, r7, #12
 966              	.LCFI58:
ARM GAS  /tmp/ccmjhst0.s 			page 35


 967              		.cfi_def_cfa_offset 4
 968 000c BD46     		mov	sp, r7
 969              	.LCFI59:
 970              		.cfi_def_cfa_register 13
 971              		@ sp needed
 972 000e 5DF8047B 		ldr	r7, [sp], #4
 973              	.LCFI60:
 974              		.cfi_restore 7
 975              		.cfi_def_cfa_offset 0
 976 0012 7047     		bx	lr
 977              		.cfi_endproc
 978              	.LFE140:
 980              		.section	.text.HAL_PCD_ResetCallback,"ax",%progbits
 981              		.align	1
 982              		.weak	HAL_PCD_ResetCallback
 983              		.syntax unified
 984              		.thumb
 985              		.thumb_func
 986              		.fpu fpv4-sp-d16
 988              	HAL_PCD_ResetCallback:
 989              	.LFB141:
 990:../Drivers/STM32F3xx_HAL_Driver/Src/stm32f3xx_hal_pcd.c **** 
 991:../Drivers/STM32F3xx_HAL_Driver/Src/stm32f3xx_hal_pcd.c **** /**
 992:../Drivers/STM32F3xx_HAL_Driver/Src/stm32f3xx_hal_pcd.c ****   * @brief  USB Reset callback.
 993:../Drivers/STM32F3xx_HAL_Driver/Src/stm32f3xx_hal_pcd.c ****   * @param  hpcd PCD handle
 994:../Drivers/STM32F3xx_HAL_Driver/Src/stm32f3xx_hal_pcd.c ****   * @retval None
 995:../Drivers/STM32F3xx_HAL_Driver/Src/stm32f3xx_hal_pcd.c ****   */
 996:../Drivers/STM32F3xx_HAL_Driver/Src/stm32f3xx_hal_pcd.c **** __weak void HAL_PCD_ResetCallback(PCD_HandleTypeDef *hpcd)
 997:../Drivers/STM32F3xx_HAL_Driver/Src/stm32f3xx_hal_pcd.c **** {
 990              		.loc 1 997 0
 991              		.cfi_startproc
 992              		@ args = 0, pretend = 0, frame = 8
 993              		@ frame_needed = 1, uses_anonymous_args = 0
 994              		@ link register save eliminated.
 995 0000 80B4     		push	{r7}
 996              	.LCFI61:
 997              		.cfi_def_cfa_offset 4
 998              		.cfi_offset 7, -4
 999 0002 83B0     		sub	sp, sp, #12
 1000              	.LCFI62:
 1001              		.cfi_def_cfa_offset 16
 1002 0004 00AF     		add	r7, sp, #0
 1003              	.LCFI63:
 1004              		.cfi_def_cfa_register 7
 1005 0006 7860     		str	r0, [r7, #4]
 998:../Drivers/STM32F3xx_HAL_Driver/Src/stm32f3xx_hal_pcd.c ****   /* Prevent unused argument(s) compilation warning */
 999:../Drivers/STM32F3xx_HAL_Driver/Src/stm32f3xx_hal_pcd.c ****   UNUSED(hpcd);
1000:../Drivers/STM32F3xx_HAL_Driver/Src/stm32f3xx_hal_pcd.c **** 
1001:../Drivers/STM32F3xx_HAL_Driver/Src/stm32f3xx_hal_pcd.c ****   /* NOTE : This function should not be modified, when the callback is needed,
1002:../Drivers/STM32F3xx_HAL_Driver/Src/stm32f3xx_hal_pcd.c ****             the HAL_PCD_ResetCallback could be implemented in the user file
1003:../Drivers/STM32F3xx_HAL_Driver/Src/stm32f3xx_hal_pcd.c ****    */
1004:../Drivers/STM32F3xx_HAL_Driver/Src/stm32f3xx_hal_pcd.c **** }
 1006              		.loc 1 1004 0
 1007 0008 00BF     		nop
 1008 000a 0C37     		adds	r7, r7, #12
 1009              	.LCFI64:
 1010              		.cfi_def_cfa_offset 4
ARM GAS  /tmp/ccmjhst0.s 			page 36


 1011 000c BD46     		mov	sp, r7
 1012              	.LCFI65:
 1013              		.cfi_def_cfa_register 13
 1014              		@ sp needed
 1015 000e 5DF8047B 		ldr	r7, [sp], #4
 1016              	.LCFI66:
 1017              		.cfi_restore 7
 1018              		.cfi_def_cfa_offset 0
 1019 0012 7047     		bx	lr
 1020              		.cfi_endproc
 1021              	.LFE141:
 1023              		.section	.text.HAL_PCD_SuspendCallback,"ax",%progbits
 1024              		.align	1
 1025              		.weak	HAL_PCD_SuspendCallback
 1026              		.syntax unified
 1027              		.thumb
 1028              		.thumb_func
 1029              		.fpu fpv4-sp-d16
 1031              	HAL_PCD_SuspendCallback:
 1032              	.LFB142:
1005:../Drivers/STM32F3xx_HAL_Driver/Src/stm32f3xx_hal_pcd.c **** 
1006:../Drivers/STM32F3xx_HAL_Driver/Src/stm32f3xx_hal_pcd.c **** /**
1007:../Drivers/STM32F3xx_HAL_Driver/Src/stm32f3xx_hal_pcd.c ****   * @brief  Suspend event callback.
1008:../Drivers/STM32F3xx_HAL_Driver/Src/stm32f3xx_hal_pcd.c ****   * @param  hpcd PCD handle
1009:../Drivers/STM32F3xx_HAL_Driver/Src/stm32f3xx_hal_pcd.c ****   * @retval None
1010:../Drivers/STM32F3xx_HAL_Driver/Src/stm32f3xx_hal_pcd.c ****   */
1011:../Drivers/STM32F3xx_HAL_Driver/Src/stm32f3xx_hal_pcd.c **** __weak void HAL_PCD_SuspendCallback(PCD_HandleTypeDef *hpcd)
1012:../Drivers/STM32F3xx_HAL_Driver/Src/stm32f3xx_hal_pcd.c **** {
 1033              		.loc 1 1012 0
 1034              		.cfi_startproc
 1035              		@ args = 0, pretend = 0, frame = 8
 1036              		@ frame_needed = 1, uses_anonymous_args = 0
 1037              		@ link register save eliminated.
 1038 0000 80B4     		push	{r7}
 1039              	.LCFI67:
 1040              		.cfi_def_cfa_offset 4
 1041              		.cfi_offset 7, -4
 1042 0002 83B0     		sub	sp, sp, #12
 1043              	.LCFI68:
 1044              		.cfi_def_cfa_offset 16
 1045 0004 00AF     		add	r7, sp, #0
 1046              	.LCFI69:
 1047              		.cfi_def_cfa_register 7
 1048 0006 7860     		str	r0, [r7, #4]
1013:../Drivers/STM32F3xx_HAL_Driver/Src/stm32f3xx_hal_pcd.c ****   /* Prevent unused argument(s) compilation warning */
1014:../Drivers/STM32F3xx_HAL_Driver/Src/stm32f3xx_hal_pcd.c ****   UNUSED(hpcd);
1015:../Drivers/STM32F3xx_HAL_Driver/Src/stm32f3xx_hal_pcd.c **** 
1016:../Drivers/STM32F3xx_HAL_Driver/Src/stm32f3xx_hal_pcd.c ****   /* NOTE : This function should not be modified, when the callback is needed,
1017:../Drivers/STM32F3xx_HAL_Driver/Src/stm32f3xx_hal_pcd.c ****             the HAL_PCD_SuspendCallback could be implemented in the user file
1018:../Drivers/STM32F3xx_HAL_Driver/Src/stm32f3xx_hal_pcd.c ****    */
1019:../Drivers/STM32F3xx_HAL_Driver/Src/stm32f3xx_hal_pcd.c **** }
 1049              		.loc 1 1019 0
 1050 0008 00BF     		nop
 1051 000a 0C37     		adds	r7, r7, #12
 1052              	.LCFI70:
 1053              		.cfi_def_cfa_offset 4
 1054 000c BD46     		mov	sp, r7
ARM GAS  /tmp/ccmjhst0.s 			page 37


 1055              	.LCFI71:
 1056              		.cfi_def_cfa_register 13
 1057              		@ sp needed
 1058 000e 5DF8047B 		ldr	r7, [sp], #4
 1059              	.LCFI72:
 1060              		.cfi_restore 7
 1061              		.cfi_def_cfa_offset 0
 1062 0012 7047     		bx	lr
 1063              		.cfi_endproc
 1064              	.LFE142:
 1066              		.section	.text.HAL_PCD_ResumeCallback,"ax",%progbits
 1067              		.align	1
 1068              		.weak	HAL_PCD_ResumeCallback
 1069              		.syntax unified
 1070              		.thumb
 1071              		.thumb_func
 1072              		.fpu fpv4-sp-d16
 1074              	HAL_PCD_ResumeCallback:
 1075              	.LFB143:
1020:../Drivers/STM32F3xx_HAL_Driver/Src/stm32f3xx_hal_pcd.c **** 
1021:../Drivers/STM32F3xx_HAL_Driver/Src/stm32f3xx_hal_pcd.c **** /**
1022:../Drivers/STM32F3xx_HAL_Driver/Src/stm32f3xx_hal_pcd.c ****   * @brief  Resume event callback.
1023:../Drivers/STM32F3xx_HAL_Driver/Src/stm32f3xx_hal_pcd.c ****   * @param  hpcd PCD handle
1024:../Drivers/STM32F3xx_HAL_Driver/Src/stm32f3xx_hal_pcd.c ****   * @retval None
1025:../Drivers/STM32F3xx_HAL_Driver/Src/stm32f3xx_hal_pcd.c ****   */
1026:../Drivers/STM32F3xx_HAL_Driver/Src/stm32f3xx_hal_pcd.c **** __weak void HAL_PCD_ResumeCallback(PCD_HandleTypeDef *hpcd)
1027:../Drivers/STM32F3xx_HAL_Driver/Src/stm32f3xx_hal_pcd.c **** {
 1076              		.loc 1 1027 0
 1077              		.cfi_startproc
 1078              		@ args = 0, pretend = 0, frame = 8
 1079              		@ frame_needed = 1, uses_anonymous_args = 0
 1080              		@ link register save eliminated.
 1081 0000 80B4     		push	{r7}
 1082              	.LCFI73:
 1083              		.cfi_def_cfa_offset 4
 1084              		.cfi_offset 7, -4
 1085 0002 83B0     		sub	sp, sp, #12
 1086              	.LCFI74:
 1087              		.cfi_def_cfa_offset 16
 1088 0004 00AF     		add	r7, sp, #0
 1089              	.LCFI75:
 1090              		.cfi_def_cfa_register 7
 1091 0006 7860     		str	r0, [r7, #4]
1028:../Drivers/STM32F3xx_HAL_Driver/Src/stm32f3xx_hal_pcd.c ****   /* Prevent unused argument(s) compilation warning */
1029:../Drivers/STM32F3xx_HAL_Driver/Src/stm32f3xx_hal_pcd.c ****   UNUSED(hpcd);
1030:../Drivers/STM32F3xx_HAL_Driver/Src/stm32f3xx_hal_pcd.c **** 
1031:../Drivers/STM32F3xx_HAL_Driver/Src/stm32f3xx_hal_pcd.c ****   /* NOTE : This function should not be modified, when the callback is needed,
1032:../Drivers/STM32F3xx_HAL_Driver/Src/stm32f3xx_hal_pcd.c ****             the HAL_PCD_ResumeCallback could be implemented in the user file
1033:../Drivers/STM32F3xx_HAL_Driver/Src/stm32f3xx_hal_pcd.c ****    */
1034:../Drivers/STM32F3xx_HAL_Driver/Src/stm32f3xx_hal_pcd.c **** }
 1092              		.loc 1 1034 0
 1093 0008 00BF     		nop
 1094 000a 0C37     		adds	r7, r7, #12
 1095              	.LCFI76:
 1096              		.cfi_def_cfa_offset 4
 1097 000c BD46     		mov	sp, r7
 1098              	.LCFI77:
ARM GAS  /tmp/ccmjhst0.s 			page 38


 1099              		.cfi_def_cfa_register 13
 1100              		@ sp needed
 1101 000e 5DF8047B 		ldr	r7, [sp], #4
 1102              	.LCFI78:
 1103              		.cfi_restore 7
 1104              		.cfi_def_cfa_offset 0
 1105 0012 7047     		bx	lr
 1106              		.cfi_endproc
 1107              	.LFE143:
 1109              		.section	.text.HAL_PCD_ISOOUTIncompleteCallback,"ax",%progbits
 1110              		.align	1
 1111              		.weak	HAL_PCD_ISOOUTIncompleteCallback
 1112              		.syntax unified
 1113              		.thumb
 1114              		.thumb_func
 1115              		.fpu fpv4-sp-d16
 1117              	HAL_PCD_ISOOUTIncompleteCallback:
 1118              	.LFB144:
1035:../Drivers/STM32F3xx_HAL_Driver/Src/stm32f3xx_hal_pcd.c **** 
1036:../Drivers/STM32F3xx_HAL_Driver/Src/stm32f3xx_hal_pcd.c **** /**
1037:../Drivers/STM32F3xx_HAL_Driver/Src/stm32f3xx_hal_pcd.c ****   * @brief  Incomplete ISO OUT callback.
1038:../Drivers/STM32F3xx_HAL_Driver/Src/stm32f3xx_hal_pcd.c ****   * @param  hpcd PCD handle
1039:../Drivers/STM32F3xx_HAL_Driver/Src/stm32f3xx_hal_pcd.c ****   * @param  epnum endpoint number
1040:../Drivers/STM32F3xx_HAL_Driver/Src/stm32f3xx_hal_pcd.c ****   * @retval None
1041:../Drivers/STM32F3xx_HAL_Driver/Src/stm32f3xx_hal_pcd.c ****   */
1042:../Drivers/STM32F3xx_HAL_Driver/Src/stm32f3xx_hal_pcd.c **** __weak void HAL_PCD_ISOOUTIncompleteCallback(PCD_HandleTypeDef *hpcd, uint8_t epnum)
1043:../Drivers/STM32F3xx_HAL_Driver/Src/stm32f3xx_hal_pcd.c **** {
 1119              		.loc 1 1043 0
 1120              		.cfi_startproc
 1121              		@ args = 0, pretend = 0, frame = 8
 1122              		@ frame_needed = 1, uses_anonymous_args = 0
 1123              		@ link register save eliminated.
 1124 0000 80B4     		push	{r7}
 1125              	.LCFI79:
 1126              		.cfi_def_cfa_offset 4
 1127              		.cfi_offset 7, -4
 1128 0002 83B0     		sub	sp, sp, #12
 1129              	.LCFI80:
 1130              		.cfi_def_cfa_offset 16
 1131 0004 00AF     		add	r7, sp, #0
 1132              	.LCFI81:
 1133              		.cfi_def_cfa_register 7
 1134 0006 7860     		str	r0, [r7, #4]
 1135 0008 0B46     		mov	r3, r1
 1136 000a FB70     		strb	r3, [r7, #3]
1044:../Drivers/STM32F3xx_HAL_Driver/Src/stm32f3xx_hal_pcd.c ****   /* Prevent unused argument(s) compilation warning */
1045:../Drivers/STM32F3xx_HAL_Driver/Src/stm32f3xx_hal_pcd.c ****   UNUSED(hpcd);
1046:../Drivers/STM32F3xx_HAL_Driver/Src/stm32f3xx_hal_pcd.c ****   UNUSED(epnum);
1047:../Drivers/STM32F3xx_HAL_Driver/Src/stm32f3xx_hal_pcd.c **** 
1048:../Drivers/STM32F3xx_HAL_Driver/Src/stm32f3xx_hal_pcd.c ****   /* NOTE : This function should not be modified, when the callback is needed,
1049:../Drivers/STM32F3xx_HAL_Driver/Src/stm32f3xx_hal_pcd.c ****             the HAL_PCD_ISOOUTIncompleteCallback could be implemented in the user file
1050:../Drivers/STM32F3xx_HAL_Driver/Src/stm32f3xx_hal_pcd.c ****    */
1051:../Drivers/STM32F3xx_HAL_Driver/Src/stm32f3xx_hal_pcd.c **** }
 1137              		.loc 1 1051 0
 1138 000c 00BF     		nop
 1139 000e 0C37     		adds	r7, r7, #12
 1140              	.LCFI82:
ARM GAS  /tmp/ccmjhst0.s 			page 39


 1141              		.cfi_def_cfa_offset 4
 1142 0010 BD46     		mov	sp, r7
 1143              	.LCFI83:
 1144              		.cfi_def_cfa_register 13
 1145              		@ sp needed
 1146 0012 5DF8047B 		ldr	r7, [sp], #4
 1147              	.LCFI84:
 1148              		.cfi_restore 7
 1149              		.cfi_def_cfa_offset 0
 1150 0016 7047     		bx	lr
 1151              		.cfi_endproc
 1152              	.LFE144:
 1154              		.section	.text.HAL_PCD_ISOINIncompleteCallback,"ax",%progbits
 1155              		.align	1
 1156              		.weak	HAL_PCD_ISOINIncompleteCallback
 1157              		.syntax unified
 1158              		.thumb
 1159              		.thumb_func
 1160              		.fpu fpv4-sp-d16
 1162              	HAL_PCD_ISOINIncompleteCallback:
 1163              	.LFB145:
1052:../Drivers/STM32F3xx_HAL_Driver/Src/stm32f3xx_hal_pcd.c **** 
1053:../Drivers/STM32F3xx_HAL_Driver/Src/stm32f3xx_hal_pcd.c **** /**
1054:../Drivers/STM32F3xx_HAL_Driver/Src/stm32f3xx_hal_pcd.c ****   * @brief  Incomplete ISO IN callback.
1055:../Drivers/STM32F3xx_HAL_Driver/Src/stm32f3xx_hal_pcd.c ****   * @param  hpcd PCD handle
1056:../Drivers/STM32F3xx_HAL_Driver/Src/stm32f3xx_hal_pcd.c ****   * @param  epnum endpoint number
1057:../Drivers/STM32F3xx_HAL_Driver/Src/stm32f3xx_hal_pcd.c ****   * @retval None
1058:../Drivers/STM32F3xx_HAL_Driver/Src/stm32f3xx_hal_pcd.c ****   */
1059:../Drivers/STM32F3xx_HAL_Driver/Src/stm32f3xx_hal_pcd.c **** __weak void HAL_PCD_ISOINIncompleteCallback(PCD_HandleTypeDef *hpcd, uint8_t epnum)
1060:../Drivers/STM32F3xx_HAL_Driver/Src/stm32f3xx_hal_pcd.c **** {
 1164              		.loc 1 1060 0
 1165              		.cfi_startproc
 1166              		@ args = 0, pretend = 0, frame = 8
 1167              		@ frame_needed = 1, uses_anonymous_args = 0
 1168              		@ link register save eliminated.
 1169 0000 80B4     		push	{r7}
 1170              	.LCFI85:
 1171              		.cfi_def_cfa_offset 4
 1172              		.cfi_offset 7, -4
 1173 0002 83B0     		sub	sp, sp, #12
 1174              	.LCFI86:
 1175              		.cfi_def_cfa_offset 16
 1176 0004 00AF     		add	r7, sp, #0
 1177              	.LCFI87:
 1178              		.cfi_def_cfa_register 7
 1179 0006 7860     		str	r0, [r7, #4]
 1180 0008 0B46     		mov	r3, r1
 1181 000a FB70     		strb	r3, [r7, #3]
1061:../Drivers/STM32F3xx_HAL_Driver/Src/stm32f3xx_hal_pcd.c ****   /* Prevent unused argument(s) compilation warning */
1062:../Drivers/STM32F3xx_HAL_Driver/Src/stm32f3xx_hal_pcd.c ****   UNUSED(hpcd);
1063:../Drivers/STM32F3xx_HAL_Driver/Src/stm32f3xx_hal_pcd.c ****   UNUSED(epnum);
1064:../Drivers/STM32F3xx_HAL_Driver/Src/stm32f3xx_hal_pcd.c **** 
1065:../Drivers/STM32F3xx_HAL_Driver/Src/stm32f3xx_hal_pcd.c ****   /* NOTE : This function should not be modified, when the callback is needed,
1066:../Drivers/STM32F3xx_HAL_Driver/Src/stm32f3xx_hal_pcd.c ****             the HAL_PCD_ISOINIncompleteCallback could be implemented in the user file
1067:../Drivers/STM32F3xx_HAL_Driver/Src/stm32f3xx_hal_pcd.c ****    */
1068:../Drivers/STM32F3xx_HAL_Driver/Src/stm32f3xx_hal_pcd.c **** }
 1182              		.loc 1 1068 0
ARM GAS  /tmp/ccmjhst0.s 			page 40


 1183 000c 00BF     		nop
 1184 000e 0C37     		adds	r7, r7, #12
 1185              	.LCFI88:
 1186              		.cfi_def_cfa_offset 4
 1187 0010 BD46     		mov	sp, r7
 1188              	.LCFI89:
 1189              		.cfi_def_cfa_register 13
 1190              		@ sp needed
 1191 0012 5DF8047B 		ldr	r7, [sp], #4
 1192              	.LCFI90:
 1193              		.cfi_restore 7
 1194              		.cfi_def_cfa_offset 0
 1195 0016 7047     		bx	lr
 1196              		.cfi_endproc
 1197              	.LFE145:
 1199              		.section	.text.HAL_PCD_ConnectCallback,"ax",%progbits
 1200              		.align	1
 1201              		.weak	HAL_PCD_ConnectCallback
 1202              		.syntax unified
 1203              		.thumb
 1204              		.thumb_func
 1205              		.fpu fpv4-sp-d16
 1207              	HAL_PCD_ConnectCallback:
 1208              	.LFB146:
1069:../Drivers/STM32F3xx_HAL_Driver/Src/stm32f3xx_hal_pcd.c **** 
1070:../Drivers/STM32F3xx_HAL_Driver/Src/stm32f3xx_hal_pcd.c **** /**
1071:../Drivers/STM32F3xx_HAL_Driver/Src/stm32f3xx_hal_pcd.c ****   * @brief  Connection event callback.
1072:../Drivers/STM32F3xx_HAL_Driver/Src/stm32f3xx_hal_pcd.c ****   * @param  hpcd PCD handle
1073:../Drivers/STM32F3xx_HAL_Driver/Src/stm32f3xx_hal_pcd.c ****   * @retval None
1074:../Drivers/STM32F3xx_HAL_Driver/Src/stm32f3xx_hal_pcd.c ****   */
1075:../Drivers/STM32F3xx_HAL_Driver/Src/stm32f3xx_hal_pcd.c **** __weak void HAL_PCD_ConnectCallback(PCD_HandleTypeDef *hpcd)
1076:../Drivers/STM32F3xx_HAL_Driver/Src/stm32f3xx_hal_pcd.c **** {
 1209              		.loc 1 1076 0
 1210              		.cfi_startproc
 1211              		@ args = 0, pretend = 0, frame = 8
 1212              		@ frame_needed = 1, uses_anonymous_args = 0
 1213              		@ link register save eliminated.
 1214 0000 80B4     		push	{r7}
 1215              	.LCFI91:
 1216              		.cfi_def_cfa_offset 4
 1217              		.cfi_offset 7, -4
 1218 0002 83B0     		sub	sp, sp, #12
 1219              	.LCFI92:
 1220              		.cfi_def_cfa_offset 16
 1221 0004 00AF     		add	r7, sp, #0
 1222              	.LCFI93:
 1223              		.cfi_def_cfa_register 7
 1224 0006 7860     		str	r0, [r7, #4]
1077:../Drivers/STM32F3xx_HAL_Driver/Src/stm32f3xx_hal_pcd.c ****   /* Prevent unused argument(s) compilation warning */
1078:../Drivers/STM32F3xx_HAL_Driver/Src/stm32f3xx_hal_pcd.c ****   UNUSED(hpcd);
1079:../Drivers/STM32F3xx_HAL_Driver/Src/stm32f3xx_hal_pcd.c **** 
1080:../Drivers/STM32F3xx_HAL_Driver/Src/stm32f3xx_hal_pcd.c ****   /* NOTE : This function should not be modified, when the callback is needed,
1081:../Drivers/STM32F3xx_HAL_Driver/Src/stm32f3xx_hal_pcd.c ****             the HAL_PCD_ConnectCallback could be implemented in the user file
1082:../Drivers/STM32F3xx_HAL_Driver/Src/stm32f3xx_hal_pcd.c ****    */
1083:../Drivers/STM32F3xx_HAL_Driver/Src/stm32f3xx_hal_pcd.c **** }
 1225              		.loc 1 1083 0
 1226 0008 00BF     		nop
ARM GAS  /tmp/ccmjhst0.s 			page 41


 1227 000a 0C37     		adds	r7, r7, #12
 1228              	.LCFI94:
 1229              		.cfi_def_cfa_offset 4
 1230 000c BD46     		mov	sp, r7
 1231              	.LCFI95:
 1232              		.cfi_def_cfa_register 13
 1233              		@ sp needed
 1234 000e 5DF8047B 		ldr	r7, [sp], #4
 1235              	.LCFI96:
 1236              		.cfi_restore 7
 1237              		.cfi_def_cfa_offset 0
 1238 0012 7047     		bx	lr
 1239              		.cfi_endproc
 1240              	.LFE146:
 1242              		.section	.text.HAL_PCD_DisconnectCallback,"ax",%progbits
 1243              		.align	1
 1244              		.weak	HAL_PCD_DisconnectCallback
 1245              		.syntax unified
 1246              		.thumb
 1247              		.thumb_func
 1248              		.fpu fpv4-sp-d16
 1250              	HAL_PCD_DisconnectCallback:
 1251              	.LFB147:
1084:../Drivers/STM32F3xx_HAL_Driver/Src/stm32f3xx_hal_pcd.c **** 
1085:../Drivers/STM32F3xx_HAL_Driver/Src/stm32f3xx_hal_pcd.c **** /**
1086:../Drivers/STM32F3xx_HAL_Driver/Src/stm32f3xx_hal_pcd.c ****   * @brief  Disconnection event callback.
1087:../Drivers/STM32F3xx_HAL_Driver/Src/stm32f3xx_hal_pcd.c ****   * @param  hpcd PCD handle
1088:../Drivers/STM32F3xx_HAL_Driver/Src/stm32f3xx_hal_pcd.c ****   * @retval None
1089:../Drivers/STM32F3xx_HAL_Driver/Src/stm32f3xx_hal_pcd.c ****   */
1090:../Drivers/STM32F3xx_HAL_Driver/Src/stm32f3xx_hal_pcd.c **** __weak void HAL_PCD_DisconnectCallback(PCD_HandleTypeDef *hpcd)
1091:../Drivers/STM32F3xx_HAL_Driver/Src/stm32f3xx_hal_pcd.c **** {
 1252              		.loc 1 1091 0
 1253              		.cfi_startproc
 1254              		@ args = 0, pretend = 0, frame = 8
 1255              		@ frame_needed = 1, uses_anonymous_args = 0
 1256              		@ link register save eliminated.
 1257 0000 80B4     		push	{r7}
 1258              	.LCFI97:
 1259              		.cfi_def_cfa_offset 4
 1260              		.cfi_offset 7, -4
 1261 0002 83B0     		sub	sp, sp, #12
 1262              	.LCFI98:
 1263              		.cfi_def_cfa_offset 16
 1264 0004 00AF     		add	r7, sp, #0
 1265              	.LCFI99:
 1266              		.cfi_def_cfa_register 7
 1267 0006 7860     		str	r0, [r7, #4]
1092:../Drivers/STM32F3xx_HAL_Driver/Src/stm32f3xx_hal_pcd.c ****   /* Prevent unused argument(s) compilation warning */
1093:../Drivers/STM32F3xx_HAL_Driver/Src/stm32f3xx_hal_pcd.c ****   UNUSED(hpcd);
1094:../Drivers/STM32F3xx_HAL_Driver/Src/stm32f3xx_hal_pcd.c **** 
1095:../Drivers/STM32F3xx_HAL_Driver/Src/stm32f3xx_hal_pcd.c ****   /* NOTE : This function should not be modified, when the callback is needed,
1096:../Drivers/STM32F3xx_HAL_Driver/Src/stm32f3xx_hal_pcd.c ****             the HAL_PCD_DisconnectCallback could be implemented in the user file
1097:../Drivers/STM32F3xx_HAL_Driver/Src/stm32f3xx_hal_pcd.c ****    */
1098:../Drivers/STM32F3xx_HAL_Driver/Src/stm32f3xx_hal_pcd.c **** }
 1268              		.loc 1 1098 0
 1269 0008 00BF     		nop
 1270 000a 0C37     		adds	r7, r7, #12
ARM GAS  /tmp/ccmjhst0.s 			page 42


 1271              	.LCFI100:
 1272              		.cfi_def_cfa_offset 4
 1273 000c BD46     		mov	sp, r7
 1274              	.LCFI101:
 1275              		.cfi_def_cfa_register 13
 1276              		@ sp needed
 1277 000e 5DF8047B 		ldr	r7, [sp], #4
 1278              	.LCFI102:
 1279              		.cfi_restore 7
 1280              		.cfi_def_cfa_offset 0
 1281 0012 7047     		bx	lr
 1282              		.cfi_endproc
 1283              	.LFE147:
 1285              		.section	.text.HAL_PCD_DevConnect,"ax",%progbits
 1286              		.align	1
 1287              		.global	HAL_PCD_DevConnect
 1288              		.syntax unified
 1289              		.thumb
 1290              		.thumb_func
 1291              		.fpu fpv4-sp-d16
 1293              	HAL_PCD_DevConnect:
 1294              	.LFB148:
1099:../Drivers/STM32F3xx_HAL_Driver/Src/stm32f3xx_hal_pcd.c **** 
1100:../Drivers/STM32F3xx_HAL_Driver/Src/stm32f3xx_hal_pcd.c **** /**
1101:../Drivers/STM32F3xx_HAL_Driver/Src/stm32f3xx_hal_pcd.c ****   * @}
1102:../Drivers/STM32F3xx_HAL_Driver/Src/stm32f3xx_hal_pcd.c ****   */
1103:../Drivers/STM32F3xx_HAL_Driver/Src/stm32f3xx_hal_pcd.c **** 
1104:../Drivers/STM32F3xx_HAL_Driver/Src/stm32f3xx_hal_pcd.c **** /** @defgroup PCD_Exported_Functions_Group3 Peripheral Control functions
1105:../Drivers/STM32F3xx_HAL_Driver/Src/stm32f3xx_hal_pcd.c ****  *  @brief   management functions
1106:../Drivers/STM32F3xx_HAL_Driver/Src/stm32f3xx_hal_pcd.c ****  *
1107:../Drivers/STM32F3xx_HAL_Driver/Src/stm32f3xx_hal_pcd.c **** @verbatim
1108:../Drivers/STM32F3xx_HAL_Driver/Src/stm32f3xx_hal_pcd.c ****  ===============================================================================
1109:../Drivers/STM32F3xx_HAL_Driver/Src/stm32f3xx_hal_pcd.c ****                       ##### Peripheral Control functions #####
1110:../Drivers/STM32F3xx_HAL_Driver/Src/stm32f3xx_hal_pcd.c ****  ===============================================================================
1111:../Drivers/STM32F3xx_HAL_Driver/Src/stm32f3xx_hal_pcd.c ****     [..]
1112:../Drivers/STM32F3xx_HAL_Driver/Src/stm32f3xx_hal_pcd.c ****     This subsection provides a set of functions allowing to control the PCD data
1113:../Drivers/STM32F3xx_HAL_Driver/Src/stm32f3xx_hal_pcd.c ****     transfers.
1114:../Drivers/STM32F3xx_HAL_Driver/Src/stm32f3xx_hal_pcd.c **** 
1115:../Drivers/STM32F3xx_HAL_Driver/Src/stm32f3xx_hal_pcd.c **** @endverbatim
1116:../Drivers/STM32F3xx_HAL_Driver/Src/stm32f3xx_hal_pcd.c ****   * @{
1117:../Drivers/STM32F3xx_HAL_Driver/Src/stm32f3xx_hal_pcd.c ****   */
1118:../Drivers/STM32F3xx_HAL_Driver/Src/stm32f3xx_hal_pcd.c **** 
1119:../Drivers/STM32F3xx_HAL_Driver/Src/stm32f3xx_hal_pcd.c **** /**
1120:../Drivers/STM32F3xx_HAL_Driver/Src/stm32f3xx_hal_pcd.c ****   * @brief  Connect the USB device
1121:../Drivers/STM32F3xx_HAL_Driver/Src/stm32f3xx_hal_pcd.c ****   * @param  hpcd PCD handle
1122:../Drivers/STM32F3xx_HAL_Driver/Src/stm32f3xx_hal_pcd.c ****   * @retval HAL status
1123:../Drivers/STM32F3xx_HAL_Driver/Src/stm32f3xx_hal_pcd.c ****   */
1124:../Drivers/STM32F3xx_HAL_Driver/Src/stm32f3xx_hal_pcd.c **** HAL_StatusTypeDef HAL_PCD_DevConnect(PCD_HandleTypeDef *hpcd)
1125:../Drivers/STM32F3xx_HAL_Driver/Src/stm32f3xx_hal_pcd.c **** {
 1295              		.loc 1 1125 0
 1296              		.cfi_startproc
 1297              		@ args = 0, pretend = 0, frame = 8
 1298              		@ frame_needed = 1, uses_anonymous_args = 0
 1299 0000 80B5     		push	{r7, lr}
 1300              	.LCFI103:
 1301              		.cfi_def_cfa_offset 8
 1302              		.cfi_offset 7, -8
ARM GAS  /tmp/ccmjhst0.s 			page 43


 1303              		.cfi_offset 14, -4
 1304 0002 82B0     		sub	sp, sp, #8
 1305              	.LCFI104:
 1306              		.cfi_def_cfa_offset 16
 1307 0004 00AF     		add	r7, sp, #0
 1308              	.LCFI105:
 1309              		.cfi_def_cfa_register 7
 1310 0006 7860     		str	r0, [r7, #4]
1126:../Drivers/STM32F3xx_HAL_Driver/Src/stm32f3xx_hal_pcd.c ****   __HAL_LOCK(hpcd);
 1311              		.loc 1 1126 0
 1312 0008 7B68     		ldr	r3, [r7, #4]
 1313 000a 93F82832 		ldrb	r3, [r3, #552]	@ zero_extendqisi2
 1314 000e 012B     		cmp	r3, #1
 1315 0010 01D1     		bne	.L42
 1316              		.loc 1 1126 0 is_stmt 0 discriminator 1
 1317 0012 0223     		movs	r3, #2
 1318 0014 11E0     		b	.L43
 1319              	.L42:
 1320              		.loc 1 1126 0 discriminator 2
 1321 0016 7B68     		ldr	r3, [r7, #4]
 1322 0018 0122     		movs	r2, #1
 1323 001a 83F82822 		strb	r2, [r3, #552]
1127:../Drivers/STM32F3xx_HAL_Driver/Src/stm32f3xx_hal_pcd.c **** 
1128:../Drivers/STM32F3xx_HAL_Driver/Src/stm32f3xx_hal_pcd.c ****   HAL_PCDEx_SetConnectionState(hpcd, 1U);
 1324              		.loc 1 1128 0 is_stmt 1 discriminator 2
 1325 001e 0121     		movs	r1, #1
 1326 0020 7868     		ldr	r0, [r7, #4]
 1327 0022 FFF7FEFF 		bl	HAL_PCDEx_SetConnectionState
1129:../Drivers/STM32F3xx_HAL_Driver/Src/stm32f3xx_hal_pcd.c **** 
1130:../Drivers/STM32F3xx_HAL_Driver/Src/stm32f3xx_hal_pcd.c ****   (void)USB_DevConnect(hpcd->Instance);
 1328              		.loc 1 1130 0 discriminator 2
 1329 0026 7B68     		ldr	r3, [r7, #4]
 1330 0028 1B68     		ldr	r3, [r3]
 1331 002a 1846     		mov	r0, r3
 1332 002c FFF7FEFF 		bl	USB_DevConnect
1131:../Drivers/STM32F3xx_HAL_Driver/Src/stm32f3xx_hal_pcd.c ****   __HAL_UNLOCK(hpcd);
 1333              		.loc 1 1131 0 discriminator 2
 1334 0030 7B68     		ldr	r3, [r7, #4]
 1335 0032 0022     		movs	r2, #0
 1336 0034 83F82822 		strb	r2, [r3, #552]
1132:../Drivers/STM32F3xx_HAL_Driver/Src/stm32f3xx_hal_pcd.c ****   return HAL_OK;
 1337              		.loc 1 1132 0 discriminator 2
 1338 0038 0023     		movs	r3, #0
 1339              	.L43:
1133:../Drivers/STM32F3xx_HAL_Driver/Src/stm32f3xx_hal_pcd.c **** }
 1340              		.loc 1 1133 0
 1341 003a 1846     		mov	r0, r3
 1342 003c 0837     		adds	r7, r7, #8
 1343              	.LCFI106:
 1344              		.cfi_def_cfa_offset 8
 1345 003e BD46     		mov	sp, r7
 1346              	.LCFI107:
 1347              		.cfi_def_cfa_register 13
 1348              		@ sp needed
 1349 0040 80BD     		pop	{r7, pc}
 1350              		.cfi_endproc
 1351              	.LFE148:
ARM GAS  /tmp/ccmjhst0.s 			page 44


 1353              		.section	.text.HAL_PCD_DevDisconnect,"ax",%progbits
 1354              		.align	1
 1355              		.global	HAL_PCD_DevDisconnect
 1356              		.syntax unified
 1357              		.thumb
 1358              		.thumb_func
 1359              		.fpu fpv4-sp-d16
 1361              	HAL_PCD_DevDisconnect:
 1362              	.LFB149:
1134:../Drivers/STM32F3xx_HAL_Driver/Src/stm32f3xx_hal_pcd.c **** 
1135:../Drivers/STM32F3xx_HAL_Driver/Src/stm32f3xx_hal_pcd.c **** /**
1136:../Drivers/STM32F3xx_HAL_Driver/Src/stm32f3xx_hal_pcd.c ****   * @brief  Disconnect the USB device.
1137:../Drivers/STM32F3xx_HAL_Driver/Src/stm32f3xx_hal_pcd.c ****   * @param  hpcd PCD handle
1138:../Drivers/STM32F3xx_HAL_Driver/Src/stm32f3xx_hal_pcd.c ****   * @retval HAL status
1139:../Drivers/STM32F3xx_HAL_Driver/Src/stm32f3xx_hal_pcd.c ****   */
1140:../Drivers/STM32F3xx_HAL_Driver/Src/stm32f3xx_hal_pcd.c **** HAL_StatusTypeDef HAL_PCD_DevDisconnect(PCD_HandleTypeDef *hpcd)
1141:../Drivers/STM32F3xx_HAL_Driver/Src/stm32f3xx_hal_pcd.c **** {
 1363              		.loc 1 1141 0
 1364              		.cfi_startproc
 1365              		@ args = 0, pretend = 0, frame = 8
 1366              		@ frame_needed = 1, uses_anonymous_args = 0
 1367 0000 80B5     		push	{r7, lr}
 1368              	.LCFI108:
 1369              		.cfi_def_cfa_offset 8
 1370              		.cfi_offset 7, -8
 1371              		.cfi_offset 14, -4
 1372 0002 82B0     		sub	sp, sp, #8
 1373              	.LCFI109:
 1374              		.cfi_def_cfa_offset 16
 1375 0004 00AF     		add	r7, sp, #0
 1376              	.LCFI110:
 1377              		.cfi_def_cfa_register 7
 1378 0006 7860     		str	r0, [r7, #4]
1142:../Drivers/STM32F3xx_HAL_Driver/Src/stm32f3xx_hal_pcd.c ****   __HAL_LOCK(hpcd);
 1379              		.loc 1 1142 0
 1380 0008 7B68     		ldr	r3, [r7, #4]
 1381 000a 93F82832 		ldrb	r3, [r3, #552]	@ zero_extendqisi2
 1382 000e 012B     		cmp	r3, #1
 1383 0010 01D1     		bne	.L45
 1384              		.loc 1 1142 0 is_stmt 0 discriminator 1
 1385 0012 0223     		movs	r3, #2
 1386 0014 11E0     		b	.L46
 1387              	.L45:
 1388              		.loc 1 1142 0 discriminator 2
 1389 0016 7B68     		ldr	r3, [r7, #4]
 1390 0018 0122     		movs	r2, #1
 1391 001a 83F82822 		strb	r2, [r3, #552]
1143:../Drivers/STM32F3xx_HAL_Driver/Src/stm32f3xx_hal_pcd.c **** 
1144:../Drivers/STM32F3xx_HAL_Driver/Src/stm32f3xx_hal_pcd.c ****   HAL_PCDEx_SetConnectionState(hpcd, 0U);
 1392              		.loc 1 1144 0 is_stmt 1 discriminator 2
 1393 001e 0021     		movs	r1, #0
 1394 0020 7868     		ldr	r0, [r7, #4]
 1395 0022 FFF7FEFF 		bl	HAL_PCDEx_SetConnectionState
1145:../Drivers/STM32F3xx_HAL_Driver/Src/stm32f3xx_hal_pcd.c **** 
1146:../Drivers/STM32F3xx_HAL_Driver/Src/stm32f3xx_hal_pcd.c ****   (void)USB_DevDisconnect(hpcd->Instance);
 1396              		.loc 1 1146 0 discriminator 2
 1397 0026 7B68     		ldr	r3, [r7, #4]
ARM GAS  /tmp/ccmjhst0.s 			page 45


 1398 0028 1B68     		ldr	r3, [r3]
 1399 002a 1846     		mov	r0, r3
 1400 002c FFF7FEFF 		bl	USB_DevDisconnect
1147:../Drivers/STM32F3xx_HAL_Driver/Src/stm32f3xx_hal_pcd.c ****   __HAL_UNLOCK(hpcd);
 1401              		.loc 1 1147 0 discriminator 2
 1402 0030 7B68     		ldr	r3, [r7, #4]
 1403 0032 0022     		movs	r2, #0
 1404 0034 83F82822 		strb	r2, [r3, #552]
1148:../Drivers/STM32F3xx_HAL_Driver/Src/stm32f3xx_hal_pcd.c ****   return HAL_OK;
 1405              		.loc 1 1148 0 discriminator 2
 1406 0038 0023     		movs	r3, #0
 1407              	.L46:
1149:../Drivers/STM32F3xx_HAL_Driver/Src/stm32f3xx_hal_pcd.c **** }
 1408              		.loc 1 1149 0
 1409 003a 1846     		mov	r0, r3
 1410 003c 0837     		adds	r7, r7, #8
 1411              	.LCFI111:
 1412              		.cfi_def_cfa_offset 8
 1413 003e BD46     		mov	sp, r7
 1414              	.LCFI112:
 1415              		.cfi_def_cfa_register 13
 1416              		@ sp needed
 1417 0040 80BD     		pop	{r7, pc}
 1418              		.cfi_endproc
 1419              	.LFE149:
 1421              		.section	.text.HAL_PCD_SetAddress,"ax",%progbits
 1422              		.align	1
 1423              		.global	HAL_PCD_SetAddress
 1424              		.syntax unified
 1425              		.thumb
 1426              		.thumb_func
 1427              		.fpu fpv4-sp-d16
 1429              	HAL_PCD_SetAddress:
 1430              	.LFB150:
1150:../Drivers/STM32F3xx_HAL_Driver/Src/stm32f3xx_hal_pcd.c **** 
1151:../Drivers/STM32F3xx_HAL_Driver/Src/stm32f3xx_hal_pcd.c **** /**
1152:../Drivers/STM32F3xx_HAL_Driver/Src/stm32f3xx_hal_pcd.c ****   * @brief  Set the USB Device address.
1153:../Drivers/STM32F3xx_HAL_Driver/Src/stm32f3xx_hal_pcd.c ****   * @param  hpcd PCD handle
1154:../Drivers/STM32F3xx_HAL_Driver/Src/stm32f3xx_hal_pcd.c ****   * @param  address new device address
1155:../Drivers/STM32F3xx_HAL_Driver/Src/stm32f3xx_hal_pcd.c ****   * @retval HAL status
1156:../Drivers/STM32F3xx_HAL_Driver/Src/stm32f3xx_hal_pcd.c ****   */
1157:../Drivers/STM32F3xx_HAL_Driver/Src/stm32f3xx_hal_pcd.c **** HAL_StatusTypeDef HAL_PCD_SetAddress(PCD_HandleTypeDef *hpcd, uint8_t address)
1158:../Drivers/STM32F3xx_HAL_Driver/Src/stm32f3xx_hal_pcd.c **** {
 1431              		.loc 1 1158 0
 1432              		.cfi_startproc
 1433              		@ args = 0, pretend = 0, frame = 8
 1434              		@ frame_needed = 1, uses_anonymous_args = 0
 1435 0000 80B5     		push	{r7, lr}
 1436              	.LCFI113:
 1437              		.cfi_def_cfa_offset 8
 1438              		.cfi_offset 7, -8
 1439              		.cfi_offset 14, -4
 1440 0002 82B0     		sub	sp, sp, #8
 1441              	.LCFI114:
 1442              		.cfi_def_cfa_offset 16
 1443 0004 00AF     		add	r7, sp, #0
 1444              	.LCFI115:
ARM GAS  /tmp/ccmjhst0.s 			page 46


 1445              		.cfi_def_cfa_register 7
 1446 0006 7860     		str	r0, [r7, #4]
 1447 0008 0B46     		mov	r3, r1
 1448 000a FB70     		strb	r3, [r7, #3]
1159:../Drivers/STM32F3xx_HAL_Driver/Src/stm32f3xx_hal_pcd.c ****   __HAL_LOCK(hpcd);
 1449              		.loc 1 1159 0
 1450 000c 7B68     		ldr	r3, [r7, #4]
 1451 000e 93F82832 		ldrb	r3, [r3, #552]	@ zero_extendqisi2
 1452 0012 012B     		cmp	r3, #1
 1453 0014 01D1     		bne	.L48
 1454              		.loc 1 1159 0 is_stmt 0 discriminator 1
 1455 0016 0223     		movs	r3, #2
 1456 0018 13E0     		b	.L49
 1457              	.L48:
 1458              		.loc 1 1159 0 discriminator 2
 1459 001a 7B68     		ldr	r3, [r7, #4]
 1460 001c 0122     		movs	r2, #1
 1461 001e 83F82822 		strb	r2, [r3, #552]
1160:../Drivers/STM32F3xx_HAL_Driver/Src/stm32f3xx_hal_pcd.c ****   hpcd->USB_Address = address;
 1462              		.loc 1 1160 0 is_stmt 1 discriminator 2
 1463 0022 7B68     		ldr	r3, [r7, #4]
 1464 0024 FA78     		ldrb	r2, [r7, #3]
 1465 0026 83F82420 		strb	r2, [r3, #36]
1161:../Drivers/STM32F3xx_HAL_Driver/Src/stm32f3xx_hal_pcd.c ****   (void)USB_SetDevAddress(hpcd->Instance, address);
 1466              		.loc 1 1161 0 discriminator 2
 1467 002a 7B68     		ldr	r3, [r7, #4]
 1468 002c 1B68     		ldr	r3, [r3]
 1469 002e FA78     		ldrb	r2, [r7, #3]	@ zero_extendqisi2
 1470 0030 1146     		mov	r1, r2
 1471 0032 1846     		mov	r0, r3
 1472 0034 FFF7FEFF 		bl	USB_SetDevAddress
1162:../Drivers/STM32F3xx_HAL_Driver/Src/stm32f3xx_hal_pcd.c ****   __HAL_UNLOCK(hpcd);
 1473              		.loc 1 1162 0 discriminator 2
 1474 0038 7B68     		ldr	r3, [r7, #4]
 1475 003a 0022     		movs	r2, #0
 1476 003c 83F82822 		strb	r2, [r3, #552]
1163:../Drivers/STM32F3xx_HAL_Driver/Src/stm32f3xx_hal_pcd.c ****   return HAL_OK;
 1477              		.loc 1 1163 0 discriminator 2
 1478 0040 0023     		movs	r3, #0
 1479              	.L49:
1164:../Drivers/STM32F3xx_HAL_Driver/Src/stm32f3xx_hal_pcd.c **** }
 1480              		.loc 1 1164 0
 1481 0042 1846     		mov	r0, r3
 1482 0044 0837     		adds	r7, r7, #8
 1483              	.LCFI116:
 1484              		.cfi_def_cfa_offset 8
 1485 0046 BD46     		mov	sp, r7
 1486              	.LCFI117:
 1487              		.cfi_def_cfa_register 13
 1488              		@ sp needed
 1489 0048 80BD     		pop	{r7, pc}
 1490              		.cfi_endproc
 1491              	.LFE150:
 1493              		.section	.text.HAL_PCD_EP_Open,"ax",%progbits
 1494              		.align	1
 1495              		.global	HAL_PCD_EP_Open
 1496              		.syntax unified
ARM GAS  /tmp/ccmjhst0.s 			page 47


 1497              		.thumb
 1498              		.thumb_func
 1499              		.fpu fpv4-sp-d16
 1501              	HAL_PCD_EP_Open:
 1502              	.LFB151:
1165:../Drivers/STM32F3xx_HAL_Driver/Src/stm32f3xx_hal_pcd.c **** /**
1166:../Drivers/STM32F3xx_HAL_Driver/Src/stm32f3xx_hal_pcd.c ****   * @brief  Open and configure an endpoint.
1167:../Drivers/STM32F3xx_HAL_Driver/Src/stm32f3xx_hal_pcd.c ****   * @param  hpcd PCD handle
1168:../Drivers/STM32F3xx_HAL_Driver/Src/stm32f3xx_hal_pcd.c ****   * @param  ep_addr endpoint address
1169:../Drivers/STM32F3xx_HAL_Driver/Src/stm32f3xx_hal_pcd.c ****   * @param  ep_mps endpoint max packet size
1170:../Drivers/STM32F3xx_HAL_Driver/Src/stm32f3xx_hal_pcd.c ****   * @param  ep_type endpoint type
1171:../Drivers/STM32F3xx_HAL_Driver/Src/stm32f3xx_hal_pcd.c ****   * @retval HAL status
1172:../Drivers/STM32F3xx_HAL_Driver/Src/stm32f3xx_hal_pcd.c ****   */
1173:../Drivers/STM32F3xx_HAL_Driver/Src/stm32f3xx_hal_pcd.c **** HAL_StatusTypeDef HAL_PCD_EP_Open(PCD_HandleTypeDef *hpcd, uint8_t ep_addr, uint16_t ep_mps, uint8_
1174:../Drivers/STM32F3xx_HAL_Driver/Src/stm32f3xx_hal_pcd.c **** {
 1503              		.loc 1 1174 0
 1504              		.cfi_startproc
 1505              		@ args = 0, pretend = 0, frame = 16
 1506              		@ frame_needed = 1, uses_anonymous_args = 0
 1507 0000 80B5     		push	{r7, lr}
 1508              	.LCFI118:
 1509              		.cfi_def_cfa_offset 8
 1510              		.cfi_offset 7, -8
 1511              		.cfi_offset 14, -4
 1512 0002 84B0     		sub	sp, sp, #16
 1513              	.LCFI119:
 1514              		.cfi_def_cfa_offset 24
 1515 0004 00AF     		add	r7, sp, #0
 1516              	.LCFI120:
 1517              		.cfi_def_cfa_register 7
 1518 0006 7860     		str	r0, [r7, #4]
 1519 0008 0846     		mov	r0, r1
 1520 000a 1146     		mov	r1, r2
 1521 000c 1A46     		mov	r2, r3
 1522 000e 0346     		mov	r3, r0
 1523 0010 FB70     		strb	r3, [r7, #3]
 1524 0012 0B46     		mov	r3, r1	@ movhi
 1525 0014 3B80     		strh	r3, [r7]	@ movhi
 1526 0016 1346     		mov	r3, r2
 1527 0018 BB70     		strb	r3, [r7, #2]
1175:../Drivers/STM32F3xx_HAL_Driver/Src/stm32f3xx_hal_pcd.c ****   HAL_StatusTypeDef  ret = HAL_OK;
 1528              		.loc 1 1175 0
 1529 001a 0023     		movs	r3, #0
 1530 001c FB72     		strb	r3, [r7, #11]
1176:../Drivers/STM32F3xx_HAL_Driver/Src/stm32f3xx_hal_pcd.c ****   PCD_EPTypeDef *ep;
1177:../Drivers/STM32F3xx_HAL_Driver/Src/stm32f3xx_hal_pcd.c **** 
1178:../Drivers/STM32F3xx_HAL_Driver/Src/stm32f3xx_hal_pcd.c ****   if ((ep_addr & 0x80U) == 0x80U)
 1531              		.loc 1 1178 0
 1532 001e 97F90330 		ldrsb	r3, [r7, #3]
 1533 0022 002B     		cmp	r3, #0
 1534 0024 0BDA     		bge	.L51
1179:../Drivers/STM32F3xx_HAL_Driver/Src/stm32f3xx_hal_pcd.c ****   {
1180:../Drivers/STM32F3xx_HAL_Driver/Src/stm32f3xx_hal_pcd.c ****     ep = &hpcd->IN_ep[ep_addr & EP_ADDR_MSK];
 1535              		.loc 1 1180 0
 1536 0026 FB78     		ldrb	r3, [r7, #3]	@ zero_extendqisi2
 1537 0028 03F00703 		and	r3, r3, #7
 1538 002c 5B01     		lsls	r3, r3, #5
ARM GAS  /tmp/ccmjhst0.s 			page 48


 1539 002e 2833     		adds	r3, r3, #40
 1540 0030 7A68     		ldr	r2, [r7, #4]
 1541 0032 1344     		add	r3, r3, r2
 1542 0034 FB60     		str	r3, [r7, #12]
1181:../Drivers/STM32F3xx_HAL_Driver/Src/stm32f3xx_hal_pcd.c ****     ep->is_in = 1U;
 1543              		.loc 1 1181 0
 1544 0036 FB68     		ldr	r3, [r7, #12]
 1545 0038 0122     		movs	r2, #1
 1546 003a 5A70     		strb	r2, [r3, #1]
 1547 003c 0BE0     		b	.L52
 1548              	.L51:
1182:../Drivers/STM32F3xx_HAL_Driver/Src/stm32f3xx_hal_pcd.c ****   }
1183:../Drivers/STM32F3xx_HAL_Driver/Src/stm32f3xx_hal_pcd.c ****   else
1184:../Drivers/STM32F3xx_HAL_Driver/Src/stm32f3xx_hal_pcd.c ****   {
1185:../Drivers/STM32F3xx_HAL_Driver/Src/stm32f3xx_hal_pcd.c ****     ep = &hpcd->OUT_ep[ep_addr & EP_ADDR_MSK];
 1549              		.loc 1 1185 0
 1550 003e FB78     		ldrb	r3, [r7, #3]	@ zero_extendqisi2
 1551 0040 03F00703 		and	r3, r3, #7
 1552 0044 5B01     		lsls	r3, r3, #5
 1553 0046 03F59473 		add	r3, r3, #296
 1554 004a 7A68     		ldr	r2, [r7, #4]
 1555 004c 1344     		add	r3, r3, r2
 1556 004e FB60     		str	r3, [r7, #12]
1186:../Drivers/STM32F3xx_HAL_Driver/Src/stm32f3xx_hal_pcd.c ****     ep->is_in = 0U;
 1557              		.loc 1 1186 0
 1558 0050 FB68     		ldr	r3, [r7, #12]
 1559 0052 0022     		movs	r2, #0
 1560 0054 5A70     		strb	r2, [r3, #1]
 1561              	.L52:
1187:../Drivers/STM32F3xx_HAL_Driver/Src/stm32f3xx_hal_pcd.c ****   }
1188:../Drivers/STM32F3xx_HAL_Driver/Src/stm32f3xx_hal_pcd.c **** 
1189:../Drivers/STM32F3xx_HAL_Driver/Src/stm32f3xx_hal_pcd.c ****   ep->num = ep_addr & EP_ADDR_MSK;
 1562              		.loc 1 1189 0
 1563 0056 FB78     		ldrb	r3, [r7, #3]
 1564 0058 03F00703 		and	r3, r3, #7
 1565 005c DAB2     		uxtb	r2, r3
 1566 005e FB68     		ldr	r3, [r7, #12]
 1567 0060 1A70     		strb	r2, [r3]
1190:../Drivers/STM32F3xx_HAL_Driver/Src/stm32f3xx_hal_pcd.c ****   ep->maxpacket = ep_mps;
 1568              		.loc 1 1190 0
 1569 0062 3A88     		ldrh	r2, [r7]
 1570 0064 FB68     		ldr	r3, [r7, #12]
 1571 0066 1A61     		str	r2, [r3, #16]
1191:../Drivers/STM32F3xx_HAL_Driver/Src/stm32f3xx_hal_pcd.c ****   ep->type = ep_type;
 1572              		.loc 1 1191 0
 1573 0068 FB68     		ldr	r3, [r7, #12]
 1574 006a BA78     		ldrb	r2, [r7, #2]
 1575 006c DA70     		strb	r2, [r3, #3]
1192:../Drivers/STM32F3xx_HAL_Driver/Src/stm32f3xx_hal_pcd.c **** 
1193:../Drivers/STM32F3xx_HAL_Driver/Src/stm32f3xx_hal_pcd.c ****   if (ep->is_in != 0U)
 1576              		.loc 1 1193 0
 1577 006e FB68     		ldr	r3, [r7, #12]
 1578 0070 5B78     		ldrb	r3, [r3, #1]	@ zero_extendqisi2
 1579 0072 002B     		cmp	r3, #0
 1580 0074 04D0     		beq	.L53
1194:../Drivers/STM32F3xx_HAL_Driver/Src/stm32f3xx_hal_pcd.c ****   {
1195:../Drivers/STM32F3xx_HAL_Driver/Src/stm32f3xx_hal_pcd.c ****     /* Assign a Tx FIFO */
ARM GAS  /tmp/ccmjhst0.s 			page 49


1196:../Drivers/STM32F3xx_HAL_Driver/Src/stm32f3xx_hal_pcd.c ****     ep->tx_fifo_num = ep->num;
 1581              		.loc 1 1196 0
 1582 0076 FB68     		ldr	r3, [r7, #12]
 1583 0078 1B78     		ldrb	r3, [r3]	@ zero_extendqisi2
 1584 007a 9AB2     		uxth	r2, r3
 1585 007c FB68     		ldr	r3, [r7, #12]
 1586 007e DA81     		strh	r2, [r3, #14]	@ movhi
 1587              	.L53:
1197:../Drivers/STM32F3xx_HAL_Driver/Src/stm32f3xx_hal_pcd.c ****   }
1198:../Drivers/STM32F3xx_HAL_Driver/Src/stm32f3xx_hal_pcd.c ****   /* Set initial data PID. */
1199:../Drivers/STM32F3xx_HAL_Driver/Src/stm32f3xx_hal_pcd.c ****   if (ep_type == EP_TYPE_BULK)
 1588              		.loc 1 1199 0
 1589 0080 BB78     		ldrb	r3, [r7, #2]	@ zero_extendqisi2
 1590 0082 022B     		cmp	r3, #2
 1591 0084 02D1     		bne	.L54
1200:../Drivers/STM32F3xx_HAL_Driver/Src/stm32f3xx_hal_pcd.c ****   {
1201:../Drivers/STM32F3xx_HAL_Driver/Src/stm32f3xx_hal_pcd.c ****     ep->data_pid_start = 0U;
 1592              		.loc 1 1201 0
 1593 0086 FB68     		ldr	r3, [r7, #12]
 1594 0088 0022     		movs	r2, #0
 1595 008a 1A71     		strb	r2, [r3, #4]
 1596              	.L54:
1202:../Drivers/STM32F3xx_HAL_Driver/Src/stm32f3xx_hal_pcd.c ****   }
1203:../Drivers/STM32F3xx_HAL_Driver/Src/stm32f3xx_hal_pcd.c **** 
1204:../Drivers/STM32F3xx_HAL_Driver/Src/stm32f3xx_hal_pcd.c ****   __HAL_LOCK(hpcd);
 1597              		.loc 1 1204 0
 1598 008c 7B68     		ldr	r3, [r7, #4]
 1599 008e 93F82832 		ldrb	r3, [r3, #552]	@ zero_extendqisi2
 1600 0092 012B     		cmp	r3, #1
 1601 0094 01D1     		bne	.L55
 1602              		.loc 1 1204 0 is_stmt 0 discriminator 1
 1603 0096 0223     		movs	r3, #2
 1604 0098 0EE0     		b	.L56
 1605              	.L55:
 1606              		.loc 1 1204 0 discriminator 2
 1607 009a 7B68     		ldr	r3, [r7, #4]
 1608 009c 0122     		movs	r2, #1
 1609 009e 83F82822 		strb	r2, [r3, #552]
1205:../Drivers/STM32F3xx_HAL_Driver/Src/stm32f3xx_hal_pcd.c ****   (void)USB_ActivateEndpoint(hpcd->Instance, ep);
 1610              		.loc 1 1205 0 is_stmt 1 discriminator 2
 1611 00a2 7B68     		ldr	r3, [r7, #4]
 1612 00a4 1B68     		ldr	r3, [r3]
 1613 00a6 F968     		ldr	r1, [r7, #12]
 1614 00a8 1846     		mov	r0, r3
 1615 00aa FFF7FEFF 		bl	USB_ActivateEndpoint
1206:../Drivers/STM32F3xx_HAL_Driver/Src/stm32f3xx_hal_pcd.c ****   __HAL_UNLOCK(hpcd);
 1616              		.loc 1 1206 0 discriminator 2
 1617 00ae 7B68     		ldr	r3, [r7, #4]
 1618 00b0 0022     		movs	r2, #0
 1619 00b2 83F82822 		strb	r2, [r3, #552]
1207:../Drivers/STM32F3xx_HAL_Driver/Src/stm32f3xx_hal_pcd.c **** 
1208:../Drivers/STM32F3xx_HAL_Driver/Src/stm32f3xx_hal_pcd.c ****   return ret;
 1620              		.loc 1 1208 0 discriminator 2
 1621 00b6 FB7A     		ldrb	r3, [r7, #11]	@ zero_extendqisi2
 1622              	.L56:
1209:../Drivers/STM32F3xx_HAL_Driver/Src/stm32f3xx_hal_pcd.c **** }
 1623              		.loc 1 1209 0
ARM GAS  /tmp/ccmjhst0.s 			page 50


 1624 00b8 1846     		mov	r0, r3
 1625 00ba 1037     		adds	r7, r7, #16
 1626              	.LCFI121:
 1627              		.cfi_def_cfa_offset 8
 1628 00bc BD46     		mov	sp, r7
 1629              	.LCFI122:
 1630              		.cfi_def_cfa_register 13
 1631              		@ sp needed
 1632 00be 80BD     		pop	{r7, pc}
 1633              		.cfi_endproc
 1634              	.LFE151:
 1636              		.section	.text.HAL_PCD_EP_Close,"ax",%progbits
 1637              		.align	1
 1638              		.global	HAL_PCD_EP_Close
 1639              		.syntax unified
 1640              		.thumb
 1641              		.thumb_func
 1642              		.fpu fpv4-sp-d16
 1644              	HAL_PCD_EP_Close:
 1645              	.LFB152:
1210:../Drivers/STM32F3xx_HAL_Driver/Src/stm32f3xx_hal_pcd.c **** 
1211:../Drivers/STM32F3xx_HAL_Driver/Src/stm32f3xx_hal_pcd.c **** /**
1212:../Drivers/STM32F3xx_HAL_Driver/Src/stm32f3xx_hal_pcd.c ****   * @brief  Deactivate an endpoint.
1213:../Drivers/STM32F3xx_HAL_Driver/Src/stm32f3xx_hal_pcd.c ****   * @param  hpcd PCD handle
1214:../Drivers/STM32F3xx_HAL_Driver/Src/stm32f3xx_hal_pcd.c ****   * @param  ep_addr endpoint address
1215:../Drivers/STM32F3xx_HAL_Driver/Src/stm32f3xx_hal_pcd.c ****   * @retval HAL status
1216:../Drivers/STM32F3xx_HAL_Driver/Src/stm32f3xx_hal_pcd.c ****   */
1217:../Drivers/STM32F3xx_HAL_Driver/Src/stm32f3xx_hal_pcd.c **** HAL_StatusTypeDef HAL_PCD_EP_Close(PCD_HandleTypeDef *hpcd, uint8_t ep_addr)
1218:../Drivers/STM32F3xx_HAL_Driver/Src/stm32f3xx_hal_pcd.c **** {
 1646              		.loc 1 1218 0
 1647              		.cfi_startproc
 1648              		@ args = 0, pretend = 0, frame = 16
 1649              		@ frame_needed = 1, uses_anonymous_args = 0
 1650 0000 80B5     		push	{r7, lr}
 1651              	.LCFI123:
 1652              		.cfi_def_cfa_offset 8
 1653              		.cfi_offset 7, -8
 1654              		.cfi_offset 14, -4
 1655 0002 84B0     		sub	sp, sp, #16
 1656              	.LCFI124:
 1657              		.cfi_def_cfa_offset 24
 1658 0004 00AF     		add	r7, sp, #0
 1659              	.LCFI125:
 1660              		.cfi_def_cfa_register 7
 1661 0006 7860     		str	r0, [r7, #4]
 1662 0008 0B46     		mov	r3, r1
 1663 000a FB70     		strb	r3, [r7, #3]
1219:../Drivers/STM32F3xx_HAL_Driver/Src/stm32f3xx_hal_pcd.c ****   PCD_EPTypeDef *ep;
1220:../Drivers/STM32F3xx_HAL_Driver/Src/stm32f3xx_hal_pcd.c **** 
1221:../Drivers/STM32F3xx_HAL_Driver/Src/stm32f3xx_hal_pcd.c ****   if ((ep_addr & 0x80U) == 0x80U)
 1664              		.loc 1 1221 0
 1665 000c 97F90330 		ldrsb	r3, [r7, #3]
 1666 0010 002B     		cmp	r3, #0
 1667 0012 0BDA     		bge	.L58
1222:../Drivers/STM32F3xx_HAL_Driver/Src/stm32f3xx_hal_pcd.c ****   {
1223:../Drivers/STM32F3xx_HAL_Driver/Src/stm32f3xx_hal_pcd.c ****     ep = &hpcd->IN_ep[ep_addr & EP_ADDR_MSK];
 1668              		.loc 1 1223 0
ARM GAS  /tmp/ccmjhst0.s 			page 51


 1669 0014 FB78     		ldrb	r3, [r7, #3]	@ zero_extendqisi2
 1670 0016 03F00703 		and	r3, r3, #7
 1671 001a 5B01     		lsls	r3, r3, #5
 1672 001c 2833     		adds	r3, r3, #40
 1673 001e 7A68     		ldr	r2, [r7, #4]
 1674 0020 1344     		add	r3, r3, r2
 1675 0022 FB60     		str	r3, [r7, #12]
1224:../Drivers/STM32F3xx_HAL_Driver/Src/stm32f3xx_hal_pcd.c ****     ep->is_in = 1U;
 1676              		.loc 1 1224 0
 1677 0024 FB68     		ldr	r3, [r7, #12]
 1678 0026 0122     		movs	r2, #1
 1679 0028 5A70     		strb	r2, [r3, #1]
 1680 002a 0BE0     		b	.L59
 1681              	.L58:
1225:../Drivers/STM32F3xx_HAL_Driver/Src/stm32f3xx_hal_pcd.c ****   }
1226:../Drivers/STM32F3xx_HAL_Driver/Src/stm32f3xx_hal_pcd.c ****   else
1227:../Drivers/STM32F3xx_HAL_Driver/Src/stm32f3xx_hal_pcd.c ****   {
1228:../Drivers/STM32F3xx_HAL_Driver/Src/stm32f3xx_hal_pcd.c ****     ep = &hpcd->OUT_ep[ep_addr & EP_ADDR_MSK];
 1682              		.loc 1 1228 0
 1683 002c FB78     		ldrb	r3, [r7, #3]	@ zero_extendqisi2
 1684 002e 03F00703 		and	r3, r3, #7
 1685 0032 5B01     		lsls	r3, r3, #5
 1686 0034 03F59473 		add	r3, r3, #296
 1687 0038 7A68     		ldr	r2, [r7, #4]
 1688 003a 1344     		add	r3, r3, r2
 1689 003c FB60     		str	r3, [r7, #12]
1229:../Drivers/STM32F3xx_HAL_Driver/Src/stm32f3xx_hal_pcd.c ****     ep->is_in = 0U;
 1690              		.loc 1 1229 0
 1691 003e FB68     		ldr	r3, [r7, #12]
 1692 0040 0022     		movs	r2, #0
 1693 0042 5A70     		strb	r2, [r3, #1]
 1694              	.L59:
1230:../Drivers/STM32F3xx_HAL_Driver/Src/stm32f3xx_hal_pcd.c ****   }
1231:../Drivers/STM32F3xx_HAL_Driver/Src/stm32f3xx_hal_pcd.c ****   ep->num   = ep_addr & EP_ADDR_MSK;
 1695              		.loc 1 1231 0
 1696 0044 FB78     		ldrb	r3, [r7, #3]
 1697 0046 03F00703 		and	r3, r3, #7
 1698 004a DAB2     		uxtb	r2, r3
 1699 004c FB68     		ldr	r3, [r7, #12]
 1700 004e 1A70     		strb	r2, [r3]
1232:../Drivers/STM32F3xx_HAL_Driver/Src/stm32f3xx_hal_pcd.c **** 
1233:../Drivers/STM32F3xx_HAL_Driver/Src/stm32f3xx_hal_pcd.c ****   __HAL_LOCK(hpcd);
 1701              		.loc 1 1233 0
 1702 0050 7B68     		ldr	r3, [r7, #4]
 1703 0052 93F82832 		ldrb	r3, [r3, #552]	@ zero_extendqisi2
 1704 0056 012B     		cmp	r3, #1
 1705 0058 01D1     		bne	.L60
 1706              		.loc 1 1233 0 is_stmt 0 discriminator 1
 1707 005a 0223     		movs	r3, #2
 1708 005c 0EE0     		b	.L61
 1709              	.L60:
 1710              		.loc 1 1233 0 discriminator 2
 1711 005e 7B68     		ldr	r3, [r7, #4]
 1712 0060 0122     		movs	r2, #1
 1713 0062 83F82822 		strb	r2, [r3, #552]
1234:../Drivers/STM32F3xx_HAL_Driver/Src/stm32f3xx_hal_pcd.c ****   (void)USB_DeactivateEndpoint(hpcd->Instance, ep);
 1714              		.loc 1 1234 0 is_stmt 1 discriminator 2
ARM GAS  /tmp/ccmjhst0.s 			page 52


 1715 0066 7B68     		ldr	r3, [r7, #4]
 1716 0068 1B68     		ldr	r3, [r3]
 1717 006a F968     		ldr	r1, [r7, #12]
 1718 006c 1846     		mov	r0, r3
 1719 006e FFF7FEFF 		bl	USB_DeactivateEndpoint
1235:../Drivers/STM32F3xx_HAL_Driver/Src/stm32f3xx_hal_pcd.c ****   __HAL_UNLOCK(hpcd);
 1720              		.loc 1 1235 0 discriminator 2
 1721 0072 7B68     		ldr	r3, [r7, #4]
 1722 0074 0022     		movs	r2, #0
 1723 0076 83F82822 		strb	r2, [r3, #552]
1236:../Drivers/STM32F3xx_HAL_Driver/Src/stm32f3xx_hal_pcd.c ****   return HAL_OK;
 1724              		.loc 1 1236 0 discriminator 2
 1725 007a 0023     		movs	r3, #0
 1726              	.L61:
1237:../Drivers/STM32F3xx_HAL_Driver/Src/stm32f3xx_hal_pcd.c **** }
 1727              		.loc 1 1237 0
 1728 007c 1846     		mov	r0, r3
 1729 007e 1037     		adds	r7, r7, #16
 1730              	.LCFI126:
 1731              		.cfi_def_cfa_offset 8
 1732 0080 BD46     		mov	sp, r7
 1733              	.LCFI127:
 1734              		.cfi_def_cfa_register 13
 1735              		@ sp needed
 1736 0082 80BD     		pop	{r7, pc}
 1737              		.cfi_endproc
 1738              	.LFE152:
 1740              		.section	.text.HAL_PCD_EP_Receive,"ax",%progbits
 1741              		.align	1
 1742              		.global	HAL_PCD_EP_Receive
 1743              		.syntax unified
 1744              		.thumb
 1745              		.thumb_func
 1746              		.fpu fpv4-sp-d16
 1748              	HAL_PCD_EP_Receive:
 1749              	.LFB153:
1238:../Drivers/STM32F3xx_HAL_Driver/Src/stm32f3xx_hal_pcd.c **** 
1239:../Drivers/STM32F3xx_HAL_Driver/Src/stm32f3xx_hal_pcd.c **** 
1240:../Drivers/STM32F3xx_HAL_Driver/Src/stm32f3xx_hal_pcd.c **** /**
1241:../Drivers/STM32F3xx_HAL_Driver/Src/stm32f3xx_hal_pcd.c ****   * @brief  Receive an amount of data.
1242:../Drivers/STM32F3xx_HAL_Driver/Src/stm32f3xx_hal_pcd.c ****   * @param  hpcd PCD handle
1243:../Drivers/STM32F3xx_HAL_Driver/Src/stm32f3xx_hal_pcd.c ****   * @param  ep_addr endpoint address
1244:../Drivers/STM32F3xx_HAL_Driver/Src/stm32f3xx_hal_pcd.c ****   * @param  pBuf pointer to the reception buffer
1245:../Drivers/STM32F3xx_HAL_Driver/Src/stm32f3xx_hal_pcd.c ****   * @param  len amount of data to be received
1246:../Drivers/STM32F3xx_HAL_Driver/Src/stm32f3xx_hal_pcd.c ****   * @retval HAL status
1247:../Drivers/STM32F3xx_HAL_Driver/Src/stm32f3xx_hal_pcd.c ****   */
1248:../Drivers/STM32F3xx_HAL_Driver/Src/stm32f3xx_hal_pcd.c **** HAL_StatusTypeDef HAL_PCD_EP_Receive(PCD_HandleTypeDef *hpcd, uint8_t ep_addr, uint8_t *pBuf, uint3
1249:../Drivers/STM32F3xx_HAL_Driver/Src/stm32f3xx_hal_pcd.c **** {
 1750              		.loc 1 1249 0
 1751              		.cfi_startproc
 1752              		@ args = 0, pretend = 0, frame = 24
 1753              		@ frame_needed = 1, uses_anonymous_args = 0
 1754 0000 80B5     		push	{r7, lr}
 1755              	.LCFI128:
 1756              		.cfi_def_cfa_offset 8
 1757              		.cfi_offset 7, -8
 1758              		.cfi_offset 14, -4
ARM GAS  /tmp/ccmjhst0.s 			page 53


 1759 0002 86B0     		sub	sp, sp, #24
 1760              	.LCFI129:
 1761              		.cfi_def_cfa_offset 32
 1762 0004 00AF     		add	r7, sp, #0
 1763              	.LCFI130:
 1764              		.cfi_def_cfa_register 7
 1765 0006 F860     		str	r0, [r7, #12]
 1766 0008 7A60     		str	r2, [r7, #4]
 1767 000a 3B60     		str	r3, [r7]
 1768 000c 0B46     		mov	r3, r1
 1769 000e FB72     		strb	r3, [r7, #11]
1250:../Drivers/STM32F3xx_HAL_Driver/Src/stm32f3xx_hal_pcd.c ****   PCD_EPTypeDef *ep;
1251:../Drivers/STM32F3xx_HAL_Driver/Src/stm32f3xx_hal_pcd.c **** 
1252:../Drivers/STM32F3xx_HAL_Driver/Src/stm32f3xx_hal_pcd.c ****   ep = &hpcd->OUT_ep[ep_addr & EP_ADDR_MSK];
 1770              		.loc 1 1252 0
 1771 0010 FB7A     		ldrb	r3, [r7, #11]	@ zero_extendqisi2
 1772 0012 03F00703 		and	r3, r3, #7
 1773 0016 5B01     		lsls	r3, r3, #5
 1774 0018 03F59473 		add	r3, r3, #296
 1775 001c FA68     		ldr	r2, [r7, #12]
 1776 001e 1344     		add	r3, r3, r2
 1777 0020 7B61     		str	r3, [r7, #20]
1253:../Drivers/STM32F3xx_HAL_Driver/Src/stm32f3xx_hal_pcd.c **** 
1254:../Drivers/STM32F3xx_HAL_Driver/Src/stm32f3xx_hal_pcd.c ****   /*setup and start the Xfer */
1255:../Drivers/STM32F3xx_HAL_Driver/Src/stm32f3xx_hal_pcd.c ****   ep->xfer_buff = pBuf;
 1778              		.loc 1 1255 0
 1779 0022 7B69     		ldr	r3, [r7, #20]
 1780 0024 7A68     		ldr	r2, [r7, #4]
 1781 0026 5A61     		str	r2, [r3, #20]
1256:../Drivers/STM32F3xx_HAL_Driver/Src/stm32f3xx_hal_pcd.c ****   ep->xfer_len = len;
 1782              		.loc 1 1256 0
 1783 0028 7B69     		ldr	r3, [r7, #20]
 1784 002a 3A68     		ldr	r2, [r7]
 1785 002c 9A61     		str	r2, [r3, #24]
1257:../Drivers/STM32F3xx_HAL_Driver/Src/stm32f3xx_hal_pcd.c ****   ep->xfer_count = 0U;
 1786              		.loc 1 1257 0
 1787 002e 7B69     		ldr	r3, [r7, #20]
 1788 0030 0022     		movs	r2, #0
 1789 0032 DA61     		str	r2, [r3, #28]
1258:../Drivers/STM32F3xx_HAL_Driver/Src/stm32f3xx_hal_pcd.c ****   ep->is_in = 0U;
 1790              		.loc 1 1258 0
 1791 0034 7B69     		ldr	r3, [r7, #20]
 1792 0036 0022     		movs	r2, #0
 1793 0038 5A70     		strb	r2, [r3, #1]
1259:../Drivers/STM32F3xx_HAL_Driver/Src/stm32f3xx_hal_pcd.c ****   ep->num = ep_addr & EP_ADDR_MSK;
 1794              		.loc 1 1259 0
 1795 003a FB7A     		ldrb	r3, [r7, #11]
 1796 003c 03F00703 		and	r3, r3, #7
 1797 0040 DAB2     		uxtb	r2, r3
 1798 0042 7B69     		ldr	r3, [r7, #20]
 1799 0044 1A70     		strb	r2, [r3]
1260:../Drivers/STM32F3xx_HAL_Driver/Src/stm32f3xx_hal_pcd.c **** 
1261:../Drivers/STM32F3xx_HAL_Driver/Src/stm32f3xx_hal_pcd.c ****   if ((ep_addr & EP_ADDR_MSK) == 0U)
 1800              		.loc 1 1261 0
 1801 0046 FB7A     		ldrb	r3, [r7, #11]	@ zero_extendqisi2
 1802 0048 03F00703 		and	r3, r3, #7
 1803 004c 002B     		cmp	r3, #0
ARM GAS  /tmp/ccmjhst0.s 			page 54


 1804 004e 06D1     		bne	.L63
1262:../Drivers/STM32F3xx_HAL_Driver/Src/stm32f3xx_hal_pcd.c ****   {
1263:../Drivers/STM32F3xx_HAL_Driver/Src/stm32f3xx_hal_pcd.c ****     (void)USB_EP0StartXfer(hpcd->Instance, ep);
 1805              		.loc 1 1263 0
 1806 0050 FB68     		ldr	r3, [r7, #12]
 1807 0052 1B68     		ldr	r3, [r3]
 1808 0054 7969     		ldr	r1, [r7, #20]
 1809 0056 1846     		mov	r0, r3
 1810 0058 FFF7FEFF 		bl	USB_EPStartXfer
 1811 005c 05E0     		b	.L64
 1812              	.L63:
1264:../Drivers/STM32F3xx_HAL_Driver/Src/stm32f3xx_hal_pcd.c ****   }
1265:../Drivers/STM32F3xx_HAL_Driver/Src/stm32f3xx_hal_pcd.c ****   else
1266:../Drivers/STM32F3xx_HAL_Driver/Src/stm32f3xx_hal_pcd.c ****   {
1267:../Drivers/STM32F3xx_HAL_Driver/Src/stm32f3xx_hal_pcd.c ****     (void)USB_EPStartXfer(hpcd->Instance, ep);
 1813              		.loc 1 1267 0
 1814 005e FB68     		ldr	r3, [r7, #12]
 1815 0060 1B68     		ldr	r3, [r3]
 1816 0062 7969     		ldr	r1, [r7, #20]
 1817 0064 1846     		mov	r0, r3
 1818 0066 FFF7FEFF 		bl	USB_EPStartXfer
 1819              	.L64:
1268:../Drivers/STM32F3xx_HAL_Driver/Src/stm32f3xx_hal_pcd.c ****   }
1269:../Drivers/STM32F3xx_HAL_Driver/Src/stm32f3xx_hal_pcd.c **** 
1270:../Drivers/STM32F3xx_HAL_Driver/Src/stm32f3xx_hal_pcd.c ****   return HAL_OK;
 1820              		.loc 1 1270 0
 1821 006a 0023     		movs	r3, #0
1271:../Drivers/STM32F3xx_HAL_Driver/Src/stm32f3xx_hal_pcd.c **** }
 1822              		.loc 1 1271 0
 1823 006c 1846     		mov	r0, r3
 1824 006e 1837     		adds	r7, r7, #24
 1825              	.LCFI131:
 1826              		.cfi_def_cfa_offset 8
 1827 0070 BD46     		mov	sp, r7
 1828              	.LCFI132:
 1829              		.cfi_def_cfa_register 13
 1830              		@ sp needed
 1831 0072 80BD     		pop	{r7, pc}
 1832              		.cfi_endproc
 1833              	.LFE153:
 1835              		.section	.text.HAL_PCD_EP_GetRxCount,"ax",%progbits
 1836              		.align	1
 1837              		.global	HAL_PCD_EP_GetRxCount
 1838              		.syntax unified
 1839              		.thumb
 1840              		.thumb_func
 1841              		.fpu fpv4-sp-d16
 1843              	HAL_PCD_EP_GetRxCount:
 1844              	.LFB154:
1272:../Drivers/STM32F3xx_HAL_Driver/Src/stm32f3xx_hal_pcd.c **** 
1273:../Drivers/STM32F3xx_HAL_Driver/Src/stm32f3xx_hal_pcd.c **** /**
1274:../Drivers/STM32F3xx_HAL_Driver/Src/stm32f3xx_hal_pcd.c ****   * @brief  Get Received Data Size
1275:../Drivers/STM32F3xx_HAL_Driver/Src/stm32f3xx_hal_pcd.c ****   * @param  hpcd PCD handle
1276:../Drivers/STM32F3xx_HAL_Driver/Src/stm32f3xx_hal_pcd.c ****   * @param  ep_addr endpoint address
1277:../Drivers/STM32F3xx_HAL_Driver/Src/stm32f3xx_hal_pcd.c ****   * @retval Data Size
1278:../Drivers/STM32F3xx_HAL_Driver/Src/stm32f3xx_hal_pcd.c ****   */
1279:../Drivers/STM32F3xx_HAL_Driver/Src/stm32f3xx_hal_pcd.c **** uint32_t HAL_PCD_EP_GetRxCount(PCD_HandleTypeDef *hpcd, uint8_t ep_addr)
ARM GAS  /tmp/ccmjhst0.s 			page 55


1280:../Drivers/STM32F3xx_HAL_Driver/Src/stm32f3xx_hal_pcd.c **** {
 1845              		.loc 1 1280 0
 1846              		.cfi_startproc
 1847              		@ args = 0, pretend = 0, frame = 8
 1848              		@ frame_needed = 1, uses_anonymous_args = 0
 1849              		@ link register save eliminated.
 1850 0000 80B4     		push	{r7}
 1851              	.LCFI133:
 1852              		.cfi_def_cfa_offset 4
 1853              		.cfi_offset 7, -4
 1854 0002 83B0     		sub	sp, sp, #12
 1855              	.LCFI134:
 1856              		.cfi_def_cfa_offset 16
 1857 0004 00AF     		add	r7, sp, #0
 1858              	.LCFI135:
 1859              		.cfi_def_cfa_register 7
 1860 0006 7860     		str	r0, [r7, #4]
 1861 0008 0B46     		mov	r3, r1
 1862 000a FB70     		strb	r3, [r7, #3]
1281:../Drivers/STM32F3xx_HAL_Driver/Src/stm32f3xx_hal_pcd.c ****   return hpcd->OUT_ep[ep_addr & EP_ADDR_MSK].xfer_count;
 1863              		.loc 1 1281 0
 1864 000c FB78     		ldrb	r3, [r7, #3]	@ zero_extendqisi2
 1865 000e 03F00703 		and	r3, r3, #7
 1866 0012 7A68     		ldr	r2, [r7, #4]
 1867 0014 0A33     		adds	r3, r3, #10
 1868 0016 5B01     		lsls	r3, r3, #5
 1869 0018 1344     		add	r3, r3, r2
 1870 001a 0433     		adds	r3, r3, #4
 1871 001c 1B68     		ldr	r3, [r3]
1282:../Drivers/STM32F3xx_HAL_Driver/Src/stm32f3xx_hal_pcd.c **** }
 1872              		.loc 1 1282 0
 1873 001e 1846     		mov	r0, r3
 1874 0020 0C37     		adds	r7, r7, #12
 1875              	.LCFI136:
 1876              		.cfi_def_cfa_offset 4
 1877 0022 BD46     		mov	sp, r7
 1878              	.LCFI137:
 1879              		.cfi_def_cfa_register 13
 1880              		@ sp needed
 1881 0024 5DF8047B 		ldr	r7, [sp], #4
 1882              	.LCFI138:
 1883              		.cfi_restore 7
 1884              		.cfi_def_cfa_offset 0
 1885 0028 7047     		bx	lr
 1886              		.cfi_endproc
 1887              	.LFE154:
 1889              		.section	.text.HAL_PCD_EP_Transmit,"ax",%progbits
 1890              		.align	1
 1891              		.global	HAL_PCD_EP_Transmit
 1892              		.syntax unified
 1893              		.thumb
 1894              		.thumb_func
 1895              		.fpu fpv4-sp-d16
 1897              	HAL_PCD_EP_Transmit:
 1898              	.LFB155:
1283:../Drivers/STM32F3xx_HAL_Driver/Src/stm32f3xx_hal_pcd.c **** /**
1284:../Drivers/STM32F3xx_HAL_Driver/Src/stm32f3xx_hal_pcd.c ****   * @brief  Send an amount of data
ARM GAS  /tmp/ccmjhst0.s 			page 56


1285:../Drivers/STM32F3xx_HAL_Driver/Src/stm32f3xx_hal_pcd.c ****   * @param  hpcd PCD handle
1286:../Drivers/STM32F3xx_HAL_Driver/Src/stm32f3xx_hal_pcd.c ****   * @param  ep_addr endpoint address
1287:../Drivers/STM32F3xx_HAL_Driver/Src/stm32f3xx_hal_pcd.c ****   * @param  pBuf pointer to the transmission buffer
1288:../Drivers/STM32F3xx_HAL_Driver/Src/stm32f3xx_hal_pcd.c ****   * @param  len amount of data to be sent
1289:../Drivers/STM32F3xx_HAL_Driver/Src/stm32f3xx_hal_pcd.c ****   * @retval HAL status
1290:../Drivers/STM32F3xx_HAL_Driver/Src/stm32f3xx_hal_pcd.c ****   */
1291:../Drivers/STM32F3xx_HAL_Driver/Src/stm32f3xx_hal_pcd.c **** HAL_StatusTypeDef HAL_PCD_EP_Transmit(PCD_HandleTypeDef *hpcd, uint8_t ep_addr, uint8_t *pBuf, uint
1292:../Drivers/STM32F3xx_HAL_Driver/Src/stm32f3xx_hal_pcd.c **** {
 1899              		.loc 1 1292 0
 1900              		.cfi_startproc
 1901              		@ args = 0, pretend = 0, frame = 24
 1902              		@ frame_needed = 1, uses_anonymous_args = 0
 1903 0000 80B5     		push	{r7, lr}
 1904              	.LCFI139:
 1905              		.cfi_def_cfa_offset 8
 1906              		.cfi_offset 7, -8
 1907              		.cfi_offset 14, -4
 1908 0002 86B0     		sub	sp, sp, #24
 1909              	.LCFI140:
 1910              		.cfi_def_cfa_offset 32
 1911 0004 00AF     		add	r7, sp, #0
 1912              	.LCFI141:
 1913              		.cfi_def_cfa_register 7
 1914 0006 F860     		str	r0, [r7, #12]
 1915 0008 7A60     		str	r2, [r7, #4]
 1916 000a 3B60     		str	r3, [r7]
 1917 000c 0B46     		mov	r3, r1
 1918 000e FB72     		strb	r3, [r7, #11]
1293:../Drivers/STM32F3xx_HAL_Driver/Src/stm32f3xx_hal_pcd.c ****   PCD_EPTypeDef *ep;
1294:../Drivers/STM32F3xx_HAL_Driver/Src/stm32f3xx_hal_pcd.c **** 
1295:../Drivers/STM32F3xx_HAL_Driver/Src/stm32f3xx_hal_pcd.c ****   ep = &hpcd->IN_ep[ep_addr & EP_ADDR_MSK];
 1919              		.loc 1 1295 0
 1920 0010 FB7A     		ldrb	r3, [r7, #11]	@ zero_extendqisi2
 1921 0012 03F00703 		and	r3, r3, #7
 1922 0016 5B01     		lsls	r3, r3, #5
 1923 0018 2833     		adds	r3, r3, #40
 1924 001a FA68     		ldr	r2, [r7, #12]
 1925 001c 1344     		add	r3, r3, r2
 1926 001e 7B61     		str	r3, [r7, #20]
1296:../Drivers/STM32F3xx_HAL_Driver/Src/stm32f3xx_hal_pcd.c **** 
1297:../Drivers/STM32F3xx_HAL_Driver/Src/stm32f3xx_hal_pcd.c ****   /*setup and start the Xfer */
1298:../Drivers/STM32F3xx_HAL_Driver/Src/stm32f3xx_hal_pcd.c ****   ep->xfer_buff = pBuf;
 1927              		.loc 1 1298 0
 1928 0020 7B69     		ldr	r3, [r7, #20]
 1929 0022 7A68     		ldr	r2, [r7, #4]
 1930 0024 5A61     		str	r2, [r3, #20]
1299:../Drivers/STM32F3xx_HAL_Driver/Src/stm32f3xx_hal_pcd.c ****   ep->xfer_len = len;
 1931              		.loc 1 1299 0
 1932 0026 7B69     		ldr	r3, [r7, #20]
 1933 0028 3A68     		ldr	r2, [r7]
 1934 002a 9A61     		str	r2, [r3, #24]
1300:../Drivers/STM32F3xx_HAL_Driver/Src/stm32f3xx_hal_pcd.c ****   ep->xfer_count = 0U;
 1935              		.loc 1 1300 0
 1936 002c 7B69     		ldr	r3, [r7, #20]
 1937 002e 0022     		movs	r2, #0
 1938 0030 DA61     		str	r2, [r3, #28]
1301:../Drivers/STM32F3xx_HAL_Driver/Src/stm32f3xx_hal_pcd.c ****   ep->is_in = 1U;
ARM GAS  /tmp/ccmjhst0.s 			page 57


 1939              		.loc 1 1301 0
 1940 0032 7B69     		ldr	r3, [r7, #20]
 1941 0034 0122     		movs	r2, #1
 1942 0036 5A70     		strb	r2, [r3, #1]
1302:../Drivers/STM32F3xx_HAL_Driver/Src/stm32f3xx_hal_pcd.c ****   ep->num = ep_addr & EP_ADDR_MSK;
 1943              		.loc 1 1302 0
 1944 0038 FB7A     		ldrb	r3, [r7, #11]
 1945 003a 03F00703 		and	r3, r3, #7
 1946 003e DAB2     		uxtb	r2, r3
 1947 0040 7B69     		ldr	r3, [r7, #20]
 1948 0042 1A70     		strb	r2, [r3]
1303:../Drivers/STM32F3xx_HAL_Driver/Src/stm32f3xx_hal_pcd.c **** 
1304:../Drivers/STM32F3xx_HAL_Driver/Src/stm32f3xx_hal_pcd.c ****   if ((ep_addr & EP_ADDR_MSK) == 0U)
 1949              		.loc 1 1304 0
 1950 0044 FB7A     		ldrb	r3, [r7, #11]	@ zero_extendqisi2
 1951 0046 03F00703 		and	r3, r3, #7
 1952 004a 002B     		cmp	r3, #0
 1953 004c 06D1     		bne	.L69
1305:../Drivers/STM32F3xx_HAL_Driver/Src/stm32f3xx_hal_pcd.c ****   {
1306:../Drivers/STM32F3xx_HAL_Driver/Src/stm32f3xx_hal_pcd.c ****     (void)USB_EP0StartXfer(hpcd->Instance, ep);
 1954              		.loc 1 1306 0
 1955 004e FB68     		ldr	r3, [r7, #12]
 1956 0050 1B68     		ldr	r3, [r3]
 1957 0052 7969     		ldr	r1, [r7, #20]
 1958 0054 1846     		mov	r0, r3
 1959 0056 FFF7FEFF 		bl	USB_EPStartXfer
 1960 005a 05E0     		b	.L70
 1961              	.L69:
1307:../Drivers/STM32F3xx_HAL_Driver/Src/stm32f3xx_hal_pcd.c ****   }
1308:../Drivers/STM32F3xx_HAL_Driver/Src/stm32f3xx_hal_pcd.c ****   else
1309:../Drivers/STM32F3xx_HAL_Driver/Src/stm32f3xx_hal_pcd.c ****   {
1310:../Drivers/STM32F3xx_HAL_Driver/Src/stm32f3xx_hal_pcd.c ****     (void)USB_EPStartXfer(hpcd->Instance, ep);
 1962              		.loc 1 1310 0
 1963 005c FB68     		ldr	r3, [r7, #12]
 1964 005e 1B68     		ldr	r3, [r3]
 1965 0060 7969     		ldr	r1, [r7, #20]
 1966 0062 1846     		mov	r0, r3
 1967 0064 FFF7FEFF 		bl	USB_EPStartXfer
 1968              	.L70:
1311:../Drivers/STM32F3xx_HAL_Driver/Src/stm32f3xx_hal_pcd.c ****   }
1312:../Drivers/STM32F3xx_HAL_Driver/Src/stm32f3xx_hal_pcd.c **** 
1313:../Drivers/STM32F3xx_HAL_Driver/Src/stm32f3xx_hal_pcd.c ****   return HAL_OK;
 1969              		.loc 1 1313 0
 1970 0068 0023     		movs	r3, #0
1314:../Drivers/STM32F3xx_HAL_Driver/Src/stm32f3xx_hal_pcd.c **** }
 1971              		.loc 1 1314 0
 1972 006a 1846     		mov	r0, r3
 1973 006c 1837     		adds	r7, r7, #24
 1974              	.LCFI142:
 1975              		.cfi_def_cfa_offset 8
 1976 006e BD46     		mov	sp, r7
 1977              	.LCFI143:
 1978              		.cfi_def_cfa_register 13
 1979              		@ sp needed
 1980 0070 80BD     		pop	{r7, pc}
 1981              		.cfi_endproc
 1982              	.LFE155:
ARM GAS  /tmp/ccmjhst0.s 			page 58


 1984              		.section	.text.HAL_PCD_EP_SetStall,"ax",%progbits
 1985              		.align	1
 1986              		.global	HAL_PCD_EP_SetStall
 1987              		.syntax unified
 1988              		.thumb
 1989              		.thumb_func
 1990              		.fpu fpv4-sp-d16
 1992              	HAL_PCD_EP_SetStall:
 1993              	.LFB156:
1315:../Drivers/STM32F3xx_HAL_Driver/Src/stm32f3xx_hal_pcd.c **** 
1316:../Drivers/STM32F3xx_HAL_Driver/Src/stm32f3xx_hal_pcd.c **** /**
1317:../Drivers/STM32F3xx_HAL_Driver/Src/stm32f3xx_hal_pcd.c ****   * @brief  Set a STALL condition over an endpoint
1318:../Drivers/STM32F3xx_HAL_Driver/Src/stm32f3xx_hal_pcd.c ****   * @param  hpcd PCD handle
1319:../Drivers/STM32F3xx_HAL_Driver/Src/stm32f3xx_hal_pcd.c ****   * @param  ep_addr endpoint address
1320:../Drivers/STM32F3xx_HAL_Driver/Src/stm32f3xx_hal_pcd.c ****   * @retval HAL status
1321:../Drivers/STM32F3xx_HAL_Driver/Src/stm32f3xx_hal_pcd.c ****   */
1322:../Drivers/STM32F3xx_HAL_Driver/Src/stm32f3xx_hal_pcd.c **** HAL_StatusTypeDef HAL_PCD_EP_SetStall(PCD_HandleTypeDef *hpcd, uint8_t ep_addr)
1323:../Drivers/STM32F3xx_HAL_Driver/Src/stm32f3xx_hal_pcd.c **** {
 1994              		.loc 1 1323 0
 1995              		.cfi_startproc
 1996              		@ args = 0, pretend = 0, frame = 16
 1997              		@ frame_needed = 1, uses_anonymous_args = 0
 1998 0000 80B5     		push	{r7, lr}
 1999              	.LCFI144:
 2000              		.cfi_def_cfa_offset 8
 2001              		.cfi_offset 7, -8
 2002              		.cfi_offset 14, -4
 2003 0002 84B0     		sub	sp, sp, #16
 2004              	.LCFI145:
 2005              		.cfi_def_cfa_offset 24
 2006 0004 00AF     		add	r7, sp, #0
 2007              	.LCFI146:
 2008              		.cfi_def_cfa_register 7
 2009 0006 7860     		str	r0, [r7, #4]
 2010 0008 0B46     		mov	r3, r1
 2011 000a FB70     		strb	r3, [r7, #3]
1324:../Drivers/STM32F3xx_HAL_Driver/Src/stm32f3xx_hal_pcd.c ****   PCD_EPTypeDef *ep;
1325:../Drivers/STM32F3xx_HAL_Driver/Src/stm32f3xx_hal_pcd.c **** 
1326:../Drivers/STM32F3xx_HAL_Driver/Src/stm32f3xx_hal_pcd.c ****   if (((uint32_t)ep_addr & EP_ADDR_MSK) > hpcd->Init.dev_endpoints)
 2012              		.loc 1 1326 0
 2013 000c FB78     		ldrb	r3, [r7, #3]	@ zero_extendqisi2
 2014 000e 03F00702 		and	r2, r3, #7
 2015 0012 7B68     		ldr	r3, [r7, #4]
 2016 0014 5B68     		ldr	r3, [r3, #4]
 2017 0016 9A42     		cmp	r2, r3
 2018 0018 01D9     		bls	.L73
1327:../Drivers/STM32F3xx_HAL_Driver/Src/stm32f3xx_hal_pcd.c ****   {
1328:../Drivers/STM32F3xx_HAL_Driver/Src/stm32f3xx_hal_pcd.c ****     return HAL_ERROR;
 2019              		.loc 1 1328 0
 2020 001a 0123     		movs	r3, #1
 2021 001c 46E0     		b	.L74
 2022              	.L73:
1329:../Drivers/STM32F3xx_HAL_Driver/Src/stm32f3xx_hal_pcd.c ****   }
1330:../Drivers/STM32F3xx_HAL_Driver/Src/stm32f3xx_hal_pcd.c **** 
1331:../Drivers/STM32F3xx_HAL_Driver/Src/stm32f3xx_hal_pcd.c ****   if ((0x80U & ep_addr) == 0x80U)
 2023              		.loc 1 1331 0
 2024 001e 97F90330 		ldrsb	r3, [r7, #3]
ARM GAS  /tmp/ccmjhst0.s 			page 59


 2025 0022 002B     		cmp	r3, #0
 2026 0024 0BDA     		bge	.L75
1332:../Drivers/STM32F3xx_HAL_Driver/Src/stm32f3xx_hal_pcd.c ****   {
1333:../Drivers/STM32F3xx_HAL_Driver/Src/stm32f3xx_hal_pcd.c ****     ep = &hpcd->IN_ep[ep_addr & EP_ADDR_MSK];
 2027              		.loc 1 1333 0
 2028 0026 FB78     		ldrb	r3, [r7, #3]	@ zero_extendqisi2
 2029 0028 03F00703 		and	r3, r3, #7
 2030 002c 5B01     		lsls	r3, r3, #5
 2031 002e 2833     		adds	r3, r3, #40
 2032 0030 7A68     		ldr	r2, [r7, #4]
 2033 0032 1344     		add	r3, r3, r2
 2034 0034 FB60     		str	r3, [r7, #12]
1334:../Drivers/STM32F3xx_HAL_Driver/Src/stm32f3xx_hal_pcd.c ****     ep->is_in = 1U;
 2035              		.loc 1 1334 0
 2036 0036 FB68     		ldr	r3, [r7, #12]
 2037 0038 0122     		movs	r2, #1
 2038 003a 5A70     		strb	r2, [r3, #1]
 2039 003c 09E0     		b	.L76
 2040              	.L75:
1335:../Drivers/STM32F3xx_HAL_Driver/Src/stm32f3xx_hal_pcd.c ****   }
1336:../Drivers/STM32F3xx_HAL_Driver/Src/stm32f3xx_hal_pcd.c ****   else
1337:../Drivers/STM32F3xx_HAL_Driver/Src/stm32f3xx_hal_pcd.c ****   {
1338:../Drivers/STM32F3xx_HAL_Driver/Src/stm32f3xx_hal_pcd.c ****     ep = &hpcd->OUT_ep[ep_addr];
 2041              		.loc 1 1338 0
 2042 003e FB78     		ldrb	r3, [r7, #3]	@ zero_extendqisi2
 2043 0040 5B01     		lsls	r3, r3, #5
 2044 0042 03F59473 		add	r3, r3, #296
 2045 0046 7A68     		ldr	r2, [r7, #4]
 2046 0048 1344     		add	r3, r3, r2
 2047 004a FB60     		str	r3, [r7, #12]
1339:../Drivers/STM32F3xx_HAL_Driver/Src/stm32f3xx_hal_pcd.c ****     ep->is_in = 0U;
 2048              		.loc 1 1339 0
 2049 004c FB68     		ldr	r3, [r7, #12]
 2050 004e 0022     		movs	r2, #0
 2051 0050 5A70     		strb	r2, [r3, #1]
 2052              	.L76:
1340:../Drivers/STM32F3xx_HAL_Driver/Src/stm32f3xx_hal_pcd.c ****   }
1341:../Drivers/STM32F3xx_HAL_Driver/Src/stm32f3xx_hal_pcd.c **** 
1342:../Drivers/STM32F3xx_HAL_Driver/Src/stm32f3xx_hal_pcd.c ****   ep->is_stall = 1U;
 2053              		.loc 1 1342 0
 2054 0052 FB68     		ldr	r3, [r7, #12]
 2055 0054 0122     		movs	r2, #1
 2056 0056 9A70     		strb	r2, [r3, #2]
1343:../Drivers/STM32F3xx_HAL_Driver/Src/stm32f3xx_hal_pcd.c ****   ep->num = ep_addr & EP_ADDR_MSK;
 2057              		.loc 1 1343 0
 2058 0058 FB78     		ldrb	r3, [r7, #3]
 2059 005a 03F00703 		and	r3, r3, #7
 2060 005e DAB2     		uxtb	r2, r3
 2061 0060 FB68     		ldr	r3, [r7, #12]
 2062 0062 1A70     		strb	r2, [r3]
1344:../Drivers/STM32F3xx_HAL_Driver/Src/stm32f3xx_hal_pcd.c **** 
1345:../Drivers/STM32F3xx_HAL_Driver/Src/stm32f3xx_hal_pcd.c ****   __HAL_LOCK(hpcd);
 2063              		.loc 1 1345 0
 2064 0064 7B68     		ldr	r3, [r7, #4]
 2065 0066 93F82832 		ldrb	r3, [r3, #552]	@ zero_extendqisi2
 2066 006a 012B     		cmp	r3, #1
 2067 006c 01D1     		bne	.L77
ARM GAS  /tmp/ccmjhst0.s 			page 60


 2068              		.loc 1 1345 0 is_stmt 0 discriminator 1
 2069 006e 0223     		movs	r3, #2
 2070 0070 1CE0     		b	.L74
 2071              	.L77:
 2072              		.loc 1 1345 0 discriminator 2
 2073 0072 7B68     		ldr	r3, [r7, #4]
 2074 0074 0122     		movs	r2, #1
 2075 0076 83F82822 		strb	r2, [r3, #552]
1346:../Drivers/STM32F3xx_HAL_Driver/Src/stm32f3xx_hal_pcd.c **** 
1347:../Drivers/STM32F3xx_HAL_Driver/Src/stm32f3xx_hal_pcd.c ****   (void)USB_EPSetStall(hpcd->Instance, ep);
 2076              		.loc 1 1347 0 is_stmt 1 discriminator 2
 2077 007a 7B68     		ldr	r3, [r7, #4]
 2078 007c 1B68     		ldr	r3, [r3]
 2079 007e F968     		ldr	r1, [r7, #12]
 2080 0080 1846     		mov	r0, r3
 2081 0082 FFF7FEFF 		bl	USB_EPSetStall
1348:../Drivers/STM32F3xx_HAL_Driver/Src/stm32f3xx_hal_pcd.c ****   if ((ep_addr & EP_ADDR_MSK) == 0U)
 2082              		.loc 1 1348 0 discriminator 2
 2083 0086 FB78     		ldrb	r3, [r7, #3]	@ zero_extendqisi2
 2084 0088 03F00703 		and	r3, r3, #7
 2085 008c 002B     		cmp	r3, #0
 2086 008e 08D1     		bne	.L78
1349:../Drivers/STM32F3xx_HAL_Driver/Src/stm32f3xx_hal_pcd.c ****   {
1350:../Drivers/STM32F3xx_HAL_Driver/Src/stm32f3xx_hal_pcd.c ****     (void)USB_EP0_OutStart(hpcd->Instance, (uint8_t *)hpcd->Setup);
 2087              		.loc 1 1350 0
 2088 0090 7B68     		ldr	r3, [r7, #4]
 2089 0092 1A68     		ldr	r2, [r3]
 2090 0094 7B68     		ldr	r3, [r7, #4]
 2091 0096 03F50C73 		add	r3, r3, #560
 2092 009a 1946     		mov	r1, r3
 2093 009c 1046     		mov	r0, r2
 2094 009e FFF7FEFF 		bl	USB_EP0_OutStart
 2095              	.L78:
1351:../Drivers/STM32F3xx_HAL_Driver/Src/stm32f3xx_hal_pcd.c ****   }
1352:../Drivers/STM32F3xx_HAL_Driver/Src/stm32f3xx_hal_pcd.c ****   __HAL_UNLOCK(hpcd);
 2096              		.loc 1 1352 0
 2097 00a2 7B68     		ldr	r3, [r7, #4]
 2098 00a4 0022     		movs	r2, #0
 2099 00a6 83F82822 		strb	r2, [r3, #552]
1353:../Drivers/STM32F3xx_HAL_Driver/Src/stm32f3xx_hal_pcd.c **** 
1354:../Drivers/STM32F3xx_HAL_Driver/Src/stm32f3xx_hal_pcd.c ****   return HAL_OK;
 2100              		.loc 1 1354 0
 2101 00aa 0023     		movs	r3, #0
 2102              	.L74:
1355:../Drivers/STM32F3xx_HAL_Driver/Src/stm32f3xx_hal_pcd.c **** }
 2103              		.loc 1 1355 0
 2104 00ac 1846     		mov	r0, r3
 2105 00ae 1037     		adds	r7, r7, #16
 2106              	.LCFI147:
 2107              		.cfi_def_cfa_offset 8
 2108 00b0 BD46     		mov	sp, r7
 2109              	.LCFI148:
 2110              		.cfi_def_cfa_register 13
 2111              		@ sp needed
 2112 00b2 80BD     		pop	{r7, pc}
 2113              		.cfi_endproc
 2114              	.LFE156:
ARM GAS  /tmp/ccmjhst0.s 			page 61


 2116              		.section	.text.HAL_PCD_EP_ClrStall,"ax",%progbits
 2117              		.align	1
 2118              		.global	HAL_PCD_EP_ClrStall
 2119              		.syntax unified
 2120              		.thumb
 2121              		.thumb_func
 2122              		.fpu fpv4-sp-d16
 2124              	HAL_PCD_EP_ClrStall:
 2125              	.LFB157:
1356:../Drivers/STM32F3xx_HAL_Driver/Src/stm32f3xx_hal_pcd.c **** 
1357:../Drivers/STM32F3xx_HAL_Driver/Src/stm32f3xx_hal_pcd.c **** /**
1358:../Drivers/STM32F3xx_HAL_Driver/Src/stm32f3xx_hal_pcd.c ****   * @brief  Clear a STALL condition over in an endpoint
1359:../Drivers/STM32F3xx_HAL_Driver/Src/stm32f3xx_hal_pcd.c ****   * @param  hpcd PCD handle
1360:../Drivers/STM32F3xx_HAL_Driver/Src/stm32f3xx_hal_pcd.c ****   * @param  ep_addr endpoint address
1361:../Drivers/STM32F3xx_HAL_Driver/Src/stm32f3xx_hal_pcd.c ****   * @retval HAL status
1362:../Drivers/STM32F3xx_HAL_Driver/Src/stm32f3xx_hal_pcd.c ****   */
1363:../Drivers/STM32F3xx_HAL_Driver/Src/stm32f3xx_hal_pcd.c **** HAL_StatusTypeDef HAL_PCD_EP_ClrStall(PCD_HandleTypeDef *hpcd, uint8_t ep_addr)
1364:../Drivers/STM32F3xx_HAL_Driver/Src/stm32f3xx_hal_pcd.c **** {
 2126              		.loc 1 1364 0
 2127              		.cfi_startproc
 2128              		@ args = 0, pretend = 0, frame = 16
 2129              		@ frame_needed = 1, uses_anonymous_args = 0
 2130 0000 80B5     		push	{r7, lr}
 2131              	.LCFI149:
 2132              		.cfi_def_cfa_offset 8
 2133              		.cfi_offset 7, -8
 2134              		.cfi_offset 14, -4
 2135 0002 84B0     		sub	sp, sp, #16
 2136              	.LCFI150:
 2137              		.cfi_def_cfa_offset 24
 2138 0004 00AF     		add	r7, sp, #0
 2139              	.LCFI151:
 2140              		.cfi_def_cfa_register 7
 2141 0006 7860     		str	r0, [r7, #4]
 2142 0008 0B46     		mov	r3, r1
 2143 000a FB70     		strb	r3, [r7, #3]
1365:../Drivers/STM32F3xx_HAL_Driver/Src/stm32f3xx_hal_pcd.c ****   PCD_EPTypeDef *ep;
1366:../Drivers/STM32F3xx_HAL_Driver/Src/stm32f3xx_hal_pcd.c **** 
1367:../Drivers/STM32F3xx_HAL_Driver/Src/stm32f3xx_hal_pcd.c ****   if (((uint32_t)ep_addr & 0x0FU) > hpcd->Init.dev_endpoints)
 2144              		.loc 1 1367 0
 2145 000c FB78     		ldrb	r3, [r7, #3]	@ zero_extendqisi2
 2146 000e 03F00F02 		and	r2, r3, #15
 2147 0012 7B68     		ldr	r3, [r7, #4]
 2148 0014 5B68     		ldr	r3, [r3, #4]
 2149 0016 9A42     		cmp	r2, r3
 2150 0018 01D9     		bls	.L80
1368:../Drivers/STM32F3xx_HAL_Driver/Src/stm32f3xx_hal_pcd.c ****   {
1369:../Drivers/STM32F3xx_HAL_Driver/Src/stm32f3xx_hal_pcd.c ****     return HAL_ERROR;
 2151              		.loc 1 1369 0
 2152 001a 0123     		movs	r3, #1
 2153 001c 3AE0     		b	.L81
 2154              	.L80:
1370:../Drivers/STM32F3xx_HAL_Driver/Src/stm32f3xx_hal_pcd.c ****   }
1371:../Drivers/STM32F3xx_HAL_Driver/Src/stm32f3xx_hal_pcd.c **** 
1372:../Drivers/STM32F3xx_HAL_Driver/Src/stm32f3xx_hal_pcd.c ****   if ((0x80U & ep_addr) == 0x80U)
 2155              		.loc 1 1372 0
 2156 001e 97F90330 		ldrsb	r3, [r7, #3]
ARM GAS  /tmp/ccmjhst0.s 			page 62


 2157 0022 002B     		cmp	r3, #0
 2158 0024 0BDA     		bge	.L82
1373:../Drivers/STM32F3xx_HAL_Driver/Src/stm32f3xx_hal_pcd.c ****   {
1374:../Drivers/STM32F3xx_HAL_Driver/Src/stm32f3xx_hal_pcd.c ****     ep = &hpcd->IN_ep[ep_addr & EP_ADDR_MSK];
 2159              		.loc 1 1374 0
 2160 0026 FB78     		ldrb	r3, [r7, #3]	@ zero_extendqisi2
 2161 0028 03F00703 		and	r3, r3, #7
 2162 002c 5B01     		lsls	r3, r3, #5
 2163 002e 2833     		adds	r3, r3, #40
 2164 0030 7A68     		ldr	r2, [r7, #4]
 2165 0032 1344     		add	r3, r3, r2
 2166 0034 FB60     		str	r3, [r7, #12]
1375:../Drivers/STM32F3xx_HAL_Driver/Src/stm32f3xx_hal_pcd.c ****     ep->is_in = 1U;
 2167              		.loc 1 1375 0
 2168 0036 FB68     		ldr	r3, [r7, #12]
 2169 0038 0122     		movs	r2, #1
 2170 003a 5A70     		strb	r2, [r3, #1]
 2171 003c 0BE0     		b	.L83
 2172              	.L82:
1376:../Drivers/STM32F3xx_HAL_Driver/Src/stm32f3xx_hal_pcd.c ****   }
1377:../Drivers/STM32F3xx_HAL_Driver/Src/stm32f3xx_hal_pcd.c ****   else
1378:../Drivers/STM32F3xx_HAL_Driver/Src/stm32f3xx_hal_pcd.c ****   {
1379:../Drivers/STM32F3xx_HAL_Driver/Src/stm32f3xx_hal_pcd.c ****     ep = &hpcd->OUT_ep[ep_addr & EP_ADDR_MSK];
 2173              		.loc 1 1379 0
 2174 003e FB78     		ldrb	r3, [r7, #3]	@ zero_extendqisi2
 2175 0040 03F00703 		and	r3, r3, #7
 2176 0044 5B01     		lsls	r3, r3, #5
 2177 0046 03F59473 		add	r3, r3, #296
 2178 004a 7A68     		ldr	r2, [r7, #4]
 2179 004c 1344     		add	r3, r3, r2
 2180 004e FB60     		str	r3, [r7, #12]
1380:../Drivers/STM32F3xx_HAL_Driver/Src/stm32f3xx_hal_pcd.c ****     ep->is_in = 0U;
 2181              		.loc 1 1380 0
 2182 0050 FB68     		ldr	r3, [r7, #12]
 2183 0052 0022     		movs	r2, #0
 2184 0054 5A70     		strb	r2, [r3, #1]
 2185              	.L83:
1381:../Drivers/STM32F3xx_HAL_Driver/Src/stm32f3xx_hal_pcd.c ****   }
1382:../Drivers/STM32F3xx_HAL_Driver/Src/stm32f3xx_hal_pcd.c **** 
1383:../Drivers/STM32F3xx_HAL_Driver/Src/stm32f3xx_hal_pcd.c ****   ep->is_stall = 0U;
 2186              		.loc 1 1383 0
 2187 0056 FB68     		ldr	r3, [r7, #12]
 2188 0058 0022     		movs	r2, #0
 2189 005a 9A70     		strb	r2, [r3, #2]
1384:../Drivers/STM32F3xx_HAL_Driver/Src/stm32f3xx_hal_pcd.c ****   ep->num = ep_addr & EP_ADDR_MSK;
 2190              		.loc 1 1384 0
 2191 005c FB78     		ldrb	r3, [r7, #3]
 2192 005e 03F00703 		and	r3, r3, #7
 2193 0062 DAB2     		uxtb	r2, r3
 2194 0064 FB68     		ldr	r3, [r7, #12]
 2195 0066 1A70     		strb	r2, [r3]
1385:../Drivers/STM32F3xx_HAL_Driver/Src/stm32f3xx_hal_pcd.c **** 
1386:../Drivers/STM32F3xx_HAL_Driver/Src/stm32f3xx_hal_pcd.c ****   __HAL_LOCK(hpcd);
 2196              		.loc 1 1386 0
 2197 0068 7B68     		ldr	r3, [r7, #4]
 2198 006a 93F82832 		ldrb	r3, [r3, #552]	@ zero_extendqisi2
 2199 006e 012B     		cmp	r3, #1
ARM GAS  /tmp/ccmjhst0.s 			page 63


 2200 0070 01D1     		bne	.L84
 2201              		.loc 1 1386 0 is_stmt 0 discriminator 1
 2202 0072 0223     		movs	r3, #2
 2203 0074 0EE0     		b	.L81
 2204              	.L84:
 2205              		.loc 1 1386 0 discriminator 2
 2206 0076 7B68     		ldr	r3, [r7, #4]
 2207 0078 0122     		movs	r2, #1
 2208 007a 83F82822 		strb	r2, [r3, #552]
1387:../Drivers/STM32F3xx_HAL_Driver/Src/stm32f3xx_hal_pcd.c ****   (void)USB_EPClearStall(hpcd->Instance, ep);
 2209              		.loc 1 1387 0 is_stmt 1 discriminator 2
 2210 007e 7B68     		ldr	r3, [r7, #4]
 2211 0080 1B68     		ldr	r3, [r3]
 2212 0082 F968     		ldr	r1, [r7, #12]
 2213 0084 1846     		mov	r0, r3
 2214 0086 FFF7FEFF 		bl	USB_EPClearStall
1388:../Drivers/STM32F3xx_HAL_Driver/Src/stm32f3xx_hal_pcd.c ****   __HAL_UNLOCK(hpcd);
 2215              		.loc 1 1388 0 discriminator 2
 2216 008a 7B68     		ldr	r3, [r7, #4]
 2217 008c 0022     		movs	r2, #0
 2218 008e 83F82822 		strb	r2, [r3, #552]
1389:../Drivers/STM32F3xx_HAL_Driver/Src/stm32f3xx_hal_pcd.c **** 
1390:../Drivers/STM32F3xx_HAL_Driver/Src/stm32f3xx_hal_pcd.c ****   return HAL_OK;
 2219              		.loc 1 1390 0 discriminator 2
 2220 0092 0023     		movs	r3, #0
 2221              	.L81:
1391:../Drivers/STM32F3xx_HAL_Driver/Src/stm32f3xx_hal_pcd.c **** }
 2222              		.loc 1 1391 0
 2223 0094 1846     		mov	r0, r3
 2224 0096 1037     		adds	r7, r7, #16
 2225              	.LCFI152:
 2226              		.cfi_def_cfa_offset 8
 2227 0098 BD46     		mov	sp, r7
 2228              	.LCFI153:
 2229              		.cfi_def_cfa_register 13
 2230              		@ sp needed
 2231 009a 80BD     		pop	{r7, pc}
 2232              		.cfi_endproc
 2233              	.LFE157:
 2235              		.section	.text.HAL_PCD_EP_Flush,"ax",%progbits
 2236              		.align	1
 2237              		.global	HAL_PCD_EP_Flush
 2238              		.syntax unified
 2239              		.thumb
 2240              		.thumb_func
 2241              		.fpu fpv4-sp-d16
 2243              	HAL_PCD_EP_Flush:
 2244              	.LFB158:
1392:../Drivers/STM32F3xx_HAL_Driver/Src/stm32f3xx_hal_pcd.c **** 
1393:../Drivers/STM32F3xx_HAL_Driver/Src/stm32f3xx_hal_pcd.c **** /**
1394:../Drivers/STM32F3xx_HAL_Driver/Src/stm32f3xx_hal_pcd.c ****   * @brief  Flush an endpoint
1395:../Drivers/STM32F3xx_HAL_Driver/Src/stm32f3xx_hal_pcd.c ****   * @param  hpcd PCD handle
1396:../Drivers/STM32F3xx_HAL_Driver/Src/stm32f3xx_hal_pcd.c ****   * @param  ep_addr endpoint address
1397:../Drivers/STM32F3xx_HAL_Driver/Src/stm32f3xx_hal_pcd.c ****   * @retval HAL status
1398:../Drivers/STM32F3xx_HAL_Driver/Src/stm32f3xx_hal_pcd.c ****   */
1399:../Drivers/STM32F3xx_HAL_Driver/Src/stm32f3xx_hal_pcd.c **** HAL_StatusTypeDef HAL_PCD_EP_Flush(PCD_HandleTypeDef *hpcd, uint8_t ep_addr)
1400:../Drivers/STM32F3xx_HAL_Driver/Src/stm32f3xx_hal_pcd.c **** {
ARM GAS  /tmp/ccmjhst0.s 			page 64


 2245              		.loc 1 1400 0
 2246              		.cfi_startproc
 2247              		@ args = 0, pretend = 0, frame = 8
 2248              		@ frame_needed = 1, uses_anonymous_args = 0
 2249              		@ link register save eliminated.
 2250 0000 80B4     		push	{r7}
 2251              	.LCFI154:
 2252              		.cfi_def_cfa_offset 4
 2253              		.cfi_offset 7, -4
 2254 0002 83B0     		sub	sp, sp, #12
 2255              	.LCFI155:
 2256              		.cfi_def_cfa_offset 16
 2257 0004 00AF     		add	r7, sp, #0
 2258              	.LCFI156:
 2259              		.cfi_def_cfa_register 7
 2260 0006 7860     		str	r0, [r7, #4]
 2261 0008 0B46     		mov	r3, r1
 2262 000a FB70     		strb	r3, [r7, #3]
1401:../Drivers/STM32F3xx_HAL_Driver/Src/stm32f3xx_hal_pcd.c ****   /* Prevent unused argument(s) compilation warning */
1402:../Drivers/STM32F3xx_HAL_Driver/Src/stm32f3xx_hal_pcd.c ****   UNUSED(hpcd);
1403:../Drivers/STM32F3xx_HAL_Driver/Src/stm32f3xx_hal_pcd.c ****   UNUSED(ep_addr);
1404:../Drivers/STM32F3xx_HAL_Driver/Src/stm32f3xx_hal_pcd.c **** 
1405:../Drivers/STM32F3xx_HAL_Driver/Src/stm32f3xx_hal_pcd.c ****   return HAL_OK;
 2263              		.loc 1 1405 0
 2264 000c 0023     		movs	r3, #0
1406:../Drivers/STM32F3xx_HAL_Driver/Src/stm32f3xx_hal_pcd.c **** }
 2265              		.loc 1 1406 0
 2266 000e 1846     		mov	r0, r3
 2267 0010 0C37     		adds	r7, r7, #12
 2268              	.LCFI157:
 2269              		.cfi_def_cfa_offset 4
 2270 0012 BD46     		mov	sp, r7
 2271              	.LCFI158:
 2272              		.cfi_def_cfa_register 13
 2273              		@ sp needed
 2274 0014 5DF8047B 		ldr	r7, [sp], #4
 2275              	.LCFI159:
 2276              		.cfi_restore 7
 2277              		.cfi_def_cfa_offset 0
 2278 0018 7047     		bx	lr
 2279              		.cfi_endproc
 2280              	.LFE158:
 2282              		.section	.text.HAL_PCD_ActivateRemoteWakeup,"ax",%progbits
 2283              		.align	1
 2284              		.global	HAL_PCD_ActivateRemoteWakeup
 2285              		.syntax unified
 2286              		.thumb
 2287              		.thumb_func
 2288              		.fpu fpv4-sp-d16
 2290              	HAL_PCD_ActivateRemoteWakeup:
 2291              	.LFB159:
1407:../Drivers/STM32F3xx_HAL_Driver/Src/stm32f3xx_hal_pcd.c **** 
1408:../Drivers/STM32F3xx_HAL_Driver/Src/stm32f3xx_hal_pcd.c **** /**
1409:../Drivers/STM32F3xx_HAL_Driver/Src/stm32f3xx_hal_pcd.c ****   * @brief  Activate remote wakeup signalling
1410:../Drivers/STM32F3xx_HAL_Driver/Src/stm32f3xx_hal_pcd.c ****   * @param  hpcd PCD handle
1411:../Drivers/STM32F3xx_HAL_Driver/Src/stm32f3xx_hal_pcd.c ****   * @retval HAL status
1412:../Drivers/STM32F3xx_HAL_Driver/Src/stm32f3xx_hal_pcd.c ****   */
ARM GAS  /tmp/ccmjhst0.s 			page 65


1413:../Drivers/STM32F3xx_HAL_Driver/Src/stm32f3xx_hal_pcd.c **** HAL_StatusTypeDef HAL_PCD_ActivateRemoteWakeup(PCD_HandleTypeDef *hpcd)
1414:../Drivers/STM32F3xx_HAL_Driver/Src/stm32f3xx_hal_pcd.c **** {
 2292              		.loc 1 1414 0
 2293              		.cfi_startproc
 2294              		@ args = 0, pretend = 0, frame = 8
 2295              		@ frame_needed = 1, uses_anonymous_args = 0
 2296 0000 80B5     		push	{r7, lr}
 2297              	.LCFI160:
 2298              		.cfi_def_cfa_offset 8
 2299              		.cfi_offset 7, -8
 2300              		.cfi_offset 14, -4
 2301 0002 82B0     		sub	sp, sp, #8
 2302              	.LCFI161:
 2303              		.cfi_def_cfa_offset 16
 2304 0004 00AF     		add	r7, sp, #0
 2305              	.LCFI162:
 2306              		.cfi_def_cfa_register 7
 2307 0006 7860     		str	r0, [r7, #4]
1415:../Drivers/STM32F3xx_HAL_Driver/Src/stm32f3xx_hal_pcd.c ****   return (USB_ActivateRemoteWakeup(hpcd->Instance));
 2308              		.loc 1 1415 0
 2309 0008 7B68     		ldr	r3, [r7, #4]
 2310 000a 1B68     		ldr	r3, [r3]
 2311 000c 1846     		mov	r0, r3
 2312 000e FFF7FEFF 		bl	USB_ActivateRemoteWakeup
 2313 0012 0346     		mov	r3, r0
1416:../Drivers/STM32F3xx_HAL_Driver/Src/stm32f3xx_hal_pcd.c **** }
 2314              		.loc 1 1416 0
 2315 0014 1846     		mov	r0, r3
 2316 0016 0837     		adds	r7, r7, #8
 2317              	.LCFI163:
 2318              		.cfi_def_cfa_offset 8
 2319 0018 BD46     		mov	sp, r7
 2320              	.LCFI164:
 2321              		.cfi_def_cfa_register 13
 2322              		@ sp needed
 2323 001a 80BD     		pop	{r7, pc}
 2324              		.cfi_endproc
 2325              	.LFE159:
 2327              		.section	.text.HAL_PCD_DeActivateRemoteWakeup,"ax",%progbits
 2328              		.align	1
 2329              		.global	HAL_PCD_DeActivateRemoteWakeup
 2330              		.syntax unified
 2331              		.thumb
 2332              		.thumb_func
 2333              		.fpu fpv4-sp-d16
 2335              	HAL_PCD_DeActivateRemoteWakeup:
 2336              	.LFB160:
1417:../Drivers/STM32F3xx_HAL_Driver/Src/stm32f3xx_hal_pcd.c **** 
1418:../Drivers/STM32F3xx_HAL_Driver/Src/stm32f3xx_hal_pcd.c **** /**
1419:../Drivers/STM32F3xx_HAL_Driver/Src/stm32f3xx_hal_pcd.c ****   * @brief  De-activate remote wakeup signalling.
1420:../Drivers/STM32F3xx_HAL_Driver/Src/stm32f3xx_hal_pcd.c ****   * @param  hpcd PCD handle
1421:../Drivers/STM32F3xx_HAL_Driver/Src/stm32f3xx_hal_pcd.c ****   * @retval HAL status
1422:../Drivers/STM32F3xx_HAL_Driver/Src/stm32f3xx_hal_pcd.c ****   */
1423:../Drivers/STM32F3xx_HAL_Driver/Src/stm32f3xx_hal_pcd.c **** HAL_StatusTypeDef HAL_PCD_DeActivateRemoteWakeup(PCD_HandleTypeDef *hpcd)
1424:../Drivers/STM32F3xx_HAL_Driver/Src/stm32f3xx_hal_pcd.c **** {
 2337              		.loc 1 1424 0
 2338              		.cfi_startproc
ARM GAS  /tmp/ccmjhst0.s 			page 66


 2339              		@ args = 0, pretend = 0, frame = 8
 2340              		@ frame_needed = 1, uses_anonymous_args = 0
 2341 0000 80B5     		push	{r7, lr}
 2342              	.LCFI165:
 2343              		.cfi_def_cfa_offset 8
 2344              		.cfi_offset 7, -8
 2345              		.cfi_offset 14, -4
 2346 0002 82B0     		sub	sp, sp, #8
 2347              	.LCFI166:
 2348              		.cfi_def_cfa_offset 16
 2349 0004 00AF     		add	r7, sp, #0
 2350              	.LCFI167:
 2351              		.cfi_def_cfa_register 7
 2352 0006 7860     		str	r0, [r7, #4]
1425:../Drivers/STM32F3xx_HAL_Driver/Src/stm32f3xx_hal_pcd.c ****   return (USB_DeActivateRemoteWakeup(hpcd->Instance));
 2353              		.loc 1 1425 0
 2354 0008 7B68     		ldr	r3, [r7, #4]
 2355 000a 1B68     		ldr	r3, [r3]
 2356 000c 1846     		mov	r0, r3
 2357 000e FFF7FEFF 		bl	USB_DeActivateRemoteWakeup
 2358 0012 0346     		mov	r3, r0
1426:../Drivers/STM32F3xx_HAL_Driver/Src/stm32f3xx_hal_pcd.c **** }
 2359              		.loc 1 1426 0
 2360 0014 1846     		mov	r0, r3
 2361 0016 0837     		adds	r7, r7, #8
 2362              	.LCFI168:
 2363              		.cfi_def_cfa_offset 8
 2364 0018 BD46     		mov	sp, r7
 2365              	.LCFI169:
 2366              		.cfi_def_cfa_register 13
 2367              		@ sp needed
 2368 001a 80BD     		pop	{r7, pc}
 2369              		.cfi_endproc
 2370              	.LFE160:
 2372              		.section	.text.HAL_PCD_GetState,"ax",%progbits
 2373              		.align	1
 2374              		.global	HAL_PCD_GetState
 2375              		.syntax unified
 2376              		.thumb
 2377              		.thumb_func
 2378              		.fpu fpv4-sp-d16
 2380              	HAL_PCD_GetState:
 2381              	.LFB161:
1427:../Drivers/STM32F3xx_HAL_Driver/Src/stm32f3xx_hal_pcd.c **** 
1428:../Drivers/STM32F3xx_HAL_Driver/Src/stm32f3xx_hal_pcd.c **** /**
1429:../Drivers/STM32F3xx_HAL_Driver/Src/stm32f3xx_hal_pcd.c ****   * @}
1430:../Drivers/STM32F3xx_HAL_Driver/Src/stm32f3xx_hal_pcd.c ****   */
1431:../Drivers/STM32F3xx_HAL_Driver/Src/stm32f3xx_hal_pcd.c **** 
1432:../Drivers/STM32F3xx_HAL_Driver/Src/stm32f3xx_hal_pcd.c **** /** @defgroup PCD_Exported_Functions_Group4 Peripheral State functions
1433:../Drivers/STM32F3xx_HAL_Driver/Src/stm32f3xx_hal_pcd.c ****  *  @brief   Peripheral State functions
1434:../Drivers/STM32F3xx_HAL_Driver/Src/stm32f3xx_hal_pcd.c ****  *
1435:../Drivers/STM32F3xx_HAL_Driver/Src/stm32f3xx_hal_pcd.c **** @verbatim
1436:../Drivers/STM32F3xx_HAL_Driver/Src/stm32f3xx_hal_pcd.c ****  ===============================================================================
1437:../Drivers/STM32F3xx_HAL_Driver/Src/stm32f3xx_hal_pcd.c ****                       ##### Peripheral State functions #####
1438:../Drivers/STM32F3xx_HAL_Driver/Src/stm32f3xx_hal_pcd.c ****  ===============================================================================
1439:../Drivers/STM32F3xx_HAL_Driver/Src/stm32f3xx_hal_pcd.c ****     [..]
1440:../Drivers/STM32F3xx_HAL_Driver/Src/stm32f3xx_hal_pcd.c ****     This subsection permits to get in run-time the status of the peripheral
ARM GAS  /tmp/ccmjhst0.s 			page 67


1441:../Drivers/STM32F3xx_HAL_Driver/Src/stm32f3xx_hal_pcd.c ****     and the data flow.
1442:../Drivers/STM32F3xx_HAL_Driver/Src/stm32f3xx_hal_pcd.c **** 
1443:../Drivers/STM32F3xx_HAL_Driver/Src/stm32f3xx_hal_pcd.c **** @endverbatim
1444:../Drivers/STM32F3xx_HAL_Driver/Src/stm32f3xx_hal_pcd.c ****   * @{
1445:../Drivers/STM32F3xx_HAL_Driver/Src/stm32f3xx_hal_pcd.c ****   */
1446:../Drivers/STM32F3xx_HAL_Driver/Src/stm32f3xx_hal_pcd.c **** 
1447:../Drivers/STM32F3xx_HAL_Driver/Src/stm32f3xx_hal_pcd.c **** /**
1448:../Drivers/STM32F3xx_HAL_Driver/Src/stm32f3xx_hal_pcd.c ****   * @brief  Return the PCD handle state.
1449:../Drivers/STM32F3xx_HAL_Driver/Src/stm32f3xx_hal_pcd.c ****   * @param  hpcd PCD handle
1450:../Drivers/STM32F3xx_HAL_Driver/Src/stm32f3xx_hal_pcd.c ****   * @retval HAL state
1451:../Drivers/STM32F3xx_HAL_Driver/Src/stm32f3xx_hal_pcd.c ****   */
1452:../Drivers/STM32F3xx_HAL_Driver/Src/stm32f3xx_hal_pcd.c **** PCD_StateTypeDef HAL_PCD_GetState(PCD_HandleTypeDef *hpcd)
1453:../Drivers/STM32F3xx_HAL_Driver/Src/stm32f3xx_hal_pcd.c **** {
 2382              		.loc 1 1453 0
 2383              		.cfi_startproc
 2384              		@ args = 0, pretend = 0, frame = 8
 2385              		@ frame_needed = 1, uses_anonymous_args = 0
 2386              		@ link register save eliminated.
 2387 0000 80B4     		push	{r7}
 2388              	.LCFI170:
 2389              		.cfi_def_cfa_offset 4
 2390              		.cfi_offset 7, -4
 2391 0002 83B0     		sub	sp, sp, #12
 2392              	.LCFI171:
 2393              		.cfi_def_cfa_offset 16
 2394 0004 00AF     		add	r7, sp, #0
 2395              	.LCFI172:
 2396              		.cfi_def_cfa_register 7
 2397 0006 7860     		str	r0, [r7, #4]
1454:../Drivers/STM32F3xx_HAL_Driver/Src/stm32f3xx_hal_pcd.c ****   return hpcd->State;
 2398              		.loc 1 1454 0
 2399 0008 7B68     		ldr	r3, [r7, #4]
 2400 000a 93F82932 		ldrb	r3, [r3, #553]
 2401 000e DBB2     		uxtb	r3, r3
1455:../Drivers/STM32F3xx_HAL_Driver/Src/stm32f3xx_hal_pcd.c **** }
 2402              		.loc 1 1455 0
 2403 0010 1846     		mov	r0, r3
 2404 0012 0C37     		adds	r7, r7, #12
 2405              	.LCFI173:
 2406              		.cfi_def_cfa_offset 4
 2407 0014 BD46     		mov	sp, r7
 2408              	.LCFI174:
 2409              		.cfi_def_cfa_register 13
 2410              		@ sp needed
 2411 0016 5DF8047B 		ldr	r7, [sp], #4
 2412              	.LCFI175:
 2413              		.cfi_restore 7
 2414              		.cfi_def_cfa_offset 0
 2415 001a 7047     		bx	lr
 2416              		.cfi_endproc
 2417              	.LFE161:
 2419              		.section	.text.PCD_EP_ISR_Handler,"ax",%progbits
 2420              		.align	1
 2421              		.syntax unified
 2422              		.thumb
 2423              		.thumb_func
 2424              		.fpu fpv4-sp-d16
ARM GAS  /tmp/ccmjhst0.s 			page 68


 2426              	PCD_EP_ISR_Handler:
 2427              	.LFB162:
1456:../Drivers/STM32F3xx_HAL_Driver/Src/stm32f3xx_hal_pcd.c **** 
1457:../Drivers/STM32F3xx_HAL_Driver/Src/stm32f3xx_hal_pcd.c **** /**
1458:../Drivers/STM32F3xx_HAL_Driver/Src/stm32f3xx_hal_pcd.c ****   * @}
1459:../Drivers/STM32F3xx_HAL_Driver/Src/stm32f3xx_hal_pcd.c ****   */
1460:../Drivers/STM32F3xx_HAL_Driver/Src/stm32f3xx_hal_pcd.c **** 
1461:../Drivers/STM32F3xx_HAL_Driver/Src/stm32f3xx_hal_pcd.c **** /**
1462:../Drivers/STM32F3xx_HAL_Driver/Src/stm32f3xx_hal_pcd.c ****   * @}
1463:../Drivers/STM32F3xx_HAL_Driver/Src/stm32f3xx_hal_pcd.c ****   */
1464:../Drivers/STM32F3xx_HAL_Driver/Src/stm32f3xx_hal_pcd.c **** 
1465:../Drivers/STM32F3xx_HAL_Driver/Src/stm32f3xx_hal_pcd.c **** /* Private functions ---------------------------------------------------------*/
1466:../Drivers/STM32F3xx_HAL_Driver/Src/stm32f3xx_hal_pcd.c **** /** @addtogroup PCD_Private_Functions
1467:../Drivers/STM32F3xx_HAL_Driver/Src/stm32f3xx_hal_pcd.c ****   * @{
1468:../Drivers/STM32F3xx_HAL_Driver/Src/stm32f3xx_hal_pcd.c ****   */
1469:../Drivers/STM32F3xx_HAL_Driver/Src/stm32f3xx_hal_pcd.c **** 
1470:../Drivers/STM32F3xx_HAL_Driver/Src/stm32f3xx_hal_pcd.c **** 
1471:../Drivers/STM32F3xx_HAL_Driver/Src/stm32f3xx_hal_pcd.c **** /**
1472:../Drivers/STM32F3xx_HAL_Driver/Src/stm32f3xx_hal_pcd.c ****   * @brief  This function handles PCD Endpoint interrupt request.
1473:../Drivers/STM32F3xx_HAL_Driver/Src/stm32f3xx_hal_pcd.c ****   * @param  hpcd PCD handle
1474:../Drivers/STM32F3xx_HAL_Driver/Src/stm32f3xx_hal_pcd.c ****   * @retval HAL status
1475:../Drivers/STM32F3xx_HAL_Driver/Src/stm32f3xx_hal_pcd.c ****   */
1476:../Drivers/STM32F3xx_HAL_Driver/Src/stm32f3xx_hal_pcd.c **** static HAL_StatusTypeDef PCD_EP_ISR_Handler(PCD_HandleTypeDef *hpcd)
1477:../Drivers/STM32F3xx_HAL_Driver/Src/stm32f3xx_hal_pcd.c **** {
 2428              		.loc 1 1477 0
 2429              		.cfi_startproc
 2430              		@ args = 0, pretend = 0, frame = 32
 2431              		@ frame_needed = 1, uses_anonymous_args = 0
 2432 0000 90B5     		push	{r4, r7, lr}
 2433              	.LCFI176:
 2434              		.cfi_def_cfa_offset 12
 2435              		.cfi_offset 4, -12
 2436              		.cfi_offset 7, -8
 2437              		.cfi_offset 14, -4
 2438 0002 89B0     		sub	sp, sp, #36
 2439              	.LCFI177:
 2440              		.cfi_def_cfa_offset 48
 2441 0004 00AF     		add	r7, sp, #0
 2442              	.LCFI178:
 2443              		.cfi_def_cfa_register 7
 2444 0006 7860     		str	r0, [r7, #4]
1478:../Drivers/STM32F3xx_HAL_Driver/Src/stm32f3xx_hal_pcd.c ****   PCD_EPTypeDef *ep;
1479:../Drivers/STM32F3xx_HAL_Driver/Src/stm32f3xx_hal_pcd.c ****   uint16_t count;
1480:../Drivers/STM32F3xx_HAL_Driver/Src/stm32f3xx_hal_pcd.c ****   uint16_t wIstr;
1481:../Drivers/STM32F3xx_HAL_Driver/Src/stm32f3xx_hal_pcd.c ****   uint16_t wEPVal;
1482:../Drivers/STM32F3xx_HAL_Driver/Src/stm32f3xx_hal_pcd.c ****   uint8_t epindex;
1483:../Drivers/STM32F3xx_HAL_Driver/Src/stm32f3xx_hal_pcd.c **** 
1484:../Drivers/STM32F3xx_HAL_Driver/Src/stm32f3xx_hal_pcd.c ****   /* stay in loop while pending interrupts */
1485:../Drivers/STM32F3xx_HAL_Driver/Src/stm32f3xx_hal_pcd.c ****   while ((hpcd->Instance->ISTR & USB_ISTR_CTR) != 0U)
 2445              		.loc 1 1485 0
 2446 0008 86E2     		b	.L94
 2447              	.L116:
1486:../Drivers/STM32F3xx_HAL_Driver/Src/stm32f3xx_hal_pcd.c ****   {
1487:../Drivers/STM32F3xx_HAL_Driver/Src/stm32f3xx_hal_pcd.c ****     wIstr = hpcd->Instance->ISTR;
 2448              		.loc 1 1487 0
 2449 000a 7B68     		ldr	r3, [r7, #4]
 2450 000c 1B68     		ldr	r3, [r3]
ARM GAS  /tmp/ccmjhst0.s 			page 69


 2451 000e B3F84430 		ldrh	r3, [r3, #68]	@ movhi
 2452 0012 FB82     		strh	r3, [r7, #22]	@ movhi
1488:../Drivers/STM32F3xx_HAL_Driver/Src/stm32f3xx_hal_pcd.c ****     /* extract highest priority endpoint number */
1489:../Drivers/STM32F3xx_HAL_Driver/Src/stm32f3xx_hal_pcd.c ****     epindex = (uint8_t)(wIstr & USB_ISTR_EP_ID);
 2453              		.loc 1 1489 0
 2454 0014 FB8A     		ldrh	r3, [r7, #22]	@ movhi
 2455 0016 DBB2     		uxtb	r3, r3
 2456 0018 03F00F03 		and	r3, r3, #15
 2457 001c 7B75     		strb	r3, [r7, #21]
1490:../Drivers/STM32F3xx_HAL_Driver/Src/stm32f3xx_hal_pcd.c **** 
1491:../Drivers/STM32F3xx_HAL_Driver/Src/stm32f3xx_hal_pcd.c ****     if (epindex == 0U)
 2458              		.loc 1 1491 0
 2459 001e 7B7D     		ldrb	r3, [r7, #21]	@ zero_extendqisi2
 2460 0020 002B     		cmp	r3, #0
 2461 0022 40F04681 		bne	.L95
1492:../Drivers/STM32F3xx_HAL_Driver/Src/stm32f3xx_hal_pcd.c ****     {
1493:../Drivers/STM32F3xx_HAL_Driver/Src/stm32f3xx_hal_pcd.c ****       /* Decode and service control endpoint interrupt */
1494:../Drivers/STM32F3xx_HAL_Driver/Src/stm32f3xx_hal_pcd.c **** 
1495:../Drivers/STM32F3xx_HAL_Driver/Src/stm32f3xx_hal_pcd.c ****       /* DIR bit = origin of the interrupt */
1496:../Drivers/STM32F3xx_HAL_Driver/Src/stm32f3xx_hal_pcd.c ****       if ((wIstr & USB_ISTR_DIR) == 0U)
 2462              		.loc 1 1496 0
 2463 0026 FB8A     		ldrh	r3, [r7, #22]
 2464 0028 03F01003 		and	r3, r3, #16
 2465 002c 002B     		cmp	r3, #0
 2466 002e 51D1     		bne	.L96
 2467              	.LBB2:
1497:../Drivers/STM32F3xx_HAL_Driver/Src/stm32f3xx_hal_pcd.c ****       {
1498:../Drivers/STM32F3xx_HAL_Driver/Src/stm32f3xx_hal_pcd.c ****         /* DIR = 0 */
1499:../Drivers/STM32F3xx_HAL_Driver/Src/stm32f3xx_hal_pcd.c **** 
1500:../Drivers/STM32F3xx_HAL_Driver/Src/stm32f3xx_hal_pcd.c ****         /* DIR = 0      => IN  int */
1501:../Drivers/STM32F3xx_HAL_Driver/Src/stm32f3xx_hal_pcd.c ****         /* DIR = 0 implies that (EP_CTR_TX = 1) always  */
1502:../Drivers/STM32F3xx_HAL_Driver/Src/stm32f3xx_hal_pcd.c ****         PCD_CLEAR_TX_EP_CTR(hpcd->Instance, PCD_ENDP0);
 2468              		.loc 1 1502 0
 2469 0030 7B68     		ldr	r3, [r7, #4]
 2470 0032 1B68     		ldr	r3, [r3]
 2471 0034 1B88     		ldrh	r3, [r3]	@ movhi
 2472 0036 9BB2     		uxth	r3, r3
 2473 0038 23F4E143 		bic	r3, r3, #28800
 2474 003c 23F07003 		bic	r3, r3, #112
 2475 0040 9CB2     		uxth	r4, r3
 2476 0042 7B68     		ldr	r3, [r7, #4]
 2477 0044 1A68     		ldr	r2, [r3]
 2478 0046 6FEA4443 		mvn	r3, r4, lsl #17
 2479 004a 6FEA5343 		mvn	r3, r3, lsr #17
 2480 004e 9BB2     		uxth	r3, r3
 2481 0050 1380     		strh	r3, [r2]	@ movhi
 2482              	.LBE2:
1503:../Drivers/STM32F3xx_HAL_Driver/Src/stm32f3xx_hal_pcd.c ****         ep = &hpcd->IN_ep[0];
 2483              		.loc 1 1503 0
 2484 0052 7B68     		ldr	r3, [r7, #4]
 2485 0054 2833     		adds	r3, r3, #40
 2486 0056 3B61     		str	r3, [r7, #16]
1504:../Drivers/STM32F3xx_HAL_Driver/Src/stm32f3xx_hal_pcd.c **** 
1505:../Drivers/STM32F3xx_HAL_Driver/Src/stm32f3xx_hal_pcd.c ****         ep->xfer_count = PCD_GET_EP_TX_CNT(hpcd->Instance, ep->num);
 2487              		.loc 1 1505 0
 2488 0058 7B68     		ldr	r3, [r7, #4]
 2489 005a 1B68     		ldr	r3, [r3]
ARM GAS  /tmp/ccmjhst0.s 			page 70


 2490 005c B3F85030 		ldrh	r3, [r3, #80]	@ movhi
 2491 0060 9BB2     		uxth	r3, r3
 2492 0062 1A46     		mov	r2, r3
 2493 0064 3B69     		ldr	r3, [r7, #16]
 2494 0066 1B78     		ldrb	r3, [r3]	@ zero_extendqisi2
 2495 0068 DB00     		lsls	r3, r3, #3
 2496 006a 1344     		add	r3, r3, r2
 2497 006c 0233     		adds	r3, r3, #2
 2498 006e 5B00     		lsls	r3, r3, #1
 2499 0070 7A68     		ldr	r2, [r7, #4]
 2500 0072 1268     		ldr	r2, [r2]
 2501 0074 1344     		add	r3, r3, r2
 2502 0076 03F58063 		add	r3, r3, #1024
 2503 007a 1B88     		ldrh	r3, [r3]
 2504 007c C3F30902 		ubfx	r2, r3, #0, #10
 2505 0080 3B69     		ldr	r3, [r7, #16]
 2506 0082 DA61     		str	r2, [r3, #28]
1506:../Drivers/STM32F3xx_HAL_Driver/Src/stm32f3xx_hal_pcd.c ****         ep->xfer_buff += ep->xfer_count;
 2507              		.loc 1 1506 0
 2508 0084 3B69     		ldr	r3, [r7, #16]
 2509 0086 5A69     		ldr	r2, [r3, #20]
 2510 0088 3B69     		ldr	r3, [r7, #16]
 2511 008a DB69     		ldr	r3, [r3, #28]
 2512 008c 1A44     		add	r2, r2, r3
 2513 008e 3B69     		ldr	r3, [r7, #16]
 2514 0090 5A61     		str	r2, [r3, #20]
1507:../Drivers/STM32F3xx_HAL_Driver/Src/stm32f3xx_hal_pcd.c **** 
1508:../Drivers/STM32F3xx_HAL_Driver/Src/stm32f3xx_hal_pcd.c ****         /* TX COMPLETE */
1509:../Drivers/STM32F3xx_HAL_Driver/Src/stm32f3xx_hal_pcd.c **** #if (USE_HAL_PCD_REGISTER_CALLBACKS == 1U)
1510:../Drivers/STM32F3xx_HAL_Driver/Src/stm32f3xx_hal_pcd.c ****         hpcd->DataInStageCallback(hpcd, 0U);
1511:../Drivers/STM32F3xx_HAL_Driver/Src/stm32f3xx_hal_pcd.c **** #else
1512:../Drivers/STM32F3xx_HAL_Driver/Src/stm32f3xx_hal_pcd.c ****         HAL_PCD_DataInStageCallback(hpcd, 0U);
 2515              		.loc 1 1512 0
 2516 0092 0021     		movs	r1, #0
 2517 0094 7868     		ldr	r0, [r7, #4]
 2518 0096 FFF7FEFF 		bl	HAL_PCD_DataInStageCallback
1513:../Drivers/STM32F3xx_HAL_Driver/Src/stm32f3xx_hal_pcd.c **** #endif /* USE_HAL_PCD_REGISTER_CALLBACKS */
1514:../Drivers/STM32F3xx_HAL_Driver/Src/stm32f3xx_hal_pcd.c **** 
1515:../Drivers/STM32F3xx_HAL_Driver/Src/stm32f3xx_hal_pcd.c ****         if ((hpcd->USB_Address > 0U) && (ep->xfer_len == 0U))
 2519              		.loc 1 1515 0
 2520 009a 7B68     		ldr	r3, [r7, #4]
 2521 009c 93F82430 		ldrb	r3, [r3, #36]
 2522 00a0 DBB2     		uxtb	r3, r3
 2523 00a2 002B     		cmp	r3, #0
 2524 00a4 00F03882 		beq	.L94
 2525              		.loc 1 1515 0 is_stmt 0 discriminator 1
 2526 00a8 3B69     		ldr	r3, [r7, #16]
 2527 00aa 9B69     		ldr	r3, [r3, #24]
 2528 00ac 002B     		cmp	r3, #0
 2529 00ae 40F03382 		bne	.L94
1516:../Drivers/STM32F3xx_HAL_Driver/Src/stm32f3xx_hal_pcd.c ****         {
1517:../Drivers/STM32F3xx_HAL_Driver/Src/stm32f3xx_hal_pcd.c ****           hpcd->Instance->DADDR = ((uint16_t)hpcd->USB_Address | USB_DADDR_EF);
 2530              		.loc 1 1517 0 is_stmt 1
 2531 00b2 7B68     		ldr	r3, [r7, #4]
 2532 00b4 1B68     		ldr	r3, [r3]
 2533 00b6 7A68     		ldr	r2, [r7, #4]
 2534 00b8 92F82420 		ldrb	r2, [r2, #36]
ARM GAS  /tmp/ccmjhst0.s 			page 71


 2535 00bc D2B2     		uxtb	r2, r2
 2536 00be 62F07F02 		orn	r2, r2, #127
 2537 00c2 D2B2     		uxtb	r2, r2
 2538 00c4 92B2     		uxth	r2, r2
 2539 00c6 A3F84C20 		strh	r2, [r3, #76]	@ movhi
1518:../Drivers/STM32F3xx_HAL_Driver/Src/stm32f3xx_hal_pcd.c ****           hpcd->USB_Address = 0U;
 2540              		.loc 1 1518 0
 2541 00ca 7B68     		ldr	r3, [r7, #4]
 2542 00cc 0022     		movs	r2, #0
 2543 00ce 83F82420 		strb	r2, [r3, #36]
 2544 00d2 21E2     		b	.L94
 2545              	.L96:
1519:../Drivers/STM32F3xx_HAL_Driver/Src/stm32f3xx_hal_pcd.c ****         }
1520:../Drivers/STM32F3xx_HAL_Driver/Src/stm32f3xx_hal_pcd.c ****       }
1521:../Drivers/STM32F3xx_HAL_Driver/Src/stm32f3xx_hal_pcd.c ****       else
1522:../Drivers/STM32F3xx_HAL_Driver/Src/stm32f3xx_hal_pcd.c ****       {
1523:../Drivers/STM32F3xx_HAL_Driver/Src/stm32f3xx_hal_pcd.c ****         /* DIR = 1 */
1524:../Drivers/STM32F3xx_HAL_Driver/Src/stm32f3xx_hal_pcd.c **** 
1525:../Drivers/STM32F3xx_HAL_Driver/Src/stm32f3xx_hal_pcd.c ****         /* DIR = 1 & CTR_RX       => SETUP or OUT int */
1526:../Drivers/STM32F3xx_HAL_Driver/Src/stm32f3xx_hal_pcd.c ****         /* DIR = 1 & (CTR_TX | CTR_RX) => 2 int pending */
1527:../Drivers/STM32F3xx_HAL_Driver/Src/stm32f3xx_hal_pcd.c ****         ep = &hpcd->OUT_ep[0];
 2546              		.loc 1 1527 0
 2547 00d4 7B68     		ldr	r3, [r7, #4]
 2548 00d6 03F59473 		add	r3, r3, #296
 2549 00da 3B61     		str	r3, [r7, #16]
1528:../Drivers/STM32F3xx_HAL_Driver/Src/stm32f3xx_hal_pcd.c ****         wEPVal = PCD_GET_ENDPOINT(hpcd->Instance, PCD_ENDP0);
 2550              		.loc 1 1528 0
 2551 00dc 7B68     		ldr	r3, [r7, #4]
 2552 00de 1B68     		ldr	r3, [r3]
 2553 00e0 1B88     		ldrh	r3, [r3]	@ movhi
 2554 00e2 FB81     		strh	r3, [r7, #14]	@ movhi
1529:../Drivers/STM32F3xx_HAL_Driver/Src/stm32f3xx_hal_pcd.c **** 
1530:../Drivers/STM32F3xx_HAL_Driver/Src/stm32f3xx_hal_pcd.c ****         if ((wEPVal & USB_EP_SETUP) != 0U)
 2555              		.loc 1 1530 0
 2556 00e4 FB89     		ldrh	r3, [r7, #14]
 2557 00e6 03F40063 		and	r3, r3, #2048
 2558 00ea 002B     		cmp	r3, #0
 2559 00ec 33D0     		beq	.L99
1531:../Drivers/STM32F3xx_HAL_Driver/Src/stm32f3xx_hal_pcd.c ****         {
1532:../Drivers/STM32F3xx_HAL_Driver/Src/stm32f3xx_hal_pcd.c ****           /* Get SETUP Packet*/
1533:../Drivers/STM32F3xx_HAL_Driver/Src/stm32f3xx_hal_pcd.c ****           ep->xfer_count = PCD_GET_EP_RX_CNT(hpcd->Instance, ep->num);
 2560              		.loc 1 1533 0
 2561 00ee 7B68     		ldr	r3, [r7, #4]
 2562 00f0 1B68     		ldr	r3, [r3]
 2563 00f2 B3F85030 		ldrh	r3, [r3, #80]	@ movhi
 2564 00f6 9BB2     		uxth	r3, r3
 2565 00f8 1A46     		mov	r2, r3
 2566 00fa 3B69     		ldr	r3, [r7, #16]
 2567 00fc 1B78     		ldrb	r3, [r3]	@ zero_extendqisi2
 2568 00fe DB00     		lsls	r3, r3, #3
 2569 0100 1344     		add	r3, r3, r2
 2570 0102 0633     		adds	r3, r3, #6
 2571 0104 5B00     		lsls	r3, r3, #1
 2572 0106 7A68     		ldr	r2, [r7, #4]
 2573 0108 1268     		ldr	r2, [r2]
 2574 010a 1344     		add	r3, r3, r2
 2575 010c 03F58063 		add	r3, r3, #1024
ARM GAS  /tmp/ccmjhst0.s 			page 72


 2576 0110 1B88     		ldrh	r3, [r3]
 2577 0112 C3F30902 		ubfx	r2, r3, #0, #10
 2578 0116 3B69     		ldr	r3, [r7, #16]
 2579 0118 DA61     		str	r2, [r3, #28]
1534:../Drivers/STM32F3xx_HAL_Driver/Src/stm32f3xx_hal_pcd.c **** 
1535:../Drivers/STM32F3xx_HAL_Driver/Src/stm32f3xx_hal_pcd.c ****           USB_ReadPMA(hpcd->Instance, (uint8_t *)hpcd->Setup,
 2580              		.loc 1 1535 0
 2581 011a 7B68     		ldr	r3, [r7, #4]
 2582 011c 1868     		ldr	r0, [r3]
 2583 011e 7B68     		ldr	r3, [r7, #4]
 2584 0120 03F50C71 		add	r1, r3, #560
 2585 0124 3B69     		ldr	r3, [r7, #16]
 2586 0126 DA88     		ldrh	r2, [r3, #6]
1536:../Drivers/STM32F3xx_HAL_Driver/Src/stm32f3xx_hal_pcd.c ****                       ep->pmaadress, (uint16_t)ep->xfer_count);
 2587              		.loc 1 1536 0
 2588 0128 3B69     		ldr	r3, [r7, #16]
 2589 012a DB69     		ldr	r3, [r3, #28]
1535:../Drivers/STM32F3xx_HAL_Driver/Src/stm32f3xx_hal_pcd.c ****                       ep->pmaadress, (uint16_t)ep->xfer_count);
 2590              		.loc 1 1535 0
 2591 012c 9BB2     		uxth	r3, r3
 2592 012e FFF7FEFF 		bl	USB_ReadPMA
 2593              	.LBB3:
1537:../Drivers/STM32F3xx_HAL_Driver/Src/stm32f3xx_hal_pcd.c **** 
1538:../Drivers/STM32F3xx_HAL_Driver/Src/stm32f3xx_hal_pcd.c ****           /* SETUP bit kept frozen while CTR_RX = 1*/
1539:../Drivers/STM32F3xx_HAL_Driver/Src/stm32f3xx_hal_pcd.c ****           PCD_CLEAR_RX_EP_CTR(hpcd->Instance, PCD_ENDP0);
 2594              		.loc 1 1539 0
 2595 0132 7B68     		ldr	r3, [r7, #4]
 2596 0134 1B68     		ldr	r3, [r3]
 2597 0136 1B88     		ldrh	r3, [r3]	@ movhi
 2598 0138 9AB2     		uxth	r2, r3
 2599 013a 40F68F73 		movw	r3, #3983
 2600 013e 1340     		ands	r3, r3, r2
 2601 0140 9CB2     		uxth	r4, r3
 2602 0142 7B68     		ldr	r3, [r7, #4]
 2603 0144 1B68     		ldr	r3, [r3]
 2604 0146 44F08002 		orr	r2, r4, #128
 2605 014a 92B2     		uxth	r2, r2
 2606 014c 1A80     		strh	r2, [r3]	@ movhi
 2607              	.LBE3:
1540:../Drivers/STM32F3xx_HAL_Driver/Src/stm32f3xx_hal_pcd.c **** 
1541:../Drivers/STM32F3xx_HAL_Driver/Src/stm32f3xx_hal_pcd.c ****           /* Process SETUP Packet*/
1542:../Drivers/STM32F3xx_HAL_Driver/Src/stm32f3xx_hal_pcd.c **** #if (USE_HAL_PCD_REGISTER_CALLBACKS == 1U)
1543:../Drivers/STM32F3xx_HAL_Driver/Src/stm32f3xx_hal_pcd.c ****           hpcd->SetupStageCallback(hpcd);
1544:../Drivers/STM32F3xx_HAL_Driver/Src/stm32f3xx_hal_pcd.c **** #else
1545:../Drivers/STM32F3xx_HAL_Driver/Src/stm32f3xx_hal_pcd.c ****           HAL_PCD_SetupStageCallback(hpcd);
 2608              		.loc 1 1545 0
 2609 014e 7868     		ldr	r0, [r7, #4]
 2610 0150 FFF7FEFF 		bl	HAL_PCD_SetupStageCallback
 2611 0154 E0E1     		b	.L94
 2612              	.L99:
1546:../Drivers/STM32F3xx_HAL_Driver/Src/stm32f3xx_hal_pcd.c **** #endif /* USE_HAL_PCD_REGISTER_CALLBACKS */
1547:../Drivers/STM32F3xx_HAL_Driver/Src/stm32f3xx_hal_pcd.c ****         }
1548:../Drivers/STM32F3xx_HAL_Driver/Src/stm32f3xx_hal_pcd.c **** 
1549:../Drivers/STM32F3xx_HAL_Driver/Src/stm32f3xx_hal_pcd.c ****         else if ((wEPVal & USB_EP_CTR_RX) != 0U)
 2613              		.loc 1 1549 0
 2614 0156 B7F90E30 		ldrsh	r3, [r7, #14]
 2615 015a 002B     		cmp	r3, #0
ARM GAS  /tmp/ccmjhst0.s 			page 73


 2616 015c 80F2DC81 		bge	.L94
 2617              	.LBB4:
1550:../Drivers/STM32F3xx_HAL_Driver/Src/stm32f3xx_hal_pcd.c ****         {
1551:../Drivers/STM32F3xx_HAL_Driver/Src/stm32f3xx_hal_pcd.c ****           PCD_CLEAR_RX_EP_CTR(hpcd->Instance, PCD_ENDP0);
 2618              		.loc 1 1551 0
 2619 0160 7B68     		ldr	r3, [r7, #4]
 2620 0162 1B68     		ldr	r3, [r3]
 2621 0164 1B88     		ldrh	r3, [r3]	@ movhi
 2622 0166 9AB2     		uxth	r2, r3
 2623 0168 40F68F73 		movw	r3, #3983
 2624 016c 1340     		ands	r3, r3, r2
 2625 016e 9CB2     		uxth	r4, r3
 2626 0170 7B68     		ldr	r3, [r7, #4]
 2627 0172 1B68     		ldr	r3, [r3]
 2628 0174 44F08002 		orr	r2, r4, #128
 2629 0178 92B2     		uxth	r2, r2
 2630 017a 1A80     		strh	r2, [r3]	@ movhi
 2631              	.LBE4:
1552:../Drivers/STM32F3xx_HAL_Driver/Src/stm32f3xx_hal_pcd.c **** 
1553:../Drivers/STM32F3xx_HAL_Driver/Src/stm32f3xx_hal_pcd.c ****           /* Get Control Data OUT Packet*/
1554:../Drivers/STM32F3xx_HAL_Driver/Src/stm32f3xx_hal_pcd.c ****           ep->xfer_count = PCD_GET_EP_RX_CNT(hpcd->Instance, ep->num);
 2632              		.loc 1 1554 0
 2633 017c 7B68     		ldr	r3, [r7, #4]
 2634 017e 1B68     		ldr	r3, [r3]
 2635 0180 B3F85030 		ldrh	r3, [r3, #80]	@ movhi
 2636 0184 9BB2     		uxth	r3, r3
 2637 0186 1A46     		mov	r2, r3
 2638 0188 3B69     		ldr	r3, [r7, #16]
 2639 018a 1B78     		ldrb	r3, [r3]	@ zero_extendqisi2
 2640 018c DB00     		lsls	r3, r3, #3
 2641 018e 1344     		add	r3, r3, r2
 2642 0190 0633     		adds	r3, r3, #6
 2643 0192 5B00     		lsls	r3, r3, #1
 2644 0194 7A68     		ldr	r2, [r7, #4]
 2645 0196 1268     		ldr	r2, [r2]
 2646 0198 1344     		add	r3, r3, r2
 2647 019a 03F58063 		add	r3, r3, #1024
 2648 019e 1B88     		ldrh	r3, [r3]
 2649 01a0 C3F30902 		ubfx	r2, r3, #0, #10
 2650 01a4 3B69     		ldr	r3, [r7, #16]
 2651 01a6 DA61     		str	r2, [r3, #28]
1555:../Drivers/STM32F3xx_HAL_Driver/Src/stm32f3xx_hal_pcd.c **** 
1556:../Drivers/STM32F3xx_HAL_Driver/Src/stm32f3xx_hal_pcd.c ****           if ((ep->xfer_count != 0U) && (ep->xfer_buff != 0U))
 2652              		.loc 1 1556 0
 2653 01a8 3B69     		ldr	r3, [r7, #16]
 2654 01aa DB69     		ldr	r3, [r3, #28]
 2655 01ac 002B     		cmp	r3, #0
 2656 01ae 19D0     		beq	.L100
 2657              		.loc 1 1556 0 is_stmt 0 discriminator 1
 2658 01b0 3B69     		ldr	r3, [r7, #16]
 2659 01b2 5B69     		ldr	r3, [r3, #20]
 2660 01b4 002B     		cmp	r3, #0
 2661 01b6 15D0     		beq	.L100
1557:../Drivers/STM32F3xx_HAL_Driver/Src/stm32f3xx_hal_pcd.c ****           {
1558:../Drivers/STM32F3xx_HAL_Driver/Src/stm32f3xx_hal_pcd.c ****             USB_ReadPMA(hpcd->Instance, ep->xfer_buff,
 2662              		.loc 1 1558 0 is_stmt 1
 2663 01b8 7B68     		ldr	r3, [r7, #4]
ARM GAS  /tmp/ccmjhst0.s 			page 74


 2664 01ba 1868     		ldr	r0, [r3]
 2665 01bc 3B69     		ldr	r3, [r7, #16]
 2666 01be 5969     		ldr	r1, [r3, #20]
 2667 01c0 3B69     		ldr	r3, [r7, #16]
 2668 01c2 DA88     		ldrh	r2, [r3, #6]
1559:../Drivers/STM32F3xx_HAL_Driver/Src/stm32f3xx_hal_pcd.c ****                         ep->pmaadress, (uint16_t)ep->xfer_count);
 2669              		.loc 1 1559 0
 2670 01c4 3B69     		ldr	r3, [r7, #16]
 2671 01c6 DB69     		ldr	r3, [r3, #28]
1558:../Drivers/STM32F3xx_HAL_Driver/Src/stm32f3xx_hal_pcd.c ****                         ep->pmaadress, (uint16_t)ep->xfer_count);
 2672              		.loc 1 1558 0
 2673 01c8 9BB2     		uxth	r3, r3
 2674 01ca FFF7FEFF 		bl	USB_ReadPMA
1560:../Drivers/STM32F3xx_HAL_Driver/Src/stm32f3xx_hal_pcd.c **** 
1561:../Drivers/STM32F3xx_HAL_Driver/Src/stm32f3xx_hal_pcd.c ****             ep->xfer_buff += ep->xfer_count;
 2675              		.loc 1 1561 0
 2676 01ce 3B69     		ldr	r3, [r7, #16]
 2677 01d0 5A69     		ldr	r2, [r3, #20]
 2678 01d2 3B69     		ldr	r3, [r7, #16]
 2679 01d4 DB69     		ldr	r3, [r3, #28]
 2680 01d6 1A44     		add	r2, r2, r3
 2681 01d8 3B69     		ldr	r3, [r7, #16]
 2682 01da 5A61     		str	r2, [r3, #20]
1562:../Drivers/STM32F3xx_HAL_Driver/Src/stm32f3xx_hal_pcd.c **** 
1563:../Drivers/STM32F3xx_HAL_Driver/Src/stm32f3xx_hal_pcd.c ****             /* Process Control Data OUT Packet*/
1564:../Drivers/STM32F3xx_HAL_Driver/Src/stm32f3xx_hal_pcd.c **** #if (USE_HAL_PCD_REGISTER_CALLBACKS == 1U)
1565:../Drivers/STM32F3xx_HAL_Driver/Src/stm32f3xx_hal_pcd.c ****             hpcd->DataOutStageCallback(hpcd, 0U);
1566:../Drivers/STM32F3xx_HAL_Driver/Src/stm32f3xx_hal_pcd.c **** #else
1567:../Drivers/STM32F3xx_HAL_Driver/Src/stm32f3xx_hal_pcd.c ****             HAL_PCD_DataOutStageCallback(hpcd, 0U);
 2683              		.loc 1 1567 0
 2684 01dc 0021     		movs	r1, #0
 2685 01de 7868     		ldr	r0, [r7, #4]
 2686 01e0 FFF7FEFF 		bl	HAL_PCD_DataOutStageCallback
 2687              	.L100:
 2688              	.LBB5:
1568:../Drivers/STM32F3xx_HAL_Driver/Src/stm32f3xx_hal_pcd.c **** #endif /* USE_HAL_PCD_REGISTER_CALLBACKS */
1569:../Drivers/STM32F3xx_HAL_Driver/Src/stm32f3xx_hal_pcd.c ****           }
1570:../Drivers/STM32F3xx_HAL_Driver/Src/stm32f3xx_hal_pcd.c **** 
1571:../Drivers/STM32F3xx_HAL_Driver/Src/stm32f3xx_hal_pcd.c ****           PCD_SET_EP_RX_CNT(hpcd->Instance, PCD_ENDP0, ep->maxpacket);
 2689              		.loc 1 1571 0
 2690 01e4 7B68     		ldr	r3, [r7, #4]
 2691 01e6 1B68     		ldr	r3, [r3]
 2692 01e8 1C46     		mov	r4, r3
 2693 01ea 7B68     		ldr	r3, [r7, #4]
 2694 01ec 1B68     		ldr	r3, [r3]
 2695 01ee B3F85030 		ldrh	r3, [r3, #80]	@ movhi
 2696 01f2 9BB2     		uxth	r3, r3
 2697 01f4 1C44     		add	r4, r4, r3
 2698 01f6 04F20C43 		addw	r3, r4, #1036
 2699 01fa BB60     		str	r3, [r7, #8]
 2700              	.LBB6:
 2701 01fc 3B69     		ldr	r3, [r7, #16]
 2702 01fe 1B69     		ldr	r3, [r3, #16]
 2703 0200 002B     		cmp	r3, #0
 2704 0202 10D1     		bne	.L101
 2705              		.loc 1 1571 0 is_stmt 0 discriminator 1
 2706 0204 BB68     		ldr	r3, [r7, #8]
ARM GAS  /tmp/ccmjhst0.s 			page 75


 2707 0206 1B88     		ldrh	r3, [r3]
 2708 0208 23F4F843 		bic	r3, r3, #31744
 2709 020c 9AB2     		uxth	r2, r3
 2710 020e BB68     		ldr	r3, [r7, #8]
 2711 0210 1A80     		strh	r2, [r3]	@ movhi
 2712 0212 BB68     		ldr	r3, [r7, #8]
 2713 0214 1B88     		ldrh	r3, [r3]
 2714 0216 6FEA4343 		mvn	r3, r3, lsl #17
 2715 021a 6FEA5343 		mvn	r3, r3, lsr #17
 2716 021e 9AB2     		uxth	r2, r3
 2717 0220 BB68     		ldr	r3, [r7, #8]
 2718 0222 1A80     		strh	r2, [r3]	@ movhi
 2719 0224 2FE0     		b	.L102
 2720              	.L101:
 2721              		.loc 1 1571 0 discriminator 2
 2722 0226 3B69     		ldr	r3, [r7, #16]
 2723 0228 1B69     		ldr	r3, [r3, #16]
 2724 022a 3E2B     		cmp	r3, #62
 2725 022c 13D8     		bhi	.L103
 2726              		.loc 1 1571 0 discriminator 3
 2727 022e 3B69     		ldr	r3, [r7, #16]
 2728 0230 1B69     		ldr	r3, [r3, #16]
 2729 0232 5B08     		lsrs	r3, r3, #1
 2730 0234 BB61     		str	r3, [r7, #24]
 2731 0236 3B69     		ldr	r3, [r7, #16]
 2732 0238 1B69     		ldr	r3, [r3, #16]
 2733 023a 03F00103 		and	r3, r3, #1
 2734 023e 002B     		cmp	r3, #0
 2735 0240 02D0     		beq	.L104
 2736              		.loc 1 1571 0 discriminator 5
 2737 0242 BB69     		ldr	r3, [r7, #24]
 2738 0244 0133     		adds	r3, r3, #1
 2739 0246 BB61     		str	r3, [r7, #24]
 2740              	.L104:
 2741              		.loc 1 1571 0 discriminator 7
 2742 0248 BB69     		ldr	r3, [r7, #24]
 2743 024a 9BB2     		uxth	r3, r3
 2744 024c 9B02     		lsls	r3, r3, #10
 2745 024e 9AB2     		uxth	r2, r3
 2746 0250 BB68     		ldr	r3, [r7, #8]
 2747 0252 1A80     		strh	r2, [r3]	@ movhi
 2748 0254 17E0     		b	.L102
 2749              	.L103:
 2750              		.loc 1 1571 0 discriminator 4
 2751 0256 3B69     		ldr	r3, [r7, #16]
 2752 0258 1B69     		ldr	r3, [r3, #16]
 2753 025a 5B09     		lsrs	r3, r3, #5
 2754 025c BB61     		str	r3, [r7, #24]
 2755 025e 3B69     		ldr	r3, [r7, #16]
 2756 0260 1B69     		ldr	r3, [r3, #16]
 2757 0262 03F01F03 		and	r3, r3, #31
 2758 0266 002B     		cmp	r3, #0
 2759 0268 02D1     		bne	.L105
 2760              		.loc 1 1571 0 discriminator 8
 2761 026a BB69     		ldr	r3, [r7, #24]
 2762 026c 013B     		subs	r3, r3, #1
 2763 026e BB61     		str	r3, [r7, #24]
ARM GAS  /tmp/ccmjhst0.s 			page 76


 2764              	.L105:
 2765              		.loc 1 1571 0 discriminator 10
 2766 0270 BB69     		ldr	r3, [r7, #24]
 2767 0272 9BB2     		uxth	r3, r3
 2768 0274 9B02     		lsls	r3, r3, #10
 2769 0276 9BB2     		uxth	r3, r3
 2770 0278 6FEA4343 		mvn	r3, r3, lsl #17
