ARM GAS  /tmp/cclKfraO.s 			page 1


   1              		.cpu cortex-m4
   2              		.eabi_attribute 27, 1
   3              		.eabi_attribute 28, 1
   4              		.eabi_attribute 20, 1
   5              		.eabi_attribute 21, 1
   6              		.eabi_attribute 23, 3
   7              		.eabi_attribute 24, 1
   8              		.eabi_attribute 25, 1
   9              		.eabi_attribute 26, 1
  10              		.eabi_attribute 30, 6
  11              		.eabi_attribute 34, 1
  12              		.eabi_attribute 18, 4
  13              		.file	"stm32f3xx_ll_usb.c"
  14              		.text
  15              	.Ltext0:
  16              		.cfi_sections	.debug_frame
  17              		.section	.text.USB_CoreInit,"ax",%progbits
  18              		.align	1
  19              		.global	USB_CoreInit
  20              		.syntax unified
  21              		.thumb
  22              		.thumb_func
  23              		.fpu fpv4-sp-d16
  25              	USB_CoreInit:
  26              	.LFB130:
  27              		.file 1 "../Drivers/STM32F3xx_HAL_Driver/Src/stm32f3xx_ll_usb.c"
   1:../Drivers/STM32F3xx_HAL_Driver/Src/stm32f3xx_ll_usb.c **** /**
   2:../Drivers/STM32F3xx_HAL_Driver/Src/stm32f3xx_ll_usb.c ****   ******************************************************************************
   3:../Drivers/STM32F3xx_HAL_Driver/Src/stm32f3xx_ll_usb.c ****   * @file    stm32f3xx_ll_usb.c
   4:../Drivers/STM32F3xx_HAL_Driver/Src/stm32f3xx_ll_usb.c ****   * @author  MCD Application Team
   5:../Drivers/STM32F3xx_HAL_Driver/Src/stm32f3xx_ll_usb.c ****   * @brief   USB Low Layer HAL module driver.
   6:../Drivers/STM32F3xx_HAL_Driver/Src/stm32f3xx_ll_usb.c ****   *
   7:../Drivers/STM32F3xx_HAL_Driver/Src/stm32f3xx_ll_usb.c ****   *          This file provides firmware functions to manage the following
   8:../Drivers/STM32F3xx_HAL_Driver/Src/stm32f3xx_ll_usb.c ****   *          functionalities of the USB Peripheral Controller:
   9:../Drivers/STM32F3xx_HAL_Driver/Src/stm32f3xx_ll_usb.c ****   *           + Initialization/de-initialization functions
  10:../Drivers/STM32F3xx_HAL_Driver/Src/stm32f3xx_ll_usb.c ****   *           + I/O operation functions
  11:../Drivers/STM32F3xx_HAL_Driver/Src/stm32f3xx_ll_usb.c ****   *           + Peripheral Control functions
  12:../Drivers/STM32F3xx_HAL_Driver/Src/stm32f3xx_ll_usb.c ****   *           + Peripheral State functions
  13:../Drivers/STM32F3xx_HAL_Driver/Src/stm32f3xx_ll_usb.c ****   *
  14:../Drivers/STM32F3xx_HAL_Driver/Src/stm32f3xx_ll_usb.c ****   @verbatim
  15:../Drivers/STM32F3xx_HAL_Driver/Src/stm32f3xx_ll_usb.c ****   ==============================================================================
  16:../Drivers/STM32F3xx_HAL_Driver/Src/stm32f3xx_ll_usb.c ****                     ##### How to use this driver #####
  17:../Drivers/STM32F3xx_HAL_Driver/Src/stm32f3xx_ll_usb.c ****   ==============================================================================
  18:../Drivers/STM32F3xx_HAL_Driver/Src/stm32f3xx_ll_usb.c ****     [..]
  19:../Drivers/STM32F3xx_HAL_Driver/Src/stm32f3xx_ll_usb.c ****       (#) Fill parameters of Init structure in USB_OTG_CfgTypeDef structure.
  20:../Drivers/STM32F3xx_HAL_Driver/Src/stm32f3xx_ll_usb.c **** 
  21:../Drivers/STM32F3xx_HAL_Driver/Src/stm32f3xx_ll_usb.c ****       (#) Call USB_CoreInit() API to initialize the USB Core peripheral.
  22:../Drivers/STM32F3xx_HAL_Driver/Src/stm32f3xx_ll_usb.c **** 
  23:../Drivers/STM32F3xx_HAL_Driver/Src/stm32f3xx_ll_usb.c ****       (#) The upper HAL HCD/PCD driver will call the right routines for its internal processes.
  24:../Drivers/STM32F3xx_HAL_Driver/Src/stm32f3xx_ll_usb.c **** 
  25:../Drivers/STM32F3xx_HAL_Driver/Src/stm32f3xx_ll_usb.c ****   @endverbatim
  26:../Drivers/STM32F3xx_HAL_Driver/Src/stm32f3xx_ll_usb.c ****   ******************************************************************************
  27:../Drivers/STM32F3xx_HAL_Driver/Src/stm32f3xx_ll_usb.c ****   * @attention
  28:../Drivers/STM32F3xx_HAL_Driver/Src/stm32f3xx_ll_usb.c ****   *
  29:../Drivers/STM32F3xx_HAL_Driver/Src/stm32f3xx_ll_usb.c ****   * <h2><center>&copy; Copyright (c) 2016 STMicroelectronics.
  30:../Drivers/STM32F3xx_HAL_Driver/Src/stm32f3xx_ll_usb.c ****   * All rights reserved.</center></h2>
  31:../Drivers/STM32F3xx_HAL_Driver/Src/stm32f3xx_ll_usb.c ****   *
ARM GAS  /tmp/cclKfraO.s 			page 2


  32:../Drivers/STM32F3xx_HAL_Driver/Src/stm32f3xx_ll_usb.c ****   * This software component is licensed by ST under BSD 3-Clause license,
  33:../Drivers/STM32F3xx_HAL_Driver/Src/stm32f3xx_ll_usb.c ****   * the "License"; You may not use this file except in compliance with the
  34:../Drivers/STM32F3xx_HAL_Driver/Src/stm32f3xx_ll_usb.c ****   * License. You may obtain a copy of the License at:
  35:../Drivers/STM32F3xx_HAL_Driver/Src/stm32f3xx_ll_usb.c ****   *                        opensource.org/licenses/BSD-3-Clause
  36:../Drivers/STM32F3xx_HAL_Driver/Src/stm32f3xx_ll_usb.c ****   *
  37:../Drivers/STM32F3xx_HAL_Driver/Src/stm32f3xx_ll_usb.c ****   ******************************************************************************
  38:../Drivers/STM32F3xx_HAL_Driver/Src/stm32f3xx_ll_usb.c ****   */
  39:../Drivers/STM32F3xx_HAL_Driver/Src/stm32f3xx_ll_usb.c **** 
  40:../Drivers/STM32F3xx_HAL_Driver/Src/stm32f3xx_ll_usb.c **** /* Includes ------------------------------------------------------------------*/
  41:../Drivers/STM32F3xx_HAL_Driver/Src/stm32f3xx_ll_usb.c **** #include "stm32f3xx_hal.h"
  42:../Drivers/STM32F3xx_HAL_Driver/Src/stm32f3xx_ll_usb.c **** 
  43:../Drivers/STM32F3xx_HAL_Driver/Src/stm32f3xx_ll_usb.c **** /** @addtogroup STM32F3xx_LL_USB_DRIVER
  44:../Drivers/STM32F3xx_HAL_Driver/Src/stm32f3xx_ll_usb.c ****   * @{
  45:../Drivers/STM32F3xx_HAL_Driver/Src/stm32f3xx_ll_usb.c ****   */
  46:../Drivers/STM32F3xx_HAL_Driver/Src/stm32f3xx_ll_usb.c **** 
  47:../Drivers/STM32F3xx_HAL_Driver/Src/stm32f3xx_ll_usb.c **** #if defined (HAL_PCD_MODULE_ENABLED) || defined (HAL_HCD_MODULE_ENABLED)
  48:../Drivers/STM32F3xx_HAL_Driver/Src/stm32f3xx_ll_usb.c **** #if defined (USB)
  49:../Drivers/STM32F3xx_HAL_Driver/Src/stm32f3xx_ll_usb.c **** /* Private typedef -----------------------------------------------------------*/
  50:../Drivers/STM32F3xx_HAL_Driver/Src/stm32f3xx_ll_usb.c **** /* Private define ------------------------------------------------------------*/
  51:../Drivers/STM32F3xx_HAL_Driver/Src/stm32f3xx_ll_usb.c **** /* Private macro -------------------------------------------------------------*/
  52:../Drivers/STM32F3xx_HAL_Driver/Src/stm32f3xx_ll_usb.c **** /* Private variables ---------------------------------------------------------*/
  53:../Drivers/STM32F3xx_HAL_Driver/Src/stm32f3xx_ll_usb.c **** /* Private function prototypes -----------------------------------------------*/
  54:../Drivers/STM32F3xx_HAL_Driver/Src/stm32f3xx_ll_usb.c **** /* Private functions ---------------------------------------------------------*/
  55:../Drivers/STM32F3xx_HAL_Driver/Src/stm32f3xx_ll_usb.c **** 
  56:../Drivers/STM32F3xx_HAL_Driver/Src/stm32f3xx_ll_usb.c **** 
  57:../Drivers/STM32F3xx_HAL_Driver/Src/stm32f3xx_ll_usb.c **** /**
  58:../Drivers/STM32F3xx_HAL_Driver/Src/stm32f3xx_ll_usb.c ****   * @brief  Initializes the USB Core
  59:../Drivers/STM32F3xx_HAL_Driver/Src/stm32f3xx_ll_usb.c ****   * @param  USBx: USB Instance
  60:../Drivers/STM32F3xx_HAL_Driver/Src/stm32f3xx_ll_usb.c ****   * @param  cfg : pointer to a USB_CfgTypeDef structure that contains
  61:../Drivers/STM32F3xx_HAL_Driver/Src/stm32f3xx_ll_usb.c ****   *         the configuration information for the specified USBx peripheral.
  62:../Drivers/STM32F3xx_HAL_Driver/Src/stm32f3xx_ll_usb.c ****   * @retval HAL status
  63:../Drivers/STM32F3xx_HAL_Driver/Src/stm32f3xx_ll_usb.c ****   */
  64:../Drivers/STM32F3xx_HAL_Driver/Src/stm32f3xx_ll_usb.c **** HAL_StatusTypeDef USB_CoreInit(USB_TypeDef *USBx, USB_CfgTypeDef cfg)
  65:../Drivers/STM32F3xx_HAL_Driver/Src/stm32f3xx_ll_usb.c **** {
  28              		.loc 1 65 0
  29              		.cfi_startproc
  30              		@ args = 36, pretend = 16, frame = 8
  31              		@ frame_needed = 1, uses_anonymous_args = 0
  32              		@ link register save eliminated.
  33 0000 84B0     		sub	sp, sp, #16
  34              	.LCFI0:
  35              		.cfi_def_cfa_offset 16
  36 0002 80B4     		push	{r7}
  37              	.LCFI1:
  38              		.cfi_def_cfa_offset 20
  39              		.cfi_offset 7, -20
  40 0004 83B0     		sub	sp, sp, #12
  41              	.LCFI2:
  42              		.cfi_def_cfa_offset 32
  43 0006 00AF     		add	r7, sp, #0
  44              	.LCFI3:
  45              		.cfi_def_cfa_register 7
  46 0008 7860     		str	r0, [r7, #4]
  47 000a 07F11400 		add	r0, r7, #20
  48 000e 80E80E00 		stm	r0, {r1, r2, r3}
  66:../Drivers/STM32F3xx_HAL_Driver/Src/stm32f3xx_ll_usb.c ****   /* Prevent unused argument(s) compilation warning */
  67:../Drivers/STM32F3xx_HAL_Driver/Src/stm32f3xx_ll_usb.c ****   UNUSED(USBx);
ARM GAS  /tmp/cclKfraO.s 			page 3


  68:../Drivers/STM32F3xx_HAL_Driver/Src/stm32f3xx_ll_usb.c ****   UNUSED(cfg);
  69:../Drivers/STM32F3xx_HAL_Driver/Src/stm32f3xx_ll_usb.c **** 
  70:../Drivers/STM32F3xx_HAL_Driver/Src/stm32f3xx_ll_usb.c ****   /* NOTE : - This function is not required by USB Device FS peripheral, it is used
  71:../Drivers/STM32F3xx_HAL_Driver/Src/stm32f3xx_ll_usb.c ****               only by USB OTG FS peripheral.
  72:../Drivers/STM32F3xx_HAL_Driver/Src/stm32f3xx_ll_usb.c ****             - This function is added to ensure compatibility across platforms.
  73:../Drivers/STM32F3xx_HAL_Driver/Src/stm32f3xx_ll_usb.c ****    */
  74:../Drivers/STM32F3xx_HAL_Driver/Src/stm32f3xx_ll_usb.c **** 
  75:../Drivers/STM32F3xx_HAL_Driver/Src/stm32f3xx_ll_usb.c ****   return HAL_OK;
  49              		.loc 1 75 0
  50 0012 0023     		movs	r3, #0
  76:../Drivers/STM32F3xx_HAL_Driver/Src/stm32f3xx_ll_usb.c **** }
  51              		.loc 1 76 0
  52 0014 1846     		mov	r0, r3
  53 0016 0C37     		adds	r7, r7, #12
  54              	.LCFI4:
  55              		.cfi_def_cfa_offset 20
  56 0018 BD46     		mov	sp, r7
  57              	.LCFI5:
  58              		.cfi_def_cfa_register 13
  59              		@ sp needed
  60 001a 5DF8047B 		ldr	r7, [sp], #4
  61              	.LCFI6:
  62              		.cfi_restore 7
  63              		.cfi_def_cfa_offset 16
  64 001e 04B0     		add	sp, sp, #16
  65              	.LCFI7:
  66              		.cfi_def_cfa_offset 0
  67 0020 7047     		bx	lr
  68              		.cfi_endproc
  69              	.LFE130:
  71              		.section	.text.USB_EnableGlobalInt,"ax",%progbits
  72              		.align	1
  73              		.global	USB_EnableGlobalInt
  74              		.syntax unified
  75              		.thumb
  76              		.thumb_func
  77              		.fpu fpv4-sp-d16
  79              	USB_EnableGlobalInt:
  80              	.LFB131:
  77:../Drivers/STM32F3xx_HAL_Driver/Src/stm32f3xx_ll_usb.c **** 
  78:../Drivers/STM32F3xx_HAL_Driver/Src/stm32f3xx_ll_usb.c **** /**
  79:../Drivers/STM32F3xx_HAL_Driver/Src/stm32f3xx_ll_usb.c ****   * @brief  USB_EnableGlobalInt
  80:../Drivers/STM32F3xx_HAL_Driver/Src/stm32f3xx_ll_usb.c ****   *         Enables the controller's Global Int in the AHB Config reg
  81:../Drivers/STM32F3xx_HAL_Driver/Src/stm32f3xx_ll_usb.c ****   * @param  USBx : Selected device
  82:../Drivers/STM32F3xx_HAL_Driver/Src/stm32f3xx_ll_usb.c ****   * @retval HAL status
  83:../Drivers/STM32F3xx_HAL_Driver/Src/stm32f3xx_ll_usb.c ****   */
  84:../Drivers/STM32F3xx_HAL_Driver/Src/stm32f3xx_ll_usb.c **** HAL_StatusTypeDef USB_EnableGlobalInt(USB_TypeDef *USBx)
  85:../Drivers/STM32F3xx_HAL_Driver/Src/stm32f3xx_ll_usb.c **** {
  81              		.loc 1 85 0
  82              		.cfi_startproc
  83              		@ args = 0, pretend = 0, frame = 16
  84              		@ frame_needed = 1, uses_anonymous_args = 0
  85              		@ link register save eliminated.
  86 0000 80B4     		push	{r7}
  87              	.LCFI8:
  88              		.cfi_def_cfa_offset 4
  89              		.cfi_offset 7, -4
ARM GAS  /tmp/cclKfraO.s 			page 4


  90 0002 85B0     		sub	sp, sp, #20
  91              	.LCFI9:
  92              		.cfi_def_cfa_offset 24
  93 0004 00AF     		add	r7, sp, #0
  94              	.LCFI10:
  95              		.cfi_def_cfa_register 7
  96 0006 7860     		str	r0, [r7, #4]
  86:../Drivers/STM32F3xx_HAL_Driver/Src/stm32f3xx_ll_usb.c ****   uint16_t winterruptmask;
  87:../Drivers/STM32F3xx_HAL_Driver/Src/stm32f3xx_ll_usb.c **** 
  88:../Drivers/STM32F3xx_HAL_Driver/Src/stm32f3xx_ll_usb.c ****   /* Set winterruptmask variable */
  89:../Drivers/STM32F3xx_HAL_Driver/Src/stm32f3xx_ll_usb.c ****   winterruptmask = USB_CNTR_CTRM  | USB_CNTR_WKUPM |
  97              		.loc 1 89 0
  98 0008 4FF43F43 		mov	r3, #48896
  99 000c FB81     		strh	r3, [r7, #14]	@ movhi
  90:../Drivers/STM32F3xx_HAL_Driver/Src/stm32f3xx_ll_usb.c ****                    USB_CNTR_SUSPM | USB_CNTR_ERRM |
  91:../Drivers/STM32F3xx_HAL_Driver/Src/stm32f3xx_ll_usb.c ****                    USB_CNTR_SOFM | USB_CNTR_ESOFM |
  92:../Drivers/STM32F3xx_HAL_Driver/Src/stm32f3xx_ll_usb.c ****                    USB_CNTR_RESETM;
  93:../Drivers/STM32F3xx_HAL_Driver/Src/stm32f3xx_ll_usb.c **** 
  94:../Drivers/STM32F3xx_HAL_Driver/Src/stm32f3xx_ll_usb.c ****   /* Set interrupt mask */
  95:../Drivers/STM32F3xx_HAL_Driver/Src/stm32f3xx_ll_usb.c ****   USBx->CNTR |= winterruptmask;
 100              		.loc 1 95 0
 101 000e 7B68     		ldr	r3, [r7, #4]
 102 0010 B3F84030 		ldrh	r3, [r3, #64]	@ movhi
 103 0014 9AB2     		uxth	r2, r3
 104 0016 FB89     		ldrh	r3, [r7, #14]	@ movhi
 105 0018 1343     		orrs	r3, r3, r2
 106 001a 9AB2     		uxth	r2, r3
 107 001c 7B68     		ldr	r3, [r7, #4]
 108 001e A3F84020 		strh	r2, [r3, #64]	@ movhi
  96:../Drivers/STM32F3xx_HAL_Driver/Src/stm32f3xx_ll_usb.c **** 
  97:../Drivers/STM32F3xx_HAL_Driver/Src/stm32f3xx_ll_usb.c ****   return HAL_OK;
 109              		.loc 1 97 0
 110 0022 0023     		movs	r3, #0
  98:../Drivers/STM32F3xx_HAL_Driver/Src/stm32f3xx_ll_usb.c **** }
 111              		.loc 1 98 0
 112 0024 1846     		mov	r0, r3
 113 0026 1437     		adds	r7, r7, #20
 114              	.LCFI11:
 115              		.cfi_def_cfa_offset 4
 116 0028 BD46     		mov	sp, r7
 117              	.LCFI12:
 118              		.cfi_def_cfa_register 13
 119              		@ sp needed
 120 002a 5DF8047B 		ldr	r7, [sp], #4
 121              	.LCFI13:
 122              		.cfi_restore 7
 123              		.cfi_def_cfa_offset 0
 124 002e 7047     		bx	lr
 125              		.cfi_endproc
 126              	.LFE131:
 128              		.section	.text.USB_DisableGlobalInt,"ax",%progbits
 129              		.align	1
 130              		.global	USB_DisableGlobalInt
 131              		.syntax unified
 132              		.thumb
 133              		.thumb_func
 134              		.fpu fpv4-sp-d16
ARM GAS  /tmp/cclKfraO.s 			page 5


 136              	USB_DisableGlobalInt:
 137              	.LFB132:
  99:../Drivers/STM32F3xx_HAL_Driver/Src/stm32f3xx_ll_usb.c **** 
 100:../Drivers/STM32F3xx_HAL_Driver/Src/stm32f3xx_ll_usb.c **** /**
 101:../Drivers/STM32F3xx_HAL_Driver/Src/stm32f3xx_ll_usb.c ****   * @brief  USB_DisableGlobalInt
 102:../Drivers/STM32F3xx_HAL_Driver/Src/stm32f3xx_ll_usb.c ****   *         Disable the controller's Global Int in the AHB Config reg
 103:../Drivers/STM32F3xx_HAL_Driver/Src/stm32f3xx_ll_usb.c ****   * @param  USBx : Selected device
 104:../Drivers/STM32F3xx_HAL_Driver/Src/stm32f3xx_ll_usb.c ****   * @retval HAL status
 105:../Drivers/STM32F3xx_HAL_Driver/Src/stm32f3xx_ll_usb.c **** */
 106:../Drivers/STM32F3xx_HAL_Driver/Src/stm32f3xx_ll_usb.c **** HAL_StatusTypeDef USB_DisableGlobalInt(USB_TypeDef *USBx)
 107:../Drivers/STM32F3xx_HAL_Driver/Src/stm32f3xx_ll_usb.c **** {
 138              		.loc 1 107 0
 139              		.cfi_startproc
 140              		@ args = 0, pretend = 0, frame = 16
 141              		@ frame_needed = 1, uses_anonymous_args = 0
 142              		@ link register save eliminated.
 143 0000 80B4     		push	{r7}
 144              	.LCFI14:
 145              		.cfi_def_cfa_offset 4
 146              		.cfi_offset 7, -4
 147 0002 85B0     		sub	sp, sp, #20
 148              	.LCFI15:
 149              		.cfi_def_cfa_offset 24
 150 0004 00AF     		add	r7, sp, #0
 151              	.LCFI16:
 152              		.cfi_def_cfa_register 7
 153 0006 7860     		str	r0, [r7, #4]
 108:../Drivers/STM32F3xx_HAL_Driver/Src/stm32f3xx_ll_usb.c ****   uint16_t winterruptmask;
 109:../Drivers/STM32F3xx_HAL_Driver/Src/stm32f3xx_ll_usb.c **** 
 110:../Drivers/STM32F3xx_HAL_Driver/Src/stm32f3xx_ll_usb.c ****   /* Set winterruptmask variable */
 111:../Drivers/STM32F3xx_HAL_Driver/Src/stm32f3xx_ll_usb.c ****   winterruptmask = USB_CNTR_CTRM  | USB_CNTR_WKUPM |
 154              		.loc 1 111 0
 155 0008 4FF43F43 		mov	r3, #48896
 156 000c FB81     		strh	r3, [r7, #14]	@ movhi
 112:../Drivers/STM32F3xx_HAL_Driver/Src/stm32f3xx_ll_usb.c ****                    USB_CNTR_SUSPM | USB_CNTR_ERRM |
 113:../Drivers/STM32F3xx_HAL_Driver/Src/stm32f3xx_ll_usb.c ****                    USB_CNTR_SOFM | USB_CNTR_ESOFM |
 114:../Drivers/STM32F3xx_HAL_Driver/Src/stm32f3xx_ll_usb.c ****                    USB_CNTR_RESETM;
 115:../Drivers/STM32F3xx_HAL_Driver/Src/stm32f3xx_ll_usb.c **** 
 116:../Drivers/STM32F3xx_HAL_Driver/Src/stm32f3xx_ll_usb.c ****   /* Clear interrupt mask */
 117:../Drivers/STM32F3xx_HAL_Driver/Src/stm32f3xx_ll_usb.c ****   USBx->CNTR &= ~winterruptmask;
 157              		.loc 1 117 0
 158 000e 7B68     		ldr	r3, [r7, #4]
 159 0010 B3F84030 		ldrh	r3, [r3, #64]	@ movhi
 160 0014 9BB2     		uxth	r3, r3
 161 0016 1AB2     		sxth	r2, r3
 162 0018 B7F90E30 		ldrsh	r3, [r7, #14]
 163 001c DB43     		mvns	r3, r3
 164 001e 1BB2     		sxth	r3, r3
 165 0020 1340     		ands	r3, r3, r2
 166 0022 1BB2     		sxth	r3, r3
 167 0024 9AB2     		uxth	r2, r3
 168 0026 7B68     		ldr	r3, [r7, #4]
 169 0028 A3F84020 		strh	r2, [r3, #64]	@ movhi
 118:../Drivers/STM32F3xx_HAL_Driver/Src/stm32f3xx_ll_usb.c **** 
 119:../Drivers/STM32F3xx_HAL_Driver/Src/stm32f3xx_ll_usb.c ****   return HAL_OK;
 170              		.loc 1 119 0
 171 002c 0023     		movs	r3, #0
ARM GAS  /tmp/cclKfraO.s 			page 6


 120:../Drivers/STM32F3xx_HAL_Driver/Src/stm32f3xx_ll_usb.c **** }
 172              		.loc 1 120 0
 173 002e 1846     		mov	r0, r3
 174 0030 1437     		adds	r7, r7, #20
 175              	.LCFI17:
 176              		.cfi_def_cfa_offset 4
 177 0032 BD46     		mov	sp, r7
 178              	.LCFI18:
 179              		.cfi_def_cfa_register 13
 180              		@ sp needed
 181 0034 5DF8047B 		ldr	r7, [sp], #4
 182              	.LCFI19:
 183              		.cfi_restore 7
 184              		.cfi_def_cfa_offset 0
 185 0038 7047     		bx	lr
 186              		.cfi_endproc
 187              	.LFE132:
 189              		.section	.text.USB_SetCurrentMode,"ax",%progbits
 190              		.align	1
 191              		.global	USB_SetCurrentMode
 192              		.syntax unified
 193              		.thumb
 194              		.thumb_func
 195              		.fpu fpv4-sp-d16
 197              	USB_SetCurrentMode:
 198              	.LFB133:
 121:../Drivers/STM32F3xx_HAL_Driver/Src/stm32f3xx_ll_usb.c **** 
 122:../Drivers/STM32F3xx_HAL_Driver/Src/stm32f3xx_ll_usb.c **** /**
 123:../Drivers/STM32F3xx_HAL_Driver/Src/stm32f3xx_ll_usb.c ****   * @brief  USB_SetCurrentMode : Set functional mode
 124:../Drivers/STM32F3xx_HAL_Driver/Src/stm32f3xx_ll_usb.c ****   * @param  USBx : Selected device
 125:../Drivers/STM32F3xx_HAL_Driver/Src/stm32f3xx_ll_usb.c ****   * @param  mode :  current core mode
 126:../Drivers/STM32F3xx_HAL_Driver/Src/stm32f3xx_ll_usb.c ****   *          This parameter can be one of the these values:
 127:../Drivers/STM32F3xx_HAL_Driver/Src/stm32f3xx_ll_usb.c ****   *            @arg USB_DEVICE_MODE: Peripheral mode mode
 128:../Drivers/STM32F3xx_HAL_Driver/Src/stm32f3xx_ll_usb.c ****   * @retval HAL status
 129:../Drivers/STM32F3xx_HAL_Driver/Src/stm32f3xx_ll_usb.c ****   */
 130:../Drivers/STM32F3xx_HAL_Driver/Src/stm32f3xx_ll_usb.c **** HAL_StatusTypeDef USB_SetCurrentMode(USB_TypeDef *USBx, USB_ModeTypeDef mode)
 131:../Drivers/STM32F3xx_HAL_Driver/Src/stm32f3xx_ll_usb.c **** {
 199              		.loc 1 131 0
 200              		.cfi_startproc
 201              		@ args = 0, pretend = 0, frame = 8
 202              		@ frame_needed = 1, uses_anonymous_args = 0
 203              		@ link register save eliminated.
 204 0000 80B4     		push	{r7}
 205              	.LCFI20:
 206              		.cfi_def_cfa_offset 4
 207              		.cfi_offset 7, -4
 208 0002 83B0     		sub	sp, sp, #12
 209              	.LCFI21:
 210              		.cfi_def_cfa_offset 16
 211 0004 00AF     		add	r7, sp, #0
 212              	.LCFI22:
 213              		.cfi_def_cfa_register 7
 214 0006 7860     		str	r0, [r7, #4]
 215 0008 0B46     		mov	r3, r1
 216 000a FB70     		strb	r3, [r7, #3]
 132:../Drivers/STM32F3xx_HAL_Driver/Src/stm32f3xx_ll_usb.c ****   /* Prevent unused argument(s) compilation warning */
 133:../Drivers/STM32F3xx_HAL_Driver/Src/stm32f3xx_ll_usb.c ****   UNUSED(USBx);
ARM GAS  /tmp/cclKfraO.s 			page 7


 134:../Drivers/STM32F3xx_HAL_Driver/Src/stm32f3xx_ll_usb.c ****   UNUSED(mode);
 135:../Drivers/STM32F3xx_HAL_Driver/Src/stm32f3xx_ll_usb.c **** 
 136:../Drivers/STM32F3xx_HAL_Driver/Src/stm32f3xx_ll_usb.c ****   /* NOTE : - This function is not required by USB Device FS peripheral, it is used
 137:../Drivers/STM32F3xx_HAL_Driver/Src/stm32f3xx_ll_usb.c ****               only by USB OTG FS peripheral.
 138:../Drivers/STM32F3xx_HAL_Driver/Src/stm32f3xx_ll_usb.c ****             - This function is added to ensure compatibility across platforms.
 139:../Drivers/STM32F3xx_HAL_Driver/Src/stm32f3xx_ll_usb.c ****    */
 140:../Drivers/STM32F3xx_HAL_Driver/Src/stm32f3xx_ll_usb.c ****   return HAL_OK;
 217              		.loc 1 140 0
 218 000c 0023     		movs	r3, #0
 141:../Drivers/STM32F3xx_HAL_Driver/Src/stm32f3xx_ll_usb.c **** }
 219              		.loc 1 141 0
 220 000e 1846     		mov	r0, r3
 221 0010 0C37     		adds	r7, r7, #12
 222              	.LCFI23:
 223              		.cfi_def_cfa_offset 4
 224 0012 BD46     		mov	sp, r7
 225              	.LCFI24:
 226              		.cfi_def_cfa_register 13
 227              		@ sp needed
 228 0014 5DF8047B 		ldr	r7, [sp], #4
 229              	.LCFI25:
 230              		.cfi_restore 7
 231              		.cfi_def_cfa_offset 0
 232 0018 7047     		bx	lr
 233              		.cfi_endproc
 234              	.LFE133:
 236              		.section	.text.USB_DevInit,"ax",%progbits
 237              		.align	1
 238              		.global	USB_DevInit
 239              		.syntax unified
 240              		.thumb
 241              		.thumb_func
 242              		.fpu fpv4-sp-d16
 244              	USB_DevInit:
 245              	.LFB134:
 142:../Drivers/STM32F3xx_HAL_Driver/Src/stm32f3xx_ll_usb.c **** 
 143:../Drivers/STM32F3xx_HAL_Driver/Src/stm32f3xx_ll_usb.c **** /**
 144:../Drivers/STM32F3xx_HAL_Driver/Src/stm32f3xx_ll_usb.c ****   * @brief  USB_DevInit : Initializes the USB controller registers
 145:../Drivers/STM32F3xx_HAL_Driver/Src/stm32f3xx_ll_usb.c ****   *         for device mode
 146:../Drivers/STM32F3xx_HAL_Driver/Src/stm32f3xx_ll_usb.c ****   * @param  USBx : Selected device
 147:../Drivers/STM32F3xx_HAL_Driver/Src/stm32f3xx_ll_usb.c ****   * @param  cfg  : pointer to a USB_CfgTypeDef structure that contains
 148:../Drivers/STM32F3xx_HAL_Driver/Src/stm32f3xx_ll_usb.c ****   *         the configuration information for the specified USBx peripheral.
 149:../Drivers/STM32F3xx_HAL_Driver/Src/stm32f3xx_ll_usb.c ****   * @retval HAL status
 150:../Drivers/STM32F3xx_HAL_Driver/Src/stm32f3xx_ll_usb.c ****   */
 151:../Drivers/STM32F3xx_HAL_Driver/Src/stm32f3xx_ll_usb.c **** HAL_StatusTypeDef USB_DevInit(USB_TypeDef *USBx, USB_CfgTypeDef cfg)
 152:../Drivers/STM32F3xx_HAL_Driver/Src/stm32f3xx_ll_usb.c **** {
 246              		.loc 1 152 0
 247              		.cfi_startproc
 248              		@ args = 36, pretend = 16, frame = 8
 249              		@ frame_needed = 1, uses_anonymous_args = 0
 250 0000 84B0     		sub	sp, sp, #16
 251              	.LCFI26:
 252              		.cfi_def_cfa_offset 16
 253 0002 80B5     		push	{r7, lr}
 254              	.LCFI27:
 255              		.cfi_def_cfa_offset 24
 256              		.cfi_offset 7, -24
ARM GAS  /tmp/cclKfraO.s 			page 8


 257              		.cfi_offset 14, -20
 258 0004 82B0     		sub	sp, sp, #8
 259              	.LCFI28:
 260              		.cfi_def_cfa_offset 32
 261 0006 00AF     		add	r7, sp, #0
 262              	.LCFI29:
 263              		.cfi_def_cfa_register 7
 264 0008 7860     		str	r0, [r7, #4]
 265 000a 07F11400 		add	r0, r7, #20
 266 000e 80E80E00 		stm	r0, {r1, r2, r3}
 153:../Drivers/STM32F3xx_HAL_Driver/Src/stm32f3xx_ll_usb.c ****   /* Prevent unused argument(s) compilation warning */
 154:../Drivers/STM32F3xx_HAL_Driver/Src/stm32f3xx_ll_usb.c ****   UNUSED(cfg);
 155:../Drivers/STM32F3xx_HAL_Driver/Src/stm32f3xx_ll_usb.c **** 
 156:../Drivers/STM32F3xx_HAL_Driver/Src/stm32f3xx_ll_usb.c ****   /* Init Device */
 157:../Drivers/STM32F3xx_HAL_Driver/Src/stm32f3xx_ll_usb.c ****   /*CNTR_FRES = 1*/
 158:../Drivers/STM32F3xx_HAL_Driver/Src/stm32f3xx_ll_usb.c ****   USBx->CNTR = USB_CNTR_FRES;
 267              		.loc 1 158 0
 268 0012 7B68     		ldr	r3, [r7, #4]
 269 0014 0122     		movs	r2, #1
 270 0016 A3F84020 		strh	r2, [r3, #64]	@ movhi
 159:../Drivers/STM32F3xx_HAL_Driver/Src/stm32f3xx_ll_usb.c **** 
 160:../Drivers/STM32F3xx_HAL_Driver/Src/stm32f3xx_ll_usb.c ****   /*CNTR_FRES = 0*/
 161:../Drivers/STM32F3xx_HAL_Driver/Src/stm32f3xx_ll_usb.c ****   USBx->CNTR = 0;
 271              		.loc 1 161 0
 272 001a 7B68     		ldr	r3, [r7, #4]
 273 001c 0022     		movs	r2, #0
 274 001e A3F84020 		strh	r2, [r3, #64]	@ movhi
 162:../Drivers/STM32F3xx_HAL_Driver/Src/stm32f3xx_ll_usb.c **** 
 163:../Drivers/STM32F3xx_HAL_Driver/Src/stm32f3xx_ll_usb.c ****   /*Clear pending interrupts*/
 164:../Drivers/STM32F3xx_HAL_Driver/Src/stm32f3xx_ll_usb.c ****   USBx->ISTR = 0;
 275              		.loc 1 164 0
 276 0022 7B68     		ldr	r3, [r7, #4]
 277 0024 0022     		movs	r2, #0
 278 0026 A3F84420 		strh	r2, [r3, #68]	@ movhi
 165:../Drivers/STM32F3xx_HAL_Driver/Src/stm32f3xx_ll_usb.c **** 
 166:../Drivers/STM32F3xx_HAL_Driver/Src/stm32f3xx_ll_usb.c ****   /*Set Btable Address*/
 167:../Drivers/STM32F3xx_HAL_Driver/Src/stm32f3xx_ll_usb.c ****   USBx->BTABLE = BTABLE_ADDRESS;
 279              		.loc 1 167 0
 280 002a 7B68     		ldr	r3, [r7, #4]
 281 002c 0022     		movs	r2, #0
 282 002e A3F85020 		strh	r2, [r3, #80]	@ movhi
 168:../Drivers/STM32F3xx_HAL_Driver/Src/stm32f3xx_ll_usb.c **** 
 169:../Drivers/STM32F3xx_HAL_Driver/Src/stm32f3xx_ll_usb.c ****   /* Enable USB Device Interrupt mask */
 170:../Drivers/STM32F3xx_HAL_Driver/Src/stm32f3xx_ll_usb.c ****   (void)USB_EnableGlobalInt(USBx);
 283              		.loc 1 170 0
 284 0032 7868     		ldr	r0, [r7, #4]
 285 0034 FFF7FEFF 		bl	USB_EnableGlobalInt
 171:../Drivers/STM32F3xx_HAL_Driver/Src/stm32f3xx_ll_usb.c **** 
 172:../Drivers/STM32F3xx_HAL_Driver/Src/stm32f3xx_ll_usb.c ****   return HAL_OK;
 286              		.loc 1 172 0
 287 0038 0023     		movs	r3, #0
 173:../Drivers/STM32F3xx_HAL_Driver/Src/stm32f3xx_ll_usb.c **** }
 288              		.loc 1 173 0
 289 003a 1846     		mov	r0, r3
 290 003c 0837     		adds	r7, r7, #8
 291              	.LCFI30:
 292              		.cfi_def_cfa_offset 24
ARM GAS  /tmp/cclKfraO.s 			page 9


 293 003e BD46     		mov	sp, r7
 294              	.LCFI31:
 295              		.cfi_def_cfa_register 13
 296              		@ sp needed
 297 0040 BDE88040 		pop	{r7, lr}
 298              	.LCFI32:
 299              		.cfi_restore 14
 300              		.cfi_restore 7
 301              		.cfi_def_cfa_offset 16
 302 0044 04B0     		add	sp, sp, #16
 303              	.LCFI33:
 304              		.cfi_def_cfa_offset 0
 305 0046 7047     		bx	lr
 306              		.cfi_endproc
 307              	.LFE134:
 309              		.section	.text.USB_SetDevSpeed,"ax",%progbits
 310              		.align	1
 311              		.global	USB_SetDevSpeed
 312              		.syntax unified
 313              		.thumb
 314              		.thumb_func
 315              		.fpu fpv4-sp-d16
 317              	USB_SetDevSpeed:
 318              	.LFB135:
 174:../Drivers/STM32F3xx_HAL_Driver/Src/stm32f3xx_ll_usb.c **** 
 175:../Drivers/STM32F3xx_HAL_Driver/Src/stm32f3xx_ll_usb.c **** /**
 176:../Drivers/STM32F3xx_HAL_Driver/Src/stm32f3xx_ll_usb.c ****   * @brief  USB_SetDevSpeed :Initializes the device speed
 177:../Drivers/STM32F3xx_HAL_Driver/Src/stm32f3xx_ll_usb.c ****   *         depending on the PHY type and the enumeration speed of the device.
 178:../Drivers/STM32F3xx_HAL_Driver/Src/stm32f3xx_ll_usb.c ****   * @param  USBx  Selected device
 179:../Drivers/STM32F3xx_HAL_Driver/Src/stm32f3xx_ll_usb.c ****   * @param  speed  device speed
 180:../Drivers/STM32F3xx_HAL_Driver/Src/stm32f3xx_ll_usb.c ****   * @retval  Hal status
 181:../Drivers/STM32F3xx_HAL_Driver/Src/stm32f3xx_ll_usb.c ****   */
 182:../Drivers/STM32F3xx_HAL_Driver/Src/stm32f3xx_ll_usb.c **** HAL_StatusTypeDef USB_SetDevSpeed(USB_TypeDef *USBx, uint8_t speed)
 183:../Drivers/STM32F3xx_HAL_Driver/Src/stm32f3xx_ll_usb.c **** {
 319              		.loc 1 183 0
 320              		.cfi_startproc
 321              		@ args = 0, pretend = 0, frame = 8
 322              		@ frame_needed = 1, uses_anonymous_args = 0
 323              		@ link register save eliminated.
 324 0000 80B4     		push	{r7}
 325              	.LCFI34:
 326              		.cfi_def_cfa_offset 4
 327              		.cfi_offset 7, -4
 328 0002 83B0     		sub	sp, sp, #12
 329              	.LCFI35:
 330              		.cfi_def_cfa_offset 16
 331 0004 00AF     		add	r7, sp, #0
 332              	.LCFI36:
 333              		.cfi_def_cfa_register 7
 334 0006 7860     		str	r0, [r7, #4]
 335 0008 0B46     		mov	r3, r1
 336 000a FB70     		strb	r3, [r7, #3]
 184:../Drivers/STM32F3xx_HAL_Driver/Src/stm32f3xx_ll_usb.c ****   /* Prevent unused argument(s) compilation warning */
 185:../Drivers/STM32F3xx_HAL_Driver/Src/stm32f3xx_ll_usb.c ****   UNUSED(USBx);
 186:../Drivers/STM32F3xx_HAL_Driver/Src/stm32f3xx_ll_usb.c ****   UNUSED(speed);
 187:../Drivers/STM32F3xx_HAL_Driver/Src/stm32f3xx_ll_usb.c **** 
 188:../Drivers/STM32F3xx_HAL_Driver/Src/stm32f3xx_ll_usb.c ****   /* NOTE : - This function is not required by USB Device FS peripheral, it is used
ARM GAS  /tmp/cclKfraO.s 			page 10


 189:../Drivers/STM32F3xx_HAL_Driver/Src/stm32f3xx_ll_usb.c ****               only by USB OTG FS peripheral.
 190:../Drivers/STM32F3xx_HAL_Driver/Src/stm32f3xx_ll_usb.c ****             - This function is added to ensure compatibility across platforms.
 191:../Drivers/STM32F3xx_HAL_Driver/Src/stm32f3xx_ll_usb.c ****    */
 192:../Drivers/STM32F3xx_HAL_Driver/Src/stm32f3xx_ll_usb.c **** 
 193:../Drivers/STM32F3xx_HAL_Driver/Src/stm32f3xx_ll_usb.c ****   return HAL_OK;
 337              		.loc 1 193 0
 338 000c 0023     		movs	r3, #0
 194:../Drivers/STM32F3xx_HAL_Driver/Src/stm32f3xx_ll_usb.c **** }
 339              		.loc 1 194 0
 340 000e 1846     		mov	r0, r3
 341 0010 0C37     		adds	r7, r7, #12
 342              	.LCFI37:
 343              		.cfi_def_cfa_offset 4
 344 0012 BD46     		mov	sp, r7
 345              	.LCFI38:
 346              		.cfi_def_cfa_register 13
 347              		@ sp needed
 348 0014 5DF8047B 		ldr	r7, [sp], #4
 349              	.LCFI39:
 350              		.cfi_restore 7
 351              		.cfi_def_cfa_offset 0
 352 0018 7047     		bx	lr
 353              		.cfi_endproc
 354              	.LFE135:
 356              		.section	.text.USB_FlushTxFifo,"ax",%progbits
 357              		.align	1
 358              		.global	USB_FlushTxFifo
 359              		.syntax unified
 360              		.thumb
 361              		.thumb_func
 362              		.fpu fpv4-sp-d16
 364              	USB_FlushTxFifo:
 365              	.LFB136:
 195:../Drivers/STM32F3xx_HAL_Driver/Src/stm32f3xx_ll_usb.c **** 
 196:../Drivers/STM32F3xx_HAL_Driver/Src/stm32f3xx_ll_usb.c **** /**
 197:../Drivers/STM32F3xx_HAL_Driver/Src/stm32f3xx_ll_usb.c ****   * @brief  USB_FlushTxFifo : Flush a Tx FIFO
 198:../Drivers/STM32F3xx_HAL_Driver/Src/stm32f3xx_ll_usb.c ****   * @param  USBx : Selected device
 199:../Drivers/STM32F3xx_HAL_Driver/Src/stm32f3xx_ll_usb.c ****   * @param  num : FIFO number
 200:../Drivers/STM32F3xx_HAL_Driver/Src/stm32f3xx_ll_usb.c ****   *         This parameter can be a value from 1 to 15
 201:../Drivers/STM32F3xx_HAL_Driver/Src/stm32f3xx_ll_usb.c ****             15 means Flush all Tx FIFOs
 202:../Drivers/STM32F3xx_HAL_Driver/Src/stm32f3xx_ll_usb.c ****   * @retval HAL status
 203:../Drivers/STM32F3xx_HAL_Driver/Src/stm32f3xx_ll_usb.c ****   */
 204:../Drivers/STM32F3xx_HAL_Driver/Src/stm32f3xx_ll_usb.c **** HAL_StatusTypeDef USB_FlushTxFifo(USB_TypeDef *USBx, uint32_t num)
 205:../Drivers/STM32F3xx_HAL_Driver/Src/stm32f3xx_ll_usb.c **** {
 366              		.loc 1 205 0
 367              		.cfi_startproc
 368              		@ args = 0, pretend = 0, frame = 8
 369              		@ frame_needed = 1, uses_anonymous_args = 0
 370              		@ link register save eliminated.
 371 0000 80B4     		push	{r7}
 372              	.LCFI40:
 373              		.cfi_def_cfa_offset 4
 374              		.cfi_offset 7, -4
 375 0002 83B0     		sub	sp, sp, #12
 376              	.LCFI41:
 377              		.cfi_def_cfa_offset 16
 378 0004 00AF     		add	r7, sp, #0
ARM GAS  /tmp/cclKfraO.s 			page 11


 379              	.LCFI42:
 380              		.cfi_def_cfa_register 7
 381 0006 7860     		str	r0, [r7, #4]
 382 0008 3960     		str	r1, [r7]
 206:../Drivers/STM32F3xx_HAL_Driver/Src/stm32f3xx_ll_usb.c ****   /* Prevent unused argument(s) compilation warning */
 207:../Drivers/STM32F3xx_HAL_Driver/Src/stm32f3xx_ll_usb.c ****   UNUSED(USBx);
 208:../Drivers/STM32F3xx_HAL_Driver/Src/stm32f3xx_ll_usb.c ****   UNUSED(num);
 209:../Drivers/STM32F3xx_HAL_Driver/Src/stm32f3xx_ll_usb.c **** 
 210:../Drivers/STM32F3xx_HAL_Driver/Src/stm32f3xx_ll_usb.c ****   /* NOTE : - This function is not required by USB Device FS peripheral, it is used
 211:../Drivers/STM32F3xx_HAL_Driver/Src/stm32f3xx_ll_usb.c ****               only by USB OTG FS peripheral.
 212:../Drivers/STM32F3xx_HAL_Driver/Src/stm32f3xx_ll_usb.c ****             - This function is added to ensure compatibility across platforms.
 213:../Drivers/STM32F3xx_HAL_Driver/Src/stm32f3xx_ll_usb.c ****    */
 214:../Drivers/STM32F3xx_HAL_Driver/Src/stm32f3xx_ll_usb.c **** 
 215:../Drivers/STM32F3xx_HAL_Driver/Src/stm32f3xx_ll_usb.c ****   return HAL_OK;
 383              		.loc 1 215 0
 384 000a 0023     		movs	r3, #0
 216:../Drivers/STM32F3xx_HAL_Driver/Src/stm32f3xx_ll_usb.c **** }
 385              		.loc 1 216 0
 386 000c 1846     		mov	r0, r3
 387 000e 0C37     		adds	r7, r7, #12
 388              	.LCFI43:
 389              		.cfi_def_cfa_offset 4
 390 0010 BD46     		mov	sp, r7
 391              	.LCFI44:
 392              		.cfi_def_cfa_register 13
 393              		@ sp needed
 394 0012 5DF8047B 		ldr	r7, [sp], #4
 395              	.LCFI45:
 396              		.cfi_restore 7
 397              		.cfi_def_cfa_offset 0
 398 0016 7047     		bx	lr
 399              		.cfi_endproc
 400              	.LFE136:
 402              		.section	.text.USB_FlushRxFifo,"ax",%progbits
 403              		.align	1
 404              		.global	USB_FlushRxFifo
 405              		.syntax unified
 406              		.thumb
 407              		.thumb_func
 408              		.fpu fpv4-sp-d16
 410              	USB_FlushRxFifo:
 411              	.LFB137:
 217:../Drivers/STM32F3xx_HAL_Driver/Src/stm32f3xx_ll_usb.c **** 
 218:../Drivers/STM32F3xx_HAL_Driver/Src/stm32f3xx_ll_usb.c **** /**
 219:../Drivers/STM32F3xx_HAL_Driver/Src/stm32f3xx_ll_usb.c ****   * @brief  USB_FlushRxFifo : Flush Rx FIFO
 220:../Drivers/STM32F3xx_HAL_Driver/Src/stm32f3xx_ll_usb.c ****   * @param  USBx : Selected device
 221:../Drivers/STM32F3xx_HAL_Driver/Src/stm32f3xx_ll_usb.c ****   * @retval HAL status
 222:../Drivers/STM32F3xx_HAL_Driver/Src/stm32f3xx_ll_usb.c ****   */
 223:../Drivers/STM32F3xx_HAL_Driver/Src/stm32f3xx_ll_usb.c **** HAL_StatusTypeDef USB_FlushRxFifo(USB_TypeDef *USBx)
 224:../Drivers/STM32F3xx_HAL_Driver/Src/stm32f3xx_ll_usb.c **** {
 412              		.loc 1 224 0
 413              		.cfi_startproc
 414              		@ args = 0, pretend = 0, frame = 8
 415              		@ frame_needed = 1, uses_anonymous_args = 0
 416              		@ link register save eliminated.
 417 0000 80B4     		push	{r7}
 418              	.LCFI46:
ARM GAS  /tmp/cclKfraO.s 			page 12


 419              		.cfi_def_cfa_offset 4
 420              		.cfi_offset 7, -4
 421 0002 83B0     		sub	sp, sp, #12
 422              	.LCFI47:
 423              		.cfi_def_cfa_offset 16
 424 0004 00AF     		add	r7, sp, #0
 425              	.LCFI48:
 426              		.cfi_def_cfa_register 7
 427 0006 7860     		str	r0, [r7, #4]
 225:../Drivers/STM32F3xx_HAL_Driver/Src/stm32f3xx_ll_usb.c ****   /* Prevent unused argument(s) compilation warning */
 226:../Drivers/STM32F3xx_HAL_Driver/Src/stm32f3xx_ll_usb.c ****   UNUSED(USBx);
 227:../Drivers/STM32F3xx_HAL_Driver/Src/stm32f3xx_ll_usb.c **** 
 228:../Drivers/STM32F3xx_HAL_Driver/Src/stm32f3xx_ll_usb.c ****   /* NOTE : - This function is not required by USB Device FS peripheral, it is used
 229:../Drivers/STM32F3xx_HAL_Driver/Src/stm32f3xx_ll_usb.c ****               only by USB OTG FS peripheral.
 230:../Drivers/STM32F3xx_HAL_Driver/Src/stm32f3xx_ll_usb.c ****             - This function is added to ensure compatibility across platforms.
 231:../Drivers/STM32F3xx_HAL_Driver/Src/stm32f3xx_ll_usb.c ****    */
 232:../Drivers/STM32F3xx_HAL_Driver/Src/stm32f3xx_ll_usb.c **** 
 233:../Drivers/STM32F3xx_HAL_Driver/Src/stm32f3xx_ll_usb.c ****   return HAL_OK;
 428              		.loc 1 233 0
 429 0008 0023     		movs	r3, #0
 234:../Drivers/STM32F3xx_HAL_Driver/Src/stm32f3xx_ll_usb.c **** }
 430              		.loc 1 234 0
 431 000a 1846     		mov	r0, r3
 432 000c 0C37     		adds	r7, r7, #12
 433              	.LCFI49:
 434              		.cfi_def_cfa_offset 4
 435 000e BD46     		mov	sp, r7
 436              	.LCFI50:
 437              		.cfi_def_cfa_register 13
 438              		@ sp needed
 439 0010 5DF8047B 		ldr	r7, [sp], #4
 440              	.LCFI51:
 441              		.cfi_restore 7
 442              		.cfi_def_cfa_offset 0
 443 0014 7047     		bx	lr
 444              		.cfi_endproc
 445              	.LFE137:
 447              		.section	.text.USB_ActivateEndpoint,"ax",%progbits
 448              		.align	1
 449              		.global	USB_ActivateEndpoint
 450              		.syntax unified
 451              		.thumb
 452              		.thumb_func
 453              		.fpu fpv4-sp-d16
 455              	USB_ActivateEndpoint:
 456              	.LFB138:
 235:../Drivers/STM32F3xx_HAL_Driver/Src/stm32f3xx_ll_usb.c **** 
 236:../Drivers/STM32F3xx_HAL_Driver/Src/stm32f3xx_ll_usb.c **** /**
 237:../Drivers/STM32F3xx_HAL_Driver/Src/stm32f3xx_ll_usb.c ****   * @brief  Activate and configure an endpoint
 238:../Drivers/STM32F3xx_HAL_Driver/Src/stm32f3xx_ll_usb.c ****   * @param  USBx : Selected device
 239:../Drivers/STM32F3xx_HAL_Driver/Src/stm32f3xx_ll_usb.c ****   * @param  ep: pointer to endpoint structure
 240:../Drivers/STM32F3xx_HAL_Driver/Src/stm32f3xx_ll_usb.c ****   * @retval HAL status
 241:../Drivers/STM32F3xx_HAL_Driver/Src/stm32f3xx_ll_usb.c ****   */
 242:../Drivers/STM32F3xx_HAL_Driver/Src/stm32f3xx_ll_usb.c **** HAL_StatusTypeDef USB_ActivateEndpoint(USB_TypeDef *USBx, USB_EPTypeDef *ep)
 243:../Drivers/STM32F3xx_HAL_Driver/Src/stm32f3xx_ll_usb.c **** {
 457              		.loc 1 243 0
 458              		.cfi_startproc
ARM GAS  /tmp/cclKfraO.s 			page 13


 459              		@ args = 0, pretend = 0, frame = 24
 460              		@ frame_needed = 1, uses_anonymous_args = 0
 461              		@ link register save eliminated.
 462 0000 90B4     		push	{r4, r7}
 463              	.LCFI52:
 464              		.cfi_def_cfa_offset 8
 465              		.cfi_offset 4, -8
 466              		.cfi_offset 7, -4
 467 0002 86B0     		sub	sp, sp, #24
 468              	.LCFI53:
 469              		.cfi_def_cfa_offset 32
 470 0004 00AF     		add	r7, sp, #0
 471              	.LCFI54:
 472              		.cfi_def_cfa_register 7
 473 0006 7860     		str	r0, [r7, #4]
 474 0008 3960     		str	r1, [r7]
 244:../Drivers/STM32F3xx_HAL_Driver/Src/stm32f3xx_ll_usb.c ****   HAL_StatusTypeDef ret = HAL_OK;
 475              		.loc 1 244 0
 476 000a 0023     		movs	r3, #0
 477 000c FB75     		strb	r3, [r7, #23]
 245:../Drivers/STM32F3xx_HAL_Driver/Src/stm32f3xx_ll_usb.c ****   uint16_t wEpRegVal;
 246:../Drivers/STM32F3xx_HAL_Driver/Src/stm32f3xx_ll_usb.c **** 
 247:../Drivers/STM32F3xx_HAL_Driver/Src/stm32f3xx_ll_usb.c ****   wEpRegVal = PCD_GET_ENDPOINT(USBx, ep->num) & USB_EP_T_MASK;
 478              		.loc 1 247 0
 479 000e 7A68     		ldr	r2, [r7, #4]
 480 0010 3B68     		ldr	r3, [r7]
 481 0012 1B78     		ldrb	r3, [r3]	@ zero_extendqisi2
 482 0014 9B00     		lsls	r3, r3, #2
 483 0016 1344     		add	r3, r3, r2
 484 0018 1B88     		ldrh	r3, [r3]	@ movhi
 485 001a 9BB2     		uxth	r3, r3
 486 001c 23F4EC43 		bic	r3, r3, #30208
 487 0020 23F07003 		bic	r3, r3, #112
 488 0024 BB82     		strh	r3, [r7, #20]	@ movhi
 248:../Drivers/STM32F3xx_HAL_Driver/Src/stm32f3xx_ll_usb.c **** 
 249:../Drivers/STM32F3xx_HAL_Driver/Src/stm32f3xx_ll_usb.c ****   /* initialize Endpoint */
 250:../Drivers/STM32F3xx_HAL_Driver/Src/stm32f3xx_ll_usb.c ****   switch (ep->type)
 489              		.loc 1 250 0
 490 0026 3B68     		ldr	r3, [r7]
 491 0028 DB78     		ldrb	r3, [r3, #3]	@ zero_extendqisi2
 492 002a 032B     		cmp	r3, #3
 493 002c 19D8     		bhi	.L18
 494 002e 01A2     		adr	r2, .L20
 495 0030 52F823F0 		ldr	pc, [r2, r3, lsl #2]
 496              		.p2align 2
 497              	.L20:
 498 0034 45000000 		.word	.L19+1
 499 0038 59000000 		.word	.L21+1
 500 003c 69000000 		.word	.L46+1
 501 0040 4F000000 		.word	.L23+1
 502              		.p2align 1
 503              	.L19:
 251:../Drivers/STM32F3xx_HAL_Driver/Src/stm32f3xx_ll_usb.c ****   {
 252:../Drivers/STM32F3xx_HAL_Driver/Src/stm32f3xx_ll_usb.c ****     case EP_TYPE_CTRL:
 253:../Drivers/STM32F3xx_HAL_Driver/Src/stm32f3xx_ll_usb.c ****       wEpRegVal |= USB_EP_CONTROL;
 504              		.loc 1 253 0
 505 0044 BB8A     		ldrh	r3, [r7, #20]	@ movhi
ARM GAS  /tmp/cclKfraO.s 			page 14


 506 0046 43F40073 		orr	r3, r3, #512
 507 004a BB82     		strh	r3, [r7, #20]	@ movhi
 254:../Drivers/STM32F3xx_HAL_Driver/Src/stm32f3xx_ll_usb.c ****       break;
 508              		.loc 1 254 0
 509 004c 0DE0     		b	.L24
 510              	.L23:
 255:../Drivers/STM32F3xx_HAL_Driver/Src/stm32f3xx_ll_usb.c **** 
 256:../Drivers/STM32F3xx_HAL_Driver/Src/stm32f3xx_ll_usb.c ****     case EP_TYPE_BULK:
 257:../Drivers/STM32F3xx_HAL_Driver/Src/stm32f3xx_ll_usb.c ****       wEpRegVal |= USB_EP_BULK;
 258:../Drivers/STM32F3xx_HAL_Driver/Src/stm32f3xx_ll_usb.c ****       break;
 259:../Drivers/STM32F3xx_HAL_Driver/Src/stm32f3xx_ll_usb.c **** 
 260:../Drivers/STM32F3xx_HAL_Driver/Src/stm32f3xx_ll_usb.c ****     case EP_TYPE_INTR:
 261:../Drivers/STM32F3xx_HAL_Driver/Src/stm32f3xx_ll_usb.c ****       wEpRegVal |= USB_EP_INTERRUPT;
 511              		.loc 1 261 0
 512 004e BB8A     		ldrh	r3, [r7, #20]	@ movhi
 513 0050 43F4C063 		orr	r3, r3, #1536
 514 0054 BB82     		strh	r3, [r7, #20]	@ movhi
 262:../Drivers/STM32F3xx_HAL_Driver/Src/stm32f3xx_ll_usb.c ****       break;
 515              		.loc 1 262 0
 516 0056 08E0     		b	.L24
 517              	.L21:
 263:../Drivers/STM32F3xx_HAL_Driver/Src/stm32f3xx_ll_usb.c **** 
 264:../Drivers/STM32F3xx_HAL_Driver/Src/stm32f3xx_ll_usb.c ****     case EP_TYPE_ISOC:
 265:../Drivers/STM32F3xx_HAL_Driver/Src/stm32f3xx_ll_usb.c ****       wEpRegVal |= USB_EP_ISOCHRONOUS;
 518              		.loc 1 265 0
 519 0058 BB8A     		ldrh	r3, [r7, #20]	@ movhi
 520 005a 43F48063 		orr	r3, r3, #1024
 521 005e BB82     		strh	r3, [r7, #20]	@ movhi
 266:../Drivers/STM32F3xx_HAL_Driver/Src/stm32f3xx_ll_usb.c ****       break;
 522              		.loc 1 266 0
 523 0060 03E0     		b	.L24
 524              	.L18:
 267:../Drivers/STM32F3xx_HAL_Driver/Src/stm32f3xx_ll_usb.c **** 
 268:../Drivers/STM32F3xx_HAL_Driver/Src/stm32f3xx_ll_usb.c ****     default:
 269:../Drivers/STM32F3xx_HAL_Driver/Src/stm32f3xx_ll_usb.c ****       ret = HAL_ERROR;
 525              		.loc 1 269 0
 526 0062 0123     		movs	r3, #1
 527 0064 FB75     		strb	r3, [r7, #23]
 270:../Drivers/STM32F3xx_HAL_Driver/Src/stm32f3xx_ll_usb.c ****       break;
 528              		.loc 1 270 0
 529 0066 00E0     		b	.L24
 530              	.L46:
 258:../Drivers/STM32F3xx_HAL_Driver/Src/stm32f3xx_ll_usb.c **** 
 531              		.loc 1 258 0
 532 0068 00BF     		nop
 533              	.L24:
 271:../Drivers/STM32F3xx_HAL_Driver/Src/stm32f3xx_ll_usb.c ****   }
 272:../Drivers/STM32F3xx_HAL_Driver/Src/stm32f3xx_ll_usb.c **** 
 273:../Drivers/STM32F3xx_HAL_Driver/Src/stm32f3xx_ll_usb.c ****   PCD_SET_ENDPOINT(USBx, ep->num, wEpRegVal | USB_EP_CTR_RX | USB_EP_CTR_TX);
 534              		.loc 1 273 0
 535 006a 7A68     		ldr	r2, [r7, #4]
 536 006c 3B68     		ldr	r3, [r7]
 537 006e 1B78     		ldrb	r3, [r3]	@ zero_extendqisi2
 538 0070 9B00     		lsls	r3, r3, #2
 539 0072 1A44     		add	r2, r2, r3
 540 0074 BB8A     		ldrh	r3, [r7, #20]	@ movhi
 541 0076 43F07F43 		orr	r3, r3, #-16777216
ARM GAS  /tmp/cclKfraO.s 			page 15


 542 007a 43F47F03 		orr	r3, r3, #16711680
 543 007e 43F40043 		orr	r3, r3, #32768
 544 0082 43F08003 		orr	r3, r3, #128
 545 0086 9BB2     		uxth	r3, r3
 546 0088 1380     		strh	r3, [r2]	@ movhi
 547              	.LBB2:
 274:../Drivers/STM32F3xx_HAL_Driver/Src/stm32f3xx_ll_usb.c **** 
 275:../Drivers/STM32F3xx_HAL_Driver/Src/stm32f3xx_ll_usb.c ****   PCD_SET_EP_ADDRESS(USBx, ep->num, ep->num);
 548              		.loc 1 275 0
 549 008a 7A68     		ldr	r2, [r7, #4]
 550 008c 3B68     		ldr	r3, [r7]
 551 008e 1B78     		ldrb	r3, [r3]	@ zero_extendqisi2
 552 0090 9B00     		lsls	r3, r3, #2
 553 0092 1344     		add	r3, r3, r2
 554 0094 1B88     		ldrh	r3, [r3]	@ movhi
 555 0096 9BB2     		uxth	r3, r3
 556 0098 1BB2     		sxth	r3, r3
 557 009a 23F4E043 		bic	r3, r3, #28672
 558 009e 23F07003 		bic	r3, r3, #112
 559 00a2 1AB2     		sxth	r2, r3
 560 00a4 3B68     		ldr	r3, [r7]
 561 00a6 1B78     		ldrb	r3, [r3]	@ zero_extendqisi2
 562 00a8 1BB2     		sxth	r3, r3
 563 00aa 1343     		orrs	r3, r3, r2
 564 00ac 1BB2     		sxth	r3, r3
 565 00ae 9CB2     		uxth	r4, r3
 566 00b0 7A68     		ldr	r2, [r7, #4]
 567 00b2 3B68     		ldr	r3, [r7]
 568 00b4 1B78     		ldrb	r3, [r3]	@ zero_extendqisi2
 569 00b6 9B00     		lsls	r3, r3, #2
 570 00b8 1A44     		add	r2, r2, r3
 571 00ba 8C4B     		ldr	r3, .L47
 572 00bc 2343     		orrs	r3, r3, r4
 573 00be 9BB2     		uxth	r3, r3
 574 00c0 1380     		strh	r3, [r2]	@ movhi
 575              	.LBE2:
 276:../Drivers/STM32F3xx_HAL_Driver/Src/stm32f3xx_ll_usb.c **** 
 277:../Drivers/STM32F3xx_HAL_Driver/Src/stm32f3xx_ll_usb.c ****   if (ep->doublebuffer == 0U)
 576              		.loc 1 277 0
 577 00c2 3B68     		ldr	r3, [r7]
 578 00c4 1B7B     		ldrb	r3, [r3, #12]	@ zero_extendqisi2
 579 00c6 002B     		cmp	r3, #0
 580 00c8 40F01681 		bne	.L25
 278:../Drivers/STM32F3xx_HAL_Driver/Src/stm32f3xx_ll_usb.c ****   {
 279:../Drivers/STM32F3xx_HAL_Driver/Src/stm32f3xx_ll_usb.c ****     if (ep->is_in != 0U)
 581              		.loc 1 279 0
 582 00cc 3B68     		ldr	r3, [r7]
 583 00ce 5B78     		ldrb	r3, [r3, #1]	@ zero_extendqisi2
 584 00d0 002B     		cmp	r3, #0
 585 00d2 67D0     		beq	.L26
 586              	.LBB3:
 280:../Drivers/STM32F3xx_HAL_Driver/Src/stm32f3xx_ll_usb.c ****     {
 281:../Drivers/STM32F3xx_HAL_Driver/Src/stm32f3xx_ll_usb.c ****       /*Set the endpoint Transmit buffer address */
 282:../Drivers/STM32F3xx_HAL_Driver/Src/stm32f3xx_ll_usb.c ****       PCD_SET_EP_TX_ADDRESS(USBx, ep->num, ep->pmaadress);
 587              		.loc 1 282 0
 588 00d4 7C68     		ldr	r4, [r7, #4]
 589 00d6 7B68     		ldr	r3, [r7, #4]
ARM GAS  /tmp/cclKfraO.s 			page 16


 590 00d8 B3F85030 		ldrh	r3, [r3, #80]	@ movhi
 591 00dc 9BB2     		uxth	r3, r3
 592 00de 1C44     		add	r4, r4, r3
 593 00e0 3B68     		ldr	r3, [r7]
 594 00e2 1B78     		ldrb	r3, [r3]	@ zero_extendqisi2
 595 00e4 1B01     		lsls	r3, r3, #4
 596 00e6 2344     		add	r3, r3, r4
 597 00e8 03F58063 		add	r3, r3, #1024
 598 00ec 1C46     		mov	r4, r3
 599 00ee 3B68     		ldr	r3, [r7]
 600 00f0 DB88     		ldrh	r3, [r3, #6]
 601 00f2 5B08     		lsrs	r3, r3, #1
 602 00f4 9BB2     		uxth	r3, r3
 603 00f6 5B00     		lsls	r3, r3, #1
 604 00f8 9BB2     		uxth	r3, r3
 605 00fa 2380     		strh	r3, [r4]	@ movhi
 606              	.LBE3:
 607              	.LBB4:
 283:../Drivers/STM32F3xx_HAL_Driver/Src/stm32f3xx_ll_usb.c ****       PCD_CLEAR_TX_DTOG(USBx, ep->num);
 608              		.loc 1 283 0
 609 00fc 7A68     		ldr	r2, [r7, #4]
 610 00fe 3B68     		ldr	r3, [r7]
 611 0100 1B78     		ldrb	r3, [r3]	@ zero_extendqisi2
 612 0102 9B00     		lsls	r3, r3, #2
 613 0104 1344     		add	r3, r3, r2
 614 0106 1B88     		ldrh	r3, [r3]	@ movhi
 615 0108 9CB2     		uxth	r4, r3
 616 010a 2346     		mov	r3, r4
 617 010c 03F04003 		and	r3, r3, #64
 618 0110 002B     		cmp	r3, #0
 619 0112 14D0     		beq	.L27
 620              	.LBB5:
 621              		.loc 1 283 0 is_stmt 0 discriminator 1
 622 0114 7A68     		ldr	r2, [r7, #4]
 623 0116 3B68     		ldr	r3, [r7]
 624 0118 1B78     		ldrb	r3, [r3]	@ zero_extendqisi2
 625 011a 9B00     		lsls	r3, r3, #2
 626 011c 1344     		add	r3, r3, r2
 627 011e 1B88     		ldrh	r3, [r3]	@ movhi
 628 0120 9BB2     		uxth	r3, r3
 629 0122 23F4E043 		bic	r3, r3, #28672
 630 0126 23F07003 		bic	r3, r3, #112
 631 012a 9CB2     		uxth	r4, r3
 632 012c 7A68     		ldr	r2, [r7, #4]
 633 012e 3B68     		ldr	r3, [r7]
 634 0130 1B78     		ldrb	r3, [r3]	@ zero_extendqisi2
 635 0132 9B00     		lsls	r3, r3, #2
 636 0134 1A44     		add	r2, r2, r3
 637 0136 6E4B     		ldr	r3, .L47+4
 638 0138 2343     		orrs	r3, r3, r4
 639 013a 9BB2     		uxth	r3, r3
 640 013c 1380     		strh	r3, [r2]	@ movhi
 641              	.L27:
 642              	.LBE5:
 643              	.LBE4:
 284:../Drivers/STM32F3xx_HAL_Driver/Src/stm32f3xx_ll_usb.c **** 
 285:../Drivers/STM32F3xx_HAL_Driver/Src/stm32f3xx_ll_usb.c ****       if (ep->type != EP_TYPE_ISOC)
ARM GAS  /tmp/cclKfraO.s 			page 17


 644              		.loc 1 285 0 is_stmt 1
 645 013e 3B68     		ldr	r3, [r7]
 646 0140 DB78     		ldrb	r3, [r3, #3]	@ zero_extendqisi2
 647 0142 012B     		cmp	r3, #1
 648 0144 18D0     		beq	.L28
 649              	.LBB6:
 286:../Drivers/STM32F3xx_HAL_Driver/Src/stm32f3xx_ll_usb.c ****       {
 287:../Drivers/STM32F3xx_HAL_Driver/Src/stm32f3xx_ll_usb.c ****         /* Configure NAK status for the Endpoint */
 288:../Drivers/STM32F3xx_HAL_Driver/Src/stm32f3xx_ll_usb.c ****         PCD_SET_EP_TX_STATUS(USBx, ep->num, USB_EP_TX_NAK);
 650              		.loc 1 288 0
 651 0146 7A68     		ldr	r2, [r7, #4]
 652 0148 3B68     		ldr	r3, [r7]
 653 014a 1B78     		ldrb	r3, [r3]	@ zero_extendqisi2
 654 014c 9B00     		lsls	r3, r3, #2
 655 014e 1344     		add	r3, r3, r2
 656 0150 1B88     		ldrh	r3, [r3]	@ movhi
 657 0152 9BB2     		uxth	r3, r3
 658 0154 23F4E043 		bic	r3, r3, #28672
 659 0158 23F04003 		bic	r3, r3, #64
 660 015c 9CB2     		uxth	r4, r3
 661 015e 84F02003 		eor	r3, r4, #32
 662 0162 9CB2     		uxth	r4, r3
 663 0164 7A68     		ldr	r2, [r7, #4]
 664 0166 3B68     		ldr	r3, [r7]
 665 0168 1B78     		ldrb	r3, [r3]	@ zero_extendqisi2
 666 016a 9B00     		lsls	r3, r3, #2
 667 016c 1A44     		add	r2, r2, r3
 668 016e 5F4B     		ldr	r3, .L47
 669 0170 2343     		orrs	r3, r3, r4
 670 0172 9BB2     		uxth	r3, r3
 671 0174 1380     		strh	r3, [r2]	@ movhi
 672              	.LBE6:
 673 0176 2FE2     		b	.L37
 674              	.L28:
 675              	.LBB7:
 289:../Drivers/STM32F3xx_HAL_Driver/Src/stm32f3xx_ll_usb.c ****       }
 290:../Drivers/STM32F3xx_HAL_Driver/Src/stm32f3xx_ll_usb.c ****       else
 291:../Drivers/STM32F3xx_HAL_Driver/Src/stm32f3xx_ll_usb.c ****       {
 292:../Drivers/STM32F3xx_HAL_Driver/Src/stm32f3xx_ll_usb.c ****         /* Configure TX Endpoint to disabled state */
 293:../Drivers/STM32F3xx_HAL_Driver/Src/stm32f3xx_ll_usb.c ****         PCD_SET_EP_TX_STATUS(USBx, ep->num, USB_EP_TX_DIS);
 676              		.loc 1 293 0
 677 0178 7A68     		ldr	r2, [r7, #4]
 678 017a 3B68     		ldr	r3, [r7]
 679 017c 1B78     		ldrb	r3, [r3]	@ zero_extendqisi2
 680 017e 9B00     		lsls	r3, r3, #2
 681 0180 1344     		add	r3, r3, r2
 682 0182 1B88     		ldrh	r3, [r3]	@ movhi
 683 0184 9BB2     		uxth	r3, r3
 684 0186 23F4E043 		bic	r3, r3, #28672
 685 018a 23F04003 		bic	r3, r3, #64
 686 018e 9CB2     		uxth	r4, r3
 687 0190 7A68     		ldr	r2, [r7, #4]
 688 0192 3B68     		ldr	r3, [r7]
 689 0194 1B78     		ldrb	r3, [r3]	@ zero_extendqisi2
 690 0196 9B00     		lsls	r3, r3, #2
 691 0198 1A44     		add	r2, r2, r3
 692 019a 544B     		ldr	r3, .L47
ARM GAS  /tmp/cclKfraO.s 			page 18


 693 019c 2343     		orrs	r3, r3, r4
 694 019e 9BB2     		uxth	r3, r3
 695 01a0 1380     		strh	r3, [r2]	@ movhi
 696 01a2 19E2     		b	.L37
 697              	.L26:
 698              	.LBE7:
 699              	.LBB8:
 294:../Drivers/STM32F3xx_HAL_Driver/Src/stm32f3xx_ll_usb.c ****       }
 295:../Drivers/STM32F3xx_HAL_Driver/Src/stm32f3xx_ll_usb.c ****     }
 296:../Drivers/STM32F3xx_HAL_Driver/Src/stm32f3xx_ll_usb.c ****     else
 297:../Drivers/STM32F3xx_HAL_Driver/Src/stm32f3xx_ll_usb.c ****     {
 298:../Drivers/STM32F3xx_HAL_Driver/Src/stm32f3xx_ll_usb.c ****       /*Set the endpoint Receive buffer address */
 299:../Drivers/STM32F3xx_HAL_Driver/Src/stm32f3xx_ll_usb.c ****       PCD_SET_EP_RX_ADDRESS(USBx, ep->num, ep->pmaadress);
 700              		.loc 1 299 0
 701 01a4 7C68     		ldr	r4, [r7, #4]
 702 01a6 7B68     		ldr	r3, [r7, #4]
 703 01a8 B3F85030 		ldrh	r3, [r3, #80]	@ movhi
 704 01ac 9BB2     		uxth	r3, r3
 705 01ae 1C44     		add	r4, r4, r3
 706 01b0 3B68     		ldr	r3, [r7]
 707 01b2 1B78     		ldrb	r3, [r3]	@ zero_extendqisi2
 708 01b4 1B01     		lsls	r3, r3, #4
 709 01b6 2344     		add	r3, r3, r4
 710 01b8 03F58163 		add	r3, r3, #1032
 711 01bc 1C46     		mov	r4, r3
 712 01be 3B68     		ldr	r3, [r7]
 713 01c0 DB88     		ldrh	r3, [r3, #6]
 714 01c2 5B08     		lsrs	r3, r3, #1
 715 01c4 9BB2     		uxth	r3, r3
 716 01c6 5B00     		lsls	r3, r3, #1
 717 01c8 9BB2     		uxth	r3, r3
 718 01ca 2380     		strh	r3, [r4]	@ movhi
 719              	.LBE8:
 720              	.LBB9:
 300:../Drivers/STM32F3xx_HAL_Driver/Src/stm32f3xx_ll_usb.c ****       /*Set the endpoint Receive buffer counter*/
 301:../Drivers/STM32F3xx_HAL_Driver/Src/stm32f3xx_ll_usb.c ****       PCD_SET_EP_RX_CNT(USBx, ep->num, ep->maxpacket);
 721              		.loc 1 301 0
 722 01cc 7C68     		ldr	r4, [r7, #4]
 723 01ce 7B68     		ldr	r3, [r7, #4]
 724 01d0 B3F85030 		ldrh	r3, [r3, #80]	@ movhi
 725 01d4 9BB2     		uxth	r3, r3
 726 01d6 1C44     		add	r4, r4, r3
 727 01d8 3B68     		ldr	r3, [r7]
 728 01da 1B78     		ldrb	r3, [r3]	@ zero_extendqisi2
 729 01dc 1B01     		lsls	r3, r3, #4
 730 01de 2344     		add	r3, r3, r4
 731 01e0 03F20C43 		addw	r3, r3, #1036
 732 01e4 FB60     		str	r3, [r7, #12]
 733              	.LBB10:
 734 01e6 3B68     		ldr	r3, [r7]
 735 01e8 1B69     		ldr	r3, [r3, #16]
 736 01ea 002B     		cmp	r3, #0
 737 01ec 10D1     		bne	.L31
 738              		.loc 1 301 0 is_stmt 0 discriminator 1
 739 01ee FB68     		ldr	r3, [r7, #12]
 740 01f0 1B88     		ldrh	r3, [r3]
 741 01f2 23F4F843 		bic	r3, r3, #31744
ARM GAS  /tmp/cclKfraO.s 			page 19


 742 01f6 9AB2     		uxth	r2, r3
 743 01f8 FB68     		ldr	r3, [r7, #12]
 744 01fa 1A80     		strh	r2, [r3]	@ movhi
 745 01fc FB68     		ldr	r3, [r7, #12]
 746 01fe 1B88     		ldrh	r3, [r3]
 747 0200 6FEA4343 		mvn	r3, r3, lsl #17
 748 0204 6FEA5343 		mvn	r3, r3, lsr #17
 749 0208 9AB2     		uxth	r2, r3
 750 020a FB68     		ldr	r3, [r7, #12]
 751 020c 1A80     		strh	r2, [r3]	@ movhi
 752 020e 2FE0     		b	.L32
 753              	.L31:
 754              		.loc 1 301 0 discriminator 2
 755 0210 3B68     		ldr	r3, [r7]
 756 0212 1B69     		ldr	r3, [r3, #16]
 757 0214 3E2B     		cmp	r3, #62
 758 0216 13D8     		bhi	.L33
 759              		.loc 1 301 0 discriminator 3
 760 0218 3B68     		ldr	r3, [r7]
 761 021a 1B69     		ldr	r3, [r3, #16]
 762 021c 5B08     		lsrs	r3, r3, #1
 763 021e 3B61     		str	r3, [r7, #16]
 764 0220 3B68     		ldr	r3, [r7]
 765 0222 1B69     		ldr	r3, [r3, #16]
 766 0224 03F00103 		and	r3, r3, #1
 767 0228 002B     		cmp	r3, #0
 768 022a 02D0     		beq	.L34
 769              		.loc 1 301 0 discriminator 5
 770 022c 3B69     		ldr	r3, [r7, #16]
 771 022e 0133     		adds	r3, r3, #1
 772 0230 3B61     		str	r3, [r7, #16]
 773              	.L34:
 774              		.loc 1 301 0 discriminator 7
 775 0232 3B69     		ldr	r3, [r7, #16]
 776 0234 9BB2     		uxth	r3, r3
 777 0236 9B02     		lsls	r3, r3, #10
 778 0238 9AB2     		uxth	r2, r3
 779 023a FB68     		ldr	r3, [r7, #12]
 780 023c 1A80     		strh	r2, [r3]	@ movhi
 781 023e 17E0     		b	.L32
 782              	.L33:
 783              		.loc 1 301 0 discriminator 4
 784 0240 3B68     		ldr	r3, [r7]
 785 0242 1B69     		ldr	r3, [r3, #16]
 786 0244 5B09     		lsrs	r3, r3, #5
 787 0246 3B61     		str	r3, [r7, #16]
 788 0248 3B68     		ldr	r3, [r7]
 789 024a 1B69     		ldr	r3, [r3, #16]
 790 024c 03F01F03 		and	r3, r3, #31
 791 0250 002B     		cmp	r3, #0
 792 0252 02D1     		bne	.L35
 793              		.loc 1 301 0 discriminator 8
 794 0254 3B69     		ldr	r3, [r7, #16]
 795 0256 013B     		subs	r3, r3, #1
 796 0258 3B61     		str	r3, [r7, #16]
 797              	.L35:
 798              		.loc 1 301 0 discriminator 10
ARM GAS  /tmp/cclKfraO.s 			page 20


 799 025a 3B69     		ldr	r3, [r7, #16]
 800 025c 9BB2     		uxth	r3, r3
 801 025e 9B02     		lsls	r3, r3, #10
 802 0260 9BB2     		uxth	r3, r3
 803 0262 6FEA4343 		mvn	r3, r3, lsl #17
 804 0266 6FEA5343 		mvn	r3, r3, lsr #17
 805 026a 9AB2     		uxth	r2, r3
 806 026c FB68     		ldr	r3, [r7, #12]
 807 026e 1A80     		strh	r2, [r3]	@ movhi
 808              	.L32:
 809              	.LBE10:
 810              	.LBE9:
 811              	.LBB11:
 302:../Drivers/STM32F3xx_HAL_Driver/Src/stm32f3xx_ll_usb.c ****       PCD_CLEAR_RX_DTOG(USBx, ep->num);
 812              		.loc 1 302 0 is_stmt 1
 813 0270 7A68     		ldr	r2, [r7, #4]
 814 0272 3B68     		ldr	r3, [r7]
 815 0274 1B78     		ldrb	r3, [r3]	@ zero_extendqisi2
 816 0276 9B00     		lsls	r3, r3, #2
 817 0278 1344     		add	r3, r3, r2
 818 027a 1B88     		ldrh	r3, [r3]	@ movhi
 819 027c 9CB2     		uxth	r4, r3
 820 027e 2346     		mov	r3, r4
 821 0280 03F48043 		and	r3, r3, #16384
 822 0284 002B     		cmp	r3, #0
 823 0286 14D0     		beq	.L36
 824              	.LBB12:
 825              		.loc 1 302 0 is_stmt 0 discriminator 1
 826 0288 7A68     		ldr	r2, [r7, #4]
 827 028a 3B68     		ldr	r3, [r7]
 828 028c 1B78     		ldrb	r3, [r3]	@ zero_extendqisi2
 829 028e 9B00     		lsls	r3, r3, #2
 830 0290 1344     		add	r3, r3, r2
 831 0292 1B88     		ldrh	r3, [r3]	@ movhi
 832 0294 9BB2     		uxth	r3, r3
 833 0296 23F4E043 		bic	r3, r3, #28672
 834 029a 23F07003 		bic	r3, r3, #112
 835 029e 9CB2     		uxth	r4, r3
 836 02a0 7A68     		ldr	r2, [r7, #4]
 837 02a2 3B68     		ldr	r3, [r7]
 838 02a4 1B78     		ldrb	r3, [r3]	@ zero_extendqisi2
 839 02a6 9B00     		lsls	r3, r3, #2
 840 02a8 1A44     		add	r2, r2, r3
 841 02aa 124B     		ldr	r3, .L47+8
 842 02ac 2343     		orrs	r3, r3, r4
 843 02ae 9BB2     		uxth	r3, r3
 844 02b0 1380     		strh	r3, [r2]	@ movhi
 845              	.L36:
 846              	.LBE12:
 847              	.LBE11:
 848              	.LBB13:
 303:../Drivers/STM32F3xx_HAL_Driver/Src/stm32f3xx_ll_usb.c ****       /* Configure VALID status for the Endpoint*/
 304:../Drivers/STM32F3xx_HAL_Driver/Src/stm32f3xx_ll_usb.c ****       PCD_SET_EP_RX_STATUS(USBx, ep->num, USB_EP_RX_VALID);
 849              		.loc 1 304 0 is_stmt 1
 850 02b2 7A68     		ldr	r2, [r7, #4]
 851 02b4 3B68     		ldr	r3, [r7]
 852 02b6 1B78     		ldrb	r3, [r3]	@ zero_extendqisi2
ARM GAS  /tmp/cclKfraO.s 			page 21


 853 02b8 9B00     		lsls	r3, r3, #2
 854 02ba 1344     		add	r3, r3, r2
 855 02bc 1B88     		ldrh	r3, [r3]	@ movhi
 856 02be 9BB2     		uxth	r3, r3
 857 02c0 23F48043 		bic	r3, r3, #16384
 858 02c4 23F07003 		bic	r3, r3, #112
 859 02c8 9CB2     		uxth	r4, r3
 860 02ca 84F48053 		eor	r3, r4, #4096
 861 02ce 9CB2     		uxth	r4, r3
 862 02d0 84F40053 		eor	r3, r4, #8192
 863 02d4 9CB2     		uxth	r4, r3
 864 02d6 7A68     		ldr	r2, [r7, #4]
 865 02d8 3B68     		ldr	r3, [r7]
 866 02da 1B78     		ldrb	r3, [r3]	@ zero_extendqisi2
 867 02dc 9B00     		lsls	r3, r3, #2
 868 02de 1A44     		add	r2, r2, r3
 869 02e0 024B     		ldr	r3, .L47
 870 02e2 2343     		orrs	r3, r3, r4
 871 02e4 9BB2     		uxth	r3, r3
 872 02e6 1380     		strh	r3, [r2]	@ movhi
 873 02e8 76E1     		b	.L37
 874              	.L48:
 875 02ea 00BF     		.align	2
 876              	.L47:
 877 02ec 8080FFFF 		.word	-32640
 878 02f0 C080FFFF 		.word	-32576
 879 02f4 80C0FFFF 		.word	-16256
 880              	.L25:
 881              	.LBE13:
 882              	.LBB14:
 305:../Drivers/STM32F3xx_HAL_Driver/Src/stm32f3xx_ll_usb.c ****     }
 306:../Drivers/STM32F3xx_HAL_Driver/Src/stm32f3xx_ll_usb.c ****   }
 307:../Drivers/STM32F3xx_HAL_Driver/Src/stm32f3xx_ll_usb.c ****   /*Double Buffer*/
 308:../Drivers/STM32F3xx_HAL_Driver/Src/stm32f3xx_ll_usb.c ****   else
 309:../Drivers/STM32F3xx_HAL_Driver/Src/stm32f3xx_ll_usb.c ****   {
 310:../Drivers/STM32F3xx_HAL_Driver/Src/stm32f3xx_ll_usb.c ****     /* Set the endpoint as double buffered */
 311:../Drivers/STM32F3xx_HAL_Driver/Src/stm32f3xx_ll_usb.c ****     PCD_SET_EP_DBUF(USBx, ep->num);
 883              		.loc 1 311 0
 884 02f8 7A68     		ldr	r2, [r7, #4]
 885 02fa 3B68     		ldr	r3, [r7]
 886 02fc 1B78     		ldrb	r3, [r3]	@ zero_extendqisi2
 887 02fe 9B00     		lsls	r3, r3, #2
 888 0300 1344     		add	r3, r3, r2
 889 0302 1B88     		ldrh	r3, [r3]	@ movhi
 890 0304 9BB2     		uxth	r3, r3
 891 0306 23F4E043 		bic	r3, r3, #28672
 892 030a 23F07003 		bic	r3, r3, #112
 893 030e 9CB2     		uxth	r4, r3
 894 0310 7A68     		ldr	r2, [r7, #4]
 895 0312 3B68     		ldr	r3, [r7]
 896 0314 1B78     		ldrb	r3, [r3]	@ zero_extendqisi2
 897 0316 9B00     		lsls	r3, r3, #2
 898 0318 1A44     		add	r2, r2, r3
 899 031a 964B     		ldr	r3, .L49
 900 031c 2343     		orrs	r3, r3, r4
 901 031e 9BB2     		uxth	r3, r3
 902 0320 1380     		strh	r3, [r2]	@ movhi
ARM GAS  /tmp/cclKfraO.s 			page 22


 903              	.LBE14:
 904              	.LBB15:
 312:../Drivers/STM32F3xx_HAL_Driver/Src/stm32f3xx_ll_usb.c ****     /* Set buffer address for double buffered mode */
 313:../Drivers/STM32F3xx_HAL_Driver/Src/stm32f3xx_ll_usb.c ****     PCD_SET_EP_DBUF_ADDR(USBx, ep->num, ep->pmaaddr0, ep->pmaaddr1);
 905              		.loc 1 313 0
 906 0322 7C68     		ldr	r4, [r7, #4]
 907 0324 7B68     		ldr	r3, [r7, #4]
 908 0326 B3F85030 		ldrh	r3, [r3, #80]	@ movhi
 909 032a 9BB2     		uxth	r3, r3
 910 032c 1C44     		add	r4, r4, r3
 911 032e 3B68     		ldr	r3, [r7]
 912 0330 1B78     		ldrb	r3, [r3]	@ zero_extendqisi2
 913 0332 1B01     		lsls	r3, r3, #4
 914 0334 2344     		add	r3, r3, r4
 915 0336 03F58063 		add	r3, r3, #1024
 916 033a 1C46     		mov	r4, r3
 917 033c 3B68     		ldr	r3, [r7]
 918 033e 1B89     		ldrh	r3, [r3, #8]
 919 0340 5B08     		lsrs	r3, r3, #1
 920 0342 9BB2     		uxth	r3, r3
 921 0344 5B00     		lsls	r3, r3, #1
 922 0346 9BB2     		uxth	r3, r3
 923 0348 2380     		strh	r3, [r4]	@ movhi
 924              	.LBE15:
 925              	.LBB16:
 926 034a 7C68     		ldr	r4, [r7, #4]
 927 034c 7B68     		ldr	r3, [r7, #4]
 928 034e B3F85030 		ldrh	r3, [r3, #80]	@ movhi
 929 0352 9BB2     		uxth	r3, r3
 930 0354 1C44     		add	r4, r4, r3
 931 0356 3B68     		ldr	r3, [r7]
 932 0358 1B78     		ldrb	r3, [r3]	@ zero_extendqisi2
 933 035a 1B01     		lsls	r3, r3, #4
 934 035c 2344     		add	r3, r3, r4
 935 035e 03F58163 		add	r3, r3, #1032
 936 0362 1C46     		mov	r4, r3
 937 0364 3B68     		ldr	r3, [r7]
 938 0366 5B89     		ldrh	r3, [r3, #10]
 939 0368 5B08     		lsrs	r3, r3, #1
 940 036a 9BB2     		uxth	r3, r3
 941 036c 5B00     		lsls	r3, r3, #1
 942 036e 9BB2     		uxth	r3, r3
 943 0370 2380     		strh	r3, [r4]	@ movhi
 944              	.LBE16:
 314:../Drivers/STM32F3xx_HAL_Driver/Src/stm32f3xx_ll_usb.c **** 
 315:../Drivers/STM32F3xx_HAL_Driver/Src/stm32f3xx_ll_usb.c ****     if (ep->is_in == 0U)
 945              		.loc 1 315 0
 946 0372 3B68     		ldr	r3, [r7]
 947 0374 5B78     		ldrb	r3, [r3, #1]	@ zero_extendqisi2
 948 0376 002B     		cmp	r3, #0
 949 0378 40F08880 		bne	.L38
 950              	.LBB17:
 316:../Drivers/STM32F3xx_HAL_Driver/Src/stm32f3xx_ll_usb.c ****     {
 317:../Drivers/STM32F3xx_HAL_Driver/Src/stm32f3xx_ll_usb.c ****       /* Clear the data toggle bits for the endpoint IN/OUT */
 318:../Drivers/STM32F3xx_HAL_Driver/Src/stm32f3xx_ll_usb.c ****       PCD_CLEAR_RX_DTOG(USBx, ep->num);
 951              		.loc 1 318 0
 952 037c 7A68     		ldr	r2, [r7, #4]
ARM GAS  /tmp/cclKfraO.s 			page 23


 953 037e 3B68     		ldr	r3, [r7]
 954 0380 1B78     		ldrb	r3, [r3]	@ zero_extendqisi2
 955 0382 9B00     		lsls	r3, r3, #2
 956 0384 1344     		add	r3, r3, r2
 957 0386 1B88     		ldrh	r3, [r3]	@ movhi
 958 0388 9CB2     		uxth	r4, r3
 959 038a 2346     		mov	r3, r4
 960 038c 03F48043 		and	r3, r3, #16384
 961 0390 002B     		cmp	r3, #0
 962 0392 14D0     		beq	.L39
 963              	.LBB18:
 964              		.loc 1 318 0 is_stmt 0 discriminator 1
 965 0394 7A68     		ldr	r2, [r7, #4]
 966 0396 3B68     		ldr	r3, [r7]
 967 0398 1B78     		ldrb	r3, [r3]	@ zero_extendqisi2
 968 039a 9B00     		lsls	r3, r3, #2
 969 039c 1344     		add	r3, r3, r2
 970 039e 1B88     		ldrh	r3, [r3]	@ movhi
 971 03a0 9BB2     		uxth	r3, r3
 972 03a2 23F4E043 		bic	r3, r3, #28672
 973 03a6 23F07003 		bic	r3, r3, #112
 974 03aa 9CB2     		uxth	r4, r3
 975 03ac 7A68     		ldr	r2, [r7, #4]
 976 03ae 3B68     		ldr	r3, [r7]
 977 03b0 1B78     		ldrb	r3, [r3]	@ zero_extendqisi2
 978 03b2 9B00     		lsls	r3, r3, #2
 979 03b4 1A44     		add	r2, r2, r3
 980 03b6 704B     		ldr	r3, .L49+4
 981 03b8 2343     		orrs	r3, r3, r4
 982 03ba 9BB2     		uxth	r3, r3
 983 03bc 1380     		strh	r3, [r2]	@ movhi
 984              	.L39:
 985              	.LBE18:
 986              	.LBE17:
 987              	.LBB19:
 319:../Drivers/STM32F3xx_HAL_Driver/Src/stm32f3xx_ll_usb.c ****       PCD_CLEAR_TX_DTOG(USBx, ep->num);
 988              		.loc 1 319 0 is_stmt 1
 989 03be 7A68     		ldr	r2, [r7, #4]
 990 03c0 3B68     		ldr	r3, [r7]
 991 03c2 1B78     		ldrb	r3, [r3]	@ zero_extendqisi2
 992 03c4 9B00     		lsls	r3, r3, #2
 993 03c6 1344     		add	r3, r3, r2
 994 03c8 1B88     		ldrh	r3, [r3]	@ movhi
 995 03ca 9CB2     		uxth	r4, r3
 996 03cc 2346     		mov	r3, r4
 997 03ce 03F04003 		and	r3, r3, #64
 998 03d2 002B     		cmp	r3, #0
 999 03d4 14D0     		beq	.L40
 1000              	.LBB20:
 1001              		.loc 1 319 0 is_stmt 0 discriminator 1
 1002 03d6 7A68     		ldr	r2, [r7, #4]
 1003 03d8 3B68     		ldr	r3, [r7]
 1004 03da 1B78     		ldrb	r3, [r3]	@ zero_extendqisi2
 1005 03dc 9B00     		lsls	r3, r3, #2
 1006 03de 1344     		add	r3, r3, r2
 1007 03e0 1B88     		ldrh	r3, [r3]	@ movhi
 1008 03e2 9BB2     		uxth	r3, r3
ARM GAS  /tmp/cclKfraO.s 			page 24


 1009 03e4 23F4E043 		bic	r3, r3, #28672
 1010 03e8 23F07003 		bic	r3, r3, #112
 1011 03ec 9CB2     		uxth	r4, r3
 1012 03ee 7A68     		ldr	r2, [r7, #4]
 1013 03f0 3B68     		ldr	r3, [r7]
 1014 03f2 1B78     		ldrb	r3, [r3]	@ zero_extendqisi2
 1015 03f4 9B00     		lsls	r3, r3, #2
 1016 03f6 1A44     		add	r2, r2, r3
 1017 03f8 604B     		ldr	r3, .L49+8
 1018 03fa 2343     		orrs	r3, r3, r4
 1019 03fc 9BB2     		uxth	r3, r3
 1020 03fe 1380     		strh	r3, [r2]	@ movhi
 1021              	.L40:
 1022              	.LBE20:
 1023              	.LBE19:
 1024              	.LBB21:
 320:../Drivers/STM32F3xx_HAL_Driver/Src/stm32f3xx_ll_usb.c **** 
 321:../Drivers/STM32F3xx_HAL_Driver/Src/stm32f3xx_ll_usb.c ****       /* Reset value of the data toggle bits for the endpoint out */
 322:../Drivers/STM32F3xx_HAL_Driver/Src/stm32f3xx_ll_usb.c ****       PCD_TX_DTOG(USBx, ep->num);
 1025              		.loc 1 322 0 is_stmt 1
 1026 0400 7A68     		ldr	r2, [r7, #4]
 1027 0402 3B68     		ldr	r3, [r7]
 1028 0404 1B78     		ldrb	r3, [r3]	@ zero_extendqisi2
 1029 0406 9B00     		lsls	r3, r3, #2
 1030 0408 1344     		add	r3, r3, r2
 1031 040a 1B88     		ldrh	r3, [r3]	@ movhi
 1032 040c 9BB2     		uxth	r3, r3
 1033 040e 23F4E043 		bic	r3, r3, #28672
 1034 0412 23F07003 		bic	r3, r3, #112
 1035 0416 9CB2     		uxth	r4, r3
 1036 0418 7A68     		ldr	r2, [r7, #4]
 1037 041a 3B68     		ldr	r3, [r7]
 1038 041c 1B78     		ldrb	r3, [r3]	@ zero_extendqisi2
 1039 041e 9B00     		lsls	r3, r3, #2
 1040 0420 1A44     		add	r2, r2, r3
 1041 0422 564B     		ldr	r3, .L49+8
 1042 0424 2343     		orrs	r3, r3, r4
 1043 0426 9BB2     		uxth	r3, r3
 1044 0428 1380     		strh	r3, [r2]	@ movhi
 1045              	.LBE21:
 1046              	.LBB22:
 323:../Drivers/STM32F3xx_HAL_Driver/Src/stm32f3xx_ll_usb.c **** 
 324:../Drivers/STM32F3xx_HAL_Driver/Src/stm32f3xx_ll_usb.c ****       PCD_SET_EP_RX_STATUS(USBx, ep->num, USB_EP_RX_VALID);
 1047              		.loc 1 324 0
 1048 042a 7A68     		ldr	r2, [r7, #4]
 1049 042c 3B68     		ldr	r3, [r7]
 1050 042e 1B78     		ldrb	r3, [r3]	@ zero_extendqisi2
 1051 0430 9B00     		lsls	r3, r3, #2
 1052 0432 1344     		add	r3, r3, r2
 1053 0434 1B88     		ldrh	r3, [r3]	@ movhi
 1054 0436 9BB2     		uxth	r3, r3
 1055 0438 23F48043 		bic	r3, r3, #16384
 1056 043c 23F07003 		bic	r3, r3, #112
 1057 0440 9CB2     		uxth	r4, r3
 1058 0442 84F48053 		eor	r3, r4, #4096
 1059 0446 9CB2     		uxth	r4, r3
 1060 0448 84F40053 		eor	r3, r4, #8192
ARM GAS  /tmp/cclKfraO.s 			page 25


 1061 044c 9CB2     		uxth	r4, r3
 1062 044e 7A68     		ldr	r2, [r7, #4]
 1063 0450 3B68     		ldr	r3, [r7]
 1064 0452 1B78     		ldrb	r3, [r3]	@ zero_extendqisi2
 1065 0454 9B00     		lsls	r3, r3, #2
 1066 0456 1A44     		add	r2, r2, r3
 1067 0458 494B     		ldr	r3, .L49+12
 1068 045a 2343     		orrs	r3, r3, r4
 1069 045c 9BB2     		uxth	r3, r3
 1070 045e 1380     		strh	r3, [r2]	@ movhi
 1071              	.LBE22:
 1072              	.LBB23:
 325:../Drivers/STM32F3xx_HAL_Driver/Src/stm32f3xx_ll_usb.c ****       PCD_SET_EP_TX_STATUS(USBx, ep->num, USB_EP_TX_DIS);
 1073              		.loc 1 325 0
 1074 0460 7A68     		ldr	r2, [r7, #4]
 1075 0462 3B68     		ldr	r3, [r7]
 1076 0464 1B78     		ldrb	r3, [r3]	@ zero_extendqisi2
 1077 0466 9B00     		lsls	r3, r3, #2
 1078 0468 1344     		add	r3, r3, r2
 1079 046a 1B88     		ldrh	r3, [r3]	@ movhi
 1080 046c 9BB2     		uxth	r3, r3
 1081 046e 23F4E043 		bic	r3, r3, #28672
 1082 0472 23F04003 		bic	r3, r3, #64
 1083 0476 9CB2     		uxth	r4, r3
 1084 0478 7A68     		ldr	r2, [r7, #4]
 1085 047a 3B68     		ldr	r3, [r7]
 1086 047c 1B78     		ldrb	r3, [r3]	@ zero_extendqisi2
 1087 047e 9B00     		lsls	r3, r3, #2
 1088 0480 1A44     		add	r2, r2, r3
 1089 0482 3F4B     		ldr	r3, .L49+12
 1090 0484 2343     		orrs	r3, r3, r4
 1091 0486 9BB2     		uxth	r3, r3
 1092 0488 1380     		strh	r3, [r2]	@ movhi
 1093              	.LBE23:
 1094 048a A5E0     		b	.L37
 1095              	.L38:
 1096              	.LBB24:
 326:../Drivers/STM32F3xx_HAL_Driver/Src/stm32f3xx_ll_usb.c ****     }
 327:../Drivers/STM32F3xx_HAL_Driver/Src/stm32f3xx_ll_usb.c ****     else
 328:../Drivers/STM32F3xx_HAL_Driver/Src/stm32f3xx_ll_usb.c ****     {
 329:../Drivers/STM32F3xx_HAL_Driver/Src/stm32f3xx_ll_usb.c ****       /* Clear the data toggle bits for the endpoint IN/OUT */
 330:../Drivers/STM32F3xx_HAL_Driver/Src/stm32f3xx_ll_usb.c ****       PCD_CLEAR_RX_DTOG(USBx, ep->num);
 1097              		.loc 1 330 0
 1098 048c 7A68     		ldr	r2, [r7, #4]
 1099 048e 3B68     		ldr	r3, [r7]
 1100 0490 1B78     		ldrb	r3, [r3]	@ zero_extendqisi2
 1101 0492 9B00     		lsls	r3, r3, #2
 1102 0494 1344     		add	r3, r3, r2
 1103 0496 1B88     		ldrh	r3, [r3]	@ movhi
 1104 0498 9CB2     		uxth	r4, r3
 1105 049a 2346     		mov	r3, r4
 1106 049c 03F48043 		and	r3, r3, #16384
 1107 04a0 002B     		cmp	r3, #0
 1108 04a2 14D0     		beq	.L41
 1109              	.LBB25:
 1110              		.loc 1 330 0 is_stmt 0 discriminator 1
 1111 04a4 7A68     		ldr	r2, [r7, #4]
ARM GAS  /tmp/cclKfraO.s 			page 26


 1112 04a6 3B68     		ldr	r3, [r7]
 1113 04a8 1B78     		ldrb	r3, [r3]	@ zero_extendqisi2
 1114 04aa 9B00     		lsls	r3, r3, #2
 1115 04ac 1344     		add	r3, r3, r2
 1116 04ae 1B88     		ldrh	r3, [r3]	@ movhi
 1117 04b0 9BB2     		uxth	r3, r3
 1118 04b2 23F4E043 		bic	r3, r3, #28672
 1119 04b6 23F07003 		bic	r3, r3, #112
 1120 04ba 9CB2     		uxth	r4, r3
 1121 04bc 7A68     		ldr	r2, [r7, #4]
 1122 04be 3B68     		ldr	r3, [r7]
 1123 04c0 1B78     		ldrb	r3, [r3]	@ zero_extendqisi2
 1124 04c2 9B00     		lsls	r3, r3, #2
 1125 04c4 1A44     		add	r2, r2, r3
 1126 04c6 2C4B     		ldr	r3, .L49+4
 1127 04c8 2343     		orrs	r3, r3, r4
 1128 04ca 9BB2     		uxth	r3, r3
 1129 04cc 1380     		strh	r3, [r2]	@ movhi
 1130              	.L41:
 1131              	.LBE25:
 1132              	.LBE24:
 1133              	.LBB26:
 331:../Drivers/STM32F3xx_HAL_Driver/Src/stm32f3xx_ll_usb.c ****       PCD_CLEAR_TX_DTOG(USBx, ep->num);
 1134              		.loc 1 331 0 is_stmt 1
 1135 04ce 7A68     		ldr	r2, [r7, #4]
 1136 04d0 3B68     		ldr	r3, [r7]
 1137 04d2 1B78     		ldrb	r3, [r3]	@ zero_extendqisi2
 1138 04d4 9B00     		lsls	r3, r3, #2
 1139 04d6 1344     		add	r3, r3, r2
 1140 04d8 1B88     		ldrh	r3, [r3]	@ movhi
 1141 04da 9CB2     		uxth	r4, r3
 1142 04dc 2346     		mov	r3, r4
 1143 04de 03F04003 		and	r3, r3, #64
 1144 04e2 002B     		cmp	r3, #0
 1145 04e4 14D0     		beq	.L42
 1146              	.LBB27:
 1147              		.loc 1 331 0 is_stmt 0 discriminator 1
 1148 04e6 7A68     		ldr	r2, [r7, #4]
 1149 04e8 3B68     		ldr	r3, [r7]
 1150 04ea 1B78     		ldrb	r3, [r3]	@ zero_extendqisi2
 1151 04ec 9B00     		lsls	r3, r3, #2
 1152 04ee 1344     		add	r3, r3, r2
 1153 04f0 1B88     		ldrh	r3, [r3]	@ movhi
 1154 04f2 9BB2     		uxth	r3, r3
 1155 04f4 23F4E043 		bic	r3, r3, #28672
 1156 04f8 23F07003 		bic	r3, r3, #112
 1157 04fc 9CB2     		uxth	r4, r3
 1158 04fe 7A68     		ldr	r2, [r7, #4]
 1159 0500 3B68     		ldr	r3, [r7]
 1160 0502 1B78     		ldrb	r3, [r3]	@ zero_extendqisi2
 1161 0504 9B00     		lsls	r3, r3, #2
 1162 0506 1A44     		add	r2, r2, r3
 1163 0508 1C4B     		ldr	r3, .L49+8
 1164 050a 2343     		orrs	r3, r3, r4
 1165 050c 9BB2     		uxth	r3, r3
 1166 050e 1380     		strh	r3, [r2]	@ movhi
 1167              	.L42:
ARM GAS  /tmp/cclKfraO.s 			page 27


 1168              	.LBE27:
 1169              	.LBE26:
 1170              	.LBB28:
 332:../Drivers/STM32F3xx_HAL_Driver/Src/stm32f3xx_ll_usb.c ****       PCD_RX_DTOG(USBx, ep->num);
 1171              		.loc 1 332 0 is_stmt 1
 1172 0510 7A68     		ldr	r2, [r7, #4]
 1173 0512 3B68     		ldr	r3, [r7]
 1174 0514 1B78     		ldrb	r3, [r3]	@ zero_extendqisi2
 1175 0516 9B00     		lsls	r3, r3, #2
 1176 0518 1344     		add	r3, r3, r2
 1177 051a 1B88     		ldrh	r3, [r3]	@ movhi
 1178 051c 9BB2     		uxth	r3, r3
 1179 051e 23F4E043 		bic	r3, r3, #28672
 1180 0522 23F07003 		bic	r3, r3, #112
 1181 0526 9CB2     		uxth	r4, r3
 1182 0528 7A68     		ldr	r2, [r7, #4]
 1183 052a 3B68     		ldr	r3, [r7]
 1184 052c 1B78     		ldrb	r3, [r3]	@ zero_extendqisi2
 1185 052e 9B00     		lsls	r3, r3, #2
 1186 0530 1A44     		add	r2, r2, r3
 1187 0532 114B     		ldr	r3, .L49+4
 1188 0534 2343     		orrs	r3, r3, r4
 1189 0536 9BB2     		uxth	r3, r3
 1190 0538 1380     		strh	r3, [r2]	@ movhi
 1191              	.LBE28:
 333:../Drivers/STM32F3xx_HAL_Driver/Src/stm32f3xx_ll_usb.c **** 
 334:../Drivers/STM32F3xx_HAL_Driver/Src/stm32f3xx_ll_usb.c ****       if (ep->type != EP_TYPE_ISOC)
 1192              		.loc 1 334 0
 1193 053a 3B68     		ldr	r3, [r7]
 1194 053c DB78     		ldrb	r3, [r3, #3]	@ zero_extendqisi2
 1195 053e 012B     		cmp	r3, #1
 1196 0540 20D0     		beq	.L43
 1197              	.LBB29:
 335:../Drivers/STM32F3xx_HAL_Driver/Src/stm32f3xx_ll_usb.c ****       {
 336:../Drivers/STM32F3xx_HAL_Driver/Src/stm32f3xx_ll_usb.c ****         /* Configure NAK status for the Endpoint */
 337:../Drivers/STM32F3xx_HAL_Driver/Src/stm32f3xx_ll_usb.c ****         PCD_SET_EP_TX_STATUS(USBx, ep->num, USB_EP_TX_NAK);
 1198              		.loc 1 337 0
 1199 0542 7A68     		ldr	r2, [r7, #4]
 1200 0544 3B68     		ldr	r3, [r7]
 1201 0546 1B78     		ldrb	r3, [r3]	@ zero_extendqisi2
 1202 0548 9B00     		lsls	r3, r3, #2
 1203 054a 1344     		add	r3, r3, r2
 1204 054c 1B88     		ldrh	r3, [r3]	@ movhi
 1205 054e 9BB2     		uxth	r3, r3
 1206 0550 23F4E043 		bic	r3, r3, #28672
 1207 0554 23F04003 		bic	r3, r3, #64
 1208 0558 9CB2     		uxth	r4, r3
 1209 055a 84F02003 		eor	r3, r4, #32
 1210 055e 9CB2     		uxth	r4, r3
 1211 0560 7A68     		ldr	r2, [r7, #4]
 1212 0562 3B68     		ldr	r3, [r7]
 1213 0564 1B78     		ldrb	r3, [r3]	@ zero_extendqisi2
 1214 0566 9B00     		lsls	r3, r3, #2
 1215 0568 1A44     		add	r2, r2, r3
 1216 056a 054B     		ldr	r3, .L49+12
 1217 056c 2343     		orrs	r3, r3, r4
 1218 056e 9BB2     		uxth	r3, r3
ARM GAS  /tmp/cclKfraO.s 			page 28


 1219 0570 1380     		strh	r3, [r2]	@ movhi
 1220              	.LBE29:
 1221 0572 1CE0     		b	.L44
 1222              	.L50:
 1223              		.align	2
 1224              	.L49:
 1225 0574 8081FFFF 		.word	-32384
 1226 0578 80C0FFFF 		.word	-16256
 1227 057c C080FFFF 		.word	-32576
 1228 0580 8080FFFF 		.word	-32640
 1229              	.L43:
 1230              	.LBB30:
 338:../Drivers/STM32F3xx_HAL_Driver/Src/stm32f3xx_ll_usb.c ****       }
 339:../Drivers/STM32F3xx_HAL_Driver/Src/stm32f3xx_ll_usb.c ****       else
 340:../Drivers/STM32F3xx_HAL_Driver/Src/stm32f3xx_ll_usb.c ****       {
 341:../Drivers/STM32F3xx_HAL_Driver/Src/stm32f3xx_ll_usb.c ****         /* Configure TX Endpoint to disabled state */
 342:../Drivers/STM32F3xx_HAL_Driver/Src/stm32f3xx_ll_usb.c ****         PCD_SET_EP_TX_STATUS(USBx, ep->num, USB_EP_TX_DIS);
 1231              		.loc 1 342 0
 1232 0584 7A68     		ldr	r2, [r7, #4]
 1233 0586 3B68     		ldr	r3, [r7]
 1234 0588 1B78     		ldrb	r3, [r3]	@ zero_extendqisi2
 1235 058a 9B00     		lsls	r3, r3, #2
 1236 058c 1344     		add	r3, r3, r2
 1237 058e 1B88     		ldrh	r3, [r3]	@ movhi
 1238 0590 9BB2     		uxth	r3, r3
 1239 0592 23F4E043 		bic	r3, r3, #28672
 1240 0596 23F04003 		bic	r3, r3, #64
 1241 059a 9CB2     		uxth	r4, r3
 1242 059c 7A68     		ldr	r2, [r7, #4]
 1243 059e 3B68     		ldr	r3, [r7]
 1244 05a0 1B78     		ldrb	r3, [r3]	@ zero_extendqisi2
 1245 05a2 9B00     		lsls	r3, r3, #2
 1246 05a4 1A44     		add	r2, r2, r3
 1247 05a6 0F4B     		ldr	r3, .L51
 1248 05a8 2343     		orrs	r3, r3, r4
 1249 05aa 9BB2     		uxth	r3, r3
 1250 05ac 1380     		strh	r3, [r2]	@ movhi
 1251              	.L44:
 1252              	.LBE30:
 1253              	.LBB31:
 343:../Drivers/STM32F3xx_HAL_Driver/Src/stm32f3xx_ll_usb.c ****       }
 344:../Drivers/STM32F3xx_HAL_Driver/Src/stm32f3xx_ll_usb.c **** 
 345:../Drivers/STM32F3xx_HAL_Driver/Src/stm32f3xx_ll_usb.c ****       PCD_SET_EP_RX_STATUS(USBx, ep->num, USB_EP_RX_DIS);
 1254              		.loc 1 345 0
 1255 05ae 7A68     		ldr	r2, [r7, #4]
 1256 05b0 3B68     		ldr	r3, [r7]
 1257 05b2 1B78     		ldrb	r3, [r3]	@ zero_extendqisi2
 1258 05b4 9B00     		lsls	r3, r3, #2
 1259 05b6 1344     		add	r3, r3, r2
 1260 05b8 1B88     		ldrh	r3, [r3]	@ movhi
 1261 05ba 9BB2     		uxth	r3, r3
 1262 05bc 23F48043 		bic	r3, r3, #16384
 1263 05c0 23F07003 		bic	r3, r3, #112
 1264 05c4 9CB2     		uxth	r4, r3
 1265 05c6 7A68     		ldr	r2, [r7, #4]
 1266 05c8 3B68     		ldr	r3, [r7]
 1267 05ca 1B78     		ldrb	r3, [r3]	@ zero_extendqisi2
ARM GAS  /tmp/cclKfraO.s 			page 29


 1268 05cc 9B00     		lsls	r3, r3, #2
 1269 05ce 1A44     		add	r2, r2, r3
 1270 05d0 044B     		ldr	r3, .L51
 1271 05d2 2343     		orrs	r3, r3, r4
 1272 05d4 9BB2     		uxth	r3, r3
 1273 05d6 1380     		strh	r3, [r2]	@ movhi
 1274              	.L37:
 1275              	.LBE31:
 346:../Drivers/STM32F3xx_HAL_Driver/Src/stm32f3xx_ll_usb.c ****     }
 347:../Drivers/STM32F3xx_HAL_Driver/Src/stm32f3xx_ll_usb.c ****   }
 348:../Drivers/STM32F3xx_HAL_Driver/Src/stm32f3xx_ll_usb.c **** 
 349:../Drivers/STM32F3xx_HAL_Driver/Src/stm32f3xx_ll_usb.c ****   return ret;
 1276              		.loc 1 349 0
 1277 05d8 FB7D     		ldrb	r3, [r7, #23]	@ zero_extendqisi2
 350:../Drivers/STM32F3xx_HAL_Driver/Src/stm32f3xx_ll_usb.c **** }
 1278              		.loc 1 350 0
 1279 05da 1846     		mov	r0, r3
 1280 05dc 1837     		adds	r7, r7, #24
 1281              	.LCFI55:
 1282              		.cfi_def_cfa_offset 8
 1283 05de BD46     		mov	sp, r7
 1284              	.LCFI56:
 1285              		.cfi_def_cfa_register 13
 1286              		@ sp needed
 1287 05e0 90BC     		pop	{r4, r7}
 1288              	.LCFI57:
 1289              		.cfi_restore 7
 1290              		.cfi_restore 4
 1291              		.cfi_def_cfa_offset 0
 1292 05e2 7047     		bx	lr
 1293              	.L52:
 1294              		.align	2
 1295              	.L51:
 1296 05e4 8080FFFF 		.word	-32640
 1297              		.cfi_endproc
 1298              	.LFE138:
 1300              		.section	.text.USB_DeactivateEndpoint,"ax",%progbits
 1301              		.align	1
 1302              		.global	USB_DeactivateEndpoint
 1303              		.syntax unified
 1304              		.thumb
 1305              		.thumb_func
 1306              		.fpu fpv4-sp-d16
 1308              	USB_DeactivateEndpoint:
 1309              	.LFB139:
 351:../Drivers/STM32F3xx_HAL_Driver/Src/stm32f3xx_ll_usb.c **** 
 352:../Drivers/STM32F3xx_HAL_Driver/Src/stm32f3xx_ll_usb.c **** /**
 353:../Drivers/STM32F3xx_HAL_Driver/Src/stm32f3xx_ll_usb.c ****   * @brief  De-activate and de-initialize an endpoint
 354:../Drivers/STM32F3xx_HAL_Driver/Src/stm32f3xx_ll_usb.c ****   * @param  USBx : Selected device
 355:../Drivers/STM32F3xx_HAL_Driver/Src/stm32f3xx_ll_usb.c ****   * @param  ep: pointer to endpoint structure
 356:../Drivers/STM32F3xx_HAL_Driver/Src/stm32f3xx_ll_usb.c ****   * @retval HAL status
 357:../Drivers/STM32F3xx_HAL_Driver/Src/stm32f3xx_ll_usb.c ****   */
 358:../Drivers/STM32F3xx_HAL_Driver/Src/stm32f3xx_ll_usb.c **** HAL_StatusTypeDef USB_DeactivateEndpoint(USB_TypeDef *USBx, USB_EPTypeDef *ep)
 359:../Drivers/STM32F3xx_HAL_Driver/Src/stm32f3xx_ll_usb.c **** {
 1310              		.loc 1 359 0
 1311              		.cfi_startproc
 1312              		@ args = 0, pretend = 0, frame = 8
ARM GAS  /tmp/cclKfraO.s 			page 30


 1313              		@ frame_needed = 1, uses_anonymous_args = 0
 1314              		@ link register save eliminated.
 1315 0000 90B4     		push	{r4, r7}
 1316              	.LCFI58:
 1317              		.cfi_def_cfa_offset 8
 1318              		.cfi_offset 4, -8
 1319              		.cfi_offset 7, -4
 1320 0002 82B0     		sub	sp, sp, #8
 1321              	.LCFI59:
 1322              		.cfi_def_cfa_offset 16
 1323 0004 00AF     		add	r7, sp, #0
 1324              	.LCFI60:
 1325              		.cfi_def_cfa_register 7
 1326 0006 7860     		str	r0, [r7, #4]
 1327 0008 3960     		str	r1, [r7]
 360:../Drivers/STM32F3xx_HAL_Driver/Src/stm32f3xx_ll_usb.c ****   if (ep->doublebuffer == 0U)
 1328              		.loc 1 360 0
 1329 000a 3B68     		ldr	r3, [r7]
 1330 000c 1B7B     		ldrb	r3, [r3, #12]	@ zero_extendqisi2
 1331 000e 002B     		cmp	r3, #0
 1332 0010 71D1     		bne	.L54
 361:../Drivers/STM32F3xx_HAL_Driver/Src/stm32f3xx_ll_usb.c ****   {
 362:../Drivers/STM32F3xx_HAL_Driver/Src/stm32f3xx_ll_usb.c ****     if (ep->is_in != 0U)
 1333              		.loc 1 362 0
 1334 0012 3B68     		ldr	r3, [r7]
 1335 0014 5B78     		ldrb	r3, [r3, #1]	@ zero_extendqisi2
 1336 0016 002B     		cmp	r3, #0
 1337 0018 36D0     		beq	.L55
 1338              	.LBB32:
 363:../Drivers/STM32F3xx_HAL_Driver/Src/stm32f3xx_ll_usb.c ****     {
 364:../Drivers/STM32F3xx_HAL_Driver/Src/stm32f3xx_ll_usb.c ****       PCD_CLEAR_TX_DTOG(USBx, ep->num);
 1339              		.loc 1 364 0
 1340 001a 7A68     		ldr	r2, [r7, #4]
 1341 001c 3B68     		ldr	r3, [r7]
 1342 001e 1B78     		ldrb	r3, [r3]	@ zero_extendqisi2
 1343 0020 9B00     		lsls	r3, r3, #2
 1344 0022 1344     		add	r3, r3, r2
 1345 0024 1B88     		ldrh	r3, [r3]	@ movhi
 1346 0026 9CB2     		uxth	r4, r3
 1347 0028 2346     		mov	r3, r4
 1348 002a 03F04003 		and	r3, r3, #64
 1349 002e 002B     		cmp	r3, #0
 1350 0030 14D0     		beq	.L56
 1351              	.LBB33:
 1352              		.loc 1 364 0 is_stmt 0 discriminator 1
 1353 0032 7A68     		ldr	r2, [r7, #4]
 1354 0034 3B68     		ldr	r3, [r7]
 1355 0036 1B78     		ldrb	r3, [r3]	@ zero_extendqisi2
 1356 0038 9B00     		lsls	r3, r3, #2
 1357 003a 1344     		add	r3, r3, r2
 1358 003c 1B88     		ldrh	r3, [r3]	@ movhi
 1359 003e 9BB2     		uxth	r3, r3
 1360 0040 23F4E043 		bic	r3, r3, #28672
 1361 0044 23F07003 		bic	r3, r3, #112
 1362 0048 9CB2     		uxth	r4, r3
 1363 004a 7A68     		ldr	r2, [r7, #4]
 1364 004c 3B68     		ldr	r3, [r7]
ARM GAS  /tmp/cclKfraO.s 			page 31


 1365 004e 1B78     		ldrb	r3, [r3]	@ zero_extendqisi2
 1366 0050 9B00     		lsls	r3, r3, #2
 1367 0052 1A44     		add	r2, r2, r3
 1368 0054 6B4B     		ldr	r3, .L66
 1369 0056 2343     		orrs	r3, r3, r4
 1370 0058 9BB2     		uxth	r3, r3
 1371 005a 1380     		strh	r3, [r2]	@ movhi
 1372              	.L56:
 1373              	.LBE33:
 1374              	.LBE32:
 1375              	.LBB34:
 365:../Drivers/STM32F3xx_HAL_Driver/Src/stm32f3xx_ll_usb.c ****       /* Configure DISABLE status for the Endpoint*/
 366:../Drivers/STM32F3xx_HAL_Driver/Src/stm32f3xx_ll_usb.c ****       PCD_SET_EP_TX_STATUS(USBx, ep->num, USB_EP_TX_DIS);
 1376              		.loc 1 366 0 is_stmt 1
 1377 005c 7A68     		ldr	r2, [r7, #4]
 1378 005e 3B68     		ldr	r3, [r7]
 1379 0060 1B78     		ldrb	r3, [r3]	@ zero_extendqisi2
 1380 0062 9B00     		lsls	r3, r3, #2
 1381 0064 1344     		add	r3, r3, r2
 1382 0066 1B88     		ldrh	r3, [r3]	@ movhi
 1383 0068 9BB2     		uxth	r3, r3
 1384 006a 23F4E043 		bic	r3, r3, #28672
 1385 006e 23F04003 		bic	r3, r3, #64
 1386 0072 9CB2     		uxth	r4, r3
 1387 0074 7A68     		ldr	r2, [r7, #4]
 1388 0076 3B68     		ldr	r3, [r7]
 1389 0078 1B78     		ldrb	r3, [r3]	@ zero_extendqisi2
 1390 007a 9B00     		lsls	r3, r3, #2
 1391 007c 1A44     		add	r2, r2, r3
 1392 007e 624B     		ldr	r3, .L66+4
 1393 0080 2343     		orrs	r3, r3, r4
 1394 0082 9BB2     		uxth	r3, r3
 1395 0084 1380     		strh	r3, [r2]	@ movhi
 1396              	.LBE34:
 1397 0086 44E1     		b	.L59
 1398              	.L55:
 1399              	.LBB35:
 367:../Drivers/STM32F3xx_HAL_Driver/Src/stm32f3xx_ll_usb.c ****     }
 368:../Drivers/STM32F3xx_HAL_Driver/Src/stm32f3xx_ll_usb.c ****     else
 369:../Drivers/STM32F3xx_HAL_Driver/Src/stm32f3xx_ll_usb.c ****     {
 370:../Drivers/STM32F3xx_HAL_Driver/Src/stm32f3xx_ll_usb.c ****       PCD_CLEAR_RX_DTOG(USBx, ep->num);
 1400              		.loc 1 370 0
 1401 0088 7A68     		ldr	r2, [r7, #4]
 1402 008a 3B68     		ldr	r3, [r7]
 1403 008c 1B78     		ldrb	r3, [r3]	@ zero_extendqisi2
 1404 008e 9B00     		lsls	r3, r3, #2
 1405 0090 1344     		add	r3, r3, r2
 1406 0092 1B88     		ldrh	r3, [r3]	@ movhi
 1407 0094 9CB2     		uxth	r4, r3
 1408 0096 2346     		mov	r3, r4
 1409 0098 03F48043 		and	r3, r3, #16384
 1410 009c 002B     		cmp	r3, #0
 1411 009e 14D0     		beq	.L58
 1412              	.LBB36:
 1413              		.loc 1 370 0 is_stmt 0 discriminator 1
 1414 00a0 7A68     		ldr	r2, [r7, #4]
 1415 00a2 3B68     		ldr	r3, [r7]
ARM GAS  /tmp/cclKfraO.s 			page 32


 1416 00a4 1B78     		ldrb	r3, [r3]	@ zero_extendqisi2
 1417 00a6 9B00     		lsls	r3, r3, #2
 1418 00a8 1344     		add	r3, r3, r2
 1419 00aa 1B88     		ldrh	r3, [r3]	@ movhi
 1420 00ac 9BB2     		uxth	r3, r3
 1421 00ae 23F4E043 		bic	r3, r3, #28672
 1422 00b2 23F07003 		bic	r3, r3, #112
 1423 00b6 9CB2     		uxth	r4, r3
 1424 00b8 7A68     		ldr	r2, [r7, #4]
 1425 00ba 3B68     		ldr	r3, [r7]
 1426 00bc 1B78     		ldrb	r3, [r3]	@ zero_extendqisi2
 1427 00be 9B00     		lsls	r3, r3, #2
 1428 00c0 1A44     		add	r2, r2, r3
 1429 00c2 524B     		ldr	r3, .L66+8
 1430 00c4 2343     		orrs	r3, r3, r4
 1431 00c6 9BB2     		uxth	r3, r3
 1432 00c8 1380     		strh	r3, [r2]	@ movhi
 1433              	.L58:
 1434              	.LBE36:
 1435              	.LBE35:
 1436              	.LBB37:
 371:../Drivers/STM32F3xx_HAL_Driver/Src/stm32f3xx_ll_usb.c ****       /* Configure DISABLE status for the Endpoint*/
 372:../Drivers/STM32F3xx_HAL_Driver/Src/stm32f3xx_ll_usb.c ****       PCD_SET_EP_RX_STATUS(USBx, ep->num, USB_EP_RX_DIS);
 1437              		.loc 1 372 0 is_stmt 1
 1438 00ca 7A68     		ldr	r2, [r7, #4]
 1439 00cc 3B68     		ldr	r3, [r7]
 1440 00ce 1B78     		ldrb	r3, [r3]	@ zero_extendqisi2
 1441 00d0 9B00     		lsls	r3, r3, #2
 1442 00d2 1344     		add	r3, r3, r2
 1443 00d4 1B88     		ldrh	r3, [r3]	@ movhi
 1444 00d6 9BB2     		uxth	r3, r3
 1445 00d8 23F48043 		bic	r3, r3, #16384
 1446 00dc 23F07003 		bic	r3, r3, #112
 1447 00e0 9CB2     		uxth	r4, r3
 1448 00e2 7A68     		ldr	r2, [r7, #4]
 1449 00e4 3B68     		ldr	r3, [r7]
 1450 00e6 1B78     		ldrb	r3, [r3]	@ zero_extendqisi2
 1451 00e8 9B00     		lsls	r3, r3, #2
 1452 00ea 1A44     		add	r2, r2, r3
 1453 00ec 464B     		ldr	r3, .L66+4
 1454 00ee 2343     		orrs	r3, r3, r4
 1455 00f0 9BB2     		uxth	r3, r3
 1456 00f2 1380     		strh	r3, [r2]	@ movhi
 1457 00f4 0DE1     		b	.L59
 1458              	.L54:
 1459              	.LBE37:
 373:../Drivers/STM32F3xx_HAL_Driver/Src/stm32f3xx_ll_usb.c ****     }
 374:../Drivers/STM32F3xx_HAL_Driver/Src/stm32f3xx_ll_usb.c ****   }
 375:../Drivers/STM32F3xx_HAL_Driver/Src/stm32f3xx_ll_usb.c ****   /*Double Buffer*/
 376:../Drivers/STM32F3xx_HAL_Driver/Src/stm32f3xx_ll_usb.c ****   else
 377:../Drivers/STM32F3xx_HAL_Driver/Src/stm32f3xx_ll_usb.c ****   {
 378:../Drivers/STM32F3xx_HAL_Driver/Src/stm32f3xx_ll_usb.c ****     if (ep->is_in == 0U)
 1460              		.loc 1 378 0
 1461 00f6 3B68     		ldr	r3, [r7]
 1462 00f8 5B78     		ldrb	r3, [r3, #1]	@ zero_extendqisi2
 1463 00fa 002B     		cmp	r3, #0
 1464 00fc 40F08880 		bne	.L60
ARM GAS  /tmp/cclKfraO.s 			page 33


 1465              	.LBB38:
 379:../Drivers/STM32F3xx_HAL_Driver/Src/stm32f3xx_ll_usb.c ****     {
 380:../Drivers/STM32F3xx_HAL_Driver/Src/stm32f3xx_ll_usb.c ****       /* Clear the data toggle bits for the endpoint IN/OUT*/
 381:../Drivers/STM32F3xx_HAL_Driver/Src/stm32f3xx_ll_usb.c ****       PCD_CLEAR_RX_DTOG(USBx, ep->num);
 1466              		.loc 1 381 0
 1467 0100 7A68     		ldr	r2, [r7, #4]
 1468 0102 3B68     		ldr	r3, [r7]
 1469 0104 1B78     		ldrb	r3, [r3]	@ zero_extendqisi2
 1470 0106 9B00     		lsls	r3, r3, #2
 1471 0108 1344     		add	r3, r3, r2
 1472 010a 1B88     		ldrh	r3, [r3]	@ movhi
 1473 010c 9CB2     		uxth	r4, r3
 1474 010e 2346     		mov	r3, r4
 1475 0110 03F48043 		and	r3, r3, #16384
 1476 0114 002B     		cmp	r3, #0
 1477 0116 14D0     		beq	.L61
 1478              	.LBB39:
 1479              		.loc 1 381 0 is_stmt 0 discriminator 1
 1480 0118 7A68     		ldr	r2, [r7, #4]
 1481 011a 3B68     		ldr	r3, [r7]
 1482 011c 1B78     		ldrb	r3, [r3]	@ zero_extendqisi2
 1483 011e 9B00     		lsls	r3, r3, #2
 1484 0120 1344     		add	r3, r3, r2
 1485 0122 1B88     		ldrh	r3, [r3]	@ movhi
 1486 0124 9BB2     		uxth	r3, r3
 1487 0126 23F4E043 		bic	r3, r3, #28672
 1488 012a 23F07003 		bic	r3, r3, #112
 1489 012e 9CB2     		uxth	r4, r3
 1490 0130 7A68     		ldr	r2, [r7, #4]
 1491 0132 3B68     		ldr	r3, [r7]
 1492 0134 1B78     		ldrb	r3, [r3]	@ zero_extendqisi2
 1493 0136 9B00     		lsls	r3, r3, #2
 1494 0138 1A44     		add	r2, r2, r3
 1495 013a 344B     		ldr	r3, .L66+8
 1496 013c 2343     		orrs	r3, r3, r4
 1497 013e 9BB2     		uxth	r3, r3
 1498 0140 1380     		strh	r3, [r2]	@ movhi
 1499              	.L61:
 1500              	.LBE39:
 1501              	.LBE38:
 1502              	.LBB40:
 382:../Drivers/STM32F3xx_HAL_Driver/Src/stm32f3xx_ll_usb.c ****       PCD_CLEAR_TX_DTOG(USBx, ep->num);
 1503              		.loc 1 382 0 is_stmt 1
 1504 0142 7A68     		ldr	r2, [r7, #4]
 1505 0144 3B68     		ldr	r3, [r7]
 1506 0146 1B78     		ldrb	r3, [r3]	@ zero_extendqisi2
 1507 0148 9B00     		lsls	r3, r3, #2
 1508 014a 1344     		add	r3, r3, r2
 1509 014c 1B88     		ldrh	r3, [r3]	@ movhi
 1510 014e 9CB2     		uxth	r4, r3
 1511 0150 2346     		mov	r3, r4
 1512 0152 03F04003 		and	r3, r3, #64
 1513 0156 002B     		cmp	r3, #0
 1514 0158 14D0     		beq	.L62
 1515              	.LBB41:
 1516              		.loc 1 382 0 is_stmt 0 discriminator 1
 1517 015a 7A68     		ldr	r2, [r7, #4]
ARM GAS  /tmp/cclKfraO.s 			page 34


 1518 015c 3B68     		ldr	r3, [r7]
 1519 015e 1B78     		ldrb	r3, [r3]	@ zero_extendqisi2
 1520 0160 9B00     		lsls	r3, r3, #2
 1521 0162 1344     		add	r3, r3, r2
 1522 0164 1B88     		ldrh	r3, [r3]	@ movhi
 1523 0166 9BB2     		uxth	r3, r3
 1524 0168 23F4E043 		bic	r3, r3, #28672
 1525 016c 23F07003 		bic	r3, r3, #112
 1526 0170 9CB2     		uxth	r4, r3
 1527 0172 7A68     		ldr	r2, [r7, #4]
 1528 0174 3B68     		ldr	r3, [r7]
 1529 0176 1B78     		ldrb	r3, [r3]	@ zero_extendqisi2
 1530 0178 9B00     		lsls	r3, r3, #2
 1531 017a 1A44     		add	r2, r2, r3
 1532 017c 214B     		ldr	r3, .L66
 1533 017e 2343     		orrs	r3, r3, r4
 1534 0180 9BB2     		uxth	r3, r3
 1535 0182 1380     		strh	r3, [r2]	@ movhi
 1536              	.L62:
 1537              	.LBE41:
 1538              	.LBE40:
 1539              	.LBB42:
 383:../Drivers/STM32F3xx_HAL_Driver/Src/stm32f3xx_ll_usb.c **** 
 384:../Drivers/STM32F3xx_HAL_Driver/Src/stm32f3xx_ll_usb.c ****       /* Reset value of the data toggle bits for the endpoint out*/
 385:../Drivers/STM32F3xx_HAL_Driver/Src/stm32f3xx_ll_usb.c ****       PCD_TX_DTOG(USBx, ep->num);
 1540              		.loc 1 385 0 is_stmt 1
 1541 0184 7A68     		ldr	r2, [r7, #4]
 1542 0186 3B68     		ldr	r3, [r7]
 1543 0188 1B78     		ldrb	r3, [r3]	@ zero_extendqisi2
 1544 018a 9B00     		lsls	r3, r3, #2
 1545 018c 1344     		add	r3, r3, r2
 1546 018e 1B88     		ldrh	r3, [r3]	@ movhi
 1547 0190 9BB2     		uxth	r3, r3
 1548 0192 23F4E043 		bic	r3, r3, #28672
 1549 0196 23F07003 		bic	r3, r3, #112
 1550 019a 9CB2     		uxth	r4, r3
 1551 019c 7A68     		ldr	r2, [r7, #4]
 1552 019e 3B68     		ldr	r3, [r7]
 1553 01a0 1B78     		ldrb	r3, [r3]	@ zero_extendqisi2
 1554 01a2 9B00     		lsls	r3, r3, #2
 1555 01a4 1A44     		add	r2, r2, r3
 1556 01a6 174B     		ldr	r3, .L66
 1557 01a8 2343     		orrs	r3, r3, r4
 1558 01aa 9BB2     		uxth	r3, r3
 1559 01ac 1380     		strh	r3, [r2]	@ movhi
 1560              	.LBE42:
 1561              	.LBB43:
 386:../Drivers/STM32F3xx_HAL_Driver/Src/stm32f3xx_ll_usb.c **** 
 387:../Drivers/STM32F3xx_HAL_Driver/Src/stm32f3xx_ll_usb.c ****       PCD_SET_EP_RX_STATUS(USBx, ep->num, USB_EP_RX_DIS);
 1562              		.loc 1 387 0
 1563 01ae 7A68     		ldr	r2, [r7, #4]
 1564 01b0 3B68     		ldr	r3, [r7]
 1565 01b2 1B78     		ldrb	r3, [r3]	@ zero_extendqisi2
 1566 01b4 9B00     		lsls	r3, r3, #2
 1567 01b6 1344     		add	r3, r3, r2
 1568 01b8 1B88     		ldrh	r3, [r3]	@ movhi
 1569 01ba 9BB2     		uxth	r3, r3
ARM GAS  /tmp/cclKfraO.s 			page 35


 1570 01bc 23F48043 		bic	r3, r3, #16384
 1571 01c0 23F07003 		bic	r3, r3, #112
 1572 01c4 9CB2     		uxth	r4, r3
 1573 01c6 7A68     		ldr	r2, [r7, #4]
 1574 01c8 3B68     		ldr	r3, [r7]
 1575 01ca 1B78     		ldrb	r3, [r3]	@ zero_extendqisi2
 1576 01cc 9B00     		lsls	r3, r3, #2
 1577 01ce 1A44     		add	r2, r2, r3
 1578 01d0 0D4B     		ldr	r3, .L66+4
 1579 01d2 2343     		orrs	r3, r3, r4
 1580 01d4 9BB2     		uxth	r3, r3
 1581 01d6 1380     		strh	r3, [r2]	@ movhi
 1582              	.LBE43:
 1583              	.LBB44:
 388:../Drivers/STM32F3xx_HAL_Driver/Src/stm32f3xx_ll_usb.c ****       PCD_SET_EP_TX_STATUS(USBx, ep->num, USB_EP_TX_DIS);
 1584              		.loc 1 388 0
 1585 01d8 7A68     		ldr	r2, [r7, #4]
 1586 01da 3B68     		ldr	r3, [r7]
 1587 01dc 1B78     		ldrb	r3, [r3]	@ zero_extendqisi2
 1588 01de 9B00     		lsls	r3, r3, #2
 1589 01e0 1344     		add	r3, r3, r2
 1590 01e2 1B88     		ldrh	r3, [r3]	@ movhi
 1591 01e4 9BB2     		uxth	r3, r3
 1592 01e6 23F4E043 		bic	r3, r3, #28672
 1593 01ea 23F04003 		bic	r3, r3, #64
 1594 01ee 9CB2     		uxth	r4, r3
 1595 01f0 7A68     		ldr	r2, [r7, #4]
 1596 01f2 3B68     		ldr	r3, [r7]
 1597 01f4 1B78     		ldrb	r3, [r3]	@ zero_extendqisi2
 1598 01f6 9B00     		lsls	r3, r3, #2
 1599 01f8 1A44     		add	r2, r2, r3
 1600 01fa 034B     		ldr	r3, .L66+4
 1601 01fc 2343     		orrs	r3, r3, r4
 1602 01fe 9BB2     		uxth	r3, r3
 1603 0200 1380     		strh	r3, [r2]	@ movhi
 1604              	.LBE44:
 1605 0202 86E0     		b	.L59
 1606              	.L67:
 1607              		.align	2
 1608              	.L66:
 1609 0204 C080FFFF 		.word	-32576
 1610 0208 8080FFFF 		.word	-32640
 1611 020c 80C0FFFF 		.word	-16256
 1612              	.L60:
 1613              	.LBB45:
 389:../Drivers/STM32F3xx_HAL_Driver/Src/stm32f3xx_ll_usb.c ****     }
 390:../Drivers/STM32F3xx_HAL_Driver/Src/stm32f3xx_ll_usb.c ****     else
 391:../Drivers/STM32F3xx_HAL_Driver/Src/stm32f3xx_ll_usb.c ****     {
 392:../Drivers/STM32F3xx_HAL_Driver/Src/stm32f3xx_ll_usb.c ****       /* Clear the data toggle bits for the endpoint IN/OUT*/
 393:../Drivers/STM32F3xx_HAL_Driver/Src/stm32f3xx_ll_usb.c ****       PCD_CLEAR_RX_DTOG(USBx, ep->num);
 1614              		.loc 1 393 0
 1615 0210 7A68     		ldr	r2, [r7, #4]
 1616 0212 3B68     		ldr	r3, [r7]
 1617 0214 1B78     		ldrb	r3, [r3]	@ zero_extendqisi2
 1618 0216 9B00     		lsls	r3, r3, #2
 1619 0218 1344     		add	r3, r3, r2
 1620 021a 1B88     		ldrh	r3, [r3]	@ movhi
ARM GAS  /tmp/cclKfraO.s 			page 36


 1621 021c 9CB2     		uxth	r4, r3
 1622 021e 2346     		mov	r3, r4
 1623 0220 03F48043 		and	r3, r3, #16384
 1624 0224 002B     		cmp	r3, #0
 1625 0226 14D0     		beq	.L63
 1626              	.LBB46:
 1627              		.loc 1 393 0 is_stmt 0 discriminator 1
 1628 0228 7A68     		ldr	r2, [r7, #4]
 1629 022a 3B68     		ldr	r3, [r7]
 1630 022c 1B78     		ldrb	r3, [r3]	@ zero_extendqisi2
 1631 022e 9B00     		lsls	r3, r3, #2
 1632 0230 1344     		add	r3, r3, r2
 1633 0232 1B88     		ldrh	r3, [r3]	@ movhi
 1634 0234 9BB2     		uxth	r3, r3
 1635 0236 23F4E043 		bic	r3, r3, #28672
 1636 023a 23F07003 		bic	r3, r3, #112
 1637 023e 9CB2     		uxth	r4, r3
 1638 0240 7A68     		ldr	r2, [r7, #4]
 1639 0242 3B68     		ldr	r3, [r7]
 1640 0244 1B78     		ldrb	r3, [r3]	@ zero_extendqisi2
 1641 0246 9B00     		lsls	r3, r3, #2
 1642 0248 1A44     		add	r2, r2, r3
 1643 024a 354B     		ldr	r3, .L68
 1644 024c 2343     		orrs	r3, r3, r4
 1645 024e 9BB2     		uxth	r3, r3
 1646 0250 1380     		strh	r3, [r2]	@ movhi
 1647              	.L63:
 1648              	.LBE46:
 1649              	.LBE45:
 1650              	.LBB47:
 394:../Drivers/STM32F3xx_HAL_Driver/Src/stm32f3xx_ll_usb.c ****       PCD_CLEAR_TX_DTOG(USBx, ep->num);
 1651              		.loc 1 394 0 is_stmt 1
 1652 0252 7A68     		ldr	r2, [r7, #4]
 1653 0254 3B68     		ldr	r3, [r7]
 1654 0256 1B78     		ldrb	r3, [r3]	@ zero_extendqisi2
 1655 0258 9B00     		lsls	r3, r3, #2
 1656 025a 1344     		add	r3, r3, r2
 1657 025c 1B88     		ldrh	r3, [r3]	@ movhi
 1658 025e 9CB2     		uxth	r4, r3
 1659 0260 2346     		mov	r3, r4
 1660 0262 03F04003 		and	r3, r3, #64
 1661 0266 002B     		cmp	r3, #0
 1662 0268 14D0     		beq	.L64
 1663              	.LBB48:
 1664              		.loc 1 394 0 is_stmt 0 discriminator 1
 1665 026a 7A68     		ldr	r2, [r7, #4]
 1666 026c 3B68     		ldr	r3, [r7]
 1667 026e 1B78     		ldrb	r3, [r3]	@ zero_extendqisi2
 1668 0270 9B00     		lsls	r3, r3, #2
 1669 0272 1344     		add	r3, r3, r2
 1670 0274 1B88     		ldrh	r3, [r3]	@ movhi
 1671 0276 9BB2     		uxth	r3, r3
 1672 0278 23F4E043 		bic	r3, r3, #28672
 1673 027c 23F07003 		bic	r3, r3, #112
 1674 0280 9CB2     		uxth	r4, r3
 1675 0282 7A68     		ldr	r2, [r7, #4]
 1676 0284 3B68     		ldr	r3, [r7]
ARM GAS  /tmp/cclKfraO.s 			page 37


 1677 0286 1B78     		ldrb	r3, [r3]	@ zero_extendqisi2
 1678 0288 9B00     		lsls	r3, r3, #2
 1679 028a 1A44     		add	r2, r2, r3
 1680 028c 254B     		ldr	r3, .L68+4
 1681 028e 2343     		orrs	r3, r3, r4
 1682 0290 9BB2     		uxth	r3, r3
 1683 0292 1380     		strh	r3, [r2]	@ movhi
 1684              	.L64:
 1685              	.LBE48:
 1686              	.LBE47:
 1687              	.LBB49:
 395:../Drivers/STM32F3xx_HAL_Driver/Src/stm32f3xx_ll_usb.c ****       PCD_RX_DTOG(USBx, ep->num);
 1688              		.loc 1 395 0 is_stmt 1
 1689 0294 7A68     		ldr	r2, [r7, #4]
 1690 0296 3B68     		ldr	r3, [r7]
 1691 0298 1B78     		ldrb	r3, [r3]	@ zero_extendqisi2
 1692 029a 9B00     		lsls	r3, r3, #2
 1693 029c 1344     		add	r3, r3, r2
 1694 029e 1B88     		ldrh	r3, [r3]	@ movhi
 1695 02a0 9BB2     		uxth	r3, r3
 1696 02a2 23F4E043 		bic	r3, r3, #28672
 1697 02a6 23F07003 		bic	r3, r3, #112
 1698 02aa 9CB2     		uxth	r4, r3
 1699 02ac 7A68     		ldr	r2, [r7, #4]
 1700 02ae 3B68     		ldr	r3, [r7]
 1701 02b0 1B78     		ldrb	r3, [r3]	@ zero_extendqisi2
 1702 02b2 9B00     		lsls	r3, r3, #2
 1703 02b4 1A44     		add	r2, r2, r3
 1704 02b6 1A4B     		ldr	r3, .L68
 1705 02b8 2343     		orrs	r3, r3, r4
 1706 02ba 9BB2     		uxth	r3, r3
 1707 02bc 1380     		strh	r3, [r2]	@ movhi
 1708              	.LBE49:
 1709              	.LBB50:
 396:../Drivers/STM32F3xx_HAL_Driver/Src/stm32f3xx_ll_usb.c ****       /* Configure DISABLE status for the Endpoint*/
 397:../Drivers/STM32F3xx_HAL_Driver/Src/stm32f3xx_ll_usb.c ****       PCD_SET_EP_TX_STATUS(USBx, ep->num, USB_EP_TX_DIS);
 1710              		.loc 1 397 0
 1711 02be 7A68     		ldr	r2, [r7, #4]
 1712 02c0 3B68     		ldr	r3, [r7]
 1713 02c2 1B78     		ldrb	r3, [r3]	@ zero_extendqisi2
 1714 02c4 9B00     		lsls	r3, r3, #2
 1715 02c6 1344     		add	r3, r3, r2
 1716 02c8 1B88     		ldrh	r3, [r3]	@ movhi
 1717 02ca 9BB2     		uxth	r3, r3
 1718 02cc 23F4E043 		bic	r3, r3, #28672
 1719 02d0 23F04003 		bic	r3, r3, #64
 1720 02d4 9CB2     		uxth	r4, r3
 1721 02d6 7A68     		ldr	r2, [r7, #4]
 1722 02d8 3B68     		ldr	r3, [r7]
 1723 02da 1B78     		ldrb	r3, [r3]	@ zero_extendqisi2
 1724 02dc 9B00     		lsls	r3, r3, #2
 1725 02de 1A44     		add	r2, r2, r3
 1726 02e0 114B     		ldr	r3, .L68+8
 1727 02e2 2343     		orrs	r3, r3, r4
 1728 02e4 9BB2     		uxth	r3, r3
 1729 02e6 1380     		strh	r3, [r2]	@ movhi
 1730              	.LBE50:
ARM GAS  /tmp/cclKfraO.s 			page 38


 1731              	.LBB51:
 398:../Drivers/STM32F3xx_HAL_Driver/Src/stm32f3xx_ll_usb.c ****       PCD_SET_EP_RX_STATUS(USBx, ep->num, USB_EP_RX_DIS);
 1732              		.loc 1 398 0
 1733 02e8 7A68     		ldr	r2, [r7, #4]
 1734 02ea 3B68     		ldr	r3, [r7]
 1735 02ec 1B78     		ldrb	r3, [r3]	@ zero_extendqisi2
 1736 02ee 9B00     		lsls	r3, r3, #2
 1737 02f0 1344     		add	r3, r3, r2
 1738 02f2 1B88     		ldrh	r3, [r3]	@ movhi
 1739 02f4 9BB2     		uxth	r3, r3
 1740 02f6 23F48043 		bic	r3, r3, #16384
 1741 02fa 23F07003 		bic	r3, r3, #112
 1742 02fe 9CB2     		uxth	r4, r3
 1743 0300 7A68     		ldr	r2, [r7, #4]
 1744 0302 3B68     		ldr	r3, [r7]
 1745 0304 1B78     		ldrb	r3, [r3]	@ zero_extendqisi2
 1746 0306 9B00     		lsls	r3, r3, #2
 1747 0308 1A44     		add	r2, r2, r3
 1748 030a 074B     		ldr	r3, .L68+8
 1749 030c 2343     		orrs	r3, r3, r4
 1750 030e 9BB2     		uxth	r3, r3
 1751 0310 1380     		strh	r3, [r2]	@ movhi
 1752              	.L59:
 1753              	.LBE51:
 399:../Drivers/STM32F3xx_HAL_Driver/Src/stm32f3xx_ll_usb.c ****     }
 400:../Drivers/STM32F3xx_HAL_Driver/Src/stm32f3xx_ll_usb.c ****   }
 401:../Drivers/STM32F3xx_HAL_Driver/Src/stm32f3xx_ll_usb.c **** 
 402:../Drivers/STM32F3xx_HAL_Driver/Src/stm32f3xx_ll_usb.c ****   return HAL_OK;
 1754              		.loc 1 402 0
 1755 0312 0023     		movs	r3, #0
 403:../Drivers/STM32F3xx_HAL_Driver/Src/stm32f3xx_ll_usb.c **** }
 1756              		.loc 1 403 0
 1757 0314 1846     		mov	r0, r3
 1758 0316 0837     		adds	r7, r7, #8
 1759              	.LCFI61:
 1760              		.cfi_def_cfa_offset 8
 1761 0318 BD46     		mov	sp, r7
 1762              	.LCFI62:
 1763              		.cfi_def_cfa_register 13
 1764              		@ sp needed
 1765 031a 90BC     		pop	{r4, r7}
 1766              	.LCFI63:
 1767              		.cfi_restore 7
 1768              		.cfi_restore 4
 1769              		.cfi_def_cfa_offset 0
 1770 031c 7047     		bx	lr
 1771              	.L69:
 1772 031e 00BF     		.align	2
 1773              	.L68:
 1774 0320 80C0FFFF 		.word	-16256
 1775 0324 C080FFFF 		.word	-32576
 1776 0328 8080FFFF 		.word	-32640
 1777              		.cfi_endproc
 1778              	.LFE139:
 1780              		.section	.text.USB_EPStartXfer,"ax",%progbits
 1781              		.align	1
 1782              		.global	USB_EPStartXfer
ARM GAS  /tmp/cclKfraO.s 			page 39


 1783              		.syntax unified
 1784              		.thumb
 1785              		.thumb_func
 1786              		.fpu fpv4-sp-d16
 1788              	USB_EPStartXfer:
 1789              	.LFB140:
 404:../Drivers/STM32F3xx_HAL_Driver/Src/stm32f3xx_ll_usb.c **** 
 405:../Drivers/STM32F3xx_HAL_Driver/Src/stm32f3xx_ll_usb.c **** /**
 406:../Drivers/STM32F3xx_HAL_Driver/Src/stm32f3xx_ll_usb.c ****   * @brief  USB_EPStartXfer : setup and starts a transfer over an EP
 407:../Drivers/STM32F3xx_HAL_Driver/Src/stm32f3xx_ll_usb.c ****   * @param  USBx : Selected device
 408:../Drivers/STM32F3xx_HAL_Driver/Src/stm32f3xx_ll_usb.c ****   * @param  ep: pointer to endpoint structure
 409:../Drivers/STM32F3xx_HAL_Driver/Src/stm32f3xx_ll_usb.c ****   * @retval HAL status
 410:../Drivers/STM32F3xx_HAL_Driver/Src/stm32f3xx_ll_usb.c ****   */
 411:../Drivers/STM32F3xx_HAL_Driver/Src/stm32f3xx_ll_usb.c **** HAL_StatusTypeDef USB_EPStartXfer(USB_TypeDef *USBx, USB_EPTypeDef *ep)
 412:../Drivers/STM32F3xx_HAL_Driver/Src/stm32f3xx_ll_usb.c **** {
 1790              		.loc 1 412 0
 1791              		.cfi_startproc
 1792              		@ args = 0, pretend = 0, frame = 80
 1793              		@ frame_needed = 1, uses_anonymous_args = 0
 1794 0000 90B5     		push	{r4, r7, lr}
 1795              	.LCFI64:
 1796              		.cfi_def_cfa_offset 12
 1797              		.cfi_offset 4, -12
 1798              		.cfi_offset 7, -8
 1799              		.cfi_offset 14, -4
 1800 0002 95B0     		sub	sp, sp, #84
 1801              	.LCFI65:
 1802              		.cfi_def_cfa_offset 96
 1803 0004 00AF     		add	r7, sp, #0
 1804              	.LCFI66:
 1805              		.cfi_def_cfa_register 7
 1806 0006 7860     		str	r0, [r7, #4]
 1807 0008 3960     		str	r1, [r7]
 413:../Drivers/STM32F3xx_HAL_Driver/Src/stm32f3xx_ll_usb.c ****   uint16_t pmabuffer;
 414:../Drivers/STM32F3xx_HAL_Driver/Src/stm32f3xx_ll_usb.c ****   uint32_t len;
 415:../Drivers/STM32F3xx_HAL_Driver/Src/stm32f3xx_ll_usb.c **** 
 416:../Drivers/STM32F3xx_HAL_Driver/Src/stm32f3xx_ll_usb.c ****   /* IN endpoint */
 417:../Drivers/STM32F3xx_HAL_Driver/Src/stm32f3xx_ll_usb.c ****   if (ep->is_in == 1U)
 1808              		.loc 1 417 0
 1809 000a 3B68     		ldr	r3, [r7]
 1810 000c 5B78     		ldrb	r3, [r3, #1]	@ zero_extendqisi2
 1811 000e 012B     		cmp	r3, #1
 1812 0010 40F06D81 		bne	.L71
 418:../Drivers/STM32F3xx_HAL_Driver/Src/stm32f3xx_ll_usb.c ****   {
 419:../Drivers/STM32F3xx_HAL_Driver/Src/stm32f3xx_ll_usb.c ****     /*Multi packet transfer*/
 420:../Drivers/STM32F3xx_HAL_Driver/Src/stm32f3xx_ll_usb.c ****     if (ep->xfer_len > ep->maxpacket)
 1813              		.loc 1 420 0
 1814 0014 3B68     		ldr	r3, [r7]
 1815 0016 9A69     		ldr	r2, [r3, #24]
 1816 0018 3B68     		ldr	r3, [r7]
 1817 001a 1B69     		ldr	r3, [r3, #16]
 1818 001c 9A42     		cmp	r2, r3
 1819 001e 09D9     		bls	.L72
 421:../Drivers/STM32F3xx_HAL_Driver/Src/stm32f3xx_ll_usb.c ****     {
 422:../Drivers/STM32F3xx_HAL_Driver/Src/stm32f3xx_ll_usb.c ****       len = ep->maxpacket;
 1820              		.loc 1 422 0
 1821 0020 3B68     		ldr	r3, [r7]
ARM GAS  /tmp/cclKfraO.s 			page 40


 1822 0022 1B69     		ldr	r3, [r3, #16]
 1823 0024 BB64     		str	r3, [r7, #72]
 423:../Drivers/STM32F3xx_HAL_Driver/Src/stm32f3xx_ll_usb.c ****       ep->xfer_len -= len;
 1824              		.loc 1 423 0
 1825 0026 3B68     		ldr	r3, [r7]
 1826 0028 9A69     		ldr	r2, [r3, #24]
 1827 002a BB6C     		ldr	r3, [r7, #72]
 1828 002c D21A     		subs	r2, r2, r3
 1829 002e 3B68     		ldr	r3, [r7]
 1830 0030 9A61     		str	r2, [r3, #24]
 1831 0032 05E0     		b	.L73
 1832              	.L72:
 424:../Drivers/STM32F3xx_HAL_Driver/Src/stm32f3xx_ll_usb.c ****     }
 425:../Drivers/STM32F3xx_HAL_Driver/Src/stm32f3xx_ll_usb.c ****     else
 426:../Drivers/STM32F3xx_HAL_Driver/Src/stm32f3xx_ll_usb.c ****     {
 427:../Drivers/STM32F3xx_HAL_Driver/Src/stm32f3xx_ll_usb.c ****       len = ep->xfer_len;
 1833              		.loc 1 427 0
 1834 0034 3B68     		ldr	r3, [r7]
 1835 0036 9B69     		ldr	r3, [r3, #24]
 1836 0038 BB64     		str	r3, [r7, #72]
 428:../Drivers/STM32F3xx_HAL_Driver/Src/stm32f3xx_ll_usb.c ****       ep->xfer_len = 0U;
 1837              		.loc 1 428 0
 1838 003a 3B68     		ldr	r3, [r7]
 1839 003c 0022     		movs	r2, #0
 1840 003e 9A61     		str	r2, [r3, #24]
 1841              	.L73:
 429:../Drivers/STM32F3xx_HAL_Driver/Src/stm32f3xx_ll_usb.c ****     }
 430:../Drivers/STM32F3xx_HAL_Driver/Src/stm32f3xx_ll_usb.c **** 
 431:../Drivers/STM32F3xx_HAL_Driver/Src/stm32f3xx_ll_usb.c ****     /* configure and validate Tx endpoint */
 432:../Drivers/STM32F3xx_HAL_Driver/Src/stm32f3xx_ll_usb.c ****     if (ep->doublebuffer == 0U)
 1842              		.loc 1 432 0
 1843 0040 3B68     		ldr	r3, [r7]
 1844 0042 1B7B     		ldrb	r3, [r3, #12]	@ zero_extendqisi2
 1845 0044 002B     		cmp	r3, #0
 1846 0046 1AD1     		bne	.L74
 433:../Drivers/STM32F3xx_HAL_Driver/Src/stm32f3xx_ll_usb.c ****     {
 434:../Drivers/STM32F3xx_HAL_Driver/Src/stm32f3xx_ll_usb.c ****       USB_WritePMA(USBx, ep->xfer_buff, ep->pmaadress, (uint16_t)len);
 1847              		.loc 1 434 0
 1848 0048 3B68     		ldr	r3, [r7]
 1849 004a 5969     		ldr	r1, [r3, #20]
 1850 004c 3B68     		ldr	r3, [r7]
 1851 004e DA88     		ldrh	r2, [r3, #6]
 1852 0050 BB6C     		ldr	r3, [r7, #72]
 1853 0052 9BB2     		uxth	r3, r3
 1854 0054 7868     		ldr	r0, [r7, #4]
 1855 0056 FFF7FEFF 		bl	USB_WritePMA
 1856              	.LBB52:
 435:../Drivers/STM32F3xx_HAL_Driver/Src/stm32f3xx_ll_usb.c ****       PCD_SET_EP_TX_CNT(USBx, ep->num, len);
 1857              		.loc 1 435 0
 1858 005a 7C68     		ldr	r4, [r7, #4]
 1859 005c 7B68     		ldr	r3, [r7, #4]
 1860 005e B3F85030 		ldrh	r3, [r3, #80]	@ movhi
 1861 0062 9BB2     		uxth	r3, r3
 1862 0064 1C44     		add	r4, r4, r3
 1863 0066 3B68     		ldr	r3, [r7]
 1864 0068 1B78     		ldrb	r3, [r3]	@ zero_extendqisi2
 1865 006a 1B01     		lsls	r3, r3, #4
ARM GAS  /tmp/cclKfraO.s 			page 41


 1866 006c 2344     		add	r3, r3, r4
 1867 006e 03F20443 		addw	r3, r3, #1028
 1868 0072 3B63     		str	r3, [r7, #48]
 1869 0074 BB6C     		ldr	r3, [r7, #72]
 1870 0076 9AB2     		uxth	r2, r3
 1871 0078 3B6B     		ldr	r3, [r7, #48]
 1872 007a 1A80     		strh	r2, [r3]	@ movhi
 1873              	.LBE52:
 1874 007c 1BE1     		b	.L75
 1875              	.L74:
 436:../Drivers/STM32F3xx_HAL_Driver/Src/stm32f3xx_ll_usb.c ****     }
 437:../Drivers/STM32F3xx_HAL_Driver/Src/stm32f3xx_ll_usb.c ****     else
 438:../Drivers/STM32F3xx_HAL_Driver/Src/stm32f3xx_ll_usb.c ****     {
 439:../Drivers/STM32F3xx_HAL_Driver/Src/stm32f3xx_ll_usb.c ****       /* Write the data to the USB endpoint */
 440:../Drivers/STM32F3xx_HAL_Driver/Src/stm32f3xx_ll_usb.c ****       if ((PCD_GET_ENDPOINT(USBx, ep->num) & USB_EP_DTOG_TX) != 0U)
 1876              		.loc 1 440 0
 1877 007e 7A68     		ldr	r2, [r7, #4]
 1878 0080 3B68     		ldr	r3, [r7]
 1879 0082 1B78     		ldrb	r3, [r3]	@ zero_extendqisi2
 1880 0084 9B00     		lsls	r3, r3, #2
 1881 0086 1344     		add	r3, r3, r2
 1882 0088 1B88     		ldrh	r3, [r3]	@ movhi
 1883 008a 9BB2     		uxth	r3, r3
 1884 008c 03F04003 		and	r3, r3, #64
 1885 0090 002B     		cmp	r3, #0
 1886 0092 6AD0     		beq	.L76
 1887              	.LBB53:
 441:../Drivers/STM32F3xx_HAL_Driver/Src/stm32f3xx_ll_usb.c ****       {
 442:../Drivers/STM32F3xx_HAL_Driver/Src/stm32f3xx_ll_usb.c ****         /* Set the Double buffer counter for pmabuffer1 */
 443:../Drivers/STM32F3xx_HAL_Driver/Src/stm32f3xx_ll_usb.c ****         PCD_SET_EP_DBUF1_CNT(USBx, ep->num, ep->is_in, len);
 1888              		.loc 1 443 0
 1889 0094 7C68     		ldr	r4, [r7, #4]
 1890 0096 3B68     		ldr	r3, [r7]
 1891 0098 5B78     		ldrb	r3, [r3, #1]	@ zero_extendqisi2
 1892 009a 002B     		cmp	r3, #0
 1893 009c 4CD1     		bne	.L77
 1894              	.LBB54:
 1895              		.loc 1 443 0 is_stmt 0 discriminator 1
 1896 009e 7C68     		ldr	r4, [r7, #4]
 1897 00a0 7B68     		ldr	r3, [r7, #4]
 1898 00a2 B3F85030 		ldrh	r3, [r3, #80]	@ movhi
 1899 00a6 9BB2     		uxth	r3, r3
 1900 00a8 1C44     		add	r4, r4, r3
 1901 00aa 3B68     		ldr	r3, [r7]
 1902 00ac 1B78     		ldrb	r3, [r3]	@ zero_extendqisi2
 1903 00ae 1B01     		lsls	r3, r3, #4
 1904 00b0 2344     		add	r3, r3, r4
 1905 00b2 03F20C43 		addw	r3, r3, #1036
 1906 00b6 FB62     		str	r3, [r7, #44]
 1907              	.LBB55:
 1908 00b8 BB6C     		ldr	r3, [r7, #72]
 1909 00ba 002B     		cmp	r3, #0
 1910 00bc 10D1     		bne	.L78
 1911              		.loc 1 443 0 discriminator 3
 1912 00be FB6A     		ldr	r3, [r7, #44]
 1913 00c0 1B88     		ldrh	r3, [r3]
 1914 00c2 23F4F843 		bic	r3, r3, #31744
ARM GAS  /tmp/cclKfraO.s 			page 42


 1915 00c6 9AB2     		uxth	r2, r3
 1916 00c8 FB6A     		ldr	r3, [r7, #44]
 1917 00ca 1A80     		strh	r2, [r3]	@ movhi
 1918 00cc FB6A     		ldr	r3, [r7, #44]
 1919 00ce 1B88     		ldrh	r3, [r3]
 1920 00d0 6FEA4343 		mvn	r3, r3, lsl #17
 1921 00d4 6FEA5343 		mvn	r3, r3, lsr #17
 1922 00d8 9AB2     		uxth	r2, r3
 1923 00da FB6A     		ldr	r3, [r7, #44]
 1924 00dc 1A80     		strh	r2, [r3]	@ movhi
 1925 00de 3FE0     		b	.L83
 1926              	.L78:
 1927              		.loc 1 443 0 discriminator 4
 1928 00e0 BB6C     		ldr	r3, [r7, #72]
 1929 00e2 3E2B     		cmp	r3, #62
 1930 00e4 11D8     		bhi	.L80
 1931              		.loc 1 443 0 discriminator 5
 1932 00e6 BB6C     		ldr	r3, [r7, #72]
 1933 00e8 5B08     		lsrs	r3, r3, #1
 1934 00ea 7B64     		str	r3, [r7, #68]
 1935 00ec BB6C     		ldr	r3, [r7, #72]
 1936 00ee 03F00103 		and	r3, r3, #1
 1937 00f2 002B     		cmp	r3, #0
 1938 00f4 02D0     		beq	.L81
 1939              		.loc 1 443 0 discriminator 7
 1940 00f6 7B6C     		ldr	r3, [r7, #68]
 1941 00f8 0133     		adds	r3, r3, #1
 1942 00fa 7B64     		str	r3, [r7, #68]
 1943              	.L81:
 1944              		.loc 1 443 0 discriminator 9
 1945 00fc 7B6C     		ldr	r3, [r7, #68]
 1946 00fe 9BB2     		uxth	r3, r3
 1947 0100 9B02     		lsls	r3, r3, #10
 1948 0102 9AB2     		uxth	r2, r3
 1949 0104 FB6A     		ldr	r3, [r7, #44]
 1950 0106 1A80     		strh	r2, [r3]	@ movhi
 1951 0108 2AE0     		b	.L83
 1952              	.L80:
 1953              		.loc 1 443 0 discriminator 6
 1954 010a BB6C     		ldr	r3, [r7, #72]
 1955 010c 5B09     		lsrs	r3, r3, #5
 1956 010e 7B64     		str	r3, [r7, #68]
 1957 0110 BB6C     		ldr	r3, [r7, #72]
 1958 0112 03F01F03 		and	r3, r3, #31
 1959 0116 002B     		cmp	r3, #0
 1960 0118 02D1     		bne	.L82
 1961              		.loc 1 443 0 discriminator 10
 1962 011a 7B6C     		ldr	r3, [r7, #68]
 1963 011c 013B     		subs	r3, r3, #1
 1964 011e 7B64     		str	r3, [r7, #68]
 1965              	.L82:
 1966              		.loc 1 443 0 discriminator 12
 1967 0120 7B6C     		ldr	r3, [r7, #68]
 1968 0122 9BB2     		uxth	r3, r3
 1969 0124 9B02     		lsls	r3, r3, #10
 1970 0126 9BB2     		uxth	r3, r3
 1971 0128 6FEA4343 		mvn	r3, r3, lsl #17
ARM GAS  /tmp/cclKfraO.s 			page 43


 1972 012c 6FEA5343 		mvn	r3, r3, lsr #17
 1973 0130 9AB2     		uxth	r2, r3
 1974 0132 FB6A     		ldr	r3, [r7, #44]
 1975 0134 1A80     		strh	r2, [r3]	@ movhi
 1976 0136 13E0     		b	.L83
 1977              	.L77:
 1978              	.LBE55:
 1979              	.LBE54:
 1980              		.loc 1 443 0 discriminator 2
 1981 0138 3B68     		ldr	r3, [r7]
 1982 013a 5B78     		ldrb	r3, [r3, #1]	@ zero_extendqisi2
 1983 013c 012B     		cmp	r3, #1
 1984 013e 0FD1     		bne	.L83
 1985              		.loc 1 443 0 discriminator 13
 1986 0140 7B68     		ldr	r3, [r7, #4]
 1987 0142 B3F85030 		ldrh	r3, [r3, #80]	@ movhi
 1988 0146 9BB2     		uxth	r3, r3
 1989 0148 1C44     		add	r4, r4, r3
 1990 014a 3B68     		ldr	r3, [r7]
 1991 014c 1B78     		ldrb	r3, [r3]	@ zero_extendqisi2
 1992 014e 1B01     		lsls	r3, r3, #4
 1993 0150 2344     		add	r3, r3, r4
 1994 0152 03F20C43 		addw	r3, r3, #1036
 1995 0156 BB62     		str	r3, [r7, #40]
 1996 0158 BB6C     		ldr	r3, [r7, #72]
 1997 015a 9AB2     		uxth	r2, r3
 1998 015c BB6A     		ldr	r3, [r7, #40]
 1999 015e 1A80     		strh	r2, [r3]	@ movhi
 2000              	.L83:
 2001              	.LBE53:
 444:../Drivers/STM32F3xx_HAL_Driver/Src/stm32f3xx_ll_usb.c ****         pmabuffer = ep->pmaaddr1;
 2002              		.loc 1 444 0 is_stmt 1
 2003 0160 3B68     		ldr	r3, [r7]
 2004 0162 5B89     		ldrh	r3, [r3, #10]	@ movhi
 2005 0164 A7F84E30 		strh	r3, [r7, #78]	@ movhi
 2006 0168 69E0     		b	.L84
 2007              	.L76:
 445:../Drivers/STM32F3xx_HAL_Driver/Src/stm32f3xx_ll_usb.c ****       }
 446:../Drivers/STM32F3xx_HAL_Driver/Src/stm32f3xx_ll_usb.c ****       else
 447:../Drivers/STM32F3xx_HAL_Driver/Src/stm32f3xx_ll_usb.c ****       {
 448:../Drivers/STM32F3xx_HAL_Driver/Src/stm32f3xx_ll_usb.c ****         /* Set the Double buffer counter for pmabuffer0 */
 449:../Drivers/STM32F3xx_HAL_Driver/Src/stm32f3xx_ll_usb.c ****         PCD_SET_EP_DBUF0_CNT(USBx, ep->num, ep->is_in, len);
 2008              		.loc 1 449 0
 2009 016a 3B68     		ldr	r3, [r7]
 2010 016c 5B78     		ldrb	r3, [r3, #1]	@ zero_extendqisi2
 2011 016e 002B     		cmp	r3, #0
 2012 0170 4CD1     		bne	.L85
 2013              	.LBB56:
 2014              		.loc 1 449 0 is_stmt 0 discriminator 1
 2015 0172 7C68     		ldr	r4, [r7, #4]
 2016 0174 7B68     		ldr	r3, [r7, #4]
 2017 0176 B3F85030 		ldrh	r3, [r3, #80]	@ movhi
 2018 017a 9BB2     		uxth	r3, r3
 2019 017c 1C44     		add	r4, r4, r3
 2020 017e 3B68     		ldr	r3, [r7]
 2021 0180 1B78     		ldrb	r3, [r3]	@ zero_extendqisi2
 2022 0182 1B01     		lsls	r3, r3, #4
ARM GAS  /tmp/cclKfraO.s 			page 44


 2023 0184 2344     		add	r3, r3, r4
 2024 0186 03F20443 		addw	r3, r3, #1028
 2025 018a 7B62     		str	r3, [r7, #36]
 2026              	.LBB57:
 2027 018c BB6C     		ldr	r3, [r7, #72]
 2028 018e 002B     		cmp	r3, #0
 2029 0190 10D1     		bne	.L86
 2030              		.loc 1 449 0 discriminator 3
 2031 0192 7B6A     		ldr	r3, [r7, #36]
 2032 0194 1B88     		ldrh	r3, [r3]
 2033 0196 23F4F843 		bic	r3, r3, #31744
 2034 019a 9AB2     		uxth	r2, r3
 2035 019c 7B6A     		ldr	r3, [r7, #36]
 2036 019e 1A80     		strh	r2, [r3]	@ movhi
 2037 01a0 7B6A     		ldr	r3, [r7, #36]
 2038 01a2 1B88     		ldrh	r3, [r3]
 2039 01a4 6FEA4343 		mvn	r3, r3, lsl #17
 2040 01a8 6FEA5343 		mvn	r3, r3, lsr #17
 2041 01ac 9AB2     		uxth	r2, r3
 2042 01ae 7B6A     		ldr	r3, [r7, #36]
 2043 01b0 1A80     		strh	r2, [r3]	@ movhi
 2044 01b2 40E0     		b	.L91
 2045              	.L86:
 2046              		.loc 1 449 0 discriminator 4
 2047 01b4 BB6C     		ldr	r3, [r7, #72]
 2048 01b6 3E2B     		cmp	r3, #62
 2049 01b8 11D8     		bhi	.L88
 2050              		.loc 1 449 0 discriminator 5
 2051 01ba BB6C     		ldr	r3, [r7, #72]
 2052 01bc 5B08     		lsrs	r3, r3, #1
 2053 01be 3B64     		str	r3, [r7, #64]
 2054 01c0 BB6C     		ldr	r3, [r7, #72]
 2055 01c2 03F00103 		and	r3, r3, #1
 2056 01c6 002B     		cmp	r3, #0
 2057 01c8 02D0     		beq	.L89
 2058              		.loc 1 449 0 discriminator 7
 2059 01ca 3B6C     		ldr	r3, [r7, #64]
 2060 01cc 0133     		adds	r3, r3, #1
 2061 01ce 3B64     		str	r3, [r7, #64]
 2062              	.L89:
 2063              		.loc 1 449 0 discriminator 9
 2064 01d0 3B6C     		ldr	r3, [r7, #64]
 2065 01d2 9BB2     		uxth	r3, r3
 2066 01d4 9B02     		lsls	r3, r3, #10
 2067 01d6 9AB2     		uxth	r2, r3
 2068 01d8 7B6A     		ldr	r3, [r7, #36]
 2069 01da 1A80     		strh	r2, [r3]	@ movhi
 2070 01dc 2BE0     		b	.L91
 2071              	.L88:
 2072              		.loc 1 449 0 discriminator 6
 2073 01de BB6C     		ldr	r3, [r7, #72]
 2074 01e0 5B09     		lsrs	r3, r3, #5
 2075 01e2 3B64     		str	r3, [r7, #64]
 2076 01e4 BB6C     		ldr	r3, [r7, #72]
 2077 01e6 03F01F03 		and	r3, r3, #31
 2078 01ea 002B     		cmp	r3, #0
 2079 01ec 02D1     		bne	.L90
ARM GAS  /tmp/cclKfraO.s 			page 45


 2080              		.loc 1 449 0 discriminator 10
 2081 01ee 3B6C     		ldr	r3, [r7, #64]
 2082 01f0 013B     		subs	r3, r3, #1
 2083 01f2 3B64     		str	r3, [r7, #64]
 2084              	.L90:
 2085              		.loc 1 449 0 discriminator 12
 2086 01f4 3B6C     		ldr	r3, [r7, #64]
 2087 01f6 9BB2     		uxth	r3, r3
 2088 01f8 9B02     		lsls	r3, r3, #10
 2089 01fa 9BB2     		uxth	r3, r3
 2090 01fc 6FEA4343 		mvn	r3, r3, lsl #17
 2091 0200 6FEA5343 		mvn	r3, r3, lsr #17
 2092 0204 9AB2     		uxth	r2, r3
 2093 0206 7B6A     		ldr	r3, [r7, #36]
 2094 0208 1A80     		strh	r2, [r3]	@ movhi
 2095 020a 14E0     		b	.L91
 2096              	.L85:
 2097              	.LBE57:
 2098              	.LBE56:
 2099              		.loc 1 449 0 discriminator 2
 2100 020c 3B68     		ldr	r3, [r7]
 2101 020e 5B78     		ldrb	r3, [r3, #1]	@ zero_extendqisi2
 2102 0210 012B     		cmp	r3, #1
 2103 0212 10D1     		bne	.L91
 2104              	.LBB58:
 2105              		.loc 1 449 0 discriminator 13
 2106 0214 7C68     		ldr	r4, [r7, #4]
 2107 0216 7B68     		ldr	r3, [r7, #4]
 2108 0218 B3F85030 		ldrh	r3, [r3, #80]	@ movhi
 2109 021c 9BB2     		uxth	r3, r3
 2110 021e 1C44     		add	r4, r4, r3
 2111 0220 3B68     		ldr	r3, [r7]
 2112 0222 1B78     		ldrb	r3, [r3]	@ zero_extendqisi2
 2113 0224 1B01     		lsls	r3, r3, #4
 2114 0226 2344     		add	r3, r3, r4
 2115 0228 03F20443 		addw	r3, r3, #1028
 2116 022c 3B62     		str	r3, [r7, #32]
 2117 022e BB6C     		ldr	r3, [r7, #72]
 2118 0230 9AB2     		uxth	r2, r3
 2119 0232 3B6A     		ldr	r3, [r7, #32]
 2120 0234 1A80     		strh	r2, [r3]	@ movhi
 2121              	.L91:
 2122              	.LBE58:
 450:../Drivers/STM32F3xx_HAL_Driver/Src/stm32f3xx_ll_usb.c ****         pmabuffer = ep->pmaaddr0;
 2123              		.loc 1 450 0 is_stmt 1
 2124 0236 3B68     		ldr	r3, [r7]
 2125 0238 1B89     		ldrh	r3, [r3, #8]	@ movhi
 2126 023a A7F84E30 		strh	r3, [r7, #78]	@ movhi
 2127              	.L84:
 451:../Drivers/STM32F3xx_HAL_Driver/Src/stm32f3xx_ll_usb.c ****       }
 452:../Drivers/STM32F3xx_HAL_Driver/Src/stm32f3xx_ll_usb.c ****       USB_WritePMA(USBx, ep->xfer_buff, pmabuffer, (uint16_t)len);
 2128              		.loc 1 452 0
 2129 023e 3B68     		ldr	r3, [r7]
 2130 0240 5969     		ldr	r1, [r3, #20]
 2131 0242 BB6C     		ldr	r3, [r7, #72]
 2132 0244 9BB2     		uxth	r3, r3
 2133 0246 B7F84E20 		ldrh	r2, [r7, #78]
ARM GAS  /tmp/cclKfraO.s 			page 46


 2134 024a 7868     		ldr	r0, [r7, #4]
 2135 024c FFF7FEFF 		bl	USB_WritePMA
 453:../Drivers/STM32F3xx_HAL_Driver/Src/stm32f3xx_ll_usb.c ****       PCD_FreeUserBuffer(USBx, ep->num, ep->is_in);
 2136              		.loc 1 453 0
 2137 0250 3B68     		ldr	r3, [r7]
 2138 0252 5B78     		ldrb	r3, [r3, #1]	@ zero_extendqisi2
 2139 0254 002B     		cmp	r3, #0
 2140 0256 15D1     		bne	.L92
 2141              	.LBB59:
 2142              		.loc 1 453 0 is_stmt 0 discriminator 1
 2143 0258 7A68     		ldr	r2, [r7, #4]
 2144 025a 3B68     		ldr	r3, [r7]
 2145 025c 1B78     		ldrb	r3, [r3]	@ zero_extendqisi2
 2146 025e 9B00     		lsls	r3, r3, #2
 2147 0260 1344     		add	r3, r3, r2
 2148 0262 1B88     		ldrh	r3, [r3]	@ movhi
 2149 0264 9BB2     		uxth	r3, r3
 2150 0266 23F4E043 		bic	r3, r3, #28672
 2151 026a 23F07003 		bic	r3, r3, #112
 2152 026e 9CB2     		uxth	r4, r3
 2153 0270 7A68     		ldr	r2, [r7, #4]
 2154 0272 3B68     		ldr	r3, [r7]
 2155 0274 1B78     		ldrb	r3, [r3]	@ zero_extendqisi2
 2156 0276 9B00     		lsls	r3, r3, #2
 2157 0278 1A44     		add	r2, r2, r3
 2158 027a 964B     		ldr	r3, .L117
 2159 027c 2343     		orrs	r3, r3, r4
 2160 027e 9BB2     		uxth	r3, r3
 2161 0280 1380     		strh	r3, [r2]	@ movhi
 2162              	.LBE59:
 2163 0282 18E0     		b	.L75
 2164              	.L92:
 2165              		.loc 1 453 0 discriminator 2
 2166 0284 3B68     		ldr	r3, [r7]
 2167 0286 5B78     		ldrb	r3, [r3, #1]	@ zero_extendqisi2
 2168 0288 012B     		cmp	r3, #1
 2169 028a 14D1     		bne	.L75
 2170              	.LBB60:
 2171              		.loc 1 453 0 discriminator 3
 2172 028c 7A68     		ldr	r2, [r7, #4]
 2173 028e 3B68     		ldr	r3, [r7]
 2174 0290 1B78     		ldrb	r3, [r3]	@ zero_extendqisi2
 2175 0292 9B00     		lsls	r3, r3, #2
 2176 0294 1344     		add	r3, r3, r2
 2177 0296 1B88     		ldrh	r3, [r3]	@ movhi
 2178 0298 9BB2     		uxth	r3, r3
 2179 029a 23F4E043 		bic	r3, r3, #28672
 2180 029e 23F07003 		bic	r3, r3, #112
 2181 02a2 9CB2     		uxth	r4, r3
 2182 02a4 7A68     		ldr	r2, [r7, #4]
 2183 02a6 3B68     		ldr	r3, [r7]
 2184 02a8 1B78     		ldrb	r3, [r3]	@ zero_extendqisi2
 2185 02aa 9B00     		lsls	r3, r3, #2
 2186 02ac 1A44     		add	r2, r2, r3
 2187 02ae 8A4B     		ldr	r3, .L117+4
 2188 02b0 2343     		orrs	r3, r3, r4
 2189 02b2 9BB2     		uxth	r3, r3
ARM GAS  /tmp/cclKfraO.s 			page 47


 2190 02b4 1380     		strh	r3, [r2]	@ movhi
 2191              	.L75:
 2192              	.LBE60:
 2193              	.LBB61:
 454:../Drivers/STM32F3xx_HAL_Driver/Src/stm32f3xx_ll_usb.c ****     }
 455:../Drivers/STM32F3xx_HAL_Driver/Src/stm32f3xx_ll_usb.c **** 
 456:../Drivers/STM32F3xx_HAL_Driver/Src/stm32f3xx_ll_usb.c ****     PCD_SET_EP_TX_STATUS(USBx, ep->num, USB_EP_TX_VALID);
 2194              		.loc 1 456 0 is_stmt 1
 2195 02b6 7A68     		ldr	r2, [r7, #4]
 2196 02b8 3B68     		ldr	r3, [r7]
 2197 02ba 1B78     		ldrb	r3, [r3]	@ zero_extendqisi2
 2198 02bc 9B00     		lsls	r3, r3, #2
 2199 02be 1344     		add	r3, r3, r2
 2200 02c0 1B88     		ldrh	r3, [r3]	@ movhi
 2201 02c2 9BB2     		uxth	r3, r3
 2202 02c4 23F4E043 		bic	r3, r3, #28672
 2203 02c8 23F04003 		bic	r3, r3, #64
 2204 02cc 9CB2     		uxth	r4, r3
 2205 02ce 84F01003 		eor	r3, r4, #16
 2206 02d2 9CB2     		uxth	r4, r3
 2207 02d4 84F02003 		eor	r3, r4, #32
 2208 02d8 9CB2     		uxth	r4, r3
 2209 02da 7A68     		ldr	r2, [r7, #4]
 2210 02dc 3B68     		ldr	r3, [r7]
 2211 02de 1B78     		ldrb	r3, [r3]	@ zero_extendqisi2
 2212 02e0 9B00     		lsls	r3, r3, #2
 2213 02e2 1A44     		add	r2, r2, r3
 2214 02e4 7D4B     		ldr	r3, .L117+8
 2215 02e6 2343     		orrs	r3, r3, r4
 2216 02e8 9BB2     		uxth	r3, r3
 2217 02ea 1380     		strh	r3, [r2]	@ movhi
 2218              	.LBE61:
 2219 02ec 53E1     		b	.L93
 2220              	.L71:
 457:../Drivers/STM32F3xx_HAL_Driver/Src/stm32f3xx_ll_usb.c ****   }
 458:../Drivers/STM32F3xx_HAL_Driver/Src/stm32f3xx_ll_usb.c ****   else /* OUT endpoint */
 459:../Drivers/STM32F3xx_HAL_Driver/Src/stm32f3xx_ll_usb.c ****   {
 460:../Drivers/STM32F3xx_HAL_Driver/Src/stm32f3xx_ll_usb.c ****     /* Multi packet transfer*/
 461:../Drivers/STM32F3xx_HAL_Driver/Src/stm32f3xx_ll_usb.c ****     if (ep->xfer_len > ep->maxpacket)
 2221              		.loc 1 461 0
 2222 02ee 3B68     		ldr	r3, [r7]
 2223 02f0 9A69     		ldr	r2, [r3, #24]
 2224 02f2 3B68     		ldr	r3, [r7]
 2225 02f4 1B69     		ldr	r3, [r3, #16]
 2226 02f6 9A42     		cmp	r2, r3
 2227 02f8 09D9     		bls	.L94
 462:../Drivers/STM32F3xx_HAL_Driver/Src/stm32f3xx_ll_usb.c ****     {
 463:../Drivers/STM32F3xx_HAL_Driver/Src/stm32f3xx_ll_usb.c ****       len = ep->maxpacket;
 2228              		.loc 1 463 0
 2229 02fa 3B68     		ldr	r3, [r7]
 2230 02fc 1B69     		ldr	r3, [r3, #16]
 2231 02fe BB64     		str	r3, [r7, #72]
 464:../Drivers/STM32F3xx_HAL_Driver/Src/stm32f3xx_ll_usb.c ****       ep->xfer_len -= len;
 2232              		.loc 1 464 0
 2233 0300 3B68     		ldr	r3, [r7]
 2234 0302 9A69     		ldr	r2, [r3, #24]
 2235 0304 BB6C     		ldr	r3, [r7, #72]
ARM GAS  /tmp/cclKfraO.s 			page 48


 2236 0306 D21A     		subs	r2, r2, r3
 2237 0308 3B68     		ldr	r3, [r7]
 2238 030a 9A61     		str	r2, [r3, #24]
 2239 030c 05E0     		b	.L95
 2240              	.L94:
 465:../Drivers/STM32F3xx_HAL_Driver/Src/stm32f3xx_ll_usb.c ****     }
 466:../Drivers/STM32F3xx_HAL_Driver/Src/stm32f3xx_ll_usb.c ****     else
 467:../Drivers/STM32F3xx_HAL_Driver/Src/stm32f3xx_ll_usb.c ****     {
 468:../Drivers/STM32F3xx_HAL_Driver/Src/stm32f3xx_ll_usb.c ****       len = ep->xfer_len;
 2241              		.loc 1 468 0
 2242 030e 3B68     		ldr	r3, [r7]
 2243 0310 9B69     		ldr	r3, [r3, #24]
 2244 0312 BB64     		str	r3, [r7, #72]
 469:../Drivers/STM32F3xx_HAL_Driver/Src/stm32f3xx_ll_usb.c ****       ep->xfer_len = 0U;
 2245              		.loc 1 469 0
 2246 0314 3B68     		ldr	r3, [r7]
 2247 0316 0022     		movs	r2, #0
 2248 0318 9A61     		str	r2, [r3, #24]
 2249              	.L95:
 470:../Drivers/STM32F3xx_HAL_Driver/Src/stm32f3xx_ll_usb.c ****     }
 471:../Drivers/STM32F3xx_HAL_Driver/Src/stm32f3xx_ll_usb.c **** 
 472:../Drivers/STM32F3xx_HAL_Driver/Src/stm32f3xx_ll_usb.c ****     /* configure and validate Rx endpoint */
 473:../Drivers/STM32F3xx_HAL_Driver/Src/stm32f3xx_ll_usb.c ****     if (ep->doublebuffer == 0U)
 2250              		.loc 1 473 0
 2251 031a 3B68     		ldr	r3, [r7]
 2252 031c 1B7B     		ldrb	r3, [r3, #12]	@ zero_extendqisi2
 2253 031e 002B     		cmp	r3, #0
 2254 0320 4CD1     		bne	.L96
 2255              	.LBB62:
 474:../Drivers/STM32F3xx_HAL_Driver/Src/stm32f3xx_ll_usb.c ****     {
 475:../Drivers/STM32F3xx_HAL_Driver/Src/stm32f3xx_ll_usb.c ****       /*Set RX buffer count*/
 476:../Drivers/STM32F3xx_HAL_Driver/Src/stm32f3xx_ll_usb.c ****       PCD_SET_EP_RX_CNT(USBx, ep->num, len);
 2256              		.loc 1 476 0
 2257 0322 7C68     		ldr	r4, [r7, #4]
 2258 0324 7B68     		ldr	r3, [r7, #4]
 2259 0326 B3F85030 		ldrh	r3, [r3, #80]	@ movhi
 2260 032a 9BB2     		uxth	r3, r3
 2261 032c 1C44     		add	r4, r4, r3
 2262 032e 3B68     		ldr	r3, [r7]
 2263 0330 1B78     		ldrb	r3, [r3]	@ zero_extendqisi2
 2264 0332 1B01     		lsls	r3, r3, #4
 2265 0334 2344     		add	r3, r3, r4
 2266 0336 03F20C43 		addw	r3, r3, #1036
 2267 033a FB61     		str	r3, [r7, #28]
 2268              	.LBB63:
 2269 033c BB6C     		ldr	r3, [r7, #72]
 2270 033e 002B     		cmp	r3, #0
 2271 0340 10D1     		bne	.L97
 2272              		.loc 1 476 0 is_stmt 0 discriminator 1
 2273 0342 FB69     		ldr	r3, [r7, #28]
 2274 0344 1B88     		ldrh	r3, [r3]
 2275 0346 23F4F843 		bic	r3, r3, #31744
 2276 034a 9AB2     		uxth	r2, r3
 2277 034c FB69     		ldr	r3, [r7, #28]
 2278 034e 1A80     		strh	r2, [r3]	@ movhi
 2279 0350 FB69     		ldr	r3, [r7, #28]
 2280 0352 1B88     		ldrh	r3, [r3]
ARM GAS  /tmp/cclKfraO.s 			page 49


 2281 0354 6FEA4343 		mvn	r3, r3, lsl #17
 2282 0358 6FEA5343 		mvn	r3, r3, lsr #17
 2283 035c 9AB2     		uxth	r2, r3
 2284 035e FB69     		ldr	r3, [r7, #28]
 2285 0360 1A80     		strh	r2, [r3]	@ movhi
 2286 0362 FDE0     		b	.L102
 2287              	.L97:
 2288              		.loc 1 476 0 discriminator 2
 2289 0364 BB6C     		ldr	r3, [r7, #72]
 2290 0366 3E2B     		cmp	r3, #62
 2291 0368 11D8     		bhi	.L99
 2292              		.loc 1 476 0 discriminator 3
 2293 036a BB6C     		ldr	r3, [r7, #72]
 2294 036c 5B08     		lsrs	r3, r3, #1
 2295 036e FB63     		str	r3, [r7, #60]
 2296 0370 BB6C     		ldr	r3, [r7, #72]
 2297 0372 03F00103 		and	r3, r3, #1
 2298 0376 002B     		cmp	r3, #0
 2299 0378 02D0     		beq	.L100
 2300              		.loc 1 476 0 discriminator 5
 2301 037a FB6B     		ldr	r3, [r7, #60]
 2302 037c 0133     		adds	r3, r3, #1
 2303 037e FB63     		str	r3, [r7, #60]
 2304              	.L100:
 2305              		.loc 1 476 0 discriminator 7
 2306 0380 FB6B     		ldr	r3, [r7, #60]
 2307 0382 9BB2     		uxth	r3, r3
 2308 0384 9B02     		lsls	r3, r3, #10
 2309 0386 9AB2     		uxth	r2, r3
 2310 0388 FB69     		ldr	r3, [r7, #28]
 2311 038a 1A80     		strh	r2, [r3]	@ movhi
 2312 038c E8E0     		b	.L102
 2313              	.L99:
 2314              		.loc 1 476 0 discriminator 4
 2315 038e BB6C     		ldr	r3, [r7, #72]
 2316 0390 5B09     		lsrs	r3, r3, #5
 2317 0392 FB63     		str	r3, [r7, #60]
 2318 0394 BB6C     		ldr	r3, [r7, #72]
 2319 0396 03F01F03 		and	r3, r3, #31
 2320 039a 002B     		cmp	r3, #0
 2321 039c 02D1     		bne	.L101
 2322              		.loc 1 476 0 discriminator 8
 2323 039e FB6B     		ldr	r3, [r7, #60]
 2324 03a0 013B     		subs	r3, r3, #1
 2325 03a2 FB63     		str	r3, [r7, #60]
 2326              	.L101:
 2327              		.loc 1 476 0 discriminator 10
 2328 03a4 FB6B     		ldr	r3, [r7, #60]
 2329 03a6 9BB2     		uxth	r3, r3
 2330 03a8 9B02     		lsls	r3, r3, #10
 2331 03aa 9BB2     		uxth	r3, r3
 2332 03ac 6FEA4343 		mvn	r3, r3, lsl #17
 2333 03b0 6FEA5343 		mvn	r3, r3, lsr #17
 2334 03b4 9AB2     		uxth	r2, r3
 2335 03b6 FB69     		ldr	r3, [r7, #28]
 2336 03b8 1A80     		strh	r2, [r3]	@ movhi
 2337 03ba D1E0     		b	.L102
ARM GAS  /tmp/cclKfraO.s 			page 50


 2338              	.L96:
 2339              	.LBE63:
 2340              	.LBE62:
 477:../Drivers/STM32F3xx_HAL_Driver/Src/stm32f3xx_ll_usb.c ****     }
 478:../Drivers/STM32F3xx_HAL_Driver/Src/stm32f3xx_ll_usb.c ****     else
 479:../Drivers/STM32F3xx_HAL_Driver/Src/stm32f3xx_ll_usb.c ****     {
 480:../Drivers/STM32F3xx_HAL_Driver/Src/stm32f3xx_ll_usb.c ****       /*Set the Double buffer counter*/
 481:../Drivers/STM32F3xx_HAL_Driver/Src/stm32f3xx_ll_usb.c ****       PCD_SET_EP_DBUF_CNT(USBx, ep->num, ep->is_in, len);
 2341              		.loc 1 481 0 is_stmt 1
 2342 03bc 3B68     		ldr	r3, [r7]
 2343 03be 5B78     		ldrb	r3, [r3, #1]	@ zero_extendqisi2
 2344 03c0 002B     		cmp	r3, #0
 2345 03c2 4CD1     		bne	.L103
 2346              	.LBB64:
 2347              		.loc 1 481 0 is_stmt 0 discriminator 1
 2348 03c4 7C68     		ldr	r4, [r7, #4]
 2349 03c6 7B68     		ldr	r3, [r7, #4]
 2350 03c8 B3F85030 		ldrh	r3, [r3, #80]	@ movhi
 2351 03cc 9BB2     		uxth	r3, r3
 2352 03ce 1C44     		add	r4, r4, r3
 2353 03d0 3B68     		ldr	r3, [r7]
 2354 03d2 1B78     		ldrb	r3, [r3]	@ zero_extendqisi2
 2355 03d4 1B01     		lsls	r3, r3, #4
 2356 03d6 2344     		add	r3, r3, r4
 2357 03d8 03F20443 		addw	r3, r3, #1028
 2358 03dc BB61     		str	r3, [r7, #24]
 2359              	.LBB65:
 2360 03de BB6C     		ldr	r3, [r7, #72]
 2361 03e0 002B     		cmp	r3, #0
 2362 03e2 10D1     		bne	.L104
 2363              		.loc 1 481 0 discriminator 3
 2364 03e4 BB69     		ldr	r3, [r7, #24]
 2365 03e6 1B88     		ldrh	r3, [r3]
 2366 03e8 23F4F843 		bic	r3, r3, #31744
 2367 03ec 9AB2     		uxth	r2, r3
 2368 03ee BB69     		ldr	r3, [r7, #24]
 2369 03f0 1A80     		strh	r2, [r3]	@ movhi
 2370 03f2 BB69     		ldr	r3, [r7, #24]
 2371 03f4 1B88     		ldrh	r3, [r3]
 2372 03f6 6FEA4343 		mvn	r3, r3, lsl #17
 2373 03fa 6FEA5343 		mvn	r3, r3, lsr #17
 2374 03fe 9AB2     		uxth	r2, r3
 2375 0400 BB69     		ldr	r3, [r7, #24]
 2376 0402 1A80     		strh	r2, [r3]	@ movhi
 2377 0404 40E0     		b	.L109
 2378              	.L104:
 2379              		.loc 1 481 0 discriminator 4
 2380 0406 BB6C     		ldr	r3, [r7, #72]
 2381 0408 3E2B     		cmp	r3, #62
 2382 040a 11D8     		bhi	.L106
 2383              		.loc 1 481 0 discriminator 5
 2384 040c BB6C     		ldr	r3, [r7, #72]
 2385 040e 5B08     		lsrs	r3, r3, #1
 2386 0410 BB63     		str	r3, [r7, #56]
 2387 0412 BB6C     		ldr	r3, [r7, #72]
 2388 0414 03F00103 		and	r3, r3, #1
 2389 0418 002B     		cmp	r3, #0
ARM GAS  /tmp/cclKfraO.s 			page 51


 2390 041a 02D0     		beq	.L107
 2391              		.loc 1 481 0 discriminator 7
 2392 041c BB6B     		ldr	r3, [r7, #56]
 2393 041e 0133     		adds	r3, r3, #1
 2394 0420 BB63     		str	r3, [r7, #56]
 2395              	.L107:
 2396              		.loc 1 481 0 discriminator 9
 2397 0422 BB6B     		ldr	r3, [r7, #56]
 2398 0424 9BB2     		uxth	r3, r3
 2399 0426 9B02     		lsls	r3, r3, #10
 2400 0428 9AB2     		uxth	r2, r3
 2401 042a BB69     		ldr	r3, [r7, #24]
 2402 042c 1A80     		strh	r2, [r3]	@ movhi
 2403 042e 2BE0     		b	.L109
 2404              	.L106:
 2405              		.loc 1 481 0 discriminator 6
 2406 0430 BB6C     		ldr	r3, [r7, #72]
 2407 0432 5B09     		lsrs	r3, r3, #5
 2408 0434 BB63     		str	r3, [r7, #56]
 2409 0436 BB6C     		ldr	r3, [r7, #72]
 2410 0438 03F01F03 		and	r3, r3, #31
 2411 043c 002B     		cmp	r3, #0
 2412 043e 02D1     		bne	.L108
 2413              		.loc 1 481 0 discriminator 10
 2414 0440 BB6B     		ldr	r3, [r7, #56]
 2415 0442 013B     		subs	r3, r3, #1
 2416 0444 BB63     		str	r3, [r7, #56]
 2417              	.L108:
 2418              		.loc 1 481 0 discriminator 12
 2419 0446 BB6B     		ldr	r3, [r7, #56]
 2420 0448 9BB2     		uxth	r3, r3
 2421 044a 9B02     		lsls	r3, r3, #10
 2422 044c 9BB2     		uxth	r3, r3
 2423 044e 6FEA4343 		mvn	r3, r3, lsl #17
 2424 0452 6FEA5343 		mvn	r3, r3, lsr #17
 2425 0456 9AB2     		uxth	r2, r3
 2426 0458 BB69     		ldr	r3, [r7, #24]
 2427 045a 1A80     		strh	r2, [r3]	@ movhi
 2428 045c 14E0     		b	.L109
 2429              	.L103:
 2430              	.LBE65:
 2431              	.LBE64:
 2432              		.loc 1 481 0 discriminator 2
 2433 045e 3B68     		ldr	r3, [r7]
 2434 0460 5B78     		ldrb	r3, [r3, #1]	@ zero_extendqisi2
 2435 0462 012B     		cmp	r3, #1
 2436 0464 10D1     		bne	.L109
 2437              	.LBB66:
 2438              		.loc 1 481 0 discriminator 13
 2439 0466 7C68     		ldr	r4, [r7, #4]
 2440 0468 7B68     		ldr	r3, [r7, #4]
 2441 046a B3F85030 		ldrh	r3, [r3, #80]	@ movhi
 2442 046e 9BB2     		uxth	r3, r3
 2443 0470 1C44     		add	r4, r4, r3
 2444 0472 3B68     		ldr	r3, [r7]
 2445 0474 1B78     		ldrb	r3, [r3]	@ zero_extendqisi2
 2446 0476 1B01     		lsls	r3, r3, #4
ARM GAS  /tmp/cclKfraO.s 			page 52


 2447 0478 2344     		add	r3, r3, r4
 2448 047a 03F20443 		addw	r3, r3, #1028
 2449 047e 7B61     		str	r3, [r7, #20]
 2450 0480 BB6C     		ldr	r3, [r7, #72]
 2451 0482 9AB2     		uxth	r2, r3
 2452 0484 7B69     		ldr	r3, [r7, #20]
 2453 0486 1A80     		strh	r2, [r3]	@ movhi
 2454              	.L109:
 2455              	.LBE66:
 2456              	.LBB67:
 2457              		.loc 1 481 0 discriminator 15
 2458 0488 7C68     		ldr	r4, [r7, #4]
 2459 048a 3B68     		ldr	r3, [r7]
 2460 048c 5B78     		ldrb	r3, [r3, #1]	@ zero_extendqisi2
 2461 048e 002B     		cmp	r3, #0
 2462 0490 52D1     		bne	.L110
 2463              	.LBB68:
 2464              		.loc 1 481 0 discriminator 16
 2465 0492 7C68     		ldr	r4, [r7, #4]
 2466 0494 7B68     		ldr	r3, [r7, #4]
 2467 0496 B3F85030 		ldrh	r3, [r3, #80]	@ movhi
 2468 049a 9BB2     		uxth	r3, r3
 2469 049c 1C44     		add	r4, r4, r3
 2470 049e 3B68     		ldr	r3, [r7]
 2471 04a0 1B78     		ldrb	r3, [r3]	@ zero_extendqisi2
 2472 04a2 1B01     		lsls	r3, r3, #4
 2473 04a4 2344     		add	r3, r3, r4
 2474 04a6 03F20C43 		addw	r3, r3, #1036
 2475 04aa 3B61     		str	r3, [r7, #16]
 2476              	.LBB69:
 2477 04ac BB6C     		ldr	r3, [r7, #72]
 2478 04ae 002B     		cmp	r3, #0
 2479 04b0 16D1     		bne	.L111
 2480              		.loc 1 481 0 discriminator 18
 2481 04b2 3B69     		ldr	r3, [r7, #16]
 2482 04b4 1B88     		ldrh	r3, [r3]
 2483 04b6 23F4F843 		bic	r3, r3, #31744
 2484 04ba 9AB2     		uxth	r2, r3
 2485 04bc 3B69     		ldr	r3, [r7, #16]
 2486 04be 1A80     		strh	r2, [r3]	@ movhi
 2487 04c0 3B69     		ldr	r3, [r7, #16]
 2488 04c2 1B88     		ldrh	r3, [r3]
 2489 04c4 6FEA4343 		mvn	r3, r3, lsl #17
 2490 04c8 6FEA5343 		mvn	r3, r3, lsr #17
 2491 04cc 9AB2     		uxth	r2, r3
 2492 04ce 3B69     		ldr	r3, [r7, #16]
 2493 04d0 1A80     		strh	r2, [r3]	@ movhi
 2494 04d2 45E0     		b	.L102
 2495              	.L118:
 2496              		.align	2
 2497              	.L117:
 2498 04d4 C080FFFF 		.word	-32576
 2499 04d8 80C0FFFF 		.word	-16256
 2500 04dc 8080FFFF 		.word	-32640
 2501              	.L111:
 2502              		.loc 1 481 0 discriminator 19
 2503 04e0 BB6C     		ldr	r3, [r7, #72]
ARM GAS  /tmp/cclKfraO.s 			page 53


 2504 04e2 3E2B     		cmp	r3, #62
 2505 04e4 11D8     		bhi	.L113
 2506              		.loc 1 481 0 discriminator 20
 2507 04e6 BB6C     		ldr	r3, [r7, #72]
 2508 04e8 5B08     		lsrs	r3, r3, #1
 2509 04ea 7B63     		str	r3, [r7, #52]
 2510 04ec BB6C     		ldr	r3, [r7, #72]
 2511 04ee 03F00103 		and	r3, r3, #1
 2512 04f2 002B     		cmp	r3, #0
 2513 04f4 02D0     		beq	.L114
 2514              		.loc 1 481 0 discriminator 22
 2515 04f6 7B6B     		ldr	r3, [r7, #52]
 2516 04f8 0133     		adds	r3, r3, #1
 2517 04fa 7B63     		str	r3, [r7, #52]
 2518              	.L114:
 2519              		.loc 1 481 0 discriminator 24
 2520 04fc 7B6B     		ldr	r3, [r7, #52]
 2521 04fe 9BB2     		uxth	r3, r3
 2522 0500 9B02     		lsls	r3, r3, #10
 2523 0502 9AB2     		uxth	r2, r3
 2524 0504 3B69     		ldr	r3, [r7, #16]
 2525 0506 1A80     		strh	r2, [r3]	@ movhi
 2526 0508 2AE0     		b	.L102
 2527              	.L113:
 2528              		.loc 1 481 0 discriminator 21
 2529 050a BB6C     		ldr	r3, [r7, #72]
 2530 050c 5B09     		lsrs	r3, r3, #5
 2531 050e 7B63     		str	r3, [r7, #52]
 2532 0510 BB6C     		ldr	r3, [r7, #72]
 2533 0512 03F01F03 		and	r3, r3, #31
 2534 0516 002B     		cmp	r3, #0
 2535 0518 02D1     		bne	.L115
 2536              		.loc 1 481 0 discriminator 25
 2537 051a 7B6B     		ldr	r3, [r7, #52]
 2538 051c 013B     		subs	r3, r3, #1
 2539 051e 7B63     		str	r3, [r7, #52]
 2540              	.L115:
 2541              		.loc 1 481 0 discriminator 27
 2542 0520 7B6B     		ldr	r3, [r7, #52]
 2543 0522 9BB2     		uxth	r3, r3
 2544 0524 9B02     		lsls	r3, r3, #10
 2545 0526 9BB2     		uxth	r3, r3
 2546 0528 6FEA4343 		mvn	r3, r3, lsl #17
 2547 052c 6FEA5343 		mvn	r3, r3, lsr #17
 2548 0530 9AB2     		uxth	r2, r3
 2549 0532 3B69     		ldr	r3, [r7, #16]
 2550 0534 1A80     		strh	r2, [r3]	@ movhi
 2551 0536 13E0     		b	.L102
 2552              	.L110:
 2553              	.LBE69:
 2554              	.LBE68:
 2555              		.loc 1 481 0 discriminator 17
 2556 0538 3B68     		ldr	r3, [r7]
 2557 053a 5B78     		ldrb	r3, [r3, #1]	@ zero_extendqisi2
 2558 053c 012B     		cmp	r3, #1
 2559 053e 0FD1     		bne	.L102
 2560              		.loc 1 481 0 discriminator 28
ARM GAS  /tmp/cclKfraO.s 			page 54


 2561 0540 7B68     		ldr	r3, [r7, #4]
 2562 0542 B3F85030 		ldrh	r3, [r3, #80]	@ movhi
 2563 0546 9BB2     		uxth	r3, r3
 2564 0548 1C44     		add	r4, r4, r3
 2565 054a 3B68     		ldr	r3, [r7]
 2566 054c 1B78     		ldrb	r3, [r3]	@ zero_extendqisi2
 2567 054e 1B01     		lsls	r3, r3, #4
 2568 0550 2344     		add	r3, r3, r4
 2569 0552 03F20C43 		addw	r3, r3, #1036
 2570 0556 FB60     		str	r3, [r7, #12]
 2571 0558 BB6C     		ldr	r3, [r7, #72]
 2572 055a 9AB2     		uxth	r2, r3
 2573 055c FB68     		ldr	r3, [r7, #12]
 2574 055e 1A80     		strh	r2, [r3]	@ movhi
 2575              	.L102:
 2576              	.LBE67:
 2577              	.LBB70:
 482:../Drivers/STM32F3xx_HAL_Driver/Src/stm32f3xx_ll_usb.c ****     }
 483:../Drivers/STM32F3xx_HAL_Driver/Src/stm32f3xx_ll_usb.c **** 
 484:../Drivers/STM32F3xx_HAL_Driver/Src/stm32f3xx_ll_usb.c ****     PCD_SET_EP_RX_STATUS(USBx, ep->num, USB_EP_RX_VALID);
 2578              		.loc 1 484 0 is_stmt 1
 2579 0560 7A68     		ldr	r2, [r7, #4]
 2580 0562 3B68     		ldr	r3, [r7]
 2581 0564 1B78     		ldrb	r3, [r3]	@ zero_extendqisi2
 2582 0566 9B00     		lsls	r3, r3, #2
 2583 0568 1344     		add	r3, r3, r2
 2584 056a 1B88     		ldrh	r3, [r3]	@ movhi
 2585 056c 9BB2     		uxth	r3, r3
 2586 056e 23F48043 		bic	r3, r3, #16384
 2587 0572 23F07003 		bic	r3, r3, #112
 2588 0576 9CB2     		uxth	r4, r3
 2589 0578 84F48053 		eor	r3, r4, #4096
 2590 057c 9CB2     		uxth	r4, r3
 2591 057e 84F40053 		eor	r3, r4, #8192
 2592 0582 9CB2     		uxth	r4, r3
 2593 0584 7A68     		ldr	r2, [r7, #4]
 2594 0586 3B68     		ldr	r3, [r7]
 2595 0588 1B78     		ldrb	r3, [r3]	@ zero_extendqisi2
 2596 058a 9B00     		lsls	r3, r3, #2
 2597 058c 1A44     		add	r2, r2, r3
 2598 058e 044B     		ldr	r3, .L119
 2599 0590 2343     		orrs	r3, r3, r4
 2600 0592 9BB2     		uxth	r3, r3
 2601 0594 1380     		strh	r3, [r2]	@ movhi
 2602              	.L93:
 2603              	.LBE70:
 485:../Drivers/STM32F3xx_HAL_Driver/Src/stm32f3xx_ll_usb.c ****   }
 486:../Drivers/STM32F3xx_HAL_Driver/Src/stm32f3xx_ll_usb.c **** 
 487:../Drivers/STM32F3xx_HAL_Driver/Src/stm32f3xx_ll_usb.c ****   return HAL_OK;
 2604              		.loc 1 487 0
 2605 0596 0023     		movs	r3, #0
 488:../Drivers/STM32F3xx_HAL_Driver/Src/stm32f3xx_ll_usb.c **** }
 2606              		.loc 1 488 0
 2607 0598 1846     		mov	r0, r3
 2608 059a 5437     		adds	r7, r7, #84
 2609              	.LCFI67:
 2610              		.cfi_def_cfa_offset 12
ARM GAS  /tmp/cclKfraO.s 			page 55


 2611 059c BD46     		mov	sp, r7
 2612              	.LCFI68:
 2613              		.cfi_def_cfa_register 13
 2614              		@ sp needed
 2615 059e 90BD     		pop	{r4, r7, pc}
 2616              	.L120:
 2617              		.align	2
 2618              	.L119:
 2619 05a0 8080FFFF 		.word	-32640
 2620              		.cfi_endproc
 2621              	.LFE140:
 2623              		.section	.text.USB_WritePacket,"ax",%progbits
 2624              		.align	1
 2625              		.global	USB_WritePacket
 2626              		.syntax unified
 2627              		.thumb
 2628              		.thumb_func
 2629              		.fpu fpv4-sp-d16
 2631              	USB_WritePacket:
 2632              	.LFB141:
 489:../Drivers/STM32F3xx_HAL_Driver/Src/stm32f3xx_ll_usb.c **** 
 490:../Drivers/STM32F3xx_HAL_Driver/Src/stm32f3xx_ll_usb.c **** /**
 491:../Drivers/STM32F3xx_HAL_Driver/Src/stm32f3xx_ll_usb.c ****   * @brief  USB_WritePacket : Writes a packet into the Tx FIFO associated
 492:../Drivers/STM32F3xx_HAL_Driver/Src/stm32f3xx_ll_usb.c ****   *         with the EP/channel
 493:../Drivers/STM32F3xx_HAL_Driver/Src/stm32f3xx_ll_usb.c ****   * @param  USBx : Selected device
 494:../Drivers/STM32F3xx_HAL_Driver/Src/stm32f3xx_ll_usb.c ****   * @param  src :  pointer to source buffer
 495:../Drivers/STM32F3xx_HAL_Driver/Src/stm32f3xx_ll_usb.c ****   * @param  ch_ep_num : endpoint or host channel number
 496:../Drivers/STM32F3xx_HAL_Driver/Src/stm32f3xx_ll_usb.c ****   * @param  len : Number of bytes to write
 497:../Drivers/STM32F3xx_HAL_Driver/Src/stm32f3xx_ll_usb.c ****   * @retval HAL status
 498:../Drivers/STM32F3xx_HAL_Driver/Src/stm32f3xx_ll_usb.c ****   */
 499:../Drivers/STM32F3xx_HAL_Driver/Src/stm32f3xx_ll_usb.c **** HAL_StatusTypeDef USB_WritePacket(USB_TypeDef *USBx, uint8_t *src, uint8_t ch_ep_num, uint16_t len)
 500:../Drivers/STM32F3xx_HAL_Driver/Src/stm32f3xx_ll_usb.c **** {
 2633              		.loc 1 500 0
 2634              		.cfi_startproc
 2635              		@ args = 0, pretend = 0, frame = 16
 2636              		@ frame_needed = 1, uses_anonymous_args = 0
 2637              		@ link register save eliminated.
 2638 0000 80B4     		push	{r7}
 2639              	.LCFI69:
 2640              		.cfi_def_cfa_offset 4
 2641              		.cfi_offset 7, -4
 2642 0002 85B0     		sub	sp, sp, #20
 2643              	.LCFI70:
 2644              		.cfi_def_cfa_offset 24
 2645 0004 00AF     		add	r7, sp, #0
 2646              	.LCFI71:
 2647              		.cfi_def_cfa_register 7
 2648 0006 F860     		str	r0, [r7, #12]
 2649 0008 B960     		str	r1, [r7, #8]
 2650 000a 1146     		mov	r1, r2
 2651 000c 1A46     		mov	r2, r3
 2652 000e 0B46     		mov	r3, r1
 2653 0010 FB71     		strb	r3, [r7, #7]
 2654 0012 1346     		mov	r3, r2	@ movhi
 2655 0014 BB80     		strh	r3, [r7, #4]	@ movhi
 501:../Drivers/STM32F3xx_HAL_Driver/Src/stm32f3xx_ll_usb.c ****   /* Prevent unused argument(s) compilation warning */
 502:../Drivers/STM32F3xx_HAL_Driver/Src/stm32f3xx_ll_usb.c ****   UNUSED(USBx);
ARM GAS  /tmp/cclKfraO.s 			page 56


 503:../Drivers/STM32F3xx_HAL_Driver/Src/stm32f3xx_ll_usb.c ****   UNUSED(src);
 504:../Drivers/STM32F3xx_HAL_Driver/Src/stm32f3xx_ll_usb.c ****   UNUSED(ch_ep_num);
 505:../Drivers/STM32F3xx_HAL_Driver/Src/stm32f3xx_ll_usb.c ****   UNUSED(len);
 506:../Drivers/STM32F3xx_HAL_Driver/Src/stm32f3xx_ll_usb.c ****   /* NOTE : - This function is not required by USB Device FS peripheral, it is used
 507:../Drivers/STM32F3xx_HAL_Driver/Src/stm32f3xx_ll_usb.c ****               only by USB OTG FS peripheral.
 508:../Drivers/STM32F3xx_HAL_Driver/Src/stm32f3xx_ll_usb.c ****             - This function is added to ensure compatibility across platforms.
 509:../Drivers/STM32F3xx_HAL_Driver/Src/stm32f3xx_ll_usb.c ****    */
 510:../Drivers/STM32F3xx_HAL_Driver/Src/stm32f3xx_ll_usb.c ****   return HAL_OK;
 2656              		.loc 1 510 0
 2657 0016 0023     		movs	r3, #0
 511:../Drivers/STM32F3xx_HAL_Driver/Src/stm32f3xx_ll_usb.c **** }
 2658              		.loc 1 511 0
 2659 0018 1846     		mov	r0, r3
 2660 001a 1437     		adds	r7, r7, #20
 2661              	.LCFI72:
 2662              		.cfi_def_cfa_offset 4
 2663 001c BD46     		mov	sp, r7
 2664              	.LCFI73:
 2665              		.cfi_def_cfa_register 13
 2666              		@ sp needed
 2667 001e 5DF8047B 		ldr	r7, [sp], #4
 2668              	.LCFI74:
 2669              		.cfi_restore 7
 2670              		.cfi_def_cfa_offset 0
 2671 0022 7047     		bx	lr
 2672              		.cfi_endproc
 2673              	.LFE141:
 2675              		.section	.text.USB_ReadPacket,"ax",%progbits
 2676              		.align	1
 2677              		.global	USB_ReadPacket
 2678              		.syntax unified
 2679              		.thumb
 2680              		.thumb_func
 2681              		.fpu fpv4-sp-d16
 2683              	USB_ReadPacket:
 2684              	.LFB142:
 512:../Drivers/STM32F3xx_HAL_Driver/Src/stm32f3xx_ll_usb.c **** 
 513:../Drivers/STM32F3xx_HAL_Driver/Src/stm32f3xx_ll_usb.c **** /**
 514:../Drivers/STM32F3xx_HAL_Driver/Src/stm32f3xx_ll_usb.c ****   * @brief  USB_ReadPacket : read a packet from the Tx FIFO associated
 515:../Drivers/STM32F3xx_HAL_Driver/Src/stm32f3xx_ll_usb.c ****   *         with the EP/channel
 516:../Drivers/STM32F3xx_HAL_Driver/Src/stm32f3xx_ll_usb.c ****   * @param  USBx : Selected device
 517:../Drivers/STM32F3xx_HAL_Driver/Src/stm32f3xx_ll_usb.c ****   * @param  dest : destination pointer
 518:../Drivers/STM32F3xx_HAL_Driver/Src/stm32f3xx_ll_usb.c ****   * @param  len : Number of bytes to read
 519:../Drivers/STM32F3xx_HAL_Driver/Src/stm32f3xx_ll_usb.c ****   * @retval pointer to destination buffer
 520:../Drivers/STM32F3xx_HAL_Driver/Src/stm32f3xx_ll_usb.c ****   */
 521:../Drivers/STM32F3xx_HAL_Driver/Src/stm32f3xx_ll_usb.c **** void *USB_ReadPacket(USB_TypeDef *USBx, uint8_t *dest, uint16_t len)
 522:../Drivers/STM32F3xx_HAL_Driver/Src/stm32f3xx_ll_usb.c **** {
 2685              		.loc 1 522 0
 2686              		.cfi_startproc
 2687              		@ args = 0, pretend = 0, frame = 16
 2688              		@ frame_needed = 1, uses_anonymous_args = 0
 2689              		@ link register save eliminated.
 2690 0000 80B4     		push	{r7}
 2691              	.LCFI75:
 2692              		.cfi_def_cfa_offset 4
 2693              		.cfi_offset 7, -4
 2694 0002 85B0     		sub	sp, sp, #20
ARM GAS  /tmp/cclKfraO.s 			page 57


 2695              	.LCFI76:
 2696              		.cfi_def_cfa_offset 24
 2697 0004 00AF     		add	r7, sp, #0
 2698              	.LCFI77:
 2699              		.cfi_def_cfa_register 7
 2700 0006 F860     		str	r0, [r7, #12]
 2701 0008 B960     		str	r1, [r7, #8]
 2702 000a 1346     		mov	r3, r2
 2703 000c FB80     		strh	r3, [r7, #6]	@ movhi
 523:../Drivers/STM32F3xx_HAL_Driver/Src/stm32f3xx_ll_usb.c ****   /* Prevent unused argument(s) compilation warning */
 524:../Drivers/STM32F3xx_HAL_Driver/Src/stm32f3xx_ll_usb.c ****   UNUSED(USBx);
 525:../Drivers/STM32F3xx_HAL_Driver/Src/stm32f3xx_ll_usb.c ****   UNUSED(dest);
 526:../Drivers/STM32F3xx_HAL_Driver/Src/stm32f3xx_ll_usb.c ****   UNUSED(len);
 527:../Drivers/STM32F3xx_HAL_Driver/Src/stm32f3xx_ll_usb.c ****   /* NOTE : - This function is not required by USB Device FS peripheral, it is used
 528:../Drivers/STM32F3xx_HAL_Driver/Src/stm32f3xx_ll_usb.c ****               only by USB OTG FS peripheral.
 529:../Drivers/STM32F3xx_HAL_Driver/Src/stm32f3xx_ll_usb.c ****             - This function is added to ensure compatibility across platforms.
 530:../Drivers/STM32F3xx_HAL_Driver/Src/stm32f3xx_ll_usb.c ****    */
 531:../Drivers/STM32F3xx_HAL_Driver/Src/stm32f3xx_ll_usb.c ****   return ((void *)NULL);
 2704              		.loc 1 531 0
 2705 000e 0023     		movs	r3, #0
 532:../Drivers/STM32F3xx_HAL_Driver/Src/stm32f3xx_ll_usb.c **** }
 2706              		.loc 1 532 0
 2707 0010 1846     		mov	r0, r3
 2708 0012 1437     		adds	r7, r7, #20
 2709              	.LCFI78:
 2710              		.cfi_def_cfa_offset 4
 2711 0014 BD46     		mov	sp, r7
 2712              	.LCFI79:
 2713              		.cfi_def_cfa_register 13
 2714              		@ sp needed
 2715 0016 5DF8047B 		ldr	r7, [sp], #4
 2716              	.LCFI80:
 2717              		.cfi_restore 7
 2718              		.cfi_def_cfa_offset 0
 2719 001a 7047     		bx	lr
 2720              		.cfi_endproc
 2721              	.LFE142:
 2723              		.section	.text.USB_EPSetStall,"ax",%progbits
 2724              		.align	1
 2725              		.global	USB_EPSetStall
 2726              		.syntax unified
 2727              		.thumb
 2728              		.thumb_func
 2729              		.fpu fpv4-sp-d16
 2731              	USB_EPSetStall:
 2732              	.LFB143:
 533:../Drivers/STM32F3xx_HAL_Driver/Src/stm32f3xx_ll_usb.c **** 
 534:../Drivers/STM32F3xx_HAL_Driver/Src/stm32f3xx_ll_usb.c **** /**
 535:../Drivers/STM32F3xx_HAL_Driver/Src/stm32f3xx_ll_usb.c ****   * @brief  USB_EPSetStall : set a stall condition over an EP
 536:../Drivers/STM32F3xx_HAL_Driver/Src/stm32f3xx_ll_usb.c ****   * @param  USBx : Selected device
 537:../Drivers/STM32F3xx_HAL_Driver/Src/stm32f3xx_ll_usb.c ****   * @param  ep: pointer to endpoint structure
 538:../Drivers/STM32F3xx_HAL_Driver/Src/stm32f3xx_ll_usb.c ****   * @retval HAL status
 539:../Drivers/STM32F3xx_HAL_Driver/Src/stm32f3xx_ll_usb.c ****   */
 540:../Drivers/STM32F3xx_HAL_Driver/Src/stm32f3xx_ll_usb.c **** HAL_StatusTypeDef USB_EPSetStall(USB_TypeDef *USBx, USB_EPTypeDef *ep)
 541:../Drivers/STM32F3xx_HAL_Driver/Src/stm32f3xx_ll_usb.c **** {
 2733              		.loc 1 541 0
 2734              		.cfi_startproc
ARM GAS  /tmp/cclKfraO.s 			page 58


 2735              		@ args = 0, pretend = 0, frame = 8
 2736              		@ frame_needed = 1, uses_anonymous_args = 0
 2737              		@ link register save eliminated.
 2738 0000 90B4     		push	{r4, r7}
 2739              	.LCFI81:
 2740              		.cfi_def_cfa_offset 8
 2741              		.cfi_offset 4, -8
 2742              		.cfi_offset 7, -4
 2743 0002 82B0     		sub	sp, sp, #8
 2744              	.LCFI82:
 2745              		.cfi_def_cfa_offset 16
 2746 0004 00AF     		add	r7, sp, #0
 2747              	.LCFI83:
 2748              		.cfi_def_cfa_register 7
 2749 0006 7860     		str	r0, [r7, #4]
 2750 0008 3960     		str	r1, [r7]
 542:../Drivers/STM32F3xx_HAL_Driver/Src/stm32f3xx_ll_usb.c ****   if (ep->is_in != 0U)
 2751              		.loc 1 542 0
 2752 000a 3B68     		ldr	r3, [r7]
 2753 000c 5B78     		ldrb	r3, [r3, #1]	@ zero_extendqisi2
 2754 000e 002B     		cmp	r3, #0
 2755 0010 18D0     		beq	.L126
 2756              	.LBB71:
 543:../Drivers/STM32F3xx_HAL_Driver/Src/stm32f3xx_ll_usb.c ****   {
 544:../Drivers/STM32F3xx_HAL_Driver/Src/stm32f3xx_ll_usb.c ****     PCD_SET_EP_TX_STATUS(USBx, ep->num, USB_EP_TX_STALL);
 2757              		.loc 1 544 0
 2758 0012 7A68     		ldr	r2, [r7, #4]
 2759 0014 3B68     		ldr	r3, [r7]
 2760 0016 1B78     		ldrb	r3, [r3]	@ zero_extendqisi2
 2761 0018 9B00     		lsls	r3, r3, #2
 2762 001a 1344     		add	r3, r3, r2
 2763 001c 1B88     		ldrh	r3, [r3]	@ movhi
 2764 001e 9BB2     		uxth	r3, r3
 2765 0020 23F4E043 		bic	r3, r3, #28672
 2766 0024 23F04003 		bic	r3, r3, #64
 2767 0028 9CB2     		uxth	r4, r3
 2768 002a 84F01003 		eor	r3, r4, #16
 2769 002e 9CB2     		uxth	r4, r3
 2770 0030 7A68     		ldr	r2, [r7, #4]
 2771 0032 3B68     		ldr	r3, [r7]
 2772 0034 1B78     		ldrb	r3, [r3]	@ zero_extendqisi2
 2773 0036 9B00     		lsls	r3, r3, #2
 2774 0038 1A44     		add	r2, r2, r3
 2775 003a 114B     		ldr	r3, .L129
 2776 003c 2343     		orrs	r3, r3, r4
 2777 003e 9BB2     		uxth	r3, r3
 2778 0040 1380     		strh	r3, [r2]	@ movhi
 2779              	.LBE71:
 2780 0042 17E0     		b	.L127
 2781              	.L126:
 2782              	.LBB72:
 545:../Drivers/STM32F3xx_HAL_Driver/Src/stm32f3xx_ll_usb.c ****   }
 546:../Drivers/STM32F3xx_HAL_Driver/Src/stm32f3xx_ll_usb.c ****   else
 547:../Drivers/STM32F3xx_HAL_Driver/Src/stm32f3xx_ll_usb.c ****   {
 548:../Drivers/STM32F3xx_HAL_Driver/Src/stm32f3xx_ll_usb.c ****     PCD_SET_EP_RX_STATUS(USBx, ep->num, USB_EP_RX_STALL);
 2783              		.loc 1 548 0
 2784 0044 7A68     		ldr	r2, [r7, #4]
ARM GAS  /tmp/cclKfraO.s 			page 59


 2785 0046 3B68     		ldr	r3, [r7]
 2786 0048 1B78     		ldrb	r3, [r3]	@ zero_extendqisi2
 2787 004a 9B00     		lsls	r3, r3, #2
 2788 004c 1344     		add	r3, r3, r2
 2789 004e 1B88     		ldrh	r3, [r3]	@ movhi
 2790 0050 9BB2     		uxth	r3, r3
 2791 0052 23F48043 		bic	r3, r3, #16384
 2792 0056 23F07003 		bic	r3, r3, #112
 2793 005a 9CB2     		uxth	r4, r3
 2794 005c 84F48053 		eor	r3, r4, #4096
 2795 0060 9CB2     		uxth	r4, r3
 2796 0062 7A68     		ldr	r2, [r7, #4]
 2797 0064 3B68     		ldr	r3, [r7]
 2798 0066 1B78     		ldrb	r3, [r3]	@ zero_extendqisi2
 2799 0068 9B00     		lsls	r3, r3, #2
 2800 006a 1A44     		add	r2, r2, r3
 2801 006c 044B     		ldr	r3, .L129
 2802 006e 2343     		orrs	r3, r3, r4
 2803 0070 9BB2     		uxth	r3, r3
 2804 0072 1380     		strh	r3, [r2]	@ movhi
 2805              	.L127:
 2806              	.LBE72:
 549:../Drivers/STM32F3xx_HAL_Driver/Src/stm32f3xx_ll_usb.c ****   }
 550:../Drivers/STM32F3xx_HAL_Driver/Src/stm32f3xx_ll_usb.c **** 
 551:../Drivers/STM32F3xx_HAL_Driver/Src/stm32f3xx_ll_usb.c ****   return HAL_OK;
 2807              		.loc 1 551 0
 2808 0074 0023     		movs	r3, #0
 552:../Drivers/STM32F3xx_HAL_Driver/Src/stm32f3xx_ll_usb.c **** }
 2809              		.loc 1 552 0
 2810 0076 1846     		mov	r0, r3
 2811 0078 0837     		adds	r7, r7, #8
 2812              	.LCFI84:
 2813              		.cfi_def_cfa_offset 8
 2814 007a BD46     		mov	sp, r7
 2815              	.LCFI85:
 2816              		.cfi_def_cfa_register 13
 2817              		@ sp needed
 2818 007c 90BC     		pop	{r4, r7}
 2819              	.LCFI86:
 2820              		.cfi_restore 7
 2821              		.cfi_restore 4
 2822              		.cfi_def_cfa_offset 0
 2823 007e 7047     		bx	lr
 2824              	.L130:
 2825              		.align	2
 2826              	.L129:
 2827 0080 8080FFFF 		.word	-32640
 2828              		.cfi_endproc
 2829              	.LFE143:
 2831              		.section	.text.USB_EPClearStall,"ax",%progbits
 2832              		.align	1
 2833              		.global	USB_EPClearStall
 2834              		.syntax unified
 2835              		.thumb
 2836              		.thumb_func
 2837              		.fpu fpv4-sp-d16
 2839              	USB_EPClearStall:
ARM GAS  /tmp/cclKfraO.s 			page 60


 2840              	.LFB144:
 553:../Drivers/STM32F3xx_HAL_Driver/Src/stm32f3xx_ll_usb.c **** 
 554:../Drivers/STM32F3xx_HAL_Driver/Src/stm32f3xx_ll_usb.c **** /**
 555:../Drivers/STM32F3xx_HAL_Driver/Src/stm32f3xx_ll_usb.c ****   * @brief  USB_EPClearStall : Clear a stall condition over an EP
 556:../Drivers/STM32F3xx_HAL_Driver/Src/stm32f3xx_ll_usb.c ****   * @param  USBx : Selected device
 557:../Drivers/STM32F3xx_HAL_Driver/Src/stm32f3xx_ll_usb.c ****   * @param  ep: pointer to endpoint structure
 558:../Drivers/STM32F3xx_HAL_Driver/Src/stm32f3xx_ll_usb.c ****   * @retval HAL status
 559:../Drivers/STM32F3xx_HAL_Driver/Src/stm32f3xx_ll_usb.c ****   */
 560:../Drivers/STM32F3xx_HAL_Driver/Src/stm32f3xx_ll_usb.c **** HAL_StatusTypeDef USB_EPClearStall(USB_TypeDef *USBx, USB_EPTypeDef *ep)
 561:../Drivers/STM32F3xx_HAL_Driver/Src/stm32f3xx_ll_usb.c **** {
 2841              		.loc 1 561 0
 2842              		.cfi_startproc
 2843              		@ args = 0, pretend = 0, frame = 8
 2844              		@ frame_needed = 1, uses_anonymous_args = 0
 2845              		@ link register save eliminated.
 2846 0000 90B4     		push	{r4, r7}
 2847              	.LCFI87:
 2848              		.cfi_def_cfa_offset 8
 2849              		.cfi_offset 4, -8
 2850              		.cfi_offset 7, -4
 2851 0002 82B0     		sub	sp, sp, #8
 2852              	.LCFI88:
 2853              		.cfi_def_cfa_offset 16
 2854 0004 00AF     		add	r7, sp, #0
 2855              	.LCFI89:
 2856              		.cfi_def_cfa_register 7
 2857 0006 7860     		str	r0, [r7, #4]
 2858 0008 3960     		str	r1, [r7]
 562:../Drivers/STM32F3xx_HAL_Driver/Src/stm32f3xx_ll_usb.c ****   if (ep->doublebuffer == 0U)
 2859              		.loc 1 562 0
 2860 000a 3B68     		ldr	r3, [r7]
 2861 000c 1B7B     		ldrb	r3, [r3, #12]	@ zero_extendqisi2
 2862 000e 002B     		cmp	r3, #0
 2863 0010 7DD1     		bne	.L132
 563:../Drivers/STM32F3xx_HAL_Driver/Src/stm32f3xx_ll_usb.c ****   {
 564:../Drivers/STM32F3xx_HAL_Driver/Src/stm32f3xx_ll_usb.c ****     if (ep->is_in != 0U)
 2864              		.loc 1 564 0
 2865 0012 3B68     		ldr	r3, [r7]
 2866 0014 5B78     		ldrb	r3, [r3, #1]	@ zero_extendqisi2
 2867 0016 002B     		cmp	r3, #0
 2868 0018 3DD0     		beq	.L133
 2869              	.LBB73:
 565:../Drivers/STM32F3xx_HAL_Driver/Src/stm32f3xx_ll_usb.c ****     {
 566:../Drivers/STM32F3xx_HAL_Driver/Src/stm32f3xx_ll_usb.c ****       PCD_CLEAR_TX_DTOG(USBx, ep->num);
 2870              		.loc 1 566 0
 2871 001a 7A68     		ldr	r2, [r7, #4]
 2872 001c 3B68     		ldr	r3, [r7]
 2873 001e 1B78     		ldrb	r3, [r3]	@ zero_extendqisi2
 2874 0020 9B00     		lsls	r3, r3, #2
 2875 0022 1344     		add	r3, r3, r2
 2876 0024 1B88     		ldrh	r3, [r3]	@ movhi
 2877 0026 9CB2     		uxth	r4, r3
 2878 0028 2346     		mov	r3, r4
 2879 002a 03F04003 		and	r3, r3, #64
 2880 002e 002B     		cmp	r3, #0
 2881 0030 14D0     		beq	.L134
 2882              	.LBB74:
ARM GAS  /tmp/cclKfraO.s 			page 61


 2883              		.loc 1 566 0 is_stmt 0 discriminator 1
 2884 0032 7A68     		ldr	r2, [r7, #4]
 2885 0034 3B68     		ldr	r3, [r7]
 2886 0036 1B78     		ldrb	r3, [r3]	@ zero_extendqisi2
 2887 0038 9B00     		lsls	r3, r3, #2
 2888 003a 1344     		add	r3, r3, r2
 2889 003c 1B88     		ldrh	r3, [r3]	@ movhi
 2890 003e 9BB2     		uxth	r3, r3
 2891 0040 23F4E043 		bic	r3, r3, #28672
 2892 0044 23F07003 		bic	r3, r3, #112
 2893 0048 9CB2     		uxth	r4, r3
 2894 004a 7A68     		ldr	r2, [r7, #4]
 2895 004c 3B68     		ldr	r3, [r7]
 2896 004e 1B78     		ldrb	r3, [r3]	@ zero_extendqisi2
 2897 0050 9B00     		lsls	r3, r3, #2
 2898 0052 1A44     		add	r2, r2, r3
 2899 0054 314B     		ldr	r3, .L138
 2900 0056 2343     		orrs	r3, r3, r4
 2901 0058 9BB2     		uxth	r3, r3
 2902 005a 1380     		strh	r3, [r2]	@ movhi
 2903              	.L134:
 2904              	.LBE74:
 2905              	.LBE73:
 567:../Drivers/STM32F3xx_HAL_Driver/Src/stm32f3xx_ll_usb.c **** 
 568:../Drivers/STM32F3xx_HAL_Driver/Src/stm32f3xx_ll_usb.c ****       if (ep->type != EP_TYPE_ISOC)
 2906              		.loc 1 568 0 is_stmt 1
 2907 005c 3B68     		ldr	r3, [r7]
 2908 005e DB78     		ldrb	r3, [r3, #3]	@ zero_extendqisi2
 2909 0060 012B     		cmp	r3, #1
 2910 0062 54D0     		beq	.L132
 2911              	.LBB75:
 569:../Drivers/STM32F3xx_HAL_Driver/Src/stm32f3xx_ll_usb.c ****       {
 570:../Drivers/STM32F3xx_HAL_Driver/Src/stm32f3xx_ll_usb.c ****         /* Configure NAK status for the Endpoint */
 571:../Drivers/STM32F3xx_HAL_Driver/Src/stm32f3xx_ll_usb.c ****         PCD_SET_EP_TX_STATUS(USBx, ep->num, USB_EP_TX_NAK);
 2912              		.loc 1 571 0
 2913 0064 7A68     		ldr	r2, [r7, #4]
 2914 0066 3B68     		ldr	r3, [r7]
 2915 0068 1B78     		ldrb	r3, [r3]	@ zero_extendqisi2
 2916 006a 9B00     		lsls	r3, r3, #2
 2917 006c 1344     		add	r3, r3, r2
 2918 006e 1B88     		ldrh	r3, [r3]	@ movhi
 2919 0070 9BB2     		uxth	r3, r3
 2920 0072 23F4E043 		bic	r3, r3, #28672
 2921 0076 23F04003 		bic	r3, r3, #64
 2922 007a 9CB2     		uxth	r4, r3
 2923 007c 84F02003 		eor	r3, r4, #32
 2924 0080 9CB2     		uxth	r4, r3
 2925 0082 7A68     		ldr	r2, [r7, #4]
 2926 0084 3B68     		ldr	r3, [r7]
 2927 0086 1B78     		ldrb	r3, [r3]	@ zero_extendqisi2
 2928 0088 9B00     		lsls	r3, r3, #2
 2929 008a 1A44     		add	r2, r2, r3
 2930 008c 244B     		ldr	r3, .L138+4
 2931 008e 2343     		orrs	r3, r3, r4
 2932 0090 9BB2     		uxth	r3, r3
 2933 0092 1380     		strh	r3, [r2]	@ movhi
 2934 0094 3BE0     		b	.L132
ARM GAS  /tmp/cclKfraO.s 			page 62


 2935              	.L133:
 2936              	.LBE75:
 2937              	.LBB76:
 572:../Drivers/STM32F3xx_HAL_Driver/Src/stm32f3xx_ll_usb.c ****       }
 573:../Drivers/STM32F3xx_HAL_Driver/Src/stm32f3xx_ll_usb.c ****     }
 574:../Drivers/STM32F3xx_HAL_Driver/Src/stm32f3xx_ll_usb.c ****     else
 575:../Drivers/STM32F3xx_HAL_Driver/Src/stm32f3xx_ll_usb.c ****     {
 576:../Drivers/STM32F3xx_HAL_Driver/Src/stm32f3xx_ll_usb.c ****       PCD_CLEAR_RX_DTOG(USBx, ep->num);
 2938              		.loc 1 576 0
 2939 0096 7A68     		ldr	r2, [r7, #4]
 2940 0098 3B68     		ldr	r3, [r7]
 2941 009a 1B78     		ldrb	r3, [r3]	@ zero_extendqisi2
 2942 009c 9B00     		lsls	r3, r3, #2
 2943 009e 1344     		add	r3, r3, r2
 2944 00a0 1B88     		ldrh	r3, [r3]	@ movhi
 2945 00a2 9CB2     		uxth	r4, r3
 2946 00a4 2346     		mov	r3, r4
 2947 00a6 03F48043 		and	r3, r3, #16384
 2948 00aa 002B     		cmp	r3, #0
 2949 00ac 14D0     		beq	.L136
 2950              	.LBB77:
 2951              		.loc 1 576 0 is_stmt 0 discriminator 1
 2952 00ae 7A68     		ldr	r2, [r7, #4]
 2953 00b0 3B68     		ldr	r3, [r7]
 2954 00b2 1B78     		ldrb	r3, [r3]	@ zero_extendqisi2
 2955 00b4 9B00     		lsls	r3, r3, #2
 2956 00b6 1344     		add	r3, r3, r2
 2957 00b8 1B88     		ldrh	r3, [r3]	@ movhi
 2958 00ba 9BB2     		uxth	r3, r3
 2959 00bc 23F4E043 		bic	r3, r3, #28672
 2960 00c0 23F07003 		bic	r3, r3, #112
 2961 00c4 9CB2     		uxth	r4, r3
 2962 00c6 7A68     		ldr	r2, [r7, #4]
 2963 00c8 3B68     		ldr	r3, [r7]
 2964 00ca 1B78     		ldrb	r3, [r3]	@ zero_extendqisi2
 2965 00cc 9B00     		lsls	r3, r3, #2
 2966 00ce 1A44     		add	r2, r2, r3
 2967 00d0 144B     		ldr	r3, .L138+8
 2968 00d2 2343     		orrs	r3, r3, r4
 2969 00d4 9BB2     		uxth	r3, r3
 2970 00d6 1380     		strh	r3, [r2]	@ movhi
 2971              	.L136:
 2972              	.LBE77:
 2973              	.LBE76:
 2974              	.LBB78:
 577:../Drivers/STM32F3xx_HAL_Driver/Src/stm32f3xx_ll_usb.c **** 
 578:../Drivers/STM32F3xx_HAL_Driver/Src/stm32f3xx_ll_usb.c ****       /* Configure VALID status for the Endpoint*/
 579:../Drivers/STM32F3xx_HAL_Driver/Src/stm32f3xx_ll_usb.c ****       PCD_SET_EP_RX_STATUS(USBx, ep->num, USB_EP_RX_VALID);
 2975              		.loc 1 579 0 is_stmt 1
 2976 00d8 7A68     		ldr	r2, [r7, #4]
 2977 00da 3B68     		ldr	r3, [r7]
 2978 00dc 1B78     		ldrb	r3, [r3]	@ zero_extendqisi2
 2979 00de 9B00     		lsls	r3, r3, #2
 2980 00e0 1344     		add	r3, r3, r2
 2981 00e2 1B88     		ldrh	r3, [r3]	@ movhi
 2982 00e4 9BB2     		uxth	r3, r3
 2983 00e6 23F48043 		bic	r3, r3, #16384
ARM GAS  /tmp/cclKfraO.s 			page 63


 2984 00ea 23F07003 		bic	r3, r3, #112
 2985 00ee 9CB2     		uxth	r4, r3
 2986 00f0 84F48053 		eor	r3, r4, #4096
 2987 00f4 9CB2     		uxth	r4, r3
 2988 00f6 84F40053 		eor	r3, r4, #8192
 2989 00fa 9CB2     		uxth	r4, r3
 2990 00fc 7A68     		ldr	r2, [r7, #4]
 2991 00fe 3B68     		ldr	r3, [r7]
 2992 0100 1B78     		ldrb	r3, [r3]	@ zero_extendqisi2
 2993 0102 9B00     		lsls	r3, r3, #2
 2994 0104 1A44     		add	r2, r2, r3
 2995 0106 064B     		ldr	r3, .L138+4
 2996 0108 2343     		orrs	r3, r3, r4
 2997 010a 9BB2     		uxth	r3, r3
 2998 010c 1380     		strh	r3, [r2]	@ movhi
 2999              	.L132:
 3000              	.LBE78:
 580:../Drivers/STM32F3xx_HAL_Driver/Src/stm32f3xx_ll_usb.c ****     }
 581:../Drivers/STM32F3xx_HAL_Driver/Src/stm32f3xx_ll_usb.c ****   }
 582:../Drivers/STM32F3xx_HAL_Driver/Src/stm32f3xx_ll_usb.c **** 
 583:../Drivers/STM32F3xx_HAL_Driver/Src/stm32f3xx_ll_usb.c ****   return HAL_OK;
 3001              		.loc 1 583 0
 3002 010e 0023     		movs	r3, #0
 584:../Drivers/STM32F3xx_HAL_Driver/Src/stm32f3xx_ll_usb.c **** }
 3003              		.loc 1 584 0
 3004 0110 1846     		mov	r0, r3
 3005 0112 0837     		adds	r7, r7, #8
 3006              	.LCFI90:
 3007              		.cfi_def_cfa_offset 8
 3008 0114 BD46     		mov	sp, r7
 3009              	.LCFI91:
 3010              		.cfi_def_cfa_register 13
 3011              		@ sp needed
 3012 0116 90BC     		pop	{r4, r7}
 3013              	.LCFI92:
 3014              		.cfi_restore 7
 3015              		.cfi_restore 4
 3016              		.cfi_def_cfa_offset 0
 3017 0118 7047     		bx	lr
 3018              	.L139:
 3019 011a 00BF     		.align	2
 3020              	.L138:
 3021 011c C080FFFF 		.word	-32576
 3022 0120 8080FFFF 		.word	-32640
 3023 0124 80C0FFFF 		.word	-16256
 3024              		.cfi_endproc
 3025              	.LFE144:
 3027              		.section	.text.USB_StopDevice,"ax",%progbits
 3028              		.align	1
 3029              		.global	USB_StopDevice
 3030              		.syntax unified
 3031              		.thumb
 3032              		.thumb_func
 3033              		.fpu fpv4-sp-d16
 3035              	USB_StopDevice:
 3036              	.LFB145:
 585:../Drivers/STM32F3xx_HAL_Driver/Src/stm32f3xx_ll_usb.c **** 
ARM GAS  /tmp/cclKfraO.s 			page 64


 586:../Drivers/STM32F3xx_HAL_Driver/Src/stm32f3xx_ll_usb.c **** /**
 587:../Drivers/STM32F3xx_HAL_Driver/Src/stm32f3xx_ll_usb.c ****   * @brief  USB_StopDevice : Stop the usb device mode
 588:../Drivers/STM32F3xx_HAL_Driver/Src/stm32f3xx_ll_usb.c ****   * @param  USBx : Selected device
 589:../Drivers/STM32F3xx_HAL_Driver/Src/stm32f3xx_ll_usb.c ****   * @retval HAL status
 590:../Drivers/STM32F3xx_HAL_Driver/Src/stm32f3xx_ll_usb.c ****   */
 591:../Drivers/STM32F3xx_HAL_Driver/Src/stm32f3xx_ll_usb.c **** HAL_StatusTypeDef USB_StopDevice(USB_TypeDef *USBx)
 592:../Drivers/STM32F3xx_HAL_Driver/Src/stm32f3xx_ll_usb.c **** {
 3037              		.loc 1 592 0
 3038              		.cfi_startproc
 3039              		@ args = 0, pretend = 0, frame = 8
 3040              		@ frame_needed = 1, uses_anonymous_args = 0
 3041              		@ link register save eliminated.
 3042 0000 80B4     		push	{r7}
 3043              	.LCFI93:
 3044              		.cfi_def_cfa_offset 4
 3045              		.cfi_offset 7, -4
 3046 0002 83B0     		sub	sp, sp, #12
 3047              	.LCFI94:
 3048              		.cfi_def_cfa_offset 16
 3049 0004 00AF     		add	r7, sp, #0
 3050              	.LCFI95:
 3051              		.cfi_def_cfa_register 7
 3052 0006 7860     		str	r0, [r7, #4]
 593:../Drivers/STM32F3xx_HAL_Driver/Src/stm32f3xx_ll_usb.c ****   /* disable all interrupts and force USB reset */
 594:../Drivers/STM32F3xx_HAL_Driver/Src/stm32f3xx_ll_usb.c ****   USBx->CNTR = USB_CNTR_FRES;
 3053              		.loc 1 594 0
 3054 0008 7B68     		ldr	r3, [r7, #4]
 3055 000a 0122     		movs	r2, #1
 3056 000c A3F84020 		strh	r2, [r3, #64]	@ movhi
 595:../Drivers/STM32F3xx_HAL_Driver/Src/stm32f3xx_ll_usb.c **** 
 596:../Drivers/STM32F3xx_HAL_Driver/Src/stm32f3xx_ll_usb.c ****   /* clear interrupt status register */
 597:../Drivers/STM32F3xx_HAL_Driver/Src/stm32f3xx_ll_usb.c ****   USBx->ISTR = 0;
 3057              		.loc 1 597 0
 3058 0010 7B68     		ldr	r3, [r7, #4]
 3059 0012 0022     		movs	r2, #0
 3060 0014 A3F84420 		strh	r2, [r3, #68]	@ movhi
 598:../Drivers/STM32F3xx_HAL_Driver/Src/stm32f3xx_ll_usb.c **** 
 599:../Drivers/STM32F3xx_HAL_Driver/Src/stm32f3xx_ll_usb.c ****   /* switch-off device */
 600:../Drivers/STM32F3xx_HAL_Driver/Src/stm32f3xx_ll_usb.c ****   USBx->CNTR = (USB_CNTR_FRES | USB_CNTR_PDWN);
 3061              		.loc 1 600 0
 3062 0018 7B68     		ldr	r3, [r7, #4]
 3063 001a 0322     		movs	r2, #3
 3064 001c A3F84020 		strh	r2, [r3, #64]	@ movhi
 601:../Drivers/STM32F3xx_HAL_Driver/Src/stm32f3xx_ll_usb.c **** 
 602:../Drivers/STM32F3xx_HAL_Driver/Src/stm32f3xx_ll_usb.c ****   return HAL_OK;
 3065              		.loc 1 602 0
 3066 0020 0023     		movs	r3, #0
 603:../Drivers/STM32F3xx_HAL_Driver/Src/stm32f3xx_ll_usb.c **** }
 3067              		.loc 1 603 0
 3068 0022 1846     		mov	r0, r3
 3069 0024 0C37     		adds	r7, r7, #12
 3070              	.LCFI96:
 3071              		.cfi_def_cfa_offset 4
 3072 0026 BD46     		mov	sp, r7
 3073              	.LCFI97:
 3074              		.cfi_def_cfa_register 13
 3075              		@ sp needed
ARM GAS  /tmp/cclKfraO.s 			page 65


 3076 0028 5DF8047B 		ldr	r7, [sp], #4
 3077              	.LCFI98:
 3078              		.cfi_restore 7
 3079              		.cfi_def_cfa_offset 0
 3080 002c 7047     		bx	lr
 3081              		.cfi_endproc
 3082              	.LFE145:
 3084              		.section	.text.USB_SetDevAddress,"ax",%progbits
 3085              		.align	1
 3086              		.global	USB_SetDevAddress
 3087              		.syntax unified
 3088              		.thumb
 3089              		.thumb_func
 3090              		.fpu fpv4-sp-d16
 3092              	USB_SetDevAddress:
 3093              	.LFB146:
 604:../Drivers/STM32F3xx_HAL_Driver/Src/stm32f3xx_ll_usb.c **** 
 605:../Drivers/STM32F3xx_HAL_Driver/Src/stm32f3xx_ll_usb.c **** /**
 606:../Drivers/STM32F3xx_HAL_Driver/Src/stm32f3xx_ll_usb.c ****   * @brief  USB_SetDevAddress : Stop the usb device mode
 607:../Drivers/STM32F3xx_HAL_Driver/Src/stm32f3xx_ll_usb.c ****   * @param  USBx : Selected device
 608:../Drivers/STM32F3xx_HAL_Driver/Src/stm32f3xx_ll_usb.c ****   * @param  address : new device address to be assigned
 609:../Drivers/STM32F3xx_HAL_Driver/Src/stm32f3xx_ll_usb.c ****   *          This parameter can be a value from 0 to 255
 610:../Drivers/STM32F3xx_HAL_Driver/Src/stm32f3xx_ll_usb.c ****   * @retval HAL status
 611:../Drivers/STM32F3xx_HAL_Driver/Src/stm32f3xx_ll_usb.c ****   */
 612:../Drivers/STM32F3xx_HAL_Driver/Src/stm32f3xx_ll_usb.c **** HAL_StatusTypeDef  USB_SetDevAddress(USB_TypeDef *USBx, uint8_t address)
 613:../Drivers/STM32F3xx_HAL_Driver/Src/stm32f3xx_ll_usb.c **** {
 3094              		.loc 1 613 0
 3095              		.cfi_startproc
 3096              		@ args = 0, pretend = 0, frame = 8
 3097              		@ frame_needed = 1, uses_anonymous_args = 0
 3098              		@ link register save eliminated.
 3099 0000 80B4     		push	{r7}
 3100              	.LCFI99:
 3101              		.cfi_def_cfa_offset 4
 3102              		.cfi_offset 7, -4
 3103 0002 83B0     		sub	sp, sp, #12
 3104              	.LCFI100:
 3105              		.cfi_def_cfa_offset 16
 3106 0004 00AF     		add	r7, sp, #0
 3107              	.LCFI101:
 3108              		.cfi_def_cfa_register 7
 3109 0006 7860     		str	r0, [r7, #4]
 3110 0008 0B46     		mov	r3, r1
 3111 000a FB70     		strb	r3, [r7, #3]
 614:../Drivers/STM32F3xx_HAL_Driver/Src/stm32f3xx_ll_usb.c ****   if (address == 0U)
 3112              		.loc 1 614 0
 3113 000c FB78     		ldrb	r3, [r7, #3]	@ zero_extendqisi2
 3114 000e 002B     		cmp	r3, #0
 3115 0010 03D1     		bne	.L143
 615:../Drivers/STM32F3xx_HAL_Driver/Src/stm32f3xx_ll_usb.c ****   {
 616:../Drivers/STM32F3xx_HAL_Driver/Src/stm32f3xx_ll_usb.c ****     /* set device address and enable function */
 617:../Drivers/STM32F3xx_HAL_Driver/Src/stm32f3xx_ll_usb.c ****     USBx->DADDR = USB_DADDR_EF;
 3116              		.loc 1 617 0
 3117 0012 7B68     		ldr	r3, [r7, #4]
 3118 0014 8022     		movs	r2, #128
 3119 0016 A3F84C20 		strh	r2, [r3, #76]	@ movhi
 3120              	.L143:
ARM GAS  /tmp/cclKfraO.s 			page 66


 618:../Drivers/STM32F3xx_HAL_Driver/Src/stm32f3xx_ll_usb.c ****   }
 619:../Drivers/STM32F3xx_HAL_Driver/Src/stm32f3xx_ll_usb.c **** 
 620:../Drivers/STM32F3xx_HAL_Driver/Src/stm32f3xx_ll_usb.c ****   return HAL_OK;
 3121              		.loc 1 620 0
 3122 001a 0023     		movs	r3, #0
 621:../Drivers/STM32F3xx_HAL_Driver/Src/stm32f3xx_ll_usb.c **** }
 3123              		.loc 1 621 0
 3124 001c 1846     		mov	r0, r3
 3125 001e 0C37     		adds	r7, r7, #12
 3126              	.LCFI102:
 3127              		.cfi_def_cfa_offset 4
 3128 0020 BD46     		mov	sp, r7
 3129              	.LCFI103:
 3130              		.cfi_def_cfa_register 13
 3131              		@ sp needed
 3132 0022 5DF8047B 		ldr	r7, [sp], #4
 3133              	.LCFI104:
 3134              		.cfi_restore 7
 3135              		.cfi_def_cfa_offset 0
 3136 0026 7047     		bx	lr
 3137              		.cfi_endproc
 3138              	.LFE146:
 3140              		.section	.text.USB_DevConnect,"ax",%progbits
 3141              		.align	1
 3142              		.global	USB_DevConnect
 3143              		.syntax unified
 3144              		.thumb
 3145              		.thumb_func
 3146              		.fpu fpv4-sp-d16
 3148              	USB_DevConnect:
 3149              	.LFB147:
 622:../Drivers/STM32F3xx_HAL_Driver/Src/stm32f3xx_ll_usb.c **** 
 623:../Drivers/STM32F3xx_HAL_Driver/Src/stm32f3xx_ll_usb.c **** /**
 624:../Drivers/STM32F3xx_HAL_Driver/Src/stm32f3xx_ll_usb.c ****   * @brief  USB_DevConnect : Connect the USB device by enabling the pull-up/pull-down
 625:../Drivers/STM32F3xx_HAL_Driver/Src/stm32f3xx_ll_usb.c ****   * @param  USBx : Selected device
 626:../Drivers/STM32F3xx_HAL_Driver/Src/stm32f3xx_ll_usb.c ****   * @retval HAL status
 627:../Drivers/STM32F3xx_HAL_Driver/Src/stm32f3xx_ll_usb.c ****   */
 628:../Drivers/STM32F3xx_HAL_Driver/Src/stm32f3xx_ll_usb.c **** HAL_StatusTypeDef  USB_DevConnect(USB_TypeDef *USBx)
 629:../Drivers/STM32F3xx_HAL_Driver/Src/stm32f3xx_ll_usb.c **** {
 3150              		.loc 1 629 0
 3151              		.cfi_startproc
 3152              		@ args = 0, pretend = 0, frame = 8
 3153              		@ frame_needed = 1, uses_anonymous_args = 0
 3154              		@ link register save eliminated.
 3155 0000 80B4     		push	{r7}
 3156              	.LCFI105:
 3157              		.cfi_def_cfa_offset 4
 3158              		.cfi_offset 7, -4
 3159 0002 83B0     		sub	sp, sp, #12
 3160              	.LCFI106:
 3161              		.cfi_def_cfa_offset 16
 3162 0004 00AF     		add	r7, sp, #0
 3163              	.LCFI107:
 3164              		.cfi_def_cfa_register 7
 3165 0006 7860     		str	r0, [r7, #4]
 630:../Drivers/STM32F3xx_HAL_Driver/Src/stm32f3xx_ll_usb.c ****   /* Prevent unused argument(s) compilation warning */
 631:../Drivers/STM32F3xx_HAL_Driver/Src/stm32f3xx_ll_usb.c ****   UNUSED(USBx);
ARM GAS  /tmp/cclKfraO.s 			page 67


 632:../Drivers/STM32F3xx_HAL_Driver/Src/stm32f3xx_ll_usb.c ****   /* NOTE : - This function is not required by USB Device FS peripheral, it is used
 633:../Drivers/STM32F3xx_HAL_Driver/Src/stm32f3xx_ll_usb.c ****               only by USB OTG FS peripheral.
 634:../Drivers/STM32F3xx_HAL_Driver/Src/stm32f3xx_ll_usb.c ****             - This function is added to ensure compatibility across platforms.
 635:../Drivers/STM32F3xx_HAL_Driver/Src/stm32f3xx_ll_usb.c ****    */
 636:../Drivers/STM32F3xx_HAL_Driver/Src/stm32f3xx_ll_usb.c **** 
 637:../Drivers/STM32F3xx_HAL_Driver/Src/stm32f3xx_ll_usb.c ****   return HAL_OK;
 3166              		.loc 1 637 0
 3167 0008 0023     		movs	r3, #0
 638:../Drivers/STM32F3xx_HAL_Driver/Src/stm32f3xx_ll_usb.c **** }
 3168              		.loc 1 638 0
 3169 000a 1846     		mov	r0, r3
 3170 000c 0C37     		adds	r7, r7, #12
 3171              	.LCFI108:
 3172              		.cfi_def_cfa_offset 4
 3173 000e BD46     		mov	sp, r7
 3174              	.LCFI109:
 3175              		.cfi_def_cfa_register 13
 3176              		@ sp needed
 3177 0010 5DF8047B 		ldr	r7, [sp], #4
 3178              	.LCFI110:
 3179              		.cfi_restore 7
 3180              		.cfi_def_cfa_offset 0
 3181 0014 7047     		bx	lr
 3182              		.cfi_endproc
 3183              	.LFE147:
 3185              		.section	.text.USB_DevDisconnect,"ax",%progbits
 3186              		.align	1
 3187              		.global	USB_DevDisconnect
 3188              		.syntax unified
 3189              		.thumb
 3190              		.thumb_func
 3191              		.fpu fpv4-sp-d16
 3193              	USB_DevDisconnect:
 3194              	.LFB148:
 639:../Drivers/STM32F3xx_HAL_Driver/Src/stm32f3xx_ll_usb.c **** 
 640:../Drivers/STM32F3xx_HAL_Driver/Src/stm32f3xx_ll_usb.c **** /**
 641:../Drivers/STM32F3xx_HAL_Driver/Src/stm32f3xx_ll_usb.c ****   * @brief  USB_DevDisconnect : Disconnect the USB device by disabling the pull-up/pull-down
 642:../Drivers/STM32F3xx_HAL_Driver/Src/stm32f3xx_ll_usb.c ****   * @param  USBx : Selected device
 643:../Drivers/STM32F3xx_HAL_Driver/Src/stm32f3xx_ll_usb.c ****   * @retval HAL status
 644:../Drivers/STM32F3xx_HAL_Driver/Src/stm32f3xx_ll_usb.c ****   */
 645:../Drivers/STM32F3xx_HAL_Driver/Src/stm32f3xx_ll_usb.c **** HAL_StatusTypeDef  USB_DevDisconnect(USB_TypeDef *USBx)
 646:../Drivers/STM32F3xx_HAL_Driver/Src/stm32f3xx_ll_usb.c **** {
 3195              		.loc 1 646 0
 3196              		.cfi_startproc
 3197              		@ args = 0, pretend = 0, frame = 8
 3198              		@ frame_needed = 1, uses_anonymous_args = 0
 3199              		@ link register save eliminated.
 3200 0000 80B4     		push	{r7}
 3201              	.LCFI111:
 3202              		.cfi_def_cfa_offset 4
 3203              		.cfi_offset 7, -4
 3204 0002 83B0     		sub	sp, sp, #12
 3205              	.LCFI112:
 3206              		.cfi_def_cfa_offset 16
 3207 0004 00AF     		add	r7, sp, #0
 3208              	.LCFI113:
 3209              		.cfi_def_cfa_register 7
ARM GAS  /tmp/cclKfraO.s 			page 68


 3210 0006 7860     		str	r0, [r7, #4]
 647:../Drivers/STM32F3xx_HAL_Driver/Src/stm32f3xx_ll_usb.c ****   /* Prevent unused argument(s) compilation warning */
 648:../Drivers/STM32F3xx_HAL_Driver/Src/stm32f3xx_ll_usb.c ****   UNUSED(USBx);
 649:../Drivers/STM32F3xx_HAL_Driver/Src/stm32f3xx_ll_usb.c ****   /* NOTE : - This function is not required by USB Device FS peripheral, it is used
 650:../Drivers/STM32F3xx_HAL_Driver/Src/stm32f3xx_ll_usb.c ****               only by USB OTG FS peripheral.
 651:../Drivers/STM32F3xx_HAL_Driver/Src/stm32f3xx_ll_usb.c ****             - This function is added to ensure compatibility across platforms.
 652:../Drivers/STM32F3xx_HAL_Driver/Src/stm32f3xx_ll_usb.c ****    */
 653:../Drivers/STM32F3xx_HAL_Driver/Src/stm32f3xx_ll_usb.c **** 
 654:../Drivers/STM32F3xx_HAL_Driver/Src/stm32f3xx_ll_usb.c ****   return HAL_OK;
 3211              		.loc 1 654 0
 3212 0008 0023     		movs	r3, #0
 655:../Drivers/STM32F3xx_HAL_Driver/Src/stm32f3xx_ll_usb.c **** }
 3213              		.loc 1 655 0
 3214 000a 1846     		mov	r0, r3
 3215 000c 0C37     		adds	r7, r7, #12
 3216              	.LCFI114:
 3217              		.cfi_def_cfa_offset 4
 3218 000e BD46     		mov	sp, r7
 3219              	.LCFI115:
 3220              		.cfi_def_cfa_register 13
 3221              		@ sp needed
 3222 0010 5DF8047B 		ldr	r7, [sp], #4
 3223              	.LCFI116:
 3224              		.cfi_restore 7
 3225              		.cfi_def_cfa_offset 0
 3226 0014 7047     		bx	lr
 3227              		.cfi_endproc
 3228              	.LFE148:
 3230              		.section	.text.USB_ReadInterrupts,"ax",%progbits
 3231              		.align	1
 3232              		.global	USB_ReadInterrupts
 3233              		.syntax unified
 3234              		.thumb
 3235              		.thumb_func
 3236              		.fpu fpv4-sp-d16
 3238              	USB_ReadInterrupts:
 3239              	.LFB149:
 656:../Drivers/STM32F3xx_HAL_Driver/Src/stm32f3xx_ll_usb.c **** 
 657:../Drivers/STM32F3xx_HAL_Driver/Src/stm32f3xx_ll_usb.c **** /**
 658:../Drivers/STM32F3xx_HAL_Driver/Src/stm32f3xx_ll_usb.c ****   * @brief  USB_ReadInterrupts: return the global USB interrupt status
 659:../Drivers/STM32F3xx_HAL_Driver/Src/stm32f3xx_ll_usb.c ****   * @param  USBx : Selected device
 660:../Drivers/STM32F3xx_HAL_Driver/Src/stm32f3xx_ll_usb.c ****   * @retval HAL status
 661:../Drivers/STM32F3xx_HAL_Driver/Src/stm32f3xx_ll_usb.c ****   */
 662:../Drivers/STM32F3xx_HAL_Driver/Src/stm32f3xx_ll_usb.c **** uint32_t  USB_ReadInterrupts(USB_TypeDef *USBx)
 663:../Drivers/STM32F3xx_HAL_Driver/Src/stm32f3xx_ll_usb.c **** {
 3240              		.loc 1 663 0
 3241              		.cfi_startproc
 3242              		@ args = 0, pretend = 0, frame = 16
 3243              		@ frame_needed = 1, uses_anonymous_args = 0
 3244              		@ link register save eliminated.
 3245 0000 80B4     		push	{r7}
 3246              	.LCFI117:
 3247              		.cfi_def_cfa_offset 4
 3248              		.cfi_offset 7, -4
 3249 0002 85B0     		sub	sp, sp, #20
 3250              	.LCFI118:
 3251              		.cfi_def_cfa_offset 24
ARM GAS  /tmp/cclKfraO.s 			page 69


 3252 0004 00AF     		add	r7, sp, #0
 3253              	.LCFI119:
 3254              		.cfi_def_cfa_register 7
 3255 0006 7860     		str	r0, [r7, #4]
 664:../Drivers/STM32F3xx_HAL_Driver/Src/stm32f3xx_ll_usb.c ****   uint32_t tmpreg;
 665:../Drivers/STM32F3xx_HAL_Driver/Src/stm32f3xx_ll_usb.c **** 
 666:../Drivers/STM32F3xx_HAL_Driver/Src/stm32f3xx_ll_usb.c ****   tmpreg = USBx->ISTR;
 3256              		.loc 1 666 0
 3257 0008 7B68     		ldr	r3, [r7, #4]
 3258 000a B3F84430 		ldrh	r3, [r3, #68]	@ movhi
 3259 000e 9BB2     		uxth	r3, r3
 3260 0010 FB60     		str	r3, [r7, #12]
 667:../Drivers/STM32F3xx_HAL_Driver/Src/stm32f3xx_ll_usb.c ****   return tmpreg;
 3261              		.loc 1 667 0
 3262 0012 FB68     		ldr	r3, [r7, #12]
 668:../Drivers/STM32F3xx_HAL_Driver/Src/stm32f3xx_ll_usb.c **** }
 3263              		.loc 1 668 0
 3264 0014 1846     		mov	r0, r3
 3265 0016 1437     		adds	r7, r7, #20
 3266              	.LCFI120:
 3267              		.cfi_def_cfa_offset 4
 3268 0018 BD46     		mov	sp, r7
 3269              	.LCFI121:
 3270              		.cfi_def_cfa_register 13
 3271              		@ sp needed
 3272 001a 5DF8047B 		ldr	r7, [sp], #4
 3273              	.LCFI122:
 3274              		.cfi_restore 7
 3275              		.cfi_def_cfa_offset 0
 3276 001e 7047     		bx	lr
 3277              		.cfi_endproc
 3278              	.LFE149:
 3280              		.section	.text.USB_ReadDevAllOutEpInterrupt,"ax",%progbits
 3281              		.align	1
 3282              		.global	USB_ReadDevAllOutEpInterrupt
 3283              		.syntax unified
 3284              		.thumb
 3285              		.thumb_func
 3286              		.fpu fpv4-sp-d16
 3288              	USB_ReadDevAllOutEpInterrupt:
 3289              	.LFB150:
 669:../Drivers/STM32F3xx_HAL_Driver/Src/stm32f3xx_ll_usb.c **** 
 670:../Drivers/STM32F3xx_HAL_Driver/Src/stm32f3xx_ll_usb.c **** /**
 671:../Drivers/STM32F3xx_HAL_Driver/Src/stm32f3xx_ll_usb.c ****   * @brief  USB_ReadDevAllOutEpInterrupt: return the USB device OUT endpoints interrupt status
 672:../Drivers/STM32F3xx_HAL_Driver/Src/stm32f3xx_ll_usb.c ****   * @param  USBx : Selected device
 673:../Drivers/STM32F3xx_HAL_Driver/Src/stm32f3xx_ll_usb.c ****   * @retval HAL status
 674:../Drivers/STM32F3xx_HAL_Driver/Src/stm32f3xx_ll_usb.c ****   */
 675:../Drivers/STM32F3xx_HAL_Driver/Src/stm32f3xx_ll_usb.c **** uint32_t USB_ReadDevAllOutEpInterrupt(USB_TypeDef *USBx)
 676:../Drivers/STM32F3xx_HAL_Driver/Src/stm32f3xx_ll_usb.c **** {
 3290              		.loc 1 676 0
 3291              		.cfi_startproc
 3292              		@ args = 0, pretend = 0, frame = 8
 3293              		@ frame_needed = 1, uses_anonymous_args = 0
 3294              		@ link register save eliminated.
 3295 0000 80B4     		push	{r7}
 3296              	.LCFI123:
 3297              		.cfi_def_cfa_offset 4
ARM GAS  /tmp/cclKfraO.s 			page 70


 3298              		.cfi_offset 7, -4
 3299 0002 83B0     		sub	sp, sp, #12
 3300              	.LCFI124:
 3301              		.cfi_def_cfa_offset 16
 3302 0004 00AF     		add	r7, sp, #0
 3303              	.LCFI125:
 3304              		.cfi_def_cfa_register 7
 3305 0006 7860     		str	r0, [r7, #4]
 677:../Drivers/STM32F3xx_HAL_Driver/Src/stm32f3xx_ll_usb.c ****   /* Prevent unused argument(s) compilation warning */
 678:../Drivers/STM32F3xx_HAL_Driver/Src/stm32f3xx_ll_usb.c ****   UNUSED(USBx);
 679:../Drivers/STM32F3xx_HAL_Driver/Src/stm32f3xx_ll_usb.c ****   /* NOTE : - This function is not required by USB Device FS peripheral, it is used
 680:../Drivers/STM32F3xx_HAL_Driver/Src/stm32f3xx_ll_usb.c ****               only by USB OTG FS peripheral.
 681:../Drivers/STM32F3xx_HAL_Driver/Src/stm32f3xx_ll_usb.c ****             - This function is added to ensure compatibility across platforms.
 682:../Drivers/STM32F3xx_HAL_Driver/Src/stm32f3xx_ll_usb.c ****    */
 683:../Drivers/STM32F3xx_HAL_Driver/Src/stm32f3xx_ll_usb.c ****   return (0);
 3306              		.loc 1 683 0
 3307 0008 0023     		movs	r3, #0
 684:../Drivers/STM32F3xx_HAL_Driver/Src/stm32f3xx_ll_usb.c **** }
 3308              		.loc 1 684 0
 3309 000a 1846     		mov	r0, r3
 3310 000c 0C37     		adds	r7, r7, #12
 3311              	.LCFI126:
 3312              		.cfi_def_cfa_offset 4
 3313 000e BD46     		mov	sp, r7
 3314              	.LCFI127:
 3315              		.cfi_def_cfa_register 13
 3316              		@ sp needed
 3317 0010 5DF8047B 		ldr	r7, [sp], #4
 3318              	.LCFI128:
 3319              		.cfi_restore 7
 3320              		.cfi_def_cfa_offset 0
 3321 0014 7047     		bx	lr
 3322              		.cfi_endproc
 3323              	.LFE150:
 3325              		.section	.text.USB_ReadDevAllInEpInterrupt,"ax",%progbits
 3326              		.align	1
 3327              		.global	USB_ReadDevAllInEpInterrupt
 3328              		.syntax unified
 3329              		.thumb
 3330              		.thumb_func
 3331              		.fpu fpv4-sp-d16
 3333              	USB_ReadDevAllInEpInterrupt:
 3334              	.LFB151:
 685:../Drivers/STM32F3xx_HAL_Driver/Src/stm32f3xx_ll_usb.c **** 
 686:../Drivers/STM32F3xx_HAL_Driver/Src/stm32f3xx_ll_usb.c **** /**
 687:../Drivers/STM32F3xx_HAL_Driver/Src/stm32f3xx_ll_usb.c ****   * @brief  USB_ReadDevAllInEpInterrupt: return the USB device IN endpoints interrupt status
 688:../Drivers/STM32F3xx_HAL_Driver/Src/stm32f3xx_ll_usb.c ****   * @param  USBx : Selected device
 689:../Drivers/STM32F3xx_HAL_Driver/Src/stm32f3xx_ll_usb.c ****   * @retval HAL status
 690:../Drivers/STM32F3xx_HAL_Driver/Src/stm32f3xx_ll_usb.c ****   */
 691:../Drivers/STM32F3xx_HAL_Driver/Src/stm32f3xx_ll_usb.c **** uint32_t USB_ReadDevAllInEpInterrupt(USB_TypeDef *USBx)
 692:../Drivers/STM32F3xx_HAL_Driver/Src/stm32f3xx_ll_usb.c **** {
 3335              		.loc 1 692 0
 3336              		.cfi_startproc
 3337              		@ args = 0, pretend = 0, frame = 8
 3338              		@ frame_needed = 1, uses_anonymous_args = 0
 3339              		@ link register save eliminated.
 3340 0000 80B4     		push	{r7}
ARM GAS  /tmp/cclKfraO.s 			page 71


 3341              	.LCFI129:
 3342              		.cfi_def_cfa_offset 4
 3343              		.cfi_offset 7, -4
 3344 0002 83B0     		sub	sp, sp, #12
 3345              	.LCFI130:
 3346              		.cfi_def_cfa_offset 16
 3347 0004 00AF     		add	r7, sp, #0
 3348              	.LCFI131:
 3349              		.cfi_def_cfa_register 7
 3350 0006 7860     		str	r0, [r7, #4]
 693:../Drivers/STM32F3xx_HAL_Driver/Src/stm32f3xx_ll_usb.c ****   /* Prevent unused argument(s) compilation warning */
 694:../Drivers/STM32F3xx_HAL_Driver/Src/stm32f3xx_ll_usb.c ****   UNUSED(USBx);
 695:../Drivers/STM32F3xx_HAL_Driver/Src/stm32f3xx_ll_usb.c ****   /* NOTE : - This function is not required by USB Device FS peripheral, it is used
 696:../Drivers/STM32F3xx_HAL_Driver/Src/stm32f3xx_ll_usb.c ****               only by USB OTG FS peripheral.
 697:../Drivers/STM32F3xx_HAL_Driver/Src/stm32f3xx_ll_usb.c ****             - This function is added to ensure compatibility across platforms.
 698:../Drivers/STM32F3xx_HAL_Driver/Src/stm32f3xx_ll_usb.c ****    */
 699:../Drivers/STM32F3xx_HAL_Driver/Src/stm32f3xx_ll_usb.c ****   return (0);
 3351              		.loc 1 699 0
 3352 0008 0023     		movs	r3, #0
 700:../Drivers/STM32F3xx_HAL_Driver/Src/stm32f3xx_ll_usb.c **** }
 3353              		.loc 1 700 0
 3354 000a 1846     		mov	r0, r3
 3355 000c 0C37     		adds	r7, r7, #12
 3356              	.LCFI132:
 3357              		.cfi_def_cfa_offset 4
 3358 000e BD46     		mov	sp, r7
 3359              	.LCFI133:
 3360              		.cfi_def_cfa_register 13
 3361              		@ sp needed
 3362 0010 5DF8047B 		ldr	r7, [sp], #4
 3363              	.LCFI134:
 3364              		.cfi_restore 7
 3365              		.cfi_def_cfa_offset 0
 3366 0014 7047     		bx	lr
 3367              		.cfi_endproc
 3368              	.LFE151:
 3370              		.section	.text.USB_ReadDevOutEPInterrupt,"ax",%progbits
 3371              		.align	1
 3372              		.global	USB_ReadDevOutEPInterrupt
 3373              		.syntax unified
 3374              		.thumb
 3375              		.thumb_func
 3376              		.fpu fpv4-sp-d16
 3378              	USB_ReadDevOutEPInterrupt:
 3379              	.LFB152:
 701:../Drivers/STM32F3xx_HAL_Driver/Src/stm32f3xx_ll_usb.c **** 
 702:../Drivers/STM32F3xx_HAL_Driver/Src/stm32f3xx_ll_usb.c **** /**
 703:../Drivers/STM32F3xx_HAL_Driver/Src/stm32f3xx_ll_usb.c ****   * @brief  Returns Device OUT EP Interrupt register
 704:../Drivers/STM32F3xx_HAL_Driver/Src/stm32f3xx_ll_usb.c ****   * @param  USBx : Selected device
 705:../Drivers/STM32F3xx_HAL_Driver/Src/stm32f3xx_ll_usb.c ****   * @param  epnum : endpoint number
 706:../Drivers/STM32F3xx_HAL_Driver/Src/stm32f3xx_ll_usb.c ****   *          This parameter can be a value from 0 to 15
 707:../Drivers/STM32F3xx_HAL_Driver/Src/stm32f3xx_ll_usb.c ****   * @retval Device OUT EP Interrupt register
 708:../Drivers/STM32F3xx_HAL_Driver/Src/stm32f3xx_ll_usb.c ****   */
 709:../Drivers/STM32F3xx_HAL_Driver/Src/stm32f3xx_ll_usb.c **** uint32_t USB_ReadDevOutEPInterrupt(USB_TypeDef *USBx, uint8_t epnum)
 710:../Drivers/STM32F3xx_HAL_Driver/Src/stm32f3xx_ll_usb.c **** {
 3380              		.loc 1 710 0
 3381              		.cfi_startproc
ARM GAS  /tmp/cclKfraO.s 			page 72


 3382              		@ args = 0, pretend = 0, frame = 8
 3383              		@ frame_needed = 1, uses_anonymous_args = 0
 3384              		@ link register save eliminated.
 3385 0000 80B4     		push	{r7}
 3386              	.LCFI135:
 3387              		.cfi_def_cfa_offset 4
 3388              		.cfi_offset 7, -4
 3389 0002 83B0     		sub	sp, sp, #12
 3390              	.LCFI136:
 3391              		.cfi_def_cfa_offset 16
 3392 0004 00AF     		add	r7, sp, #0
 3393              	.LCFI137:
 3394              		.cfi_def_cfa_register 7
 3395 0006 7860     		str	r0, [r7, #4]
 3396 0008 0B46     		mov	r3, r1
 3397 000a FB70     		strb	r3, [r7, #3]
 711:../Drivers/STM32F3xx_HAL_Driver/Src/stm32f3xx_ll_usb.c ****   /* Prevent unused argument(s) compilation warning */
 712:../Drivers/STM32F3xx_HAL_Driver/Src/stm32f3xx_ll_usb.c ****   UNUSED(USBx);
 713:../Drivers/STM32F3xx_HAL_Driver/Src/stm32f3xx_ll_usb.c ****   UNUSED(epnum);
 714:../Drivers/STM32F3xx_HAL_Driver/Src/stm32f3xx_ll_usb.c ****   /* NOTE : - This function is not required by USB Device FS peripheral, it is used
 715:../Drivers/STM32F3xx_HAL_Driver/Src/stm32f3xx_ll_usb.c ****               only by USB OTG FS peripheral.
 716:../Drivers/STM32F3xx_HAL_Driver/Src/stm32f3xx_ll_usb.c ****             - This function is added to ensure compatibility across platforms.
 717:../Drivers/STM32F3xx_HAL_Driver/Src/stm32f3xx_ll_usb.c ****    */
 718:../Drivers/STM32F3xx_HAL_Driver/Src/stm32f3xx_ll_usb.c ****   return (0);
 3398              		.loc 1 718 0
 3399 000c 0023     		movs	r3, #0
 719:../Drivers/STM32F3xx_HAL_Driver/Src/stm32f3xx_ll_usb.c **** }
 3400              		.loc 1 719 0
 3401 000e 1846     		mov	r0, r3
 3402 0010 0C37     		adds	r7, r7, #12
 3403              	.LCFI138:
 3404              		.cfi_def_cfa_offset 4
 3405 0012 BD46     		mov	sp, r7
 3406              	.LCFI139:
 3407              		.cfi_def_cfa_register 13
 3408              		@ sp needed
 3409 0014 5DF8047B 		ldr	r7, [sp], #4
 3410              	.LCFI140:
 3411              		.cfi_restore 7
 3412              		.cfi_def_cfa_offset 0
 3413 0018 7047     		bx	lr
 3414              		.cfi_endproc
 3415              	.LFE152:
 3417              		.section	.text.USB_ReadDevInEPInterrupt,"ax",%progbits
 3418              		.align	1
 3419              		.global	USB_ReadDevInEPInterrupt
 3420              		.syntax unified
 3421              		.thumb
 3422              		.thumb_func
 3423              		.fpu fpv4-sp-d16
 3425              	USB_ReadDevInEPInterrupt:
 3426              	.LFB153:
 720:../Drivers/STM32F3xx_HAL_Driver/Src/stm32f3xx_ll_usb.c **** 
 721:../Drivers/STM32F3xx_HAL_Driver/Src/stm32f3xx_ll_usb.c **** /**
 722:../Drivers/STM32F3xx_HAL_Driver/Src/stm32f3xx_ll_usb.c ****   * @brief  Returns Device IN EP Interrupt register
 723:../Drivers/STM32F3xx_HAL_Driver/Src/stm32f3xx_ll_usb.c ****   * @param  USBx : Selected device
 724:../Drivers/STM32F3xx_HAL_Driver/Src/stm32f3xx_ll_usb.c ****   * @param  epnum : endpoint number
ARM GAS  /tmp/cclKfraO.s 			page 73


 725:../Drivers/STM32F3xx_HAL_Driver/Src/stm32f3xx_ll_usb.c ****   *          This parameter can be a value from 0 to 15
 726:../Drivers/STM32F3xx_HAL_Driver/Src/stm32f3xx_ll_usb.c ****   * @retval Device IN EP Interrupt register
 727:../Drivers/STM32F3xx_HAL_Driver/Src/stm32f3xx_ll_usb.c ****   */
 728:../Drivers/STM32F3xx_HAL_Driver/Src/stm32f3xx_ll_usb.c **** uint32_t USB_ReadDevInEPInterrupt(USB_TypeDef *USBx, uint8_t epnum)
 729:../Drivers/STM32F3xx_HAL_Driver/Src/stm32f3xx_ll_usb.c **** {
 3427              		.loc 1 729 0
 3428              		.cfi_startproc
 3429              		@ args = 0, pretend = 0, frame = 8
 3430              		@ frame_needed = 1, uses_anonymous_args = 0
 3431              		@ link register save eliminated.
 3432 0000 80B4     		push	{r7}
 3433              	.LCFI141:
 3434              		.cfi_def_cfa_offset 4
 3435              		.cfi_offset 7, -4
 3436 0002 83B0     		sub	sp, sp, #12
 3437              	.LCFI142:
 3438              		.cfi_def_cfa_offset 16
 3439 0004 00AF     		add	r7, sp, #0
 3440              	.LCFI143:
 3441              		.cfi_def_cfa_register 7
 3442 0006 7860     		str	r0, [r7, #4]
 3443 0008 0B46     		mov	r3, r1
 3444 000a FB70     		strb	r3, [r7, #3]
 730:../Drivers/STM32F3xx_HAL_Driver/Src/stm32f3xx_ll_usb.c ****   /* Prevent unused argument(s) compilation warning */
 731:../Drivers/STM32F3xx_HAL_Driver/Src/stm32f3xx_ll_usb.c ****   UNUSED(USBx);
 732:../Drivers/STM32F3xx_HAL_Driver/Src/stm32f3xx_ll_usb.c ****   UNUSED(epnum);
 733:../Drivers/STM32F3xx_HAL_Driver/Src/stm32f3xx_ll_usb.c ****   /* NOTE : - This function is not required by USB Device FS peripheral, it is used
 734:../Drivers/STM32F3xx_HAL_Driver/Src/stm32f3xx_ll_usb.c ****               only by USB OTG FS peripheral.
 735:../Drivers/STM32F3xx_HAL_Driver/Src/stm32f3xx_ll_usb.c ****             - This function is added to ensure compatibility across platforms.
 736:../Drivers/STM32F3xx_HAL_Driver/Src/stm32f3xx_ll_usb.c ****    */
 737:../Drivers/STM32F3xx_HAL_Driver/Src/stm32f3xx_ll_usb.c ****   return (0);
 3445              		.loc 1 737 0
 3446 000c 0023     		movs	r3, #0
 738:../Drivers/STM32F3xx_HAL_Driver/Src/stm32f3xx_ll_usb.c **** }
 3447              		.loc 1 738 0
 3448 000e 1846     		mov	r0, r3
 3449 0010 0C37     		adds	r7, r7, #12
 3450              	.LCFI144:
 3451              		.cfi_def_cfa_offset 4
 3452 0012 BD46     		mov	sp, r7
 3453              	.LCFI145:
 3454              		.cfi_def_cfa_register 13
 3455              		@ sp needed
 3456 0014 5DF8047B 		ldr	r7, [sp], #4
 3457              	.LCFI146:
 3458              		.cfi_restore 7
 3459              		.cfi_def_cfa_offset 0
 3460 0018 7047     		bx	lr
 3461              		.cfi_endproc
 3462              	.LFE153:
 3464              		.section	.text.USB_ClearInterrupts,"ax",%progbits
 3465              		.align	1
 3466              		.global	USB_ClearInterrupts
 3467              		.syntax unified
 3468              		.thumb
 3469              		.thumb_func
 3470              		.fpu fpv4-sp-d16
ARM GAS  /tmp/cclKfraO.s 			page 74


 3472              	USB_ClearInterrupts:
 3473              	.LFB154:
 739:../Drivers/STM32F3xx_HAL_Driver/Src/stm32f3xx_ll_usb.c **** 
 740:../Drivers/STM32F3xx_HAL_Driver/Src/stm32f3xx_ll_usb.c **** /**
 741:../Drivers/STM32F3xx_HAL_Driver/Src/stm32f3xx_ll_usb.c ****   * @brief  USB_ClearInterrupts: clear a USB interrupt
 742:../Drivers/STM32F3xx_HAL_Driver/Src/stm32f3xx_ll_usb.c ****   * @param  USBx  Selected device
 743:../Drivers/STM32F3xx_HAL_Driver/Src/stm32f3xx_ll_usb.c ****   * @param  interrupt  interrupt flag
 744:../Drivers/STM32F3xx_HAL_Driver/Src/stm32f3xx_ll_usb.c ****   * @retval None
 745:../Drivers/STM32F3xx_HAL_Driver/Src/stm32f3xx_ll_usb.c ****   */
 746:../Drivers/STM32F3xx_HAL_Driver/Src/stm32f3xx_ll_usb.c **** void  USB_ClearInterrupts(USB_TypeDef *USBx, uint32_t interrupt)
 747:../Drivers/STM32F3xx_HAL_Driver/Src/stm32f3xx_ll_usb.c **** {
 3474              		.loc 1 747 0
 3475              		.cfi_startproc
 3476              		@ args = 0, pretend = 0, frame = 8
 3477              		@ frame_needed = 1, uses_anonymous_args = 0
 3478              		@ link register save eliminated.
 3479 0000 80B4     		push	{r7}
 3480              	.LCFI147:
 3481              		.cfi_def_cfa_offset 4
 3482              		.cfi_offset 7, -4
 3483 0002 83B0     		sub	sp, sp, #12
 3484              	.LCFI148:
 3485              		.cfi_def_cfa_offset 16
 3486 0004 00AF     		add	r7, sp, #0
 3487              	.LCFI149:
 3488              		.cfi_def_cfa_register 7
 3489 0006 7860     		str	r0, [r7, #4]
 3490 0008 3960     		str	r1, [r7]
 748:../Drivers/STM32F3xx_HAL_Driver/Src/stm32f3xx_ll_usb.c ****   /* Prevent unused argument(s) compilation warning */
 749:../Drivers/STM32F3xx_HAL_Driver/Src/stm32f3xx_ll_usb.c ****   UNUSED(USBx);
 750:../Drivers/STM32F3xx_HAL_Driver/Src/stm32f3xx_ll_usb.c ****   UNUSED(interrupt);
 751:../Drivers/STM32F3xx_HAL_Driver/Src/stm32f3xx_ll_usb.c ****   /* NOTE : - This function is not required by USB Device FS peripheral, it is used
 752:../Drivers/STM32F3xx_HAL_Driver/Src/stm32f3xx_ll_usb.c ****               only by USB OTG FS peripheral.
 753:../Drivers/STM32F3xx_HAL_Driver/Src/stm32f3xx_ll_usb.c ****             - This function is added to ensure compatibility across platforms.
 754:../Drivers/STM32F3xx_HAL_Driver/Src/stm32f3xx_ll_usb.c ****    */
 755:../Drivers/STM32F3xx_HAL_Driver/Src/stm32f3xx_ll_usb.c **** }
 3491              		.loc 1 755 0
 3492 000a 00BF     		nop
 3493 000c 0C37     		adds	r7, r7, #12
 3494              	.LCFI150:
 3495              		.cfi_def_cfa_offset 4
 3496 000e BD46     		mov	sp, r7
 3497              	.LCFI151:
 3498              		.cfi_def_cfa_register 13
 3499              		@ sp needed
 3500 0010 5DF8047B 		ldr	r7, [sp], #4
 3501              	.LCFI152:
 3502              		.cfi_restore 7
 3503              		.cfi_def_cfa_offset 0
 3504 0014 7047     		bx	lr
 3505              		.cfi_endproc
 3506              	.LFE154:
 3508              		.section	.text.USB_EP0_OutStart,"ax",%progbits
 3509              		.align	1
 3510              		.global	USB_EP0_OutStart
 3511              		.syntax unified
 3512              		.thumb
ARM GAS  /tmp/cclKfraO.s 			page 75


 3513              		.thumb_func
 3514              		.fpu fpv4-sp-d16
 3516              	USB_EP0_OutStart:
 3517              	.LFB155:
 756:../Drivers/STM32F3xx_HAL_Driver/Src/stm32f3xx_ll_usb.c **** 
 757:../Drivers/STM32F3xx_HAL_Driver/Src/stm32f3xx_ll_usb.c **** /**
 758:../Drivers/STM32F3xx_HAL_Driver/Src/stm32f3xx_ll_usb.c ****   * @brief  Prepare the EP0 to start the first control setup
 759:../Drivers/STM32F3xx_HAL_Driver/Src/stm32f3xx_ll_usb.c ****   * @param  USBx  Selected device
 760:../Drivers/STM32F3xx_HAL_Driver/Src/stm32f3xx_ll_usb.c ****   * @param  psetup  pointer to setup packet
 761:../Drivers/STM32F3xx_HAL_Driver/Src/stm32f3xx_ll_usb.c ****   * @retval HAL status
 762:../Drivers/STM32F3xx_HAL_Driver/Src/stm32f3xx_ll_usb.c ****   */
 763:../Drivers/STM32F3xx_HAL_Driver/Src/stm32f3xx_ll_usb.c **** HAL_StatusTypeDef USB_EP0_OutStart(USB_TypeDef *USBx, uint8_t *psetup)
 764:../Drivers/STM32F3xx_HAL_Driver/Src/stm32f3xx_ll_usb.c **** {
 3518              		.loc 1 764 0
 3519              		.cfi_startproc
 3520              		@ args = 0, pretend = 0, frame = 8
 3521              		@ frame_needed = 1, uses_anonymous_args = 0
 3522              		@ link register save eliminated.
 3523 0000 80B4     		push	{r7}
 3524              	.LCFI153:
 3525              		.cfi_def_cfa_offset 4
 3526              		.cfi_offset 7, -4
 3527 0002 83B0     		sub	sp, sp, #12
 3528              	.LCFI154:
 3529              		.cfi_def_cfa_offset 16
 3530 0004 00AF     		add	r7, sp, #0
 3531              	.LCFI155:
 3532              		.cfi_def_cfa_register 7
 3533 0006 7860     		str	r0, [r7, #4]
 3534 0008 3960     		str	r1, [r7]
 765:../Drivers/STM32F3xx_HAL_Driver/Src/stm32f3xx_ll_usb.c ****   /* Prevent unused argument(s) compilation warning */
 766:../Drivers/STM32F3xx_HAL_Driver/Src/stm32f3xx_ll_usb.c ****   UNUSED(USBx);
 767:../Drivers/STM32F3xx_HAL_Driver/Src/stm32f3xx_ll_usb.c ****   UNUSED(psetup);
 768:../Drivers/STM32F3xx_HAL_Driver/Src/stm32f3xx_ll_usb.c ****   /* NOTE : - This function is not required by USB Device FS peripheral, it is used
 769:../Drivers/STM32F3xx_HAL_Driver/Src/stm32f3xx_ll_usb.c ****               only by USB OTG FS peripheral.
 770:../Drivers/STM32F3xx_HAL_Driver/Src/stm32f3xx_ll_usb.c ****             - This function is added to ensure compatibility across platforms.
 771:../Drivers/STM32F3xx_HAL_Driver/Src/stm32f3xx_ll_usb.c ****    */
 772:../Drivers/STM32F3xx_HAL_Driver/Src/stm32f3xx_ll_usb.c ****   return HAL_OK;
 3535              		.loc 1 772 0
 3536 000a 0023     		movs	r3, #0
 773:../Drivers/STM32F3xx_HAL_Driver/Src/stm32f3xx_ll_usb.c **** }
 3537              		.loc 1 773 0
 3538 000c 1846     		mov	r0, r3
 3539 000e 0C37     		adds	r7, r7, #12
 3540              	.LCFI156:
 3541              		.cfi_def_cfa_offset 4
 3542 0010 BD46     		mov	sp, r7
 3543              	.LCFI157:
 3544              		.cfi_def_cfa_register 13
 3545              		@ sp needed
 3546 0012 5DF8047B 		ldr	r7, [sp], #4
 3547              	.LCFI158:
 3548              		.cfi_restore 7
 3549              		.cfi_def_cfa_offset 0
 3550 0016 7047     		bx	lr
 3551              		.cfi_endproc
 3552              	.LFE155:
ARM GAS  /tmp/cclKfraO.s 			page 76


 3554              		.section	.text.USB_ActivateRemoteWakeup,"ax",%progbits
 3555              		.align	1
 3556              		.global	USB_ActivateRemoteWakeup
 3557              		.syntax unified
 3558              		.thumb
 3559              		.thumb_func
 3560              		.fpu fpv4-sp-d16
 3562              	USB_ActivateRemoteWakeup:
 3563              	.LFB156:
 774:../Drivers/STM32F3xx_HAL_Driver/Src/stm32f3xx_ll_usb.c **** 
 775:../Drivers/STM32F3xx_HAL_Driver/Src/stm32f3xx_ll_usb.c **** /**
 776:../Drivers/STM32F3xx_HAL_Driver/Src/stm32f3xx_ll_usb.c ****   * @brief  USB_ActivateRemoteWakeup : active remote wakeup signalling
 777:../Drivers/STM32F3xx_HAL_Driver/Src/stm32f3xx_ll_usb.c ****   * @param  USBx  Selected device
 778:../Drivers/STM32F3xx_HAL_Driver/Src/stm32f3xx_ll_usb.c ****   * @retval HAL status
 779:../Drivers/STM32F3xx_HAL_Driver/Src/stm32f3xx_ll_usb.c ****   */
 780:../Drivers/STM32F3xx_HAL_Driver/Src/stm32f3xx_ll_usb.c **** HAL_StatusTypeDef USB_ActivateRemoteWakeup(USB_TypeDef *USBx)
 781:../Drivers/STM32F3xx_HAL_Driver/Src/stm32f3xx_ll_usb.c **** {
 3564              		.loc 1 781 0
 3565              		.cfi_startproc
 3566              		@ args = 0, pretend = 0, frame = 8
 3567              		@ frame_needed = 1, uses_anonymous_args = 0
 3568              		@ link register save eliminated.
 3569 0000 80B4     		push	{r7}
 3570              	.LCFI159:
 3571              		.cfi_def_cfa_offset 4
 3572              		.cfi_offset 7, -4
 3573 0002 83B0     		sub	sp, sp, #12
 3574              	.LCFI160:
 3575              		.cfi_def_cfa_offset 16
 3576 0004 00AF     		add	r7, sp, #0
 3577              	.LCFI161:
 3578              		.cfi_def_cfa_register 7
 3579 0006 7860     		str	r0, [r7, #4]
 782:../Drivers/STM32F3xx_HAL_Driver/Src/stm32f3xx_ll_usb.c ****   USBx->CNTR |= USB_CNTR_RESUME;
 3580              		.loc 1 782 0
 3581 0008 7B68     		ldr	r3, [r7, #4]
 3582 000a B3F84030 		ldrh	r3, [r3, #64]	@ movhi
 3583 000e 9BB2     		uxth	r3, r3
 3584 0010 43F01003 		orr	r3, r3, #16
 3585 0014 9AB2     		uxth	r2, r3
 3586 0016 7B68     		ldr	r3, [r7, #4]
 3587 0018 A3F84020 		strh	r2, [r3, #64]	@ movhi
 783:../Drivers/STM32F3xx_HAL_Driver/Src/stm32f3xx_ll_usb.c **** 
 784:../Drivers/STM32F3xx_HAL_Driver/Src/stm32f3xx_ll_usb.c ****   return HAL_OK;
 3588              		.loc 1 784 0
 3589 001c 0023     		movs	r3, #0
 785:../Drivers/STM32F3xx_HAL_Driver/Src/stm32f3xx_ll_usb.c **** }
 3590              		.loc 1 785 0
 3591 001e 1846     		mov	r0, r3
 3592 0020 0C37     		adds	r7, r7, #12
 3593              	.LCFI162:
 3594              		.cfi_def_cfa_offset 4
 3595 0022 BD46     		mov	sp, r7
 3596              	.LCFI163:
 3597              		.cfi_def_cfa_register 13
 3598              		@ sp needed
 3599 0024 5DF8047B 		ldr	r7, [sp], #4
ARM GAS  /tmp/cclKfraO.s 			page 77


 3600              	.LCFI164:
 3601              		.cfi_restore 7
 3602              		.cfi_def_cfa_offset 0
 3603 0028 7047     		bx	lr
 3604              		.cfi_endproc
 3605              	.LFE156:
 3607              		.section	.text.USB_DeActivateRemoteWakeup,"ax",%progbits
 3608              		.align	1
 3609              		.global	USB_DeActivateRemoteWakeup
 3610              		.syntax unified
 3611              		.thumb
 3612              		.thumb_func
 3613              		.fpu fpv4-sp-d16
 3615              	USB_DeActivateRemoteWakeup:
 3616              	.LFB157:
 786:../Drivers/STM32F3xx_HAL_Driver/Src/stm32f3xx_ll_usb.c **** 
 787:../Drivers/STM32F3xx_HAL_Driver/Src/stm32f3xx_ll_usb.c **** /**
 788:../Drivers/STM32F3xx_HAL_Driver/Src/stm32f3xx_ll_usb.c ****   * @brief  USB_DeActivateRemoteWakeup : de-active remote wakeup signalling
 789:../Drivers/STM32F3xx_HAL_Driver/Src/stm32f3xx_ll_usb.c ****   * @param  USBx  Selected device
 790:../Drivers/STM32F3xx_HAL_Driver/Src/stm32f3xx_ll_usb.c ****   * @retval HAL status
 791:../Drivers/STM32F3xx_HAL_Driver/Src/stm32f3xx_ll_usb.c ****   */
 792:../Drivers/STM32F3xx_HAL_Driver/Src/stm32f3xx_ll_usb.c **** HAL_StatusTypeDef USB_DeActivateRemoteWakeup(USB_TypeDef *USBx)
 793:../Drivers/STM32F3xx_HAL_Driver/Src/stm32f3xx_ll_usb.c **** {
 3617              		.loc 1 793 0
 3618              		.cfi_startproc
 3619              		@ args = 0, pretend = 0, frame = 8
 3620              		@ frame_needed = 1, uses_anonymous_args = 0
 3621              		@ link register save eliminated.
 3622 0000 80B4     		push	{r7}
 3623              	.LCFI165:
 3624              		.cfi_def_cfa_offset 4
 3625              		.cfi_offset 7, -4
 3626 0002 83B0     		sub	sp, sp, #12
 3627              	.LCFI166:
 3628              		.cfi_def_cfa_offset 16
 3629 0004 00AF     		add	r7, sp, #0
 3630              	.LCFI167:
 3631              		.cfi_def_cfa_register 7
 3632 0006 7860     		str	r0, [r7, #4]
 794:../Drivers/STM32F3xx_HAL_Driver/Src/stm32f3xx_ll_usb.c ****   USBx->CNTR &= ~(USB_CNTR_RESUME);
 3633              		.loc 1 794 0
 3634 0008 7B68     		ldr	r3, [r7, #4]
 3635 000a B3F84030 		ldrh	r3, [r3, #64]	@ movhi
 3636 000e 9BB2     		uxth	r3, r3
 3637 0010 23F01003 		bic	r3, r3, #16
 3638 0014 9AB2     		uxth	r2, r3
 3639 0016 7B68     		ldr	r3, [r7, #4]
 3640 0018 A3F84020 		strh	r2, [r3, #64]	@ movhi
 795:../Drivers/STM32F3xx_HAL_Driver/Src/stm32f3xx_ll_usb.c ****   return HAL_OK;
 3641              		.loc 1 795 0
 3642 001c 0023     		movs	r3, #0
 796:../Drivers/STM32F3xx_HAL_Driver/Src/stm32f3xx_ll_usb.c **** }
 3643              		.loc 1 796 0
 3644 001e 1846     		mov	r0, r3
 3645 0020 0C37     		adds	r7, r7, #12
 3646              	.LCFI168:
 3647              		.cfi_def_cfa_offset 4
ARM GAS  /tmp/cclKfraO.s 			page 78


 3648 0022 BD46     		mov	sp, r7
 3649              	.LCFI169:
 3650              		.cfi_def_cfa_register 13
 3651              		@ sp needed
 3652 0024 5DF8047B 		ldr	r7, [sp], #4
 3653              	.LCFI170:
 3654              		.cfi_restore 7
 3655              		.cfi_def_cfa_offset 0
 3656 0028 7047     		bx	lr
 3657              		.cfi_endproc
 3658              	.LFE157:
 3660              		.section	.text.USB_WritePMA,"ax",%progbits
 3661              		.align	1
 3662              		.global	USB_WritePMA
 3663              		.syntax unified
 3664              		.thumb
 3665              		.thumb_func
 3666              		.fpu fpv4-sp-d16
 3668              	USB_WritePMA:
 3669              	.LFB158:
 797:../Drivers/STM32F3xx_HAL_Driver/Src/stm32f3xx_ll_usb.c **** 
 798:../Drivers/STM32F3xx_HAL_Driver/Src/stm32f3xx_ll_usb.c **** /**
 799:../Drivers/STM32F3xx_HAL_Driver/Src/stm32f3xx_ll_usb.c ****   * @brief Copy a buffer from user memory area to packet memory area (PMA)
 800:../Drivers/STM32F3xx_HAL_Driver/Src/stm32f3xx_ll_usb.c ****   * @param   USBx USB peripheral instance register address.
 801:../Drivers/STM32F3xx_HAL_Driver/Src/stm32f3xx_ll_usb.c ****   * @param   pbUsrBuf pointer to user memory area.
 802:../Drivers/STM32F3xx_HAL_Driver/Src/stm32f3xx_ll_usb.c ****   * @param   wPMABufAddr address into PMA.
 803:../Drivers/STM32F3xx_HAL_Driver/Src/stm32f3xx_ll_usb.c ****   * @param   wNBytes: no. of bytes to be copied.
 804:../Drivers/STM32F3xx_HAL_Driver/Src/stm32f3xx_ll_usb.c ****   * @retval None
 805:../Drivers/STM32F3xx_HAL_Driver/Src/stm32f3xx_ll_usb.c ****   */
 806:../Drivers/STM32F3xx_HAL_Driver/Src/stm32f3xx_ll_usb.c **** void USB_WritePMA(USB_TypeDef *USBx, uint8_t *pbUsrBuf, uint16_t wPMABufAddr, uint16_t wNBytes)
 807:../Drivers/STM32F3xx_HAL_Driver/Src/stm32f3xx_ll_usb.c **** {
 3670              		.loc 1 807 0
 3671              		.cfi_startproc
 3672              		@ args = 0, pretend = 0, frame = 48
 3673              		@ frame_needed = 1, uses_anonymous_args = 0
 3674              		@ link register save eliminated.
 3675 0000 80B4     		push	{r7}
 3676              	.LCFI171:
 3677              		.cfi_def_cfa_offset 4
 3678              		.cfi_offset 7, -4
 3679 0002 8DB0     		sub	sp, sp, #52
 3680              	.LCFI172:
 3681              		.cfi_def_cfa_offset 56
 3682 0004 00AF     		add	r7, sp, #0
 3683              	.LCFI173:
 3684              		.cfi_def_cfa_register 7
 3685 0006 F860     		str	r0, [r7, #12]
 3686 0008 B960     		str	r1, [r7, #8]
 3687 000a 1146     		mov	r1, r2
 3688 000c 1A46     		mov	r2, r3
 3689 000e 0B46     		mov	r3, r1	@ movhi
 3690 0010 FB80     		strh	r3, [r7, #6]	@ movhi
 3691 0012 1346     		mov	r3, r2	@ movhi
 3692 0014 BB80     		strh	r3, [r7, #4]	@ movhi
 808:../Drivers/STM32F3xx_HAL_Driver/Src/stm32f3xx_ll_usb.c ****   uint32_t n = ((uint32_t)wNBytes + 1U) >> 1;
 3693              		.loc 1 808 0
 3694 0016 BB88     		ldrh	r3, [r7, #4]
ARM GAS  /tmp/cclKfraO.s 			page 79


 3695 0018 0133     		adds	r3, r3, #1
 3696 001a 5B08     		lsrs	r3, r3, #1
 3697 001c 3B62     		str	r3, [r7, #32]
 809:../Drivers/STM32F3xx_HAL_Driver/Src/stm32f3xx_ll_usb.c ****   uint32_t BaseAddr = (uint32_t)USBx;
 3698              		.loc 1 809 0
 3699 001e FB68     		ldr	r3, [r7, #12]
 3700 0020 FB61     		str	r3, [r7, #28]
 810:../Drivers/STM32F3xx_HAL_Driver/Src/stm32f3xx_ll_usb.c ****   uint32_t i, temp1, temp2;
 811:../Drivers/STM32F3xx_HAL_Driver/Src/stm32f3xx_ll_usb.c ****   __IO uint16_t *pdwVal;
 812:../Drivers/STM32F3xx_HAL_Driver/Src/stm32f3xx_ll_usb.c ****   uint8_t *pBuf = pbUsrBuf;
 3701              		.loc 1 812 0
 3702 0022 BB68     		ldr	r3, [r7, #8]
 3703 0024 7B62     		str	r3, [r7, #36]
 813:../Drivers/STM32F3xx_HAL_Driver/Src/stm32f3xx_ll_usb.c **** 
 814:../Drivers/STM32F3xx_HAL_Driver/Src/stm32f3xx_ll_usb.c ****   pdwVal = (__IO uint16_t *)(BaseAddr + 0x400U + ((uint32_t)wPMABufAddr * PMA_ACCESS));
 3704              		.loc 1 814 0
 3705 0026 FB88     		ldrh	r3, [r7, #6]
 3706 0028 5A00     		lsls	r2, r3, #1
 3707 002a FB69     		ldr	r3, [r7, #28]
 3708 002c 1344     		add	r3, r3, r2
 3709 002e 03F58063 		add	r3, r3, #1024
 3710 0032 BB62     		str	r3, [r7, #40]
 815:../Drivers/STM32F3xx_HAL_Driver/Src/stm32f3xx_ll_usb.c **** 
 816:../Drivers/STM32F3xx_HAL_Driver/Src/stm32f3xx_ll_usb.c ****   for (i = n; i != 0U; i--)
 3711              		.loc 1 816 0
 3712 0034 3B6A     		ldr	r3, [r7, #32]
 3713 0036 FB62     		str	r3, [r7, #44]
 3714 0038 1EE0     		b	.L167
 3715              	.L168:
 817:../Drivers/STM32F3xx_HAL_Driver/Src/stm32f3xx_ll_usb.c ****   {
 818:../Drivers/STM32F3xx_HAL_Driver/Src/stm32f3xx_ll_usb.c ****     temp1 = *pBuf;
 3716              		.loc 1 818 0 discriminator 3
 3717 003a 7B6A     		ldr	r3, [r7, #36]
 3718 003c 1B78     		ldrb	r3, [r3]	@ zero_extendqisi2
 3719 003e BB61     		str	r3, [r7, #24]
 819:../Drivers/STM32F3xx_HAL_Driver/Src/stm32f3xx_ll_usb.c ****     pBuf++;
 3720              		.loc 1 819 0 discriminator 3
 3721 0040 7B6A     		ldr	r3, [r7, #36]
 3722 0042 0133     		adds	r3, r3, #1
 3723 0044 7B62     		str	r3, [r7, #36]
 820:../Drivers/STM32F3xx_HAL_Driver/Src/stm32f3xx_ll_usb.c ****     temp2 = temp1 | ((uint16_t)((uint16_t) *pBuf << 8));
 3724              		.loc 1 820 0 discriminator 3
 3725 0046 7B6A     		ldr	r3, [r7, #36]
 3726 0048 1B78     		ldrb	r3, [r3]	@ zero_extendqisi2
 3727 004a 9BB2     		uxth	r3, r3
 3728 004c 1B02     		lsls	r3, r3, #8
 3729 004e 9BB2     		uxth	r3, r3
 3730 0050 1A46     		mov	r2, r3
 3731 0052 BB69     		ldr	r3, [r7, #24]
 3732 0054 1343     		orrs	r3, r3, r2
 3733 0056 7B61     		str	r3, [r7, #20]
 821:../Drivers/STM32F3xx_HAL_Driver/Src/stm32f3xx_ll_usb.c ****     *pdwVal = (uint16_t)temp2;
 3734              		.loc 1 821 0 discriminator 3
 3735 0058 7B69     		ldr	r3, [r7, #20]
 3736 005a 9AB2     		uxth	r2, r3
 3737 005c BB6A     		ldr	r3, [r7, #40]
 3738 005e 1A80     		strh	r2, [r3]	@ movhi
ARM GAS  /tmp/cclKfraO.s 			page 80


 822:../Drivers/STM32F3xx_HAL_Driver/Src/stm32f3xx_ll_usb.c ****     pdwVal++;
 3739              		.loc 1 822 0 discriminator 3
 3740 0060 BB6A     		ldr	r3, [r7, #40]
 3741 0062 0233     		adds	r3, r3, #2
 3742 0064 BB62     		str	r3, [r7, #40]
 823:../Drivers/STM32F3xx_HAL_Driver/Src/stm32f3xx_ll_usb.c **** 
 824:../Drivers/STM32F3xx_HAL_Driver/Src/stm32f3xx_ll_usb.c **** #if PMA_ACCESS > 1U
 825:../Drivers/STM32F3xx_HAL_Driver/Src/stm32f3xx_ll_usb.c ****     pdwVal++;
 3743              		.loc 1 825 0 discriminator 3
 3744 0066 BB6A     		ldr	r3, [r7, #40]
 3745 0068 0233     		adds	r3, r3, #2
 3746 006a BB62     		str	r3, [r7, #40]
 826:../Drivers/STM32F3xx_HAL_Driver/Src/stm32f3xx_ll_usb.c **** #endif
 827:../Drivers/STM32F3xx_HAL_Driver/Src/stm32f3xx_ll_usb.c **** 
 828:../Drivers/STM32F3xx_HAL_Driver/Src/stm32f3xx_ll_usb.c ****     pBuf++;
 3747              		.loc 1 828 0 discriminator 3
 3748 006c 7B6A     		ldr	r3, [r7, #36]
 3749 006e 0133     		adds	r3, r3, #1
 3750 0070 7B62     		str	r3, [r7, #36]
 816:../Drivers/STM32F3xx_HAL_Driver/Src/stm32f3xx_ll_usb.c ****   {
 3751              		.loc 1 816 0 discriminator 3
 3752 0072 FB6A     		ldr	r3, [r7, #44]
 3753 0074 013B     		subs	r3, r3, #1
 3754 0076 FB62     		str	r3, [r7, #44]
 3755              	.L167:
 816:../Drivers/STM32F3xx_HAL_Driver/Src/stm32f3xx_ll_usb.c ****   {
 3756              		.loc 1 816 0 is_stmt 0 discriminator 1
 3757 0078 FB6A     		ldr	r3, [r7, #44]
 3758 007a 002B     		cmp	r3, #0
 3759 007c DDD1     		bne	.L168
 829:../Drivers/STM32F3xx_HAL_Driver/Src/stm32f3xx_ll_usb.c ****   }
 830:../Drivers/STM32F3xx_HAL_Driver/Src/stm32f3xx_ll_usb.c **** }
 3760              		.loc 1 830 0 is_stmt 1
 3761 007e 00BF     		nop
 3762 0080 3437     		adds	r7, r7, #52
 3763              	.LCFI174:
 3764              		.cfi_def_cfa_offset 4
 3765 0082 BD46     		mov	sp, r7
 3766              	.LCFI175:
 3767              		.cfi_def_cfa_register 13
 3768              		@ sp needed
 3769 0084 5DF8047B 		ldr	r7, [sp], #4
 3770              	.LCFI176:
 3771              		.cfi_restore 7
 3772              		.cfi_def_cfa_offset 0
 3773 0088 7047     		bx	lr
 3774              		.cfi_endproc
 3775              	.LFE158:
 3777              		.section	.text.USB_ReadPMA,"ax",%progbits
 3778              		.align	1
 3779              		.global	USB_ReadPMA
 3780              		.syntax unified
 3781              		.thumb
 3782              		.thumb_func
 3783              		.fpu fpv4-sp-d16
 3785              	USB_ReadPMA:
 3786              	.LFB159:
ARM GAS  /tmp/cclKfraO.s 			page 81


 831:../Drivers/STM32F3xx_HAL_Driver/Src/stm32f3xx_ll_usb.c **** 
 832:../Drivers/STM32F3xx_HAL_Driver/Src/stm32f3xx_ll_usb.c **** /**
 833:../Drivers/STM32F3xx_HAL_Driver/Src/stm32f3xx_ll_usb.c ****   * @brief Copy a buffer from user memory area to packet memory area (PMA)
 834:../Drivers/STM32F3xx_HAL_Driver/Src/stm32f3xx_ll_usb.c ****   * @param   USBx: USB peripheral instance register address.
 835:../Drivers/STM32F3xx_HAL_Driver/Src/stm32f3xx_ll_usb.c ****   * @param   pbUsrBuf pointer to user memory area.
 836:../Drivers/STM32F3xx_HAL_Driver/Src/stm32f3xx_ll_usb.c ****   * @param   wPMABufAddr address into PMA.
 837:../Drivers/STM32F3xx_HAL_Driver/Src/stm32f3xx_ll_usb.c ****   * @param   wNBytes: no. of bytes to be copied.
 838:../Drivers/STM32F3xx_HAL_Driver/Src/stm32f3xx_ll_usb.c ****   * @retval None
 839:../Drivers/STM32F3xx_HAL_Driver/Src/stm32f3xx_ll_usb.c ****   */
 840:../Drivers/STM32F3xx_HAL_Driver/Src/stm32f3xx_ll_usb.c **** void USB_ReadPMA(USB_TypeDef *USBx, uint8_t *pbUsrBuf, uint16_t wPMABufAddr, uint16_t wNBytes)
 841:../Drivers/STM32F3xx_HAL_Driver/Src/stm32f3xx_ll_usb.c **** {
 3787              		.loc 1 841 0
 3788              		.cfi_startproc
 3789              		@ args = 0, pretend = 0, frame = 40
 3790              		@ frame_needed = 1, uses_anonymous_args = 0
 3791              		@ link register save eliminated.
 3792 0000 80B4     		push	{r7}
 3793              	.LCFI177:
 3794              		.cfi_def_cfa_offset 4
 3795              		.cfi_offset 7, -4
 3796 0002 8BB0     		sub	sp, sp, #44
 3797              	.LCFI178:
 3798              		.cfi_def_cfa_offset 48
 3799 0004 00AF     		add	r7, sp, #0
 3800              	.LCFI179:
 3801              		.cfi_def_cfa_register 7
 3802 0006 F860     		str	r0, [r7, #12]
 3803 0008 B960     		str	r1, [r7, #8]
 3804 000a 1146     		mov	r1, r2
 3805 000c 1A46     		mov	r2, r3
 3806 000e 0B46     		mov	r3, r1	@ movhi
 3807 0010 FB80     		strh	r3, [r7, #6]	@ movhi
 3808 0012 1346     		mov	r3, r2	@ movhi
 3809 0014 BB80     		strh	r3, [r7, #4]	@ movhi
 842:../Drivers/STM32F3xx_HAL_Driver/Src/stm32f3xx_ll_usb.c ****   uint32_t n = (uint32_t)wNBytes >> 1;
 3810              		.loc 1 842 0
 3811 0016 BB88     		ldrh	r3, [r7, #4]
 3812 0018 5B08     		lsrs	r3, r3, #1
 3813 001a 9BB2     		uxth	r3, r3
 3814 001c BB61     		str	r3, [r7, #24]
 843:../Drivers/STM32F3xx_HAL_Driver/Src/stm32f3xx_ll_usb.c ****   uint32_t BaseAddr = (uint32_t)USBx;
 3815              		.loc 1 843 0
 3816 001e FB68     		ldr	r3, [r7, #12]
 3817 0020 7B61     		str	r3, [r7, #20]
 844:../Drivers/STM32F3xx_HAL_Driver/Src/stm32f3xx_ll_usb.c ****   uint32_t i, temp;
 845:../Drivers/STM32F3xx_HAL_Driver/Src/stm32f3xx_ll_usb.c ****   __IO uint16_t *pdwVal;
 846:../Drivers/STM32F3xx_HAL_Driver/Src/stm32f3xx_ll_usb.c ****   uint8_t *pBuf = pbUsrBuf;
 3818              		.loc 1 846 0
 3819 0022 BB68     		ldr	r3, [r7, #8]
 3820 0024 FB61     		str	r3, [r7, #28]
 847:../Drivers/STM32F3xx_HAL_Driver/Src/stm32f3xx_ll_usb.c **** 
 848:../Drivers/STM32F3xx_HAL_Driver/Src/stm32f3xx_ll_usb.c ****   pdwVal = (__IO uint16_t *)(BaseAddr + 0x400U + ((uint32_t)wPMABufAddr * PMA_ACCESS));
 3821              		.loc 1 848 0
 3822 0026 FB88     		ldrh	r3, [r7, #6]
 3823 0028 5A00     		lsls	r2, r3, #1
 3824 002a 7B69     		ldr	r3, [r7, #20]
 3825 002c 1344     		add	r3, r3, r2
ARM GAS  /tmp/cclKfraO.s 			page 82


 3826 002e 03F58063 		add	r3, r3, #1024
 3827 0032 3B62     		str	r3, [r7, #32]
 849:../Drivers/STM32F3xx_HAL_Driver/Src/stm32f3xx_ll_usb.c **** 
 850:../Drivers/STM32F3xx_HAL_Driver/Src/stm32f3xx_ll_usb.c ****   for (i = n; i != 0U; i--)
 3828              		.loc 1 850 0
 3829 0034 BB69     		ldr	r3, [r7, #24]
 3830 0036 7B62     		str	r3, [r7, #36]
 3831 0038 1BE0     		b	.L170
 3832              	.L171:
 851:../Drivers/STM32F3xx_HAL_Driver/Src/stm32f3xx_ll_usb.c ****   {
 852:../Drivers/STM32F3xx_HAL_Driver/Src/stm32f3xx_ll_usb.c ****     temp = *(__IO uint16_t *)pdwVal;
 3833              		.loc 1 852 0 discriminator 3
 3834 003a 3B6A     		ldr	r3, [r7, #32]
 3835 003c 1B88     		ldrh	r3, [r3]	@ movhi
 3836 003e 9BB2     		uxth	r3, r3
 3837 0040 3B61     		str	r3, [r7, #16]
 853:../Drivers/STM32F3xx_HAL_Driver/Src/stm32f3xx_ll_usb.c ****     pdwVal++;
 3838              		.loc 1 853 0 discriminator 3
 3839 0042 3B6A     		ldr	r3, [r7, #32]
 3840 0044 0233     		adds	r3, r3, #2
 3841 0046 3B62     		str	r3, [r7, #32]
 854:../Drivers/STM32F3xx_HAL_Driver/Src/stm32f3xx_ll_usb.c ****     *pBuf = (uint8_t)((temp >> 0) & 0xFFU);
 3842              		.loc 1 854 0 discriminator 3
 3843 0048 3B69     		ldr	r3, [r7, #16]
 3844 004a DAB2     		uxtb	r2, r3
 3845 004c FB69     		ldr	r3, [r7, #28]
 3846 004e 1A70     		strb	r2, [r3]
 855:../Drivers/STM32F3xx_HAL_Driver/Src/stm32f3xx_ll_usb.c ****     pBuf++;
 3847              		.loc 1 855 0 discriminator 3
 3848 0050 FB69     		ldr	r3, [r7, #28]
 3849 0052 0133     		adds	r3, r3, #1
 3850 0054 FB61     		str	r3, [r7, #28]
 856:../Drivers/STM32F3xx_HAL_Driver/Src/stm32f3xx_ll_usb.c ****     *pBuf = (uint8_t)((temp >> 8) & 0xFFU);
 3851              		.loc 1 856 0 discriminator 3
 3852 0056 3B69     		ldr	r3, [r7, #16]
 3853 0058 1B0A     		lsrs	r3, r3, #8
 3854 005a DAB2     		uxtb	r2, r3
 3855 005c FB69     		ldr	r3, [r7, #28]
 3856 005e 1A70     		strb	r2, [r3]
 857:../Drivers/STM32F3xx_HAL_Driver/Src/stm32f3xx_ll_usb.c ****     pBuf++;
 3857              		.loc 1 857 0 discriminator 3
 3858 0060 FB69     		ldr	r3, [r7, #28]
 3859 0062 0133     		adds	r3, r3, #1
 3860 0064 FB61     		str	r3, [r7, #28]
 858:../Drivers/STM32F3xx_HAL_Driver/Src/stm32f3xx_ll_usb.c **** 
 859:../Drivers/STM32F3xx_HAL_Driver/Src/stm32f3xx_ll_usb.c **** #if PMA_ACCESS > 1U
 860:../Drivers/STM32F3xx_HAL_Driver/Src/stm32f3xx_ll_usb.c ****     pdwVal++;
 3861              		.loc 1 860 0 discriminator 3
 3862 0066 3B6A     		ldr	r3, [r7, #32]
 3863 0068 0233     		adds	r3, r3, #2
 3864 006a 3B62     		str	r3, [r7, #32]
 850:../Drivers/STM32F3xx_HAL_Driver/Src/stm32f3xx_ll_usb.c ****   {
 3865              		.loc 1 850 0 discriminator 3
 3866 006c 7B6A     		ldr	r3, [r7, #36]
 3867 006e 013B     		subs	r3, r3, #1
 3868 0070 7B62     		str	r3, [r7, #36]
 3869              	.L170:
ARM GAS  /tmp/cclKfraO.s 			page 83


 850:../Drivers/STM32F3xx_HAL_Driver/Src/stm32f3xx_ll_usb.c ****   {
 3870              		.loc 1 850 0 is_stmt 0 discriminator 1
 3871 0072 7B6A     		ldr	r3, [r7, #36]
 3872 0074 002B     		cmp	r3, #0
 3873 0076 E0D1     		bne	.L171
 861:../Drivers/STM32F3xx_HAL_Driver/Src/stm32f3xx_ll_usb.c **** #endif
 862:../Drivers/STM32F3xx_HAL_Driver/Src/stm32f3xx_ll_usb.c ****   }
 863:../Drivers/STM32F3xx_HAL_Driver/Src/stm32f3xx_ll_usb.c **** 
 864:../Drivers/STM32F3xx_HAL_Driver/Src/stm32f3xx_ll_usb.c ****   if ((wNBytes % 2U) != 0U)
 3874              		.loc 1 864 0 is_stmt 1
 3875 0078 BB88     		ldrh	r3, [r7, #4]	@ movhi
 3876 007a 03F00103 		and	r3, r3, #1
 3877 007e 9BB2     		uxth	r3, r3
 3878 0080 002B     		cmp	r3, #0
 3879 0082 07D0     		beq	.L173
 865:../Drivers/STM32F3xx_HAL_Driver/Src/stm32f3xx_ll_usb.c ****   {
 866:../Drivers/STM32F3xx_HAL_Driver/Src/stm32f3xx_ll_usb.c ****     temp = *pdwVal;
 3880              		.loc 1 866 0
 3881 0084 3B6A     		ldr	r3, [r7, #32]
 3882 0086 1B88     		ldrh	r3, [r3]	@ movhi
 3883 0088 9BB2     		uxth	r3, r3
 3884 008a 3B61     		str	r3, [r7, #16]
 867:../Drivers/STM32F3xx_HAL_Driver/Src/stm32f3xx_ll_usb.c ****     *pBuf = (uint8_t)((temp >> 0) & 0xFFU);
 3885              		.loc 1 867 0
 3886 008c 3B69     		ldr	r3, [r7, #16]
 3887 008e DAB2     		uxtb	r2, r3
 3888 0090 FB69     		ldr	r3, [r7, #28]
 3889 0092 1A70     		strb	r2, [r3]
 3890              	.L173:
 868:../Drivers/STM32F3xx_HAL_Driver/Src/stm32f3xx_ll_usb.c ****   }
 869:../Drivers/STM32F3xx_HAL_Driver/Src/stm32f3xx_ll_usb.c **** }
 3891              		.loc 1 869 0
 3892 0094 00BF     		nop
 3893 0096 2C37     		adds	r7, r7, #44
 3894              	.LCFI180:
 3895              		.cfi_def_cfa_offset 4
 3896 0098 BD46     		mov	sp, r7
 3897              	.LCFI181:
 3898              		.cfi_def_cfa_register 13
 3899              		@ sp needed
 3900 009a 5DF8047B 		ldr	r7, [sp], #4
 3901              	.LCFI182:
 3902              		.cfi_restore 7
 3903              		.cfi_def_cfa_offset 0
 3904 009e 7047     		bx	lr
 3905              		.cfi_endproc
 3906              	.LFE159:
 3908              		.text
 3909              	.Letext0:
 3910              		.file 2 "/usr/include/newlib/machine/_default_types.h"
 3911              		.file 3 "/usr/include/newlib/sys/_stdint.h"
 3912              		.file 4 "../Drivers/CMSIS/Include/core_cm4.h"
 3913              		.file 5 "../Drivers/CMSIS/Device/ST/STM32F3xx/Include/system_stm32f3xx.h"
 3914              		.file 6 "../Drivers/CMSIS/Device/ST/STM32F3xx/Include/stm32f303xc.h"
 3915              		.file 7 "../Drivers/STM32F3xx_HAL_Driver/Inc/stm32f3xx_hal_def.h"
 3916              		.file 8 "../Drivers/STM32F3xx_HAL_Driver/Inc/stm32f3xx_ll_usb.h"
 3917              		.file 9 "../Drivers/STM32F3xx_HAL_Driver/Inc/stm32f3xx_hal.h"
ARM GAS  /tmp/cclKfraO.s 			page 84


ARM GAS  /tmp/cclKfraO.s 			page 85

