ARM GAS  /tmp/ccZKQXDx.s 			page 1


   1              		.cpu cortex-m4
   2              		.eabi_attribute 27, 1
   3              		.eabi_attribute 28, 1
   4              		.eabi_attribute 20, 1
   5              		.eabi_attribute 21, 1
   6              		.eabi_attribute 23, 3
   7              		.eabi_attribute 24, 1
   8              		.eabi_attribute 25, 1
   9              		.eabi_attribute 26, 1
  10              		.eabi_attribute 30, 6
  11              		.eabi_attribute 34, 1
  12              		.eabi_attribute 18, 4
  13              		.file	"usbd_core.c"
  14              		.text
  15              	.Ltext0:
  16              		.cfi_sections	.debug_frame
  17              		.section	.text.USBD_Init,"ax",%progbits
  18              		.align	1
  19              		.global	USBD_Init
  20              		.syntax unified
  21              		.thumb
  22              		.thumb_func
  23              		.fpu fpv4-sp-d16
  25              	USBD_Init:
  26              	.LFB131:
  27              		.file 1 "../Middlewares/ST/STM32_USB_Device_Library/Core/Src/usbd_core.c"
   1:../Middlewares/ST/STM32_USB_Device_Library/Core/Src/usbd_core.c **** /**
   2:../Middlewares/ST/STM32_USB_Device_Library/Core/Src/usbd_core.c ****   ******************************************************************************
   3:../Middlewares/ST/STM32_USB_Device_Library/Core/Src/usbd_core.c ****   * @file    usbd_core.c
   4:../Middlewares/ST/STM32_USB_Device_Library/Core/Src/usbd_core.c ****   * @author  MCD Application Team
   5:../Middlewares/ST/STM32_USB_Device_Library/Core/Src/usbd_core.c ****   * @brief   This file provides all the USBD core functions.
   6:../Middlewares/ST/STM32_USB_Device_Library/Core/Src/usbd_core.c ****   ******************************************************************************
   7:../Middlewares/ST/STM32_USB_Device_Library/Core/Src/usbd_core.c ****   * @attention
   8:../Middlewares/ST/STM32_USB_Device_Library/Core/Src/usbd_core.c ****   *
   9:../Middlewares/ST/STM32_USB_Device_Library/Core/Src/usbd_core.c ****   * <h2><center>&copy; Copyright (c) 2015 STMicroelectronics.
  10:../Middlewares/ST/STM32_USB_Device_Library/Core/Src/usbd_core.c ****   * All rights reserved.</center></h2>
  11:../Middlewares/ST/STM32_USB_Device_Library/Core/Src/usbd_core.c ****   *
  12:../Middlewares/ST/STM32_USB_Device_Library/Core/Src/usbd_core.c ****   * This software component is licensed by ST under Ultimate Liberty license
  13:../Middlewares/ST/STM32_USB_Device_Library/Core/Src/usbd_core.c ****   * SLA0044, the "License"; You may not use this file except in compliance with
  14:../Middlewares/ST/STM32_USB_Device_Library/Core/Src/usbd_core.c ****   * the License. You may obtain a copy of the License at:
  15:../Middlewares/ST/STM32_USB_Device_Library/Core/Src/usbd_core.c ****   *                      www.st.com/SLA0044
  16:../Middlewares/ST/STM32_USB_Device_Library/Core/Src/usbd_core.c ****   *
  17:../Middlewares/ST/STM32_USB_Device_Library/Core/Src/usbd_core.c ****   ******************************************************************************
  18:../Middlewares/ST/STM32_USB_Device_Library/Core/Src/usbd_core.c ****   */
  19:../Middlewares/ST/STM32_USB_Device_Library/Core/Src/usbd_core.c **** 
  20:../Middlewares/ST/STM32_USB_Device_Library/Core/Src/usbd_core.c **** /* Includes ------------------------------------------------------------------*/
  21:../Middlewares/ST/STM32_USB_Device_Library/Core/Src/usbd_core.c **** #include "usbd_core.h"
  22:../Middlewares/ST/STM32_USB_Device_Library/Core/Src/usbd_core.c **** 
  23:../Middlewares/ST/STM32_USB_Device_Library/Core/Src/usbd_core.c **** /** @addtogroup STM32_USBD_DEVICE_LIBRARY
  24:../Middlewares/ST/STM32_USB_Device_Library/Core/Src/usbd_core.c **** * @{
  25:../Middlewares/ST/STM32_USB_Device_Library/Core/Src/usbd_core.c **** */
  26:../Middlewares/ST/STM32_USB_Device_Library/Core/Src/usbd_core.c **** 
  27:../Middlewares/ST/STM32_USB_Device_Library/Core/Src/usbd_core.c **** 
  28:../Middlewares/ST/STM32_USB_Device_Library/Core/Src/usbd_core.c **** /** @defgroup USBD_CORE
  29:../Middlewares/ST/STM32_USB_Device_Library/Core/Src/usbd_core.c **** * @brief usbd core module
  30:../Middlewares/ST/STM32_USB_Device_Library/Core/Src/usbd_core.c **** * @{
  31:../Middlewares/ST/STM32_USB_Device_Library/Core/Src/usbd_core.c **** */
ARM GAS  /tmp/ccZKQXDx.s 			page 2


  32:../Middlewares/ST/STM32_USB_Device_Library/Core/Src/usbd_core.c **** 
  33:../Middlewares/ST/STM32_USB_Device_Library/Core/Src/usbd_core.c **** /** @defgroup USBD_CORE_Private_TypesDefinitions
  34:../Middlewares/ST/STM32_USB_Device_Library/Core/Src/usbd_core.c **** * @{
  35:../Middlewares/ST/STM32_USB_Device_Library/Core/Src/usbd_core.c **** */
  36:../Middlewares/ST/STM32_USB_Device_Library/Core/Src/usbd_core.c **** 
  37:../Middlewares/ST/STM32_USB_Device_Library/Core/Src/usbd_core.c **** /**
  38:../Middlewares/ST/STM32_USB_Device_Library/Core/Src/usbd_core.c **** * @}
  39:../Middlewares/ST/STM32_USB_Device_Library/Core/Src/usbd_core.c **** */
  40:../Middlewares/ST/STM32_USB_Device_Library/Core/Src/usbd_core.c **** 
  41:../Middlewares/ST/STM32_USB_Device_Library/Core/Src/usbd_core.c **** 
  42:../Middlewares/ST/STM32_USB_Device_Library/Core/Src/usbd_core.c **** /** @defgroup USBD_CORE_Private_Defines
  43:../Middlewares/ST/STM32_USB_Device_Library/Core/Src/usbd_core.c **** * @{
  44:../Middlewares/ST/STM32_USB_Device_Library/Core/Src/usbd_core.c **** */
  45:../Middlewares/ST/STM32_USB_Device_Library/Core/Src/usbd_core.c **** 
  46:../Middlewares/ST/STM32_USB_Device_Library/Core/Src/usbd_core.c **** /**
  47:../Middlewares/ST/STM32_USB_Device_Library/Core/Src/usbd_core.c **** * @}
  48:../Middlewares/ST/STM32_USB_Device_Library/Core/Src/usbd_core.c **** */
  49:../Middlewares/ST/STM32_USB_Device_Library/Core/Src/usbd_core.c **** 
  50:../Middlewares/ST/STM32_USB_Device_Library/Core/Src/usbd_core.c **** 
  51:../Middlewares/ST/STM32_USB_Device_Library/Core/Src/usbd_core.c **** /** @defgroup USBD_CORE_Private_Macros
  52:../Middlewares/ST/STM32_USB_Device_Library/Core/Src/usbd_core.c **** * @{
  53:../Middlewares/ST/STM32_USB_Device_Library/Core/Src/usbd_core.c **** */
  54:../Middlewares/ST/STM32_USB_Device_Library/Core/Src/usbd_core.c **** 
  55:../Middlewares/ST/STM32_USB_Device_Library/Core/Src/usbd_core.c **** /**
  56:../Middlewares/ST/STM32_USB_Device_Library/Core/Src/usbd_core.c **** * @}
  57:../Middlewares/ST/STM32_USB_Device_Library/Core/Src/usbd_core.c **** */
  58:../Middlewares/ST/STM32_USB_Device_Library/Core/Src/usbd_core.c **** 
  59:../Middlewares/ST/STM32_USB_Device_Library/Core/Src/usbd_core.c **** 
  60:../Middlewares/ST/STM32_USB_Device_Library/Core/Src/usbd_core.c **** /** @defgroup USBD_CORE_Private_FunctionPrototypes
  61:../Middlewares/ST/STM32_USB_Device_Library/Core/Src/usbd_core.c **** * @{
  62:../Middlewares/ST/STM32_USB_Device_Library/Core/Src/usbd_core.c **** */
  63:../Middlewares/ST/STM32_USB_Device_Library/Core/Src/usbd_core.c **** 
  64:../Middlewares/ST/STM32_USB_Device_Library/Core/Src/usbd_core.c **** /**
  65:../Middlewares/ST/STM32_USB_Device_Library/Core/Src/usbd_core.c **** * @}
  66:../Middlewares/ST/STM32_USB_Device_Library/Core/Src/usbd_core.c **** */
  67:../Middlewares/ST/STM32_USB_Device_Library/Core/Src/usbd_core.c **** 
  68:../Middlewares/ST/STM32_USB_Device_Library/Core/Src/usbd_core.c **** /** @defgroup USBD_CORE_Private_Variables
  69:../Middlewares/ST/STM32_USB_Device_Library/Core/Src/usbd_core.c **** * @{
  70:../Middlewares/ST/STM32_USB_Device_Library/Core/Src/usbd_core.c **** */
  71:../Middlewares/ST/STM32_USB_Device_Library/Core/Src/usbd_core.c **** 
  72:../Middlewares/ST/STM32_USB_Device_Library/Core/Src/usbd_core.c **** /**
  73:../Middlewares/ST/STM32_USB_Device_Library/Core/Src/usbd_core.c **** * @}
  74:../Middlewares/ST/STM32_USB_Device_Library/Core/Src/usbd_core.c **** */
  75:../Middlewares/ST/STM32_USB_Device_Library/Core/Src/usbd_core.c **** 
  76:../Middlewares/ST/STM32_USB_Device_Library/Core/Src/usbd_core.c **** 
  77:../Middlewares/ST/STM32_USB_Device_Library/Core/Src/usbd_core.c **** /** @defgroup USBD_CORE_Private_Functions
  78:../Middlewares/ST/STM32_USB_Device_Library/Core/Src/usbd_core.c **** * @{
  79:../Middlewares/ST/STM32_USB_Device_Library/Core/Src/usbd_core.c **** */
  80:../Middlewares/ST/STM32_USB_Device_Library/Core/Src/usbd_core.c **** 
  81:../Middlewares/ST/STM32_USB_Device_Library/Core/Src/usbd_core.c **** /**
  82:../Middlewares/ST/STM32_USB_Device_Library/Core/Src/usbd_core.c **** * @brief  USBD_Init
  83:../Middlewares/ST/STM32_USB_Device_Library/Core/Src/usbd_core.c **** *         Initializes the device stack and load the class driver
  84:../Middlewares/ST/STM32_USB_Device_Library/Core/Src/usbd_core.c **** * @param  pdev: device instance
  85:../Middlewares/ST/STM32_USB_Device_Library/Core/Src/usbd_core.c **** * @param  pdesc: Descriptor structure address
  86:../Middlewares/ST/STM32_USB_Device_Library/Core/Src/usbd_core.c **** * @param  id: Low level core index
  87:../Middlewares/ST/STM32_USB_Device_Library/Core/Src/usbd_core.c **** * @retval None
  88:../Middlewares/ST/STM32_USB_Device_Library/Core/Src/usbd_core.c **** */
ARM GAS  /tmp/ccZKQXDx.s 			page 3


  89:../Middlewares/ST/STM32_USB_Device_Library/Core/Src/usbd_core.c **** USBD_StatusTypeDef USBD_Init(USBD_HandleTypeDef *pdev,
  90:../Middlewares/ST/STM32_USB_Device_Library/Core/Src/usbd_core.c ****                              USBD_DescriptorsTypeDef *pdesc, uint8_t id)
  91:../Middlewares/ST/STM32_USB_Device_Library/Core/Src/usbd_core.c **** {
  28              		.loc 1 91 0
  29              		.cfi_startproc
  30              		@ args = 0, pretend = 0, frame = 16
  31              		@ frame_needed = 1, uses_anonymous_args = 0
  32 0000 80B5     		push	{r7, lr}
  33              	.LCFI0:
  34              		.cfi_def_cfa_offset 8
  35              		.cfi_offset 7, -8
  36              		.cfi_offset 14, -4
  37 0002 84B0     		sub	sp, sp, #16
  38              	.LCFI1:
  39              		.cfi_def_cfa_offset 24
  40 0004 00AF     		add	r7, sp, #0
  41              	.LCFI2:
  42              		.cfi_def_cfa_register 7
  43 0006 F860     		str	r0, [r7, #12]
  44 0008 B960     		str	r1, [r7, #8]
  45 000a 1346     		mov	r3, r2
  46 000c FB71     		strb	r3, [r7, #7]
  92:../Middlewares/ST/STM32_USB_Device_Library/Core/Src/usbd_core.c ****   /* Check whether the USB Host handle is valid */
  93:../Middlewares/ST/STM32_USB_Device_Library/Core/Src/usbd_core.c ****   if (pdev == NULL)
  47              		.loc 1 93 0
  48 000e FB68     		ldr	r3, [r7, #12]
  49 0010 002B     		cmp	r3, #0
  50 0012 01D1     		bne	.L2
  94:../Middlewares/ST/STM32_USB_Device_Library/Core/Src/usbd_core.c ****   {
  95:../Middlewares/ST/STM32_USB_Device_Library/Core/Src/usbd_core.c **** #if (USBD_DEBUG_LEVEL > 1U)
  96:../Middlewares/ST/STM32_USB_Device_Library/Core/Src/usbd_core.c ****     USBD_ErrLog("Invalid Device handle");
  97:../Middlewares/ST/STM32_USB_Device_Library/Core/Src/usbd_core.c **** #endif
  98:../Middlewares/ST/STM32_USB_Device_Library/Core/Src/usbd_core.c ****     return USBD_FAIL;
  51              		.loc 1 98 0
  52 0014 0223     		movs	r3, #2
  53 0016 1AE0     		b	.L3
  54              	.L2:
  99:../Middlewares/ST/STM32_USB_Device_Library/Core/Src/usbd_core.c ****   }
 100:../Middlewares/ST/STM32_USB_Device_Library/Core/Src/usbd_core.c **** 
 101:../Middlewares/ST/STM32_USB_Device_Library/Core/Src/usbd_core.c ****   /* Unlink previous class*/
 102:../Middlewares/ST/STM32_USB_Device_Library/Core/Src/usbd_core.c ****   if (pdev->pClass != NULL)
  55              		.loc 1 102 0
  56 0018 FB68     		ldr	r3, [r7, #12]
  57 001a D3F8B432 		ldr	r3, [r3, #692]
  58 001e 002B     		cmp	r3, #0
  59 0020 03D0     		beq	.L4
 103:../Middlewares/ST/STM32_USB_Device_Library/Core/Src/usbd_core.c ****   {
 104:../Middlewares/ST/STM32_USB_Device_Library/Core/Src/usbd_core.c ****     pdev->pClass = NULL;
  60              		.loc 1 104 0
  61 0022 FB68     		ldr	r3, [r7, #12]
  62 0024 0022     		movs	r2, #0
  63 0026 C3F8B422 		str	r2, [r3, #692]
  64              	.L4:
 105:../Middlewares/ST/STM32_USB_Device_Library/Core/Src/usbd_core.c ****   }
 106:../Middlewares/ST/STM32_USB_Device_Library/Core/Src/usbd_core.c **** 
 107:../Middlewares/ST/STM32_USB_Device_Library/Core/Src/usbd_core.c ****   /* Assign USBD Descriptors */
 108:../Middlewares/ST/STM32_USB_Device_Library/Core/Src/usbd_core.c ****   if (pdesc != NULL)
ARM GAS  /tmp/ccZKQXDx.s 			page 4


  65              		.loc 1 108 0
  66 002a BB68     		ldr	r3, [r7, #8]
  67 002c 002B     		cmp	r3, #0
  68 002e 03D0     		beq	.L5
 109:../Middlewares/ST/STM32_USB_Device_Library/Core/Src/usbd_core.c ****   {
 110:../Middlewares/ST/STM32_USB_Device_Library/Core/Src/usbd_core.c ****     pdev->pDesc = pdesc;
  69              		.loc 1 110 0
  70 0030 FB68     		ldr	r3, [r7, #12]
  71 0032 BA68     		ldr	r2, [r7, #8]
  72 0034 C3F8B022 		str	r2, [r3, #688]
  73              	.L5:
 111:../Middlewares/ST/STM32_USB_Device_Library/Core/Src/usbd_core.c ****   }
 112:../Middlewares/ST/STM32_USB_Device_Library/Core/Src/usbd_core.c **** 
 113:../Middlewares/ST/STM32_USB_Device_Library/Core/Src/usbd_core.c ****   /* Set Device initial State */
 114:../Middlewares/ST/STM32_USB_Device_Library/Core/Src/usbd_core.c ****   pdev->dev_state = USBD_STATE_DEFAULT;
  74              		.loc 1 114 0
  75 0038 FB68     		ldr	r3, [r7, #12]
  76 003a 0122     		movs	r2, #1
  77 003c 83F89C22 		strb	r2, [r3, #668]
 115:../Middlewares/ST/STM32_USB_Device_Library/Core/Src/usbd_core.c ****   pdev->id = id;
  78              		.loc 1 115 0
  79 0040 FB68     		ldr	r3, [r7, #12]
  80 0042 FA79     		ldrb	r2, [r7, #7]
  81 0044 1A70     		strb	r2, [r3]
 116:../Middlewares/ST/STM32_USB_Device_Library/Core/Src/usbd_core.c ****   /* Initialize low level driver */
 117:../Middlewares/ST/STM32_USB_Device_Library/Core/Src/usbd_core.c ****   USBD_LL_Init(pdev);
  82              		.loc 1 117 0
  83 0046 F868     		ldr	r0, [r7, #12]
  84 0048 FFF7FEFF 		bl	USBD_LL_Init
 118:../Middlewares/ST/STM32_USB_Device_Library/Core/Src/usbd_core.c **** 
 119:../Middlewares/ST/STM32_USB_Device_Library/Core/Src/usbd_core.c ****   return USBD_OK;
  85              		.loc 1 119 0
  86 004c 0023     		movs	r3, #0
  87              	.L3:
 120:../Middlewares/ST/STM32_USB_Device_Library/Core/Src/usbd_core.c **** }
  88              		.loc 1 120 0
  89 004e 1846     		mov	r0, r3
  90 0050 1037     		adds	r7, r7, #16
  91              	.LCFI3:
  92              		.cfi_def_cfa_offset 8
  93 0052 BD46     		mov	sp, r7
  94              	.LCFI4:
  95              		.cfi_def_cfa_register 13
  96              		@ sp needed
  97 0054 80BD     		pop	{r7, pc}
  98              		.cfi_endproc
  99              	.LFE131:
 101              		.section	.text.USBD_DeInit,"ax",%progbits
 102              		.align	1
 103              		.global	USBD_DeInit
 104              		.syntax unified
 105              		.thumb
 106              		.thumb_func
 107              		.fpu fpv4-sp-d16
 109              	USBD_DeInit:
 110              	.LFB132:
 121:../Middlewares/ST/STM32_USB_Device_Library/Core/Src/usbd_core.c **** 
ARM GAS  /tmp/ccZKQXDx.s 			page 5


 122:../Middlewares/ST/STM32_USB_Device_Library/Core/Src/usbd_core.c **** /**
 123:../Middlewares/ST/STM32_USB_Device_Library/Core/Src/usbd_core.c **** * @brief  USBD_DeInit
 124:../Middlewares/ST/STM32_USB_Device_Library/Core/Src/usbd_core.c **** *         Re-Initialize th device library
 125:../Middlewares/ST/STM32_USB_Device_Library/Core/Src/usbd_core.c **** * @param  pdev: device instance
 126:../Middlewares/ST/STM32_USB_Device_Library/Core/Src/usbd_core.c **** * @retval status: status
 127:../Middlewares/ST/STM32_USB_Device_Library/Core/Src/usbd_core.c **** */
 128:../Middlewares/ST/STM32_USB_Device_Library/Core/Src/usbd_core.c **** USBD_StatusTypeDef USBD_DeInit(USBD_HandleTypeDef *pdev)
 129:../Middlewares/ST/STM32_USB_Device_Library/Core/Src/usbd_core.c **** {
 111              		.loc 1 129 0
 112              		.cfi_startproc
 113              		@ args = 0, pretend = 0, frame = 8
 114              		@ frame_needed = 1, uses_anonymous_args = 0
 115 0000 80B5     		push	{r7, lr}
 116              	.LCFI5:
 117              		.cfi_def_cfa_offset 8
 118              		.cfi_offset 7, -8
 119              		.cfi_offset 14, -4
 120 0002 82B0     		sub	sp, sp, #8
 121              	.LCFI6:
 122              		.cfi_def_cfa_offset 16
 123 0004 00AF     		add	r7, sp, #0
 124              	.LCFI7:
 125              		.cfi_def_cfa_register 7
 126 0006 7860     		str	r0, [r7, #4]
 130:../Middlewares/ST/STM32_USB_Device_Library/Core/Src/usbd_core.c ****   /* Set Default State */
 131:../Middlewares/ST/STM32_USB_Device_Library/Core/Src/usbd_core.c ****   pdev->dev_state = USBD_STATE_DEFAULT;
 127              		.loc 1 131 0
 128 0008 7B68     		ldr	r3, [r7, #4]
 129 000a 0122     		movs	r2, #1
 130 000c 83F89C22 		strb	r2, [r3, #668]
 132:../Middlewares/ST/STM32_USB_Device_Library/Core/Src/usbd_core.c **** 
 133:../Middlewares/ST/STM32_USB_Device_Library/Core/Src/usbd_core.c ****   /* Free Class Resources */
 134:../Middlewares/ST/STM32_USB_Device_Library/Core/Src/usbd_core.c ****   pdev->pClass->DeInit(pdev, (uint8_t)pdev->dev_config);
 131              		.loc 1 134 0
 132 0010 7B68     		ldr	r3, [r7, #4]
 133 0012 D3F8B432 		ldr	r3, [r3, #692]
 134 0016 5B68     		ldr	r3, [r3, #4]
 135 0018 7A68     		ldr	r2, [r7, #4]
 136 001a 5268     		ldr	r2, [r2, #4]
 137 001c D2B2     		uxtb	r2, r2
 138 001e 1146     		mov	r1, r2
 139 0020 7868     		ldr	r0, [r7, #4]
 140 0022 9847     		blx	r3
 141              	.LVL0:
 135:../Middlewares/ST/STM32_USB_Device_Library/Core/Src/usbd_core.c **** 
 136:../Middlewares/ST/STM32_USB_Device_Library/Core/Src/usbd_core.c ****   /* Stop the low level driver  */
 137:../Middlewares/ST/STM32_USB_Device_Library/Core/Src/usbd_core.c ****   USBD_LL_Stop(pdev);
 142              		.loc 1 137 0
 143 0024 7868     		ldr	r0, [r7, #4]
 144 0026 FFF7FEFF 		bl	USBD_LL_Stop
 138:../Middlewares/ST/STM32_USB_Device_Library/Core/Src/usbd_core.c **** 
 139:../Middlewares/ST/STM32_USB_Device_Library/Core/Src/usbd_core.c ****   /* Initialize low level driver */
 140:../Middlewares/ST/STM32_USB_Device_Library/Core/Src/usbd_core.c ****   USBD_LL_DeInit(pdev);
 145              		.loc 1 140 0
 146 002a 7868     		ldr	r0, [r7, #4]
 147 002c FFF7FEFF 		bl	USBD_LL_DeInit
 141:../Middlewares/ST/STM32_USB_Device_Library/Core/Src/usbd_core.c **** 
ARM GAS  /tmp/ccZKQXDx.s 			page 6


 142:../Middlewares/ST/STM32_USB_Device_Library/Core/Src/usbd_core.c ****   return USBD_OK;
 148              		.loc 1 142 0
 149 0030 0023     		movs	r3, #0
 143:../Middlewares/ST/STM32_USB_Device_Library/Core/Src/usbd_core.c **** }
 150              		.loc 1 143 0
 151 0032 1846     		mov	r0, r3
 152 0034 0837     		adds	r7, r7, #8
 153              	.LCFI8:
 154              		.cfi_def_cfa_offset 8
 155 0036 BD46     		mov	sp, r7
 156              	.LCFI9:
 157              		.cfi_def_cfa_register 13
 158              		@ sp needed
 159 0038 80BD     		pop	{r7, pc}
 160              		.cfi_endproc
 161              	.LFE132:
 163              		.section	.text.USBD_RegisterClass,"ax",%progbits
 164              		.align	1
 165              		.global	USBD_RegisterClass
 166              		.syntax unified
 167              		.thumb
 168              		.thumb_func
 169              		.fpu fpv4-sp-d16
 171              	USBD_RegisterClass:
 172              	.LFB133:
 144:../Middlewares/ST/STM32_USB_Device_Library/Core/Src/usbd_core.c **** 
 145:../Middlewares/ST/STM32_USB_Device_Library/Core/Src/usbd_core.c **** /**
 146:../Middlewares/ST/STM32_USB_Device_Library/Core/Src/usbd_core.c ****   * @brief  USBD_RegisterClass
 147:../Middlewares/ST/STM32_USB_Device_Library/Core/Src/usbd_core.c ****   *         Link class driver to Device Core.
 148:../Middlewares/ST/STM32_USB_Device_Library/Core/Src/usbd_core.c ****   * @param  pDevice : Device Handle
 149:../Middlewares/ST/STM32_USB_Device_Library/Core/Src/usbd_core.c ****   * @param  pclass: Class handle
 150:../Middlewares/ST/STM32_USB_Device_Library/Core/Src/usbd_core.c ****   * @retval USBD Status
 151:../Middlewares/ST/STM32_USB_Device_Library/Core/Src/usbd_core.c ****   */
 152:../Middlewares/ST/STM32_USB_Device_Library/Core/Src/usbd_core.c **** USBD_StatusTypeDef  USBD_RegisterClass(USBD_HandleTypeDef *pdev, USBD_ClassTypeDef *pclass)
 153:../Middlewares/ST/STM32_USB_Device_Library/Core/Src/usbd_core.c **** {
 173              		.loc 1 153 0
 174              		.cfi_startproc
 175              		@ args = 0, pretend = 0, frame = 16
 176              		@ frame_needed = 1, uses_anonymous_args = 0
 177              		@ link register save eliminated.
 178 0000 80B4     		push	{r7}
 179              	.LCFI10:
 180              		.cfi_def_cfa_offset 4
 181              		.cfi_offset 7, -4
 182 0002 85B0     		sub	sp, sp, #20
 183              	.LCFI11:
 184              		.cfi_def_cfa_offset 24
 185 0004 00AF     		add	r7, sp, #0
 186              	.LCFI12:
 187              		.cfi_def_cfa_register 7
 188 0006 7860     		str	r0, [r7, #4]
 189 0008 3960     		str	r1, [r7]
 154:../Middlewares/ST/STM32_USB_Device_Library/Core/Src/usbd_core.c ****   USBD_StatusTypeDef status = USBD_OK;
 190              		.loc 1 154 0
 191 000a 0023     		movs	r3, #0
 192 000c FB73     		strb	r3, [r7, #15]
 155:../Middlewares/ST/STM32_USB_Device_Library/Core/Src/usbd_core.c ****   if (pclass != NULL)
ARM GAS  /tmp/ccZKQXDx.s 			page 7


 193              		.loc 1 155 0
 194 000e 3B68     		ldr	r3, [r7]
 195 0010 002B     		cmp	r3, #0
 196 0012 06D0     		beq	.L9
 156:../Middlewares/ST/STM32_USB_Device_Library/Core/Src/usbd_core.c ****   {
 157:../Middlewares/ST/STM32_USB_Device_Library/Core/Src/usbd_core.c ****     /* link the class to the USB Device handle */
 158:../Middlewares/ST/STM32_USB_Device_Library/Core/Src/usbd_core.c ****     pdev->pClass = pclass;
 197              		.loc 1 158 0
 198 0014 7B68     		ldr	r3, [r7, #4]
 199 0016 3A68     		ldr	r2, [r7]
 200 0018 C3F8B422 		str	r2, [r3, #692]
 159:../Middlewares/ST/STM32_USB_Device_Library/Core/Src/usbd_core.c ****     status = USBD_OK;
 201              		.loc 1 159 0
 202 001c 0023     		movs	r3, #0
 203 001e FB73     		strb	r3, [r7, #15]
 204 0020 01E0     		b	.L10
 205              	.L9:
 160:../Middlewares/ST/STM32_USB_Device_Library/Core/Src/usbd_core.c ****   }
 161:../Middlewares/ST/STM32_USB_Device_Library/Core/Src/usbd_core.c ****   else
 162:../Middlewares/ST/STM32_USB_Device_Library/Core/Src/usbd_core.c ****   {
 163:../Middlewares/ST/STM32_USB_Device_Library/Core/Src/usbd_core.c **** #if (USBD_DEBUG_LEVEL > 1U)
 164:../Middlewares/ST/STM32_USB_Device_Library/Core/Src/usbd_core.c ****     USBD_ErrLog("Invalid Class handle");
 165:../Middlewares/ST/STM32_USB_Device_Library/Core/Src/usbd_core.c **** #endif
 166:../Middlewares/ST/STM32_USB_Device_Library/Core/Src/usbd_core.c ****     status = USBD_FAIL;
 206              		.loc 1 166 0
 207 0022 0223     		movs	r3, #2
 208 0024 FB73     		strb	r3, [r7, #15]
 209              	.L10:
 167:../Middlewares/ST/STM32_USB_Device_Library/Core/Src/usbd_core.c ****   }
 168:../Middlewares/ST/STM32_USB_Device_Library/Core/Src/usbd_core.c **** 
 169:../Middlewares/ST/STM32_USB_Device_Library/Core/Src/usbd_core.c ****   return status;
 210              		.loc 1 169 0
 211 0026 FB7B     		ldrb	r3, [r7, #15]	@ zero_extendqisi2
 170:../Middlewares/ST/STM32_USB_Device_Library/Core/Src/usbd_core.c **** }
 212              		.loc 1 170 0
 213 0028 1846     		mov	r0, r3
 214 002a 1437     		adds	r7, r7, #20
 215              	.LCFI13:
 216              		.cfi_def_cfa_offset 4
 217 002c BD46     		mov	sp, r7
 218              	.LCFI14:
 219              		.cfi_def_cfa_register 13
 220              		@ sp needed
 221 002e 5DF8047B 		ldr	r7, [sp], #4
 222              	.LCFI15:
 223              		.cfi_restore 7
 224              		.cfi_def_cfa_offset 0
 225 0032 7047     		bx	lr
 226              		.cfi_endproc
 227              	.LFE133:
 229              		.section	.text.USBD_Start,"ax",%progbits
 230              		.align	1
 231              		.global	USBD_Start
 232              		.syntax unified
 233              		.thumb
 234              		.thumb_func
 235              		.fpu fpv4-sp-d16
ARM GAS  /tmp/ccZKQXDx.s 			page 8


 237              	USBD_Start:
 238              	.LFB134:
 171:../Middlewares/ST/STM32_USB_Device_Library/Core/Src/usbd_core.c **** 
 172:../Middlewares/ST/STM32_USB_Device_Library/Core/Src/usbd_core.c **** /**
 173:../Middlewares/ST/STM32_USB_Device_Library/Core/Src/usbd_core.c ****   * @brief  USBD_Start
 174:../Middlewares/ST/STM32_USB_Device_Library/Core/Src/usbd_core.c ****   *         Start the USB Device Core.
 175:../Middlewares/ST/STM32_USB_Device_Library/Core/Src/usbd_core.c ****   * @param  pdev: Device Handle
 176:../Middlewares/ST/STM32_USB_Device_Library/Core/Src/usbd_core.c ****   * @retval USBD Status
 177:../Middlewares/ST/STM32_USB_Device_Library/Core/Src/usbd_core.c ****   */
 178:../Middlewares/ST/STM32_USB_Device_Library/Core/Src/usbd_core.c **** USBD_StatusTypeDef  USBD_Start(USBD_HandleTypeDef *pdev)
 179:../Middlewares/ST/STM32_USB_Device_Library/Core/Src/usbd_core.c **** {
 239              		.loc 1 179 0
 240              		.cfi_startproc
 241              		@ args = 0, pretend = 0, frame = 8
 242              		@ frame_needed = 1, uses_anonymous_args = 0
 243 0000 80B5     		push	{r7, lr}
 244              	.LCFI16:
 245              		.cfi_def_cfa_offset 8
 246              		.cfi_offset 7, -8
 247              		.cfi_offset 14, -4
 248 0002 82B0     		sub	sp, sp, #8
 249              	.LCFI17:
 250              		.cfi_def_cfa_offset 16
 251 0004 00AF     		add	r7, sp, #0
 252              	.LCFI18:
 253              		.cfi_def_cfa_register 7
 254 0006 7860     		str	r0, [r7, #4]
 180:../Middlewares/ST/STM32_USB_Device_Library/Core/Src/usbd_core.c ****   /* Start the low level driver  */
 181:../Middlewares/ST/STM32_USB_Device_Library/Core/Src/usbd_core.c ****   USBD_LL_Start(pdev);
 255              		.loc 1 181 0
 256 0008 7868     		ldr	r0, [r7, #4]
 257 000a FFF7FEFF 		bl	USBD_LL_Start
 182:../Middlewares/ST/STM32_USB_Device_Library/Core/Src/usbd_core.c **** 
 183:../Middlewares/ST/STM32_USB_Device_Library/Core/Src/usbd_core.c ****   return USBD_OK;
 258              		.loc 1 183 0
 259 000e 0023     		movs	r3, #0
 184:../Middlewares/ST/STM32_USB_Device_Library/Core/Src/usbd_core.c **** }
 260              		.loc 1 184 0
 261 0010 1846     		mov	r0, r3
 262 0012 0837     		adds	r7, r7, #8
 263              	.LCFI19:
 264              		.cfi_def_cfa_offset 8
 265 0014 BD46     		mov	sp, r7
 266              	.LCFI20:
 267              		.cfi_def_cfa_register 13
 268              		@ sp needed
 269 0016 80BD     		pop	{r7, pc}
 270              		.cfi_endproc
 271              	.LFE134:
 273              		.section	.text.USBD_Stop,"ax",%progbits
 274              		.align	1
 275              		.global	USBD_Stop
 276              		.syntax unified
 277              		.thumb
 278              		.thumb_func
 279              		.fpu fpv4-sp-d16
 281              	USBD_Stop:
ARM GAS  /tmp/ccZKQXDx.s 			page 9


 282              	.LFB135:
 185:../Middlewares/ST/STM32_USB_Device_Library/Core/Src/usbd_core.c **** 
 186:../Middlewares/ST/STM32_USB_Device_Library/Core/Src/usbd_core.c **** /**
 187:../Middlewares/ST/STM32_USB_Device_Library/Core/Src/usbd_core.c ****   * @brief  USBD_Stop
 188:../Middlewares/ST/STM32_USB_Device_Library/Core/Src/usbd_core.c ****   *         Stop the USB Device Core.
 189:../Middlewares/ST/STM32_USB_Device_Library/Core/Src/usbd_core.c ****   * @param  pdev: Device Handle
 190:../Middlewares/ST/STM32_USB_Device_Library/Core/Src/usbd_core.c ****   * @retval USBD Status
 191:../Middlewares/ST/STM32_USB_Device_Library/Core/Src/usbd_core.c ****   */
 192:../Middlewares/ST/STM32_USB_Device_Library/Core/Src/usbd_core.c **** USBD_StatusTypeDef  USBD_Stop(USBD_HandleTypeDef *pdev)
 193:../Middlewares/ST/STM32_USB_Device_Library/Core/Src/usbd_core.c **** {
 283              		.loc 1 193 0
 284              		.cfi_startproc
 285              		@ args = 0, pretend = 0, frame = 8
 286              		@ frame_needed = 1, uses_anonymous_args = 0
 287 0000 80B5     		push	{r7, lr}
 288              	.LCFI21:
 289              		.cfi_def_cfa_offset 8
 290              		.cfi_offset 7, -8
 291              		.cfi_offset 14, -4
 292 0002 82B0     		sub	sp, sp, #8
 293              	.LCFI22:
 294              		.cfi_def_cfa_offset 16
 295 0004 00AF     		add	r7, sp, #0
 296              	.LCFI23:
 297              		.cfi_def_cfa_register 7
 298 0006 7860     		str	r0, [r7, #4]
 194:../Middlewares/ST/STM32_USB_Device_Library/Core/Src/usbd_core.c ****   /* Free Class Resources */
 195:../Middlewares/ST/STM32_USB_Device_Library/Core/Src/usbd_core.c ****   pdev->pClass->DeInit(pdev, (uint8_t)pdev->dev_config);
 299              		.loc 1 195 0
 300 0008 7B68     		ldr	r3, [r7, #4]
 301 000a D3F8B432 		ldr	r3, [r3, #692]
 302 000e 5B68     		ldr	r3, [r3, #4]
 303 0010 7A68     		ldr	r2, [r7, #4]
 304 0012 5268     		ldr	r2, [r2, #4]
 305 0014 D2B2     		uxtb	r2, r2
 306 0016 1146     		mov	r1, r2
 307 0018 7868     		ldr	r0, [r7, #4]
 308 001a 9847     		blx	r3
 309              	.LVL1:
 196:../Middlewares/ST/STM32_USB_Device_Library/Core/Src/usbd_core.c **** 
 197:../Middlewares/ST/STM32_USB_Device_Library/Core/Src/usbd_core.c ****   /* Stop the low level driver */
 198:../Middlewares/ST/STM32_USB_Device_Library/Core/Src/usbd_core.c ****   USBD_LL_Stop(pdev);
 310              		.loc 1 198 0
 311 001c 7868     		ldr	r0, [r7, #4]
 312 001e FFF7FEFF 		bl	USBD_LL_Stop
 199:../Middlewares/ST/STM32_USB_Device_Library/Core/Src/usbd_core.c **** 
 200:../Middlewares/ST/STM32_USB_Device_Library/Core/Src/usbd_core.c ****   return USBD_OK;
 313              		.loc 1 200 0
 314 0022 0023     		movs	r3, #0
 201:../Middlewares/ST/STM32_USB_Device_Library/Core/Src/usbd_core.c **** }
 315              		.loc 1 201 0
 316 0024 1846     		mov	r0, r3
 317 0026 0837     		adds	r7, r7, #8
 318              	.LCFI24:
 319              		.cfi_def_cfa_offset 8
 320 0028 BD46     		mov	sp, r7
 321              	.LCFI25:
ARM GAS  /tmp/ccZKQXDx.s 			page 10


 322              		.cfi_def_cfa_register 13
 323              		@ sp needed
 324 002a 80BD     		pop	{r7, pc}
 325              		.cfi_endproc
 326              	.LFE135:
 328              		.section	.text.USBD_RunTestMode,"ax",%progbits
 329              		.align	1
 330              		.global	USBD_RunTestMode
 331              		.syntax unified
 332              		.thumb
 333              		.thumb_func
 334              		.fpu fpv4-sp-d16
 336              	USBD_RunTestMode:
 337              	.LFB136:
 202:../Middlewares/ST/STM32_USB_Device_Library/Core/Src/usbd_core.c **** 
 203:../Middlewares/ST/STM32_USB_Device_Library/Core/Src/usbd_core.c **** /**
 204:../Middlewares/ST/STM32_USB_Device_Library/Core/Src/usbd_core.c **** * @brief  USBD_RunTestMode
 205:../Middlewares/ST/STM32_USB_Device_Library/Core/Src/usbd_core.c **** *         Launch test mode process
 206:../Middlewares/ST/STM32_USB_Device_Library/Core/Src/usbd_core.c **** * @param  pdev: device instance
 207:../Middlewares/ST/STM32_USB_Device_Library/Core/Src/usbd_core.c **** * @retval status
 208:../Middlewares/ST/STM32_USB_Device_Library/Core/Src/usbd_core.c **** */
 209:../Middlewares/ST/STM32_USB_Device_Library/Core/Src/usbd_core.c **** USBD_StatusTypeDef  USBD_RunTestMode(USBD_HandleTypeDef  *pdev)
 210:../Middlewares/ST/STM32_USB_Device_Library/Core/Src/usbd_core.c **** {
 338              		.loc 1 210 0
 339              		.cfi_startproc
 340              		@ args = 0, pretend = 0, frame = 8
 341              		@ frame_needed = 1, uses_anonymous_args = 0
 342              		@ link register save eliminated.
 343 0000 80B4     		push	{r7}
 344              	.LCFI26:
 345              		.cfi_def_cfa_offset 4
 346              		.cfi_offset 7, -4
 347 0002 83B0     		sub	sp, sp, #12
 348              	.LCFI27:
 349              		.cfi_def_cfa_offset 16
 350 0004 00AF     		add	r7, sp, #0
 351              	.LCFI28:
 352              		.cfi_def_cfa_register 7
 353 0006 7860     		str	r0, [r7, #4]
 211:../Middlewares/ST/STM32_USB_Device_Library/Core/Src/usbd_core.c ****   /* Prevent unused argument compilation warning */
 212:../Middlewares/ST/STM32_USB_Device_Library/Core/Src/usbd_core.c ****   UNUSED(pdev);
 213:../Middlewares/ST/STM32_USB_Device_Library/Core/Src/usbd_core.c **** 
 214:../Middlewares/ST/STM32_USB_Device_Library/Core/Src/usbd_core.c ****   return USBD_OK;
 354              		.loc 1 214 0
 355 0008 0023     		movs	r3, #0
 215:../Middlewares/ST/STM32_USB_Device_Library/Core/Src/usbd_core.c **** }
 356              		.loc 1 215 0
 357 000a 1846     		mov	r0, r3
 358 000c 0C37     		adds	r7, r7, #12
 359              	.LCFI29:
 360              		.cfi_def_cfa_offset 4
 361 000e BD46     		mov	sp, r7
 362              	.LCFI30:
 363              		.cfi_def_cfa_register 13
 364              		@ sp needed
 365 0010 5DF8047B 		ldr	r7, [sp], #4
 366              	.LCFI31:
ARM GAS  /tmp/ccZKQXDx.s 			page 11


 367              		.cfi_restore 7
 368              		.cfi_def_cfa_offset 0
 369 0014 7047     		bx	lr
 370              		.cfi_endproc
 371              	.LFE136:
 373              		.section	.text.USBD_SetClassConfig,"ax",%progbits
 374              		.align	1
 375              		.global	USBD_SetClassConfig
 376              		.syntax unified
 377              		.thumb
 378              		.thumb_func
 379              		.fpu fpv4-sp-d16
 381              	USBD_SetClassConfig:
 382              	.LFB137:
 216:../Middlewares/ST/STM32_USB_Device_Library/Core/Src/usbd_core.c **** 
 217:../Middlewares/ST/STM32_USB_Device_Library/Core/Src/usbd_core.c **** /**
 218:../Middlewares/ST/STM32_USB_Device_Library/Core/Src/usbd_core.c **** * @brief  USBD_SetClassConfig
 219:../Middlewares/ST/STM32_USB_Device_Library/Core/Src/usbd_core.c **** *        Configure device and start the interface
 220:../Middlewares/ST/STM32_USB_Device_Library/Core/Src/usbd_core.c **** * @param  pdev: device instance
 221:../Middlewares/ST/STM32_USB_Device_Library/Core/Src/usbd_core.c **** * @param  cfgidx: configuration index
 222:../Middlewares/ST/STM32_USB_Device_Library/Core/Src/usbd_core.c **** * @retval status
 223:../Middlewares/ST/STM32_USB_Device_Library/Core/Src/usbd_core.c **** */
 224:../Middlewares/ST/STM32_USB_Device_Library/Core/Src/usbd_core.c **** 
 225:../Middlewares/ST/STM32_USB_Device_Library/Core/Src/usbd_core.c **** USBD_StatusTypeDef USBD_SetClassConfig(USBD_HandleTypeDef  *pdev, uint8_t cfgidx)
 226:../Middlewares/ST/STM32_USB_Device_Library/Core/Src/usbd_core.c **** {
 383              		.loc 1 226 0
 384              		.cfi_startproc
 385              		@ args = 0, pretend = 0, frame = 16
 386              		@ frame_needed = 1, uses_anonymous_args = 0
 387 0000 80B5     		push	{r7, lr}
 388              	.LCFI32:
 389              		.cfi_def_cfa_offset 8
 390              		.cfi_offset 7, -8
 391              		.cfi_offset 14, -4
 392 0002 84B0     		sub	sp, sp, #16
 393              	.LCFI33:
 394              		.cfi_def_cfa_offset 24
 395 0004 00AF     		add	r7, sp, #0
 396              	.LCFI34:
 397              		.cfi_def_cfa_register 7
 398 0006 7860     		str	r0, [r7, #4]
 399 0008 0B46     		mov	r3, r1
 400 000a FB70     		strb	r3, [r7, #3]
 227:../Middlewares/ST/STM32_USB_Device_Library/Core/Src/usbd_core.c ****   USBD_StatusTypeDef ret = USBD_FAIL;
 401              		.loc 1 227 0
 402 000c 0223     		movs	r3, #2
 403 000e FB73     		strb	r3, [r7, #15]
 228:../Middlewares/ST/STM32_USB_Device_Library/Core/Src/usbd_core.c **** 
 229:../Middlewares/ST/STM32_USB_Device_Library/Core/Src/usbd_core.c ****   if (pdev->pClass != NULL)
 404              		.loc 1 229 0
 405 0010 7B68     		ldr	r3, [r7, #4]
 406 0012 D3F8B432 		ldr	r3, [r3, #692]
 407 0016 002B     		cmp	r3, #0
 408 0018 0CD0     		beq	.L19
 230:../Middlewares/ST/STM32_USB_Device_Library/Core/Src/usbd_core.c ****   {
 231:../Middlewares/ST/STM32_USB_Device_Library/Core/Src/usbd_core.c ****     /* Set configuration  and Start the Class*/
 232:../Middlewares/ST/STM32_USB_Device_Library/Core/Src/usbd_core.c ****     if (pdev->pClass->Init(pdev, cfgidx) == 0U)
ARM GAS  /tmp/ccZKQXDx.s 			page 12


 409              		.loc 1 232 0
 410 001a 7B68     		ldr	r3, [r7, #4]
 411 001c D3F8B432 		ldr	r3, [r3, #692]
 412 0020 1B68     		ldr	r3, [r3]
 413 0022 FA78     		ldrb	r2, [r7, #3]	@ zero_extendqisi2
 414 0024 1146     		mov	r1, r2
 415 0026 7868     		ldr	r0, [r7, #4]
 416 0028 9847     		blx	r3
 417              	.LVL2:
 418 002a 0346     		mov	r3, r0
 419 002c 002B     		cmp	r3, #0
 420 002e 01D1     		bne	.L19
 233:../Middlewares/ST/STM32_USB_Device_Library/Core/Src/usbd_core.c ****     {
 234:../Middlewares/ST/STM32_USB_Device_Library/Core/Src/usbd_core.c ****       ret = USBD_OK;
 421              		.loc 1 234 0
 422 0030 0023     		movs	r3, #0
 423 0032 FB73     		strb	r3, [r7, #15]
 424              	.L19:
 235:../Middlewares/ST/STM32_USB_Device_Library/Core/Src/usbd_core.c ****     }
 236:../Middlewares/ST/STM32_USB_Device_Library/Core/Src/usbd_core.c ****   }
 237:../Middlewares/ST/STM32_USB_Device_Library/Core/Src/usbd_core.c **** 
 238:../Middlewares/ST/STM32_USB_Device_Library/Core/Src/usbd_core.c ****   return ret;
 425              		.loc 1 238 0
 426 0034 FB7B     		ldrb	r3, [r7, #15]	@ zero_extendqisi2
 239:../Middlewares/ST/STM32_USB_Device_Library/Core/Src/usbd_core.c **** }
 427              		.loc 1 239 0
 428 0036 1846     		mov	r0, r3
 429 0038 1037     		adds	r7, r7, #16
 430              	.LCFI35:
 431              		.cfi_def_cfa_offset 8
 432 003a BD46     		mov	sp, r7
 433              	.LCFI36:
 434              		.cfi_def_cfa_register 13
 435              		@ sp needed
 436 003c 80BD     		pop	{r7, pc}
 437              		.cfi_endproc
 438              	.LFE137:
 440              		.section	.text.USBD_ClrClassConfig,"ax",%progbits
 441              		.align	1
 442              		.global	USBD_ClrClassConfig
 443              		.syntax unified
 444              		.thumb
 445              		.thumb_func
 446              		.fpu fpv4-sp-d16
 448              	USBD_ClrClassConfig:
 449              	.LFB138:
 240:../Middlewares/ST/STM32_USB_Device_Library/Core/Src/usbd_core.c **** 
 241:../Middlewares/ST/STM32_USB_Device_Library/Core/Src/usbd_core.c **** /**
 242:../Middlewares/ST/STM32_USB_Device_Library/Core/Src/usbd_core.c **** * @brief  USBD_ClrClassConfig
 243:../Middlewares/ST/STM32_USB_Device_Library/Core/Src/usbd_core.c **** *         Clear current configuration
 244:../Middlewares/ST/STM32_USB_Device_Library/Core/Src/usbd_core.c **** * @param  pdev: device instance
 245:../Middlewares/ST/STM32_USB_Device_Library/Core/Src/usbd_core.c **** * @param  cfgidx: configuration index
 246:../Middlewares/ST/STM32_USB_Device_Library/Core/Src/usbd_core.c **** * @retval status: USBD_StatusTypeDef
 247:../Middlewares/ST/STM32_USB_Device_Library/Core/Src/usbd_core.c **** */
 248:../Middlewares/ST/STM32_USB_Device_Library/Core/Src/usbd_core.c **** USBD_StatusTypeDef USBD_ClrClassConfig(USBD_HandleTypeDef  *pdev, uint8_t cfgidx)
 249:../Middlewares/ST/STM32_USB_Device_Library/Core/Src/usbd_core.c **** {
 450              		.loc 1 249 0
ARM GAS  /tmp/ccZKQXDx.s 			page 13


 451              		.cfi_startproc
 452              		@ args = 0, pretend = 0, frame = 8
 453              		@ frame_needed = 1, uses_anonymous_args = 0
 454 0000 80B5     		push	{r7, lr}
 455              	.LCFI37:
 456              		.cfi_def_cfa_offset 8
 457              		.cfi_offset 7, -8
 458              		.cfi_offset 14, -4
 459 0002 82B0     		sub	sp, sp, #8
 460              	.LCFI38:
 461              		.cfi_def_cfa_offset 16
 462 0004 00AF     		add	r7, sp, #0
 463              	.LCFI39:
 464              		.cfi_def_cfa_register 7
 465 0006 7860     		str	r0, [r7, #4]
 466 0008 0B46     		mov	r3, r1
 467 000a FB70     		strb	r3, [r7, #3]
 250:../Middlewares/ST/STM32_USB_Device_Library/Core/Src/usbd_core.c ****   /* Clear configuration  and De-initialize the Class process*/
 251:../Middlewares/ST/STM32_USB_Device_Library/Core/Src/usbd_core.c ****   pdev->pClass->DeInit(pdev, cfgidx);
 468              		.loc 1 251 0
 469 000c 7B68     		ldr	r3, [r7, #4]
 470 000e D3F8B432 		ldr	r3, [r3, #692]
 471 0012 5B68     		ldr	r3, [r3, #4]
 472 0014 FA78     		ldrb	r2, [r7, #3]	@ zero_extendqisi2
 473 0016 1146     		mov	r1, r2
 474 0018 7868     		ldr	r0, [r7, #4]
 475 001a 9847     		blx	r3
 476              	.LVL3:
 252:../Middlewares/ST/STM32_USB_Device_Library/Core/Src/usbd_core.c **** 
 253:../Middlewares/ST/STM32_USB_Device_Library/Core/Src/usbd_core.c ****   return USBD_OK;
 477              		.loc 1 253 0
 478 001c 0023     		movs	r3, #0
 254:../Middlewares/ST/STM32_USB_Device_Library/Core/Src/usbd_core.c **** }
 479              		.loc 1 254 0
 480 001e 1846     		mov	r0, r3
 481 0020 0837     		adds	r7, r7, #8
 482              	.LCFI40:
 483              		.cfi_def_cfa_offset 8
 484 0022 BD46     		mov	sp, r7
 485              	.LCFI41:
 486              		.cfi_def_cfa_register 13
 487              		@ sp needed
 488 0024 80BD     		pop	{r7, pc}
 489              		.cfi_endproc
 490              	.LFE138:
 492              		.section	.text.USBD_LL_SetupStage,"ax",%progbits
 493              		.align	1
 494              		.global	USBD_LL_SetupStage
 495              		.syntax unified
 496              		.thumb
 497              		.thumb_func
 498              		.fpu fpv4-sp-d16
 500              	USBD_LL_SetupStage:
 501              	.LFB139:
 255:../Middlewares/ST/STM32_USB_Device_Library/Core/Src/usbd_core.c **** 
 256:../Middlewares/ST/STM32_USB_Device_Library/Core/Src/usbd_core.c **** 
 257:../Middlewares/ST/STM32_USB_Device_Library/Core/Src/usbd_core.c **** /**
ARM GAS  /tmp/ccZKQXDx.s 			page 14


 258:../Middlewares/ST/STM32_USB_Device_Library/Core/Src/usbd_core.c **** * @brief  USBD_SetupStage
 259:../Middlewares/ST/STM32_USB_Device_Library/Core/Src/usbd_core.c **** *         Handle the setup stage
 260:../Middlewares/ST/STM32_USB_Device_Library/Core/Src/usbd_core.c **** * @param  pdev: device instance
 261:../Middlewares/ST/STM32_USB_Device_Library/Core/Src/usbd_core.c **** * @retval status
 262:../Middlewares/ST/STM32_USB_Device_Library/Core/Src/usbd_core.c **** */
 263:../Middlewares/ST/STM32_USB_Device_Library/Core/Src/usbd_core.c **** USBD_StatusTypeDef USBD_LL_SetupStage(USBD_HandleTypeDef *pdev, uint8_t *psetup)
 264:../Middlewares/ST/STM32_USB_Device_Library/Core/Src/usbd_core.c **** {
 502              		.loc 1 264 0
 503              		.cfi_startproc
 504              		@ args = 0, pretend = 0, frame = 8
 505              		@ frame_needed = 1, uses_anonymous_args = 0
 506 0000 80B5     		push	{r7, lr}
 507              	.LCFI42:
 508              		.cfi_def_cfa_offset 8
 509              		.cfi_offset 7, -8
 510              		.cfi_offset 14, -4
 511 0002 82B0     		sub	sp, sp, #8
 512              	.LCFI43:
 513              		.cfi_def_cfa_offset 16
 514 0004 00AF     		add	r7, sp, #0
 515              	.LCFI44:
 516              		.cfi_def_cfa_register 7
 517 0006 7860     		str	r0, [r7, #4]
 518 0008 3960     		str	r1, [r7]
 265:../Middlewares/ST/STM32_USB_Device_Library/Core/Src/usbd_core.c ****   USBD_ParseSetupRequest(&pdev->request, psetup);
 519              		.loc 1 265 0
 520 000a 7B68     		ldr	r3, [r7, #4]
 521 000c 03F52A73 		add	r3, r3, #680
 522 0010 3968     		ldr	r1, [r7]
 523 0012 1846     		mov	r0, r3
 524 0014 FFF7FEFF 		bl	USBD_ParseSetupRequest
 266:../Middlewares/ST/STM32_USB_Device_Library/Core/Src/usbd_core.c **** 
 267:../Middlewares/ST/STM32_USB_Device_Library/Core/Src/usbd_core.c ****   pdev->ep0_state = USBD_EP0_SETUP;
 525              		.loc 1 267 0
 526 0018 7B68     		ldr	r3, [r7, #4]
 527 001a 0122     		movs	r2, #1
 528 001c C3F89422 		str	r2, [r3, #660]
 268:../Middlewares/ST/STM32_USB_Device_Library/Core/Src/usbd_core.c **** 
 269:../Middlewares/ST/STM32_USB_Device_Library/Core/Src/usbd_core.c ****   pdev->ep0_data_len = pdev->request.wLength;
 529              		.loc 1 269 0
 530 0020 7B68     		ldr	r3, [r7, #4]
 531 0022 B3F8AE32 		ldrh	r3, [r3, #686]
 532 0026 1A46     		mov	r2, r3
 533 0028 7B68     		ldr	r3, [r7, #4]
 534 002a C3F89822 		str	r2, [r3, #664]
 270:../Middlewares/ST/STM32_USB_Device_Library/Core/Src/usbd_core.c **** 
 271:../Middlewares/ST/STM32_USB_Device_Library/Core/Src/usbd_core.c ****   switch (pdev->request.bmRequest & 0x1FU)
 535              		.loc 1 271 0
 536 002e 7B68     		ldr	r3, [r7, #4]
 537 0030 93F8A832 		ldrb	r3, [r3, #680]	@ zero_extendqisi2
 538 0034 03F01F03 		and	r3, r3, #31
 539 0038 012B     		cmp	r3, #1
 540 003a 0CD0     		beq	.L25
 541 003c 012B     		cmp	r3, #1
 542 003e 02D3     		bcc	.L26
 543 0040 022B     		cmp	r3, #2
 544 0042 10D0     		beq	.L27
ARM GAS  /tmp/ccZKQXDx.s 			page 15


 545 0044 17E0     		b	.L30
 546              	.L26:
 272:../Middlewares/ST/STM32_USB_Device_Library/Core/Src/usbd_core.c ****   {
 273:../Middlewares/ST/STM32_USB_Device_Library/Core/Src/usbd_core.c ****     case USB_REQ_RECIPIENT_DEVICE:
 274:../Middlewares/ST/STM32_USB_Device_Library/Core/Src/usbd_core.c ****       USBD_StdDevReq(pdev, &pdev->request);
 547              		.loc 1 274 0
 548 0046 7B68     		ldr	r3, [r7, #4]
 549 0048 03F52A73 		add	r3, r3, #680
 550 004c 1946     		mov	r1, r3
 551 004e 7868     		ldr	r0, [r7, #4]
 552 0050 FFF7FEFF 		bl	USBD_StdDevReq
 275:../Middlewares/ST/STM32_USB_Device_Library/Core/Src/usbd_core.c ****       break;
 553              		.loc 1 275 0
 554 0054 1AE0     		b	.L28
 555              	.L25:
 276:../Middlewares/ST/STM32_USB_Device_Library/Core/Src/usbd_core.c **** 
 277:../Middlewares/ST/STM32_USB_Device_Library/Core/Src/usbd_core.c ****     case USB_REQ_RECIPIENT_INTERFACE:
 278:../Middlewares/ST/STM32_USB_Device_Library/Core/Src/usbd_core.c ****       USBD_StdItfReq(pdev, &pdev->request);
 556              		.loc 1 278 0
 557 0056 7B68     		ldr	r3, [r7, #4]
 558 0058 03F52A73 		add	r3, r3, #680
 559 005c 1946     		mov	r1, r3
 560 005e 7868     		ldr	r0, [r7, #4]
 561 0060 FFF7FEFF 		bl	USBD_StdItfReq
 279:../Middlewares/ST/STM32_USB_Device_Library/Core/Src/usbd_core.c ****       break;
 562              		.loc 1 279 0
 563 0064 12E0     		b	.L28
 564              	.L27:
 280:../Middlewares/ST/STM32_USB_Device_Library/Core/Src/usbd_core.c **** 
 281:../Middlewares/ST/STM32_USB_Device_Library/Core/Src/usbd_core.c ****     case USB_REQ_RECIPIENT_ENDPOINT:
 282:../Middlewares/ST/STM32_USB_Device_Library/Core/Src/usbd_core.c ****       USBD_StdEPReq(pdev, &pdev->request);
 565              		.loc 1 282 0
 566 0066 7B68     		ldr	r3, [r7, #4]
 567 0068 03F52A73 		add	r3, r3, #680
 568 006c 1946     		mov	r1, r3
 569 006e 7868     		ldr	r0, [r7, #4]
 570 0070 FFF7FEFF 		bl	USBD_StdEPReq
 283:../Middlewares/ST/STM32_USB_Device_Library/Core/Src/usbd_core.c ****       break;
 571              		.loc 1 283 0
 572 0074 0AE0     		b	.L28
 573              	.L30:
 284:../Middlewares/ST/STM32_USB_Device_Library/Core/Src/usbd_core.c **** 
 285:../Middlewares/ST/STM32_USB_Device_Library/Core/Src/usbd_core.c ****     default:
 286:../Middlewares/ST/STM32_USB_Device_Library/Core/Src/usbd_core.c ****       USBD_LL_StallEP(pdev, (pdev->request.bmRequest & 0x80U));
 574              		.loc 1 286 0
 575 0076 7B68     		ldr	r3, [r7, #4]
 576 0078 93F8A832 		ldrb	r3, [r3, #680]	@ zero_extendqisi2
 577 007c 23F07F03 		bic	r3, r3, #127
 578 0080 DBB2     		uxtb	r3, r3
 579 0082 1946     		mov	r1, r3
 580 0084 7868     		ldr	r0, [r7, #4]
 581 0086 FFF7FEFF 		bl	USBD_LL_StallEP
 287:../Middlewares/ST/STM32_USB_Device_Library/Core/Src/usbd_core.c ****       break;
 582              		.loc 1 287 0
 583 008a 00BF     		nop
 584              	.L28:
 288:../Middlewares/ST/STM32_USB_Device_Library/Core/Src/usbd_core.c ****   }
ARM GAS  /tmp/ccZKQXDx.s 			page 16


 289:../Middlewares/ST/STM32_USB_Device_Library/Core/Src/usbd_core.c **** 
 290:../Middlewares/ST/STM32_USB_Device_Library/Core/Src/usbd_core.c ****   return USBD_OK;
 585              		.loc 1 290 0
 586 008c 0023     		movs	r3, #0
 291:../Middlewares/ST/STM32_USB_Device_Library/Core/Src/usbd_core.c **** }
 587              		.loc 1 291 0
 588 008e 1846     		mov	r0, r3
 589 0090 0837     		adds	r7, r7, #8
 590              	.LCFI45:
 591              		.cfi_def_cfa_offset 8
 592 0092 BD46     		mov	sp, r7
 593              	.LCFI46:
 594              		.cfi_def_cfa_register 13
 595              		@ sp needed
 596 0094 80BD     		pop	{r7, pc}
 597              		.cfi_endproc
 598              	.LFE139:
 600              		.section	.text.USBD_LL_DataOutStage,"ax",%progbits
 601              		.align	1
 602              		.global	USBD_LL_DataOutStage
 603              		.syntax unified
 604              		.thumb
 605              		.thumb_func
 606              		.fpu fpv4-sp-d16
 608              	USBD_LL_DataOutStage:
 609              	.LFB140:
 292:../Middlewares/ST/STM32_USB_Device_Library/Core/Src/usbd_core.c **** 
 293:../Middlewares/ST/STM32_USB_Device_Library/Core/Src/usbd_core.c **** /**
 294:../Middlewares/ST/STM32_USB_Device_Library/Core/Src/usbd_core.c **** * @brief  USBD_DataOutStage
 295:../Middlewares/ST/STM32_USB_Device_Library/Core/Src/usbd_core.c **** *         Handle data OUT stage
 296:../Middlewares/ST/STM32_USB_Device_Library/Core/Src/usbd_core.c **** * @param  pdev: device instance
 297:../Middlewares/ST/STM32_USB_Device_Library/Core/Src/usbd_core.c **** * @param  epnum: endpoint index
 298:../Middlewares/ST/STM32_USB_Device_Library/Core/Src/usbd_core.c **** * @retval status
 299:../Middlewares/ST/STM32_USB_Device_Library/Core/Src/usbd_core.c **** */
 300:../Middlewares/ST/STM32_USB_Device_Library/Core/Src/usbd_core.c **** USBD_StatusTypeDef USBD_LL_DataOutStage(USBD_HandleTypeDef *pdev,
 301:../Middlewares/ST/STM32_USB_Device_Library/Core/Src/usbd_core.c ****                                         uint8_t epnum, uint8_t *pdata)
 302:../Middlewares/ST/STM32_USB_Device_Library/Core/Src/usbd_core.c **** {
 610              		.loc 1 302 0
 611              		.cfi_startproc
 612              		@ args = 0, pretend = 0, frame = 24
 613              		@ frame_needed = 1, uses_anonymous_args = 0
 614 0000 80B5     		push	{r7, lr}
 615              	.LCFI47:
 616              		.cfi_def_cfa_offset 8
 617              		.cfi_offset 7, -8
 618              		.cfi_offset 14, -4
 619 0002 86B0     		sub	sp, sp, #24
 620              	.LCFI48:
 621              		.cfi_def_cfa_offset 32
 622 0004 00AF     		add	r7, sp, #0
 623              	.LCFI49:
 624              		.cfi_def_cfa_register 7
 625 0006 F860     		str	r0, [r7, #12]
 626 0008 0B46     		mov	r3, r1
 627 000a 7A60     		str	r2, [r7, #4]
 628 000c FB72     		strb	r3, [r7, #11]
 303:../Middlewares/ST/STM32_USB_Device_Library/Core/Src/usbd_core.c ****   USBD_EndpointTypeDef *pep;
ARM GAS  /tmp/ccZKQXDx.s 			page 17


 304:../Middlewares/ST/STM32_USB_Device_Library/Core/Src/usbd_core.c **** 
 305:../Middlewares/ST/STM32_USB_Device_Library/Core/Src/usbd_core.c ****   if (epnum == 0U)
 629              		.loc 1 305 0
 630 000e FB7A     		ldrb	r3, [r7, #11]	@ zero_extendqisi2
 631 0010 002B     		cmp	r3, #0
 632 0012 4BD1     		bne	.L32
 306:../Middlewares/ST/STM32_USB_Device_Library/Core/Src/usbd_core.c ****   {
 307:../Middlewares/ST/STM32_USB_Device_Library/Core/Src/usbd_core.c ****     pep = &pdev->ep_out[0];
 633              		.loc 1 307 0
 634 0014 FB68     		ldr	r3, [r7, #12]
 635 0016 03F5AA73 		add	r3, r3, #340
 636 001a 7B61     		str	r3, [r7, #20]
 308:../Middlewares/ST/STM32_USB_Device_Library/Core/Src/usbd_core.c **** 
 309:../Middlewares/ST/STM32_USB_Device_Library/Core/Src/usbd_core.c ****     if (pdev->ep0_state == USBD_EP0_DATA_OUT)
 637              		.loc 1 309 0
 638 001c FB68     		ldr	r3, [r7, #12]
 639 001e D3F89432 		ldr	r3, [r3, #660]
 640 0022 032B     		cmp	r3, #3
 641 0024 34D1     		bne	.L33
 310:../Middlewares/ST/STM32_USB_Device_Library/Core/Src/usbd_core.c ****     {
 311:../Middlewares/ST/STM32_USB_Device_Library/Core/Src/usbd_core.c ****       if (pep->rem_length > pep->maxpacket)
 642              		.loc 1 311 0
 643 0026 7B69     		ldr	r3, [r7, #20]
 644 0028 DA68     		ldr	r2, [r3, #12]
 645 002a 7B69     		ldr	r3, [r7, #20]
 646 002c 1B69     		ldr	r3, [r3, #16]
 647 002e 9A42     		cmp	r2, r3
 648 0030 19D9     		bls	.L34
 312:../Middlewares/ST/STM32_USB_Device_Library/Core/Src/usbd_core.c ****       {
 313:../Middlewares/ST/STM32_USB_Device_Library/Core/Src/usbd_core.c ****         pep->rem_length -= pep->maxpacket;
 649              		.loc 1 313 0
 650 0032 7B69     		ldr	r3, [r7, #20]
 651 0034 DA68     		ldr	r2, [r3, #12]
 652 0036 7B69     		ldr	r3, [r7, #20]
 653 0038 1B69     		ldr	r3, [r3, #16]
 654 003a D21A     		subs	r2, r2, r3
 655 003c 7B69     		ldr	r3, [r7, #20]
 656 003e DA60     		str	r2, [r3, #12]
 314:../Middlewares/ST/STM32_USB_Device_Library/Core/Src/usbd_core.c **** 
 315:../Middlewares/ST/STM32_USB_Device_Library/Core/Src/usbd_core.c ****         USBD_CtlContinueRx(pdev, pdata,
 316:../Middlewares/ST/STM32_USB_Device_Library/Core/Src/usbd_core.c ****                            (uint16_t)MIN(pep->rem_length, pep->maxpacket));
 657              		.loc 1 316 0
 658 0040 7B69     		ldr	r3, [r7, #20]
 659 0042 DA68     		ldr	r2, [r3, #12]
 660 0044 7B69     		ldr	r3, [r7, #20]
 661 0046 1B69     		ldr	r3, [r3, #16]
 315:../Middlewares/ST/STM32_USB_Device_Library/Core/Src/usbd_core.c ****                            (uint16_t)MIN(pep->rem_length, pep->maxpacket));
 662              		.loc 1 315 0
 663 0048 9A42     		cmp	r2, r3
 664 004a 03D2     		bcs	.L35
 665              		.loc 1 316 0 discriminator 1
 666 004c 7B69     		ldr	r3, [r7, #20]
 667 004e DB68     		ldr	r3, [r3, #12]
 315:../Middlewares/ST/STM32_USB_Device_Library/Core/Src/usbd_core.c ****                            (uint16_t)MIN(pep->rem_length, pep->maxpacket));
 668              		.loc 1 315 0 discriminator 1
 669 0050 9BB2     		uxth	r3, r3
 670 0052 02E0     		b	.L36
ARM GAS  /tmp/ccZKQXDx.s 			page 18


 671              	.L35:
 672              		.loc 1 316 0 discriminator 2
 673 0054 7B69     		ldr	r3, [r7, #20]
 674 0056 1B69     		ldr	r3, [r3, #16]
 315:../Middlewares/ST/STM32_USB_Device_Library/Core/Src/usbd_core.c ****                            (uint16_t)MIN(pep->rem_length, pep->maxpacket));
 675              		.loc 1 315 0 discriminator 2
 676 0058 9BB2     		uxth	r3, r3
 677              	.L36:
 315:../Middlewares/ST/STM32_USB_Device_Library/Core/Src/usbd_core.c ****                            (uint16_t)MIN(pep->rem_length, pep->maxpacket));
 678              		.loc 1 315 0 is_stmt 0 discriminator 4
 679 005a 1A46     		mov	r2, r3
 680 005c 7968     		ldr	r1, [r7, #4]
 681 005e F868     		ldr	r0, [r7, #12]
 682 0060 FFF7FEFF 		bl	USBD_CtlContinueRx
 683 0064 38E0     		b	.L40
 684              	.L34:
 317:../Middlewares/ST/STM32_USB_Device_Library/Core/Src/usbd_core.c ****       }
 318:../Middlewares/ST/STM32_USB_Device_Library/Core/Src/usbd_core.c ****       else
 319:../Middlewares/ST/STM32_USB_Device_Library/Core/Src/usbd_core.c ****       {
 320:../Middlewares/ST/STM32_USB_Device_Library/Core/Src/usbd_core.c ****         if ((pdev->pClass->EP0_RxReady != NULL) &&
 685              		.loc 1 320 0 is_stmt 1
 686 0066 FB68     		ldr	r3, [r7, #12]
 687 0068 D3F8B432 		ldr	r3, [r3, #692]
 688 006c 1B69     		ldr	r3, [r3, #16]
 689 006e 002B     		cmp	r3, #0
 690 0070 0AD0     		beq	.L38
 321:../Middlewares/ST/STM32_USB_Device_Library/Core/Src/usbd_core.c ****             (pdev->dev_state == USBD_STATE_CONFIGURED))
 691              		.loc 1 321 0 discriminator 1
 692 0072 FB68     		ldr	r3, [r7, #12]
 693 0074 93F89C32 		ldrb	r3, [r3, #668]	@ zero_extendqisi2
 320:../Middlewares/ST/STM32_USB_Device_Library/Core/Src/usbd_core.c ****             (pdev->dev_state == USBD_STATE_CONFIGURED))
 694              		.loc 1 320 0 discriminator 1
 695 0078 032B     		cmp	r3, #3
 696 007a 05D1     		bne	.L38
 322:../Middlewares/ST/STM32_USB_Device_Library/Core/Src/usbd_core.c ****         {
 323:../Middlewares/ST/STM32_USB_Device_Library/Core/Src/usbd_core.c ****           pdev->pClass->EP0_RxReady(pdev);
 697              		.loc 1 323 0
 698 007c FB68     		ldr	r3, [r7, #12]
 699 007e D3F8B432 		ldr	r3, [r3, #692]
 700 0082 1B69     		ldr	r3, [r3, #16]
 701 0084 F868     		ldr	r0, [r7, #12]
 702 0086 9847     		blx	r3
 703              	.LVL4:
 704              	.L38:
 324:../Middlewares/ST/STM32_USB_Device_Library/Core/Src/usbd_core.c ****         }
 325:../Middlewares/ST/STM32_USB_Device_Library/Core/Src/usbd_core.c ****         USBD_CtlSendStatus(pdev);
 705              		.loc 1 325 0
 706 0088 F868     		ldr	r0, [r7, #12]
 707 008a FFF7FEFF 		bl	USBD_CtlSendStatus
 708 008e 23E0     		b	.L40
 709              	.L33:
 326:../Middlewares/ST/STM32_USB_Device_Library/Core/Src/usbd_core.c ****       }
 327:../Middlewares/ST/STM32_USB_Device_Library/Core/Src/usbd_core.c ****     }
 328:../Middlewares/ST/STM32_USB_Device_Library/Core/Src/usbd_core.c ****     else
 329:../Middlewares/ST/STM32_USB_Device_Library/Core/Src/usbd_core.c ****     {
 330:../Middlewares/ST/STM32_USB_Device_Library/Core/Src/usbd_core.c ****       if (pdev->ep0_state == USBD_EP0_STATUS_OUT)
 710              		.loc 1 330 0
ARM GAS  /tmp/ccZKQXDx.s 			page 19


 711 0090 FB68     		ldr	r3, [r7, #12]
 712 0092 D3F89432 		ldr	r3, [r3, #660]
 713 0096 052B     		cmp	r3, #5
 714 0098 1ED1     		bne	.L40
 331:../Middlewares/ST/STM32_USB_Device_Library/Core/Src/usbd_core.c ****       {
 332:../Middlewares/ST/STM32_USB_Device_Library/Core/Src/usbd_core.c ****         /*
 333:../Middlewares/ST/STM32_USB_Device_Library/Core/Src/usbd_core.c ****          * STATUS PHASE completed, update ep0_state to idle
 334:../Middlewares/ST/STM32_USB_Device_Library/Core/Src/usbd_core.c ****          */
 335:../Middlewares/ST/STM32_USB_Device_Library/Core/Src/usbd_core.c ****         pdev->ep0_state = USBD_EP0_IDLE;
 715              		.loc 1 335 0
 716 009a FB68     		ldr	r3, [r7, #12]
 717 009c 0022     		movs	r2, #0
 718 009e C3F89422 		str	r2, [r3, #660]
 336:../Middlewares/ST/STM32_USB_Device_Library/Core/Src/usbd_core.c ****         USBD_LL_StallEP(pdev, 0U);
 719              		.loc 1 336 0
 720 00a2 0021     		movs	r1, #0
 721 00a4 F868     		ldr	r0, [r7, #12]
 722 00a6 FFF7FEFF 		bl	USBD_LL_StallEP
 723 00aa 15E0     		b	.L40
 724              	.L32:
 337:../Middlewares/ST/STM32_USB_Device_Library/Core/Src/usbd_core.c ****       }
 338:../Middlewares/ST/STM32_USB_Device_Library/Core/Src/usbd_core.c ****     }
 339:../Middlewares/ST/STM32_USB_Device_Library/Core/Src/usbd_core.c ****   }
 340:../Middlewares/ST/STM32_USB_Device_Library/Core/Src/usbd_core.c ****   else if ((pdev->pClass->DataOut != NULL) &&
 725              		.loc 1 340 0
 726 00ac FB68     		ldr	r3, [r7, #12]
 727 00ae D3F8B432 		ldr	r3, [r3, #692]
 728 00b2 9B69     		ldr	r3, [r3, #24]
 729 00b4 002B     		cmp	r3, #0
 730 00b6 0DD0     		beq	.L41
 341:../Middlewares/ST/STM32_USB_Device_Library/Core/Src/usbd_core.c ****            (pdev->dev_state == USBD_STATE_CONFIGURED))
 731              		.loc 1 341 0 discriminator 1
 732 00b8 FB68     		ldr	r3, [r7, #12]
 733 00ba 93F89C32 		ldrb	r3, [r3, #668]	@ zero_extendqisi2
 340:../Middlewares/ST/STM32_USB_Device_Library/Core/Src/usbd_core.c ****            (pdev->dev_state == USBD_STATE_CONFIGURED))
 734              		.loc 1 340 0 discriminator 1
 735 00be 032B     		cmp	r3, #3
 736 00c0 08D1     		bne	.L41
 342:../Middlewares/ST/STM32_USB_Device_Library/Core/Src/usbd_core.c ****   {
 343:../Middlewares/ST/STM32_USB_Device_Library/Core/Src/usbd_core.c ****     pdev->pClass->DataOut(pdev, epnum);
 737              		.loc 1 343 0
 738 00c2 FB68     		ldr	r3, [r7, #12]
 739 00c4 D3F8B432 		ldr	r3, [r3, #692]
 740 00c8 9B69     		ldr	r3, [r3, #24]
 741 00ca FA7A     		ldrb	r2, [r7, #11]	@ zero_extendqisi2
 742 00cc 1146     		mov	r1, r2
 743 00ce F868     		ldr	r0, [r7, #12]
 744 00d0 9847     		blx	r3
 745              	.LVL5:
 746 00d2 01E0     		b	.L40
 747              	.L41:
 344:../Middlewares/ST/STM32_USB_Device_Library/Core/Src/usbd_core.c ****   }
 345:../Middlewares/ST/STM32_USB_Device_Library/Core/Src/usbd_core.c ****   else
 346:../Middlewares/ST/STM32_USB_Device_Library/Core/Src/usbd_core.c ****   {
 347:../Middlewares/ST/STM32_USB_Device_Library/Core/Src/usbd_core.c ****     /* should never be in this condition */
 348:../Middlewares/ST/STM32_USB_Device_Library/Core/Src/usbd_core.c ****     return USBD_FAIL;
 748              		.loc 1 348 0
ARM GAS  /tmp/ccZKQXDx.s 			page 20


 749 00d4 0223     		movs	r3, #2
 750 00d6 00E0     		b	.L42
 751              	.L40:
 349:../Middlewares/ST/STM32_USB_Device_Library/Core/Src/usbd_core.c ****   }
 350:../Middlewares/ST/STM32_USB_Device_Library/Core/Src/usbd_core.c **** 
 351:../Middlewares/ST/STM32_USB_Device_Library/Core/Src/usbd_core.c ****   return USBD_OK;
 752              		.loc 1 351 0
 753 00d8 0023     		movs	r3, #0
 754              	.L42:
 352:../Middlewares/ST/STM32_USB_Device_Library/Core/Src/usbd_core.c **** }
 755              		.loc 1 352 0
 756 00da 1846     		mov	r0, r3
 757 00dc 1837     		adds	r7, r7, #24
 758              	.LCFI50:
 759              		.cfi_def_cfa_offset 8
 760 00de BD46     		mov	sp, r7
 761              	.LCFI51:
 762              		.cfi_def_cfa_register 13
 763              		@ sp needed
 764 00e0 80BD     		pop	{r7, pc}
 765              		.cfi_endproc
 766              	.LFE140:
 768              		.section	.text.USBD_LL_DataInStage,"ax",%progbits
 769              		.align	1
 770              		.global	USBD_LL_DataInStage
 771              		.syntax unified
 772              		.thumb
 773              		.thumb_func
 774              		.fpu fpv4-sp-d16
 776              	USBD_LL_DataInStage:
 777              	.LFB141:
 353:../Middlewares/ST/STM32_USB_Device_Library/Core/Src/usbd_core.c **** 
 354:../Middlewares/ST/STM32_USB_Device_Library/Core/Src/usbd_core.c **** /**
 355:../Middlewares/ST/STM32_USB_Device_Library/Core/Src/usbd_core.c **** * @brief  USBD_DataInStage
 356:../Middlewares/ST/STM32_USB_Device_Library/Core/Src/usbd_core.c **** *         Handle data in stage
 357:../Middlewares/ST/STM32_USB_Device_Library/Core/Src/usbd_core.c **** * @param  pdev: device instance
 358:../Middlewares/ST/STM32_USB_Device_Library/Core/Src/usbd_core.c **** * @param  epnum: endpoint index
 359:../Middlewares/ST/STM32_USB_Device_Library/Core/Src/usbd_core.c **** * @retval status
 360:../Middlewares/ST/STM32_USB_Device_Library/Core/Src/usbd_core.c **** */
 361:../Middlewares/ST/STM32_USB_Device_Library/Core/Src/usbd_core.c **** USBD_StatusTypeDef USBD_LL_DataInStage(USBD_HandleTypeDef *pdev,
 362:../Middlewares/ST/STM32_USB_Device_Library/Core/Src/usbd_core.c ****                                        uint8_t epnum, uint8_t *pdata)
 363:../Middlewares/ST/STM32_USB_Device_Library/Core/Src/usbd_core.c **** {
 778              		.loc 1 363 0
 779              		.cfi_startproc
 780              		@ args = 0, pretend = 0, frame = 24
 781              		@ frame_needed = 1, uses_anonymous_args = 0
 782 0000 80B5     		push	{r7, lr}
 783              	.LCFI52:
 784              		.cfi_def_cfa_offset 8
 785              		.cfi_offset 7, -8
 786              		.cfi_offset 14, -4
 787 0002 86B0     		sub	sp, sp, #24
 788              	.LCFI53:
 789              		.cfi_def_cfa_offset 32
 790 0004 00AF     		add	r7, sp, #0
 791              	.LCFI54:
 792              		.cfi_def_cfa_register 7
ARM GAS  /tmp/ccZKQXDx.s 			page 21


 793 0006 F860     		str	r0, [r7, #12]
 794 0008 0B46     		mov	r3, r1
 795 000a 7A60     		str	r2, [r7, #4]
 796 000c FB72     		strb	r3, [r7, #11]
 364:../Middlewares/ST/STM32_USB_Device_Library/Core/Src/usbd_core.c ****   USBD_EndpointTypeDef *pep;
 365:../Middlewares/ST/STM32_USB_Device_Library/Core/Src/usbd_core.c **** 
 366:../Middlewares/ST/STM32_USB_Device_Library/Core/Src/usbd_core.c ****   if (epnum == 0U)
 797              		.loc 1 366 0
 798 000e FB7A     		ldrb	r3, [r7, #11]	@ zero_extendqisi2
 799 0010 002B     		cmp	r3, #0
 800 0012 7FD1     		bne	.L44
 367:../Middlewares/ST/STM32_USB_Device_Library/Core/Src/usbd_core.c ****   {
 368:../Middlewares/ST/STM32_USB_Device_Library/Core/Src/usbd_core.c ****     pep = &pdev->ep_in[0];
 801              		.loc 1 368 0
 802 0014 FB68     		ldr	r3, [r7, #12]
 803 0016 1433     		adds	r3, r3, #20
 804 0018 7B61     		str	r3, [r7, #20]
 369:../Middlewares/ST/STM32_USB_Device_Library/Core/Src/usbd_core.c **** 
 370:../Middlewares/ST/STM32_USB_Device_Library/Core/Src/usbd_core.c ****     if (pdev->ep0_state == USBD_EP0_DATA_IN)
 805              		.loc 1 370 0
 806 001a FB68     		ldr	r3, [r7, #12]
 807 001c D3F89432 		ldr	r3, [r3, #660]
 808 0020 022B     		cmp	r3, #2
 809 0022 5CD1     		bne	.L45
 371:../Middlewares/ST/STM32_USB_Device_Library/Core/Src/usbd_core.c ****     {
 372:../Middlewares/ST/STM32_USB_Device_Library/Core/Src/usbd_core.c ****       if (pep->rem_length > pep->maxpacket)
 810              		.loc 1 372 0
 811 0024 7B69     		ldr	r3, [r7, #20]
 812 0026 DA68     		ldr	r2, [r3, #12]
 813 0028 7B69     		ldr	r3, [r7, #20]
 814 002a 1B69     		ldr	r3, [r3, #16]
 815 002c 9A42     		cmp	r2, r3
 816 002e 15D9     		bls	.L46
 373:../Middlewares/ST/STM32_USB_Device_Library/Core/Src/usbd_core.c ****       {
 374:../Middlewares/ST/STM32_USB_Device_Library/Core/Src/usbd_core.c ****         pep->rem_length -= pep->maxpacket;
 817              		.loc 1 374 0
 818 0030 7B69     		ldr	r3, [r7, #20]
 819 0032 DA68     		ldr	r2, [r3, #12]
 820 0034 7B69     		ldr	r3, [r7, #20]
 821 0036 1B69     		ldr	r3, [r3, #16]
 822 0038 D21A     		subs	r2, r2, r3
 823 003a 7B69     		ldr	r3, [r7, #20]
 824 003c DA60     		str	r2, [r3, #12]
 375:../Middlewares/ST/STM32_USB_Device_Library/Core/Src/usbd_core.c **** 
 376:../Middlewares/ST/STM32_USB_Device_Library/Core/Src/usbd_core.c ****         USBD_CtlContinueSendData(pdev, pdata, (uint16_t)pep->rem_length);
 825              		.loc 1 376 0
 826 003e 7B69     		ldr	r3, [r7, #20]
 827 0040 DB68     		ldr	r3, [r3, #12]
 828 0042 9BB2     		uxth	r3, r3
 829 0044 1A46     		mov	r2, r3
 830 0046 7968     		ldr	r1, [r7, #4]
 831 0048 F868     		ldr	r0, [r7, #12]
 832 004a FFF7FEFF 		bl	USBD_CtlContinueSendData
 377:../Middlewares/ST/STM32_USB_Device_Library/Core/Src/usbd_core.c **** 
 378:../Middlewares/ST/STM32_USB_Device_Library/Core/Src/usbd_core.c ****         /* Prepare endpoint for premature end of transfer */
 379:../Middlewares/ST/STM32_USB_Device_Library/Core/Src/usbd_core.c ****         USBD_LL_PrepareReceive(pdev, 0U, NULL, 0U);
 833              		.loc 1 379 0
ARM GAS  /tmp/ccZKQXDx.s 			page 22


 834 004e 0023     		movs	r3, #0
 835 0050 0022     		movs	r2, #0
 836 0052 0021     		movs	r1, #0
 837 0054 F868     		ldr	r0, [r7, #12]
 838 0056 FFF7FEFF 		bl	USBD_LL_PrepareReceive
 839 005a 4EE0     		b	.L50
 840              	.L46:
 380:../Middlewares/ST/STM32_USB_Device_Library/Core/Src/usbd_core.c ****       }
 381:../Middlewares/ST/STM32_USB_Device_Library/Core/Src/usbd_core.c ****       else
 382:../Middlewares/ST/STM32_USB_Device_Library/Core/Src/usbd_core.c ****       {
 383:../Middlewares/ST/STM32_USB_Device_Library/Core/Src/usbd_core.c ****         /* last packet is MPS multiple, so send ZLP packet */
 384:../Middlewares/ST/STM32_USB_Device_Library/Core/Src/usbd_core.c ****         if ((pep->total_length % pep->maxpacket == 0U) &&
 841              		.loc 1 384 0
 842 005c 7B69     		ldr	r3, [r7, #20]
 843 005e 9B68     		ldr	r3, [r3, #8]
 844 0060 7A69     		ldr	r2, [r7, #20]
 845 0062 1269     		ldr	r2, [r2, #16]
 846 0064 B3FBF2F1 		udiv	r1, r3, r2
 847 0068 02FB01F2 		mul	r2, r2, r1
 848 006c 9B1A     		subs	r3, r3, r2
 849 006e 002B     		cmp	r3, #0
 850 0070 1CD1     		bne	.L48
 385:../Middlewares/ST/STM32_USB_Device_Library/Core/Src/usbd_core.c ****             (pep->total_length >= pep->maxpacket) &&
 851              		.loc 1 385 0 discriminator 1
 852 0072 7B69     		ldr	r3, [r7, #20]
 853 0074 9A68     		ldr	r2, [r3, #8]
 854 0076 7B69     		ldr	r3, [r7, #20]
 855 0078 1B69     		ldr	r3, [r3, #16]
 384:../Middlewares/ST/STM32_USB_Device_Library/Core/Src/usbd_core.c ****             (pep->total_length >= pep->maxpacket) &&
 856              		.loc 1 384 0 discriminator 1
 857 007a 9A42     		cmp	r2, r3
 858 007c 16D3     		bcc	.L48
 386:../Middlewares/ST/STM32_USB_Device_Library/Core/Src/usbd_core.c ****             (pep->total_length < pdev->ep0_data_len))
 859              		.loc 1 386 0
 860 007e 7B69     		ldr	r3, [r7, #20]
 861 0080 9A68     		ldr	r2, [r3, #8]
 862 0082 FB68     		ldr	r3, [r7, #12]
 863 0084 D3F89832 		ldr	r3, [r3, #664]
 385:../Middlewares/ST/STM32_USB_Device_Library/Core/Src/usbd_core.c ****             (pep->total_length >= pep->maxpacket) &&
 864              		.loc 1 385 0
 865 0088 9A42     		cmp	r2, r3
 866 008a 0FD2     		bcs	.L48
 387:../Middlewares/ST/STM32_USB_Device_Library/Core/Src/usbd_core.c ****         {
 388:../Middlewares/ST/STM32_USB_Device_Library/Core/Src/usbd_core.c ****           USBD_CtlContinueSendData(pdev, NULL, 0U);
 867              		.loc 1 388 0
 868 008c 0022     		movs	r2, #0
 869 008e 0021     		movs	r1, #0
 870 0090 F868     		ldr	r0, [r7, #12]
 871 0092 FFF7FEFF 		bl	USBD_CtlContinueSendData
 389:../Middlewares/ST/STM32_USB_Device_Library/Core/Src/usbd_core.c ****           pdev->ep0_data_len = 0U;
 872              		.loc 1 389 0
 873 0096 FB68     		ldr	r3, [r7, #12]
 874 0098 0022     		movs	r2, #0
 875 009a C3F89822 		str	r2, [r3, #664]
 390:../Middlewares/ST/STM32_USB_Device_Library/Core/Src/usbd_core.c **** 
 391:../Middlewares/ST/STM32_USB_Device_Library/Core/Src/usbd_core.c ****           /* Prepare endpoint for premature end of transfer */
 392:../Middlewares/ST/STM32_USB_Device_Library/Core/Src/usbd_core.c ****           USBD_LL_PrepareReceive(pdev, 0U, NULL, 0U);
ARM GAS  /tmp/ccZKQXDx.s 			page 23


 876              		.loc 1 392 0
 877 009e 0023     		movs	r3, #0
 878 00a0 0022     		movs	r2, #0
 879 00a2 0021     		movs	r1, #0
 880 00a4 F868     		ldr	r0, [r7, #12]
 881 00a6 FFF7FEFF 		bl	USBD_LL_PrepareReceive
 882 00aa 26E0     		b	.L50
 883              	.L48:
 393:../Middlewares/ST/STM32_USB_Device_Library/Core/Src/usbd_core.c ****         }
 394:../Middlewares/ST/STM32_USB_Device_Library/Core/Src/usbd_core.c ****         else
 395:../Middlewares/ST/STM32_USB_Device_Library/Core/Src/usbd_core.c ****         {
 396:../Middlewares/ST/STM32_USB_Device_Library/Core/Src/usbd_core.c ****           if ((pdev->pClass->EP0_TxSent != NULL) &&
 884              		.loc 1 396 0
 885 00ac FB68     		ldr	r3, [r7, #12]
 886 00ae D3F8B432 		ldr	r3, [r3, #692]
 887 00b2 DB68     		ldr	r3, [r3, #12]
 888 00b4 002B     		cmp	r3, #0
 889 00b6 0AD0     		beq	.L49
 397:../Middlewares/ST/STM32_USB_Device_Library/Core/Src/usbd_core.c ****               (pdev->dev_state == USBD_STATE_CONFIGURED))
 890              		.loc 1 397 0 discriminator 1
 891 00b8 FB68     		ldr	r3, [r7, #12]
 892 00ba 93F89C32 		ldrb	r3, [r3, #668]	@ zero_extendqisi2
 396:../Middlewares/ST/STM32_USB_Device_Library/Core/Src/usbd_core.c ****               (pdev->dev_state == USBD_STATE_CONFIGURED))
 893              		.loc 1 396 0 discriminator 1
 894 00be 032B     		cmp	r3, #3
 895 00c0 05D1     		bne	.L49
 398:../Middlewares/ST/STM32_USB_Device_Library/Core/Src/usbd_core.c ****           {
 399:../Middlewares/ST/STM32_USB_Device_Library/Core/Src/usbd_core.c ****             pdev->pClass->EP0_TxSent(pdev);
 896              		.loc 1 399 0
 897 00c2 FB68     		ldr	r3, [r7, #12]
 898 00c4 D3F8B432 		ldr	r3, [r3, #692]
 899 00c8 DB68     		ldr	r3, [r3, #12]
 900 00ca F868     		ldr	r0, [r7, #12]
 901 00cc 9847     		blx	r3
 902              	.LVL6:
 903              	.L49:
 400:../Middlewares/ST/STM32_USB_Device_Library/Core/Src/usbd_core.c ****           }
 401:../Middlewares/ST/STM32_USB_Device_Library/Core/Src/usbd_core.c ****           USBD_LL_StallEP(pdev, 0x80U);
 904              		.loc 1 401 0
 905 00ce 8021     		movs	r1, #128
 906 00d0 F868     		ldr	r0, [r7, #12]
 907 00d2 FFF7FEFF 		bl	USBD_LL_StallEP
 402:../Middlewares/ST/STM32_USB_Device_Library/Core/Src/usbd_core.c ****           USBD_CtlReceiveStatus(pdev);
 908              		.loc 1 402 0
 909 00d6 F868     		ldr	r0, [r7, #12]
 910 00d8 FFF7FEFF 		bl	USBD_CtlReceiveStatus
 911 00dc 0DE0     		b	.L50
 912              	.L45:
 403:../Middlewares/ST/STM32_USB_Device_Library/Core/Src/usbd_core.c ****         }
 404:../Middlewares/ST/STM32_USB_Device_Library/Core/Src/usbd_core.c ****       }
 405:../Middlewares/ST/STM32_USB_Device_Library/Core/Src/usbd_core.c ****     }
 406:../Middlewares/ST/STM32_USB_Device_Library/Core/Src/usbd_core.c ****     else
 407:../Middlewares/ST/STM32_USB_Device_Library/Core/Src/usbd_core.c ****     {
 408:../Middlewares/ST/STM32_USB_Device_Library/Core/Src/usbd_core.c ****       if ((pdev->ep0_state == USBD_EP0_STATUS_IN) ||
 913              		.loc 1 408 0
 914 00de FB68     		ldr	r3, [r7, #12]
 915 00e0 D3F89432 		ldr	r3, [r3, #660]
ARM GAS  /tmp/ccZKQXDx.s 			page 24


 916 00e4 042B     		cmp	r3, #4
 917 00e6 04D0     		beq	.L51
 409:../Middlewares/ST/STM32_USB_Device_Library/Core/Src/usbd_core.c ****           (pdev->ep0_state == USBD_EP0_IDLE))
 918              		.loc 1 409 0 discriminator 1
 919 00e8 FB68     		ldr	r3, [r7, #12]
 920 00ea D3F89432 		ldr	r3, [r3, #660]
 408:../Middlewares/ST/STM32_USB_Device_Library/Core/Src/usbd_core.c ****           (pdev->ep0_state == USBD_EP0_IDLE))
 921              		.loc 1 408 0 discriminator 1
 922 00ee 002B     		cmp	r3, #0
 923 00f0 03D1     		bne	.L50
 924              	.L51:
 410:../Middlewares/ST/STM32_USB_Device_Library/Core/Src/usbd_core.c ****       {
 411:../Middlewares/ST/STM32_USB_Device_Library/Core/Src/usbd_core.c ****         USBD_LL_StallEP(pdev, 0x80U);
 925              		.loc 1 411 0
 926 00f2 8021     		movs	r1, #128
 927 00f4 F868     		ldr	r0, [r7, #12]
 928 00f6 FFF7FEFF 		bl	USBD_LL_StallEP
 929              	.L50:
 412:../Middlewares/ST/STM32_USB_Device_Library/Core/Src/usbd_core.c ****       }
 413:../Middlewares/ST/STM32_USB_Device_Library/Core/Src/usbd_core.c ****     }
 414:../Middlewares/ST/STM32_USB_Device_Library/Core/Src/usbd_core.c **** 
 415:../Middlewares/ST/STM32_USB_Device_Library/Core/Src/usbd_core.c ****     if (pdev->dev_test_mode == 1U)
 930              		.loc 1 415 0
 931 00fa FB68     		ldr	r3, [r7, #12]
 932 00fc 93F8A032 		ldrb	r3, [r3, #672]	@ zero_extendqisi2
 933 0100 012B     		cmp	r3, #1
 934 0102 1DD1     		bne	.L53
 416:../Middlewares/ST/STM32_USB_Device_Library/Core/Src/usbd_core.c ****     {
 417:../Middlewares/ST/STM32_USB_Device_Library/Core/Src/usbd_core.c ****       USBD_RunTestMode(pdev);
 935              		.loc 1 417 0
 936 0104 F868     		ldr	r0, [r7, #12]
 937 0106 FFF7FEFF 		bl	USBD_RunTestMode
 418:../Middlewares/ST/STM32_USB_Device_Library/Core/Src/usbd_core.c ****       pdev->dev_test_mode = 0U;
 938              		.loc 1 418 0
 939 010a FB68     		ldr	r3, [r7, #12]
 940 010c 0022     		movs	r2, #0
 941 010e 83F8A022 		strb	r2, [r3, #672]
 942 0112 15E0     		b	.L53
 943              	.L44:
 419:../Middlewares/ST/STM32_USB_Device_Library/Core/Src/usbd_core.c ****     }
 420:../Middlewares/ST/STM32_USB_Device_Library/Core/Src/usbd_core.c ****   }
 421:../Middlewares/ST/STM32_USB_Device_Library/Core/Src/usbd_core.c ****   else if ((pdev->pClass->DataIn != NULL) &&
 944              		.loc 1 421 0
 945 0114 FB68     		ldr	r3, [r7, #12]
 946 0116 D3F8B432 		ldr	r3, [r3, #692]
 947 011a 5B69     		ldr	r3, [r3, #20]
 948 011c 002B     		cmp	r3, #0
 949 011e 0DD0     		beq	.L54
 422:../Middlewares/ST/STM32_USB_Device_Library/Core/Src/usbd_core.c ****            (pdev->dev_state == USBD_STATE_CONFIGURED))
 950              		.loc 1 422 0 discriminator 1
 951 0120 FB68     		ldr	r3, [r7, #12]
 952 0122 93F89C32 		ldrb	r3, [r3, #668]	@ zero_extendqisi2
 421:../Middlewares/ST/STM32_USB_Device_Library/Core/Src/usbd_core.c ****            (pdev->dev_state == USBD_STATE_CONFIGURED))
 953              		.loc 1 421 0 discriminator 1
 954 0126 032B     		cmp	r3, #3
 955 0128 08D1     		bne	.L54
 423:../Middlewares/ST/STM32_USB_Device_Library/Core/Src/usbd_core.c ****   {
ARM GAS  /tmp/ccZKQXDx.s 			page 25


 424:../Middlewares/ST/STM32_USB_Device_Library/Core/Src/usbd_core.c ****     pdev->pClass->DataIn(pdev, epnum);
 956              		.loc 1 424 0
 957 012a FB68     		ldr	r3, [r7, #12]
 958 012c D3F8B432 		ldr	r3, [r3, #692]
 959 0130 5B69     		ldr	r3, [r3, #20]
 960 0132 FA7A     		ldrb	r2, [r7, #11]	@ zero_extendqisi2
 961 0134 1146     		mov	r1, r2
 962 0136 F868     		ldr	r0, [r7, #12]
 963 0138 9847     		blx	r3
 964              	.LVL7:
 965 013a 01E0     		b	.L53
 966              	.L54:
 425:../Middlewares/ST/STM32_USB_Device_Library/Core/Src/usbd_core.c ****   }
 426:../Middlewares/ST/STM32_USB_Device_Library/Core/Src/usbd_core.c ****   else
 427:../Middlewares/ST/STM32_USB_Device_Library/Core/Src/usbd_core.c ****   {
 428:../Middlewares/ST/STM32_USB_Device_Library/Core/Src/usbd_core.c ****     /* should never be in this condition */
 429:../Middlewares/ST/STM32_USB_Device_Library/Core/Src/usbd_core.c ****     return USBD_FAIL;
 967              		.loc 1 429 0
 968 013c 0223     		movs	r3, #2
 969 013e 00E0     		b	.L55
 970              	.L53:
 430:../Middlewares/ST/STM32_USB_Device_Library/Core/Src/usbd_core.c ****   }
 431:../Middlewares/ST/STM32_USB_Device_Library/Core/Src/usbd_core.c **** 
 432:../Middlewares/ST/STM32_USB_Device_Library/Core/Src/usbd_core.c ****   return USBD_OK;
 971              		.loc 1 432 0
 972 0140 0023     		movs	r3, #0
 973              	.L55:
 433:../Middlewares/ST/STM32_USB_Device_Library/Core/Src/usbd_core.c **** }
 974              		.loc 1 433 0
 975 0142 1846     		mov	r0, r3
 976 0144 1837     		adds	r7, r7, #24
 977              	.LCFI55:
 978              		.cfi_def_cfa_offset 8
 979 0146 BD46     		mov	sp, r7
 980              	.LCFI56:
 981              		.cfi_def_cfa_register 13
 982              		@ sp needed
 983 0148 80BD     		pop	{r7, pc}
 984              		.cfi_endproc
 985              	.LFE141:
 987              		.section	.text.USBD_LL_Reset,"ax",%progbits
 988              		.align	1
 989              		.global	USBD_LL_Reset
 990              		.syntax unified
 991              		.thumb
 992              		.thumb_func
 993              		.fpu fpv4-sp-d16
 995              	USBD_LL_Reset:
 996              	.LFB142:
 434:../Middlewares/ST/STM32_USB_Device_Library/Core/Src/usbd_core.c **** 
 435:../Middlewares/ST/STM32_USB_Device_Library/Core/Src/usbd_core.c **** /**
 436:../Middlewares/ST/STM32_USB_Device_Library/Core/Src/usbd_core.c **** * @brief  USBD_LL_Reset
 437:../Middlewares/ST/STM32_USB_Device_Library/Core/Src/usbd_core.c **** *         Handle Reset event
 438:../Middlewares/ST/STM32_USB_Device_Library/Core/Src/usbd_core.c **** * @param  pdev: device instance
 439:../Middlewares/ST/STM32_USB_Device_Library/Core/Src/usbd_core.c **** * @retval status
 440:../Middlewares/ST/STM32_USB_Device_Library/Core/Src/usbd_core.c **** */
 441:../Middlewares/ST/STM32_USB_Device_Library/Core/Src/usbd_core.c **** 
ARM GAS  /tmp/ccZKQXDx.s 			page 26


 442:../Middlewares/ST/STM32_USB_Device_Library/Core/Src/usbd_core.c **** USBD_StatusTypeDef USBD_LL_Reset(USBD_HandleTypeDef *pdev)
 443:../Middlewares/ST/STM32_USB_Device_Library/Core/Src/usbd_core.c **** {
 997              		.loc 1 443 0
 998              		.cfi_startproc
 999              		@ args = 0, pretend = 0, frame = 8
 1000              		@ frame_needed = 1, uses_anonymous_args = 0
 1001 0000 80B5     		push	{r7, lr}
 1002              	.LCFI57:
 1003              		.cfi_def_cfa_offset 8
 1004              		.cfi_offset 7, -8
 1005              		.cfi_offset 14, -4
 1006 0002 82B0     		sub	sp, sp, #8
 1007              	.LCFI58:
 1008              		.cfi_def_cfa_offset 16
 1009 0004 00AF     		add	r7, sp, #0
 1010              	.LCFI59:
 1011              		.cfi_def_cfa_register 7
 1012 0006 7860     		str	r0, [r7, #4]
 444:../Middlewares/ST/STM32_USB_Device_Library/Core/Src/usbd_core.c ****   /* Open EP0 OUT */
 445:../Middlewares/ST/STM32_USB_Device_Library/Core/Src/usbd_core.c ****   USBD_LL_OpenEP(pdev, 0x00U, USBD_EP_TYPE_CTRL, USB_MAX_EP0_SIZE);
 1013              		.loc 1 445 0
 1014 0008 4023     		movs	r3, #64
 1015 000a 0022     		movs	r2, #0
 1016 000c 0021     		movs	r1, #0
 1017 000e 7868     		ldr	r0, [r7, #4]
 1018 0010 FFF7FEFF 		bl	USBD_LL_OpenEP
 446:../Middlewares/ST/STM32_USB_Device_Library/Core/Src/usbd_core.c ****   pdev->ep_out[0x00U & 0xFU].is_used = 1U;
 1019              		.loc 1 446 0
 1020 0014 7B68     		ldr	r3, [r7, #4]
 1021 0016 0122     		movs	r2, #1
 1022 0018 C3F85821 		str	r2, [r3, #344]
 447:../Middlewares/ST/STM32_USB_Device_Library/Core/Src/usbd_core.c **** 
 448:../Middlewares/ST/STM32_USB_Device_Library/Core/Src/usbd_core.c ****   pdev->ep_out[0].maxpacket = USB_MAX_EP0_SIZE;
 1023              		.loc 1 448 0
 1024 001c 7B68     		ldr	r3, [r7, #4]
 1025 001e 4022     		movs	r2, #64
 1026 0020 C3F86421 		str	r2, [r3, #356]
 449:../Middlewares/ST/STM32_USB_Device_Library/Core/Src/usbd_core.c **** 
 450:../Middlewares/ST/STM32_USB_Device_Library/Core/Src/usbd_core.c ****   /* Open EP0 IN */
 451:../Middlewares/ST/STM32_USB_Device_Library/Core/Src/usbd_core.c ****   USBD_LL_OpenEP(pdev, 0x80U, USBD_EP_TYPE_CTRL, USB_MAX_EP0_SIZE);
 1027              		.loc 1 451 0
 1028 0024 4023     		movs	r3, #64
 1029 0026 0022     		movs	r2, #0
 1030 0028 8021     		movs	r1, #128
 1031 002a 7868     		ldr	r0, [r7, #4]
 1032 002c FFF7FEFF 		bl	USBD_LL_OpenEP
 452:../Middlewares/ST/STM32_USB_Device_Library/Core/Src/usbd_core.c ****   pdev->ep_in[0x80U & 0xFU].is_used = 1U;
 1033              		.loc 1 452 0
 1034 0030 7B68     		ldr	r3, [r7, #4]
 1035 0032 0122     		movs	r2, #1
 1036 0034 9A61     		str	r2, [r3, #24]
 453:../Middlewares/ST/STM32_USB_Device_Library/Core/Src/usbd_core.c **** 
 454:../Middlewares/ST/STM32_USB_Device_Library/Core/Src/usbd_core.c ****   pdev->ep_in[0].maxpacket = USB_MAX_EP0_SIZE;
 1037              		.loc 1 454 0
 1038 0036 7B68     		ldr	r3, [r7, #4]
 1039 0038 4022     		movs	r2, #64
 1040 003a 5A62     		str	r2, [r3, #36]
ARM GAS  /tmp/ccZKQXDx.s 			page 27


 455:../Middlewares/ST/STM32_USB_Device_Library/Core/Src/usbd_core.c **** 
 456:../Middlewares/ST/STM32_USB_Device_Library/Core/Src/usbd_core.c ****   /* Upon Reset call user call back */
 457:../Middlewares/ST/STM32_USB_Device_Library/Core/Src/usbd_core.c ****   pdev->dev_state = USBD_STATE_DEFAULT;
 1041              		.loc 1 457 0
 1042 003c 7B68     		ldr	r3, [r7, #4]
 1043 003e 0122     		movs	r2, #1
 1044 0040 83F89C22 		strb	r2, [r3, #668]
 458:../Middlewares/ST/STM32_USB_Device_Library/Core/Src/usbd_core.c ****   pdev->ep0_state = USBD_EP0_IDLE;
 1045              		.loc 1 458 0
 1046 0044 7B68     		ldr	r3, [r7, #4]
 1047 0046 0022     		movs	r2, #0
 1048 0048 C3F89422 		str	r2, [r3, #660]
 459:../Middlewares/ST/STM32_USB_Device_Library/Core/Src/usbd_core.c ****   pdev->dev_config = 0U;
 1049              		.loc 1 459 0
 1050 004c 7B68     		ldr	r3, [r7, #4]
 1051 004e 0022     		movs	r2, #0
 1052 0050 5A60     		str	r2, [r3, #4]
 460:../Middlewares/ST/STM32_USB_Device_Library/Core/Src/usbd_core.c ****   pdev->dev_remote_wakeup = 0U;
 1053              		.loc 1 460 0
 1054 0052 7B68     		ldr	r3, [r7, #4]
 1055 0054 0022     		movs	r2, #0
 1056 0056 C3F8A422 		str	r2, [r3, #676]
 461:../Middlewares/ST/STM32_USB_Device_Library/Core/Src/usbd_core.c **** 
 462:../Middlewares/ST/STM32_USB_Device_Library/Core/Src/usbd_core.c ****   if (pdev->pClassData)
 1057              		.loc 1 462 0
 1058 005a 7B68     		ldr	r3, [r7, #4]
 1059 005c D3F8B832 		ldr	r3, [r3, #696]
 1060 0060 002B     		cmp	r3, #0
 1061 0062 09D0     		beq	.L57
 463:../Middlewares/ST/STM32_USB_Device_Library/Core/Src/usbd_core.c ****   {
 464:../Middlewares/ST/STM32_USB_Device_Library/Core/Src/usbd_core.c ****     pdev->pClass->DeInit(pdev, (uint8_t)pdev->dev_config);
 1062              		.loc 1 464 0
 1063 0064 7B68     		ldr	r3, [r7, #4]
 1064 0066 D3F8B432 		ldr	r3, [r3, #692]
 1065 006a 5B68     		ldr	r3, [r3, #4]
 1066 006c 7A68     		ldr	r2, [r7, #4]
 1067 006e 5268     		ldr	r2, [r2, #4]
 1068 0070 D2B2     		uxtb	r2, r2
 1069 0072 1146     		mov	r1, r2
 1070 0074 7868     		ldr	r0, [r7, #4]
 1071 0076 9847     		blx	r3
 1072              	.LVL8:
 1073              	.L57:
 465:../Middlewares/ST/STM32_USB_Device_Library/Core/Src/usbd_core.c ****   }
 466:../Middlewares/ST/STM32_USB_Device_Library/Core/Src/usbd_core.c **** 
 467:../Middlewares/ST/STM32_USB_Device_Library/Core/Src/usbd_core.c ****   return USBD_OK;
 1074              		.loc 1 467 0
 1075 0078 0023     		movs	r3, #0
 468:../Middlewares/ST/STM32_USB_Device_Library/Core/Src/usbd_core.c **** }
 1076              		.loc 1 468 0
 1077 007a 1846     		mov	r0, r3
 1078 007c 0837     		adds	r7, r7, #8
 1079              	.LCFI60:
 1080              		.cfi_def_cfa_offset 8
 1081 007e BD46     		mov	sp, r7
 1082              	.LCFI61:
 1083              		.cfi_def_cfa_register 13
ARM GAS  /tmp/ccZKQXDx.s 			page 28


 1084              		@ sp needed
 1085 0080 80BD     		pop	{r7, pc}
 1086              		.cfi_endproc
 1087              	.LFE142:
 1089              		.section	.text.USBD_LL_SetSpeed,"ax",%progbits
 1090              		.align	1
 1091              		.global	USBD_LL_SetSpeed
 1092              		.syntax unified
 1093              		.thumb
 1094              		.thumb_func
 1095              		.fpu fpv4-sp-d16
 1097              	USBD_LL_SetSpeed:
 1098              	.LFB143:
 469:../Middlewares/ST/STM32_USB_Device_Library/Core/Src/usbd_core.c **** 
 470:../Middlewares/ST/STM32_USB_Device_Library/Core/Src/usbd_core.c **** /**
 471:../Middlewares/ST/STM32_USB_Device_Library/Core/Src/usbd_core.c **** * @brief  USBD_LL_Reset
 472:../Middlewares/ST/STM32_USB_Device_Library/Core/Src/usbd_core.c **** *         Handle Reset event
 473:../Middlewares/ST/STM32_USB_Device_Library/Core/Src/usbd_core.c **** * @param  pdev: device instance
 474:../Middlewares/ST/STM32_USB_Device_Library/Core/Src/usbd_core.c **** * @retval status
 475:../Middlewares/ST/STM32_USB_Device_Library/Core/Src/usbd_core.c **** */
 476:../Middlewares/ST/STM32_USB_Device_Library/Core/Src/usbd_core.c **** USBD_StatusTypeDef USBD_LL_SetSpeed(USBD_HandleTypeDef *pdev,
 477:../Middlewares/ST/STM32_USB_Device_Library/Core/Src/usbd_core.c ****                                     USBD_SpeedTypeDef speed)
 478:../Middlewares/ST/STM32_USB_Device_Library/Core/Src/usbd_core.c **** {
 1099              		.loc 1 478 0
 1100              		.cfi_startproc
 1101              		@ args = 0, pretend = 0, frame = 8
 1102              		@ frame_needed = 1, uses_anonymous_args = 0
 1103              		@ link register save eliminated.
 1104 0000 80B4     		push	{r7}
 1105              	.LCFI62:
 1106              		.cfi_def_cfa_offset 4
 1107              		.cfi_offset 7, -4
 1108 0002 83B0     		sub	sp, sp, #12
 1109              	.LCFI63:
 1110              		.cfi_def_cfa_offset 16
 1111 0004 00AF     		add	r7, sp, #0
 1112              	.LCFI64:
 1113              		.cfi_def_cfa_register 7
 1114 0006 7860     		str	r0, [r7, #4]
 1115 0008 0B46     		mov	r3, r1
 1116 000a FB70     		strb	r3, [r7, #3]
 479:../Middlewares/ST/STM32_USB_Device_Library/Core/Src/usbd_core.c ****   pdev->dev_speed = speed;
 1117              		.loc 1 479 0
 1118 000c 7B68     		ldr	r3, [r7, #4]
 1119 000e FA78     		ldrb	r2, [r7, #3]
 1120 0010 1A74     		strb	r2, [r3, #16]
 480:../Middlewares/ST/STM32_USB_Device_Library/Core/Src/usbd_core.c **** 
 481:../Middlewares/ST/STM32_USB_Device_Library/Core/Src/usbd_core.c ****   return USBD_OK;
 1121              		.loc 1 481 0
 1122 0012 0023     		movs	r3, #0
 482:../Middlewares/ST/STM32_USB_Device_Library/Core/Src/usbd_core.c **** }
 1123              		.loc 1 482 0
 1124 0014 1846     		mov	r0, r3
 1125 0016 0C37     		adds	r7, r7, #12
 1126              	.LCFI65:
 1127              		.cfi_def_cfa_offset 4
 1128 0018 BD46     		mov	sp, r7
ARM GAS  /tmp/ccZKQXDx.s 			page 29


 1129              	.LCFI66:
 1130              		.cfi_def_cfa_register 13
 1131              		@ sp needed
 1132 001a 5DF8047B 		ldr	r7, [sp], #4
 1133              	.LCFI67:
 1134              		.cfi_restore 7
 1135              		.cfi_def_cfa_offset 0
 1136 001e 7047     		bx	lr
 1137              		.cfi_endproc
 1138              	.LFE143:
 1140              		.section	.text.USBD_LL_Suspend,"ax",%progbits
 1141              		.align	1
 1142              		.global	USBD_LL_Suspend
 1143              		.syntax unified
 1144              		.thumb
 1145              		.thumb_func
 1146              		.fpu fpv4-sp-d16
 1148              	USBD_LL_Suspend:
 1149              	.LFB144:
 483:../Middlewares/ST/STM32_USB_Device_Library/Core/Src/usbd_core.c **** 
 484:../Middlewares/ST/STM32_USB_Device_Library/Core/Src/usbd_core.c **** /**
 485:../Middlewares/ST/STM32_USB_Device_Library/Core/Src/usbd_core.c **** * @brief  USBD_Suspend
 486:../Middlewares/ST/STM32_USB_Device_Library/Core/Src/usbd_core.c **** *         Handle Suspend event
 487:../Middlewares/ST/STM32_USB_Device_Library/Core/Src/usbd_core.c **** * @param  pdev: device instance
 488:../Middlewares/ST/STM32_USB_Device_Library/Core/Src/usbd_core.c **** * @retval status
 489:../Middlewares/ST/STM32_USB_Device_Library/Core/Src/usbd_core.c **** */
 490:../Middlewares/ST/STM32_USB_Device_Library/Core/Src/usbd_core.c **** 
 491:../Middlewares/ST/STM32_USB_Device_Library/Core/Src/usbd_core.c **** USBD_StatusTypeDef USBD_LL_Suspend(USBD_HandleTypeDef *pdev)
 492:../Middlewares/ST/STM32_USB_Device_Library/Core/Src/usbd_core.c **** {
 1150              		.loc 1 492 0
 1151              		.cfi_startproc
 1152              		@ args = 0, pretend = 0, frame = 8
 1153              		@ frame_needed = 1, uses_anonymous_args = 0
 1154              		@ link register save eliminated.
 1155 0000 80B4     		push	{r7}
 1156              	.LCFI68:
 1157              		.cfi_def_cfa_offset 4
 1158              		.cfi_offset 7, -4
 1159 0002 83B0     		sub	sp, sp, #12
 1160              	.LCFI69:
 1161              		.cfi_def_cfa_offset 16
 1162 0004 00AF     		add	r7, sp, #0
 1163              	.LCFI70:
 1164              		.cfi_def_cfa_register 7
 1165 0006 7860     		str	r0, [r7, #4]
 493:../Middlewares/ST/STM32_USB_Device_Library/Core/Src/usbd_core.c ****   pdev->dev_old_state =  pdev->dev_state;
 1166              		.loc 1 493 0
 1167 0008 7B68     		ldr	r3, [r7, #4]
 1168 000a 93F89C22 		ldrb	r2, [r3, #668]	@ zero_extendqisi2
 1169 000e 7B68     		ldr	r3, [r7, #4]
 1170 0010 83F89D22 		strb	r2, [r3, #669]
 494:../Middlewares/ST/STM32_USB_Device_Library/Core/Src/usbd_core.c ****   pdev->dev_state  = USBD_STATE_SUSPENDED;
 1171              		.loc 1 494 0
 1172 0014 7B68     		ldr	r3, [r7, #4]
 1173 0016 0422     		movs	r2, #4
 1174 0018 83F89C22 		strb	r2, [r3, #668]
 495:../Middlewares/ST/STM32_USB_Device_Library/Core/Src/usbd_core.c **** 
ARM GAS  /tmp/ccZKQXDx.s 			page 30


 496:../Middlewares/ST/STM32_USB_Device_Library/Core/Src/usbd_core.c ****   return USBD_OK;
 1175              		.loc 1 496 0
 1176 001c 0023     		movs	r3, #0
 497:../Middlewares/ST/STM32_USB_Device_Library/Core/Src/usbd_core.c **** }
 1177              		.loc 1 497 0
 1178 001e 1846     		mov	r0, r3
 1179 0020 0C37     		adds	r7, r7, #12
 1180              	.LCFI71:
 1181              		.cfi_def_cfa_offset 4
 1182 0022 BD46     		mov	sp, r7
 1183              	.LCFI72:
 1184              		.cfi_def_cfa_register 13
 1185              		@ sp needed
 1186 0024 5DF8047B 		ldr	r7, [sp], #4
 1187              	.LCFI73:
 1188              		.cfi_restore 7
 1189              		.cfi_def_cfa_offset 0
 1190 0028 7047     		bx	lr
 1191              		.cfi_endproc
 1192              	.LFE144:
 1194              		.section	.text.USBD_LL_Resume,"ax",%progbits
 1195              		.align	1
 1196              		.global	USBD_LL_Resume
 1197              		.syntax unified
 1198              		.thumb
 1199              		.thumb_func
 1200              		.fpu fpv4-sp-d16
 1202              	USBD_LL_Resume:
 1203              	.LFB145:
 498:../Middlewares/ST/STM32_USB_Device_Library/Core/Src/usbd_core.c **** 
 499:../Middlewares/ST/STM32_USB_Device_Library/Core/Src/usbd_core.c **** /**
 500:../Middlewares/ST/STM32_USB_Device_Library/Core/Src/usbd_core.c **** * @brief  USBD_Resume
 501:../Middlewares/ST/STM32_USB_Device_Library/Core/Src/usbd_core.c **** *         Handle Resume event
 502:../Middlewares/ST/STM32_USB_Device_Library/Core/Src/usbd_core.c **** * @param  pdev: device instance
 503:../Middlewares/ST/STM32_USB_Device_Library/Core/Src/usbd_core.c **** * @retval status
 504:../Middlewares/ST/STM32_USB_Device_Library/Core/Src/usbd_core.c **** */
 505:../Middlewares/ST/STM32_USB_Device_Library/Core/Src/usbd_core.c **** 
 506:../Middlewares/ST/STM32_USB_Device_Library/Core/Src/usbd_core.c **** USBD_StatusTypeDef USBD_LL_Resume(USBD_HandleTypeDef *pdev)
 507:../Middlewares/ST/STM32_USB_Device_Library/Core/Src/usbd_core.c **** {
 1204              		.loc 1 507 0
 1205              		.cfi_startproc
 1206              		@ args = 0, pretend = 0, frame = 8
 1207              		@ frame_needed = 1, uses_anonymous_args = 0
 1208              		@ link register save eliminated.
 1209 0000 80B4     		push	{r7}
 1210              	.LCFI74:
 1211              		.cfi_def_cfa_offset 4
 1212              		.cfi_offset 7, -4
 1213 0002 83B0     		sub	sp, sp, #12
 1214              	.LCFI75:
 1215              		.cfi_def_cfa_offset 16
 1216 0004 00AF     		add	r7, sp, #0
 1217              	.LCFI76:
 1218              		.cfi_def_cfa_register 7
 1219 0006 7860     		str	r0, [r7, #4]
 508:../Middlewares/ST/STM32_USB_Device_Library/Core/Src/usbd_core.c ****   if (pdev->dev_state == USBD_STATE_SUSPENDED)
 1220              		.loc 1 508 0
ARM GAS  /tmp/ccZKQXDx.s 			page 31


 1221 0008 7B68     		ldr	r3, [r7, #4]
 1222 000a 93F89C32 		ldrb	r3, [r3, #668]	@ zero_extendqisi2
 1223 000e 042B     		cmp	r3, #4
 1224 0010 05D1     		bne	.L64
 509:../Middlewares/ST/STM32_USB_Device_Library/Core/Src/usbd_core.c ****   {
 510:../Middlewares/ST/STM32_USB_Device_Library/Core/Src/usbd_core.c ****     pdev->dev_state = pdev->dev_old_state;
 1225              		.loc 1 510 0
 1226 0012 7B68     		ldr	r3, [r7, #4]
 1227 0014 93F89D22 		ldrb	r2, [r3, #669]	@ zero_extendqisi2
 1228 0018 7B68     		ldr	r3, [r7, #4]
 1229 001a 83F89C22 		strb	r2, [r3, #668]
 1230              	.L64:
 511:../Middlewares/ST/STM32_USB_Device_Library/Core/Src/usbd_core.c ****   }
 512:../Middlewares/ST/STM32_USB_Device_Library/Core/Src/usbd_core.c **** 
 513:../Middlewares/ST/STM32_USB_Device_Library/Core/Src/usbd_core.c ****   return USBD_OK;
 1231              		.loc 1 513 0
 1232 001e 0023     		movs	r3, #0
 514:../Middlewares/ST/STM32_USB_Device_Library/Core/Src/usbd_core.c **** }
 1233              		.loc 1 514 0
 1234 0020 1846     		mov	r0, r3
 1235 0022 0C37     		adds	r7, r7, #12
 1236              	.LCFI77:
 1237              		.cfi_def_cfa_offset 4
 1238 0024 BD46     		mov	sp, r7
 1239              	.LCFI78:
 1240              		.cfi_def_cfa_register 13
 1241              		@ sp needed
 1242 0026 5DF8047B 		ldr	r7, [sp], #4
 1243              	.LCFI79:
 1244              		.cfi_restore 7
 1245              		.cfi_def_cfa_offset 0
 1246 002a 7047     		bx	lr
 1247              		.cfi_endproc
 1248              	.LFE145:
 1250              		.section	.text.USBD_LL_SOF,"ax",%progbits
 1251              		.align	1
 1252              		.global	USBD_LL_SOF
 1253              		.syntax unified
 1254              		.thumb
 1255              		.thumb_func
 1256              		.fpu fpv4-sp-d16
 1258              	USBD_LL_SOF:
 1259              	.LFB146:
 515:../Middlewares/ST/STM32_USB_Device_Library/Core/Src/usbd_core.c **** 
 516:../Middlewares/ST/STM32_USB_Device_Library/Core/Src/usbd_core.c **** /**
 517:../Middlewares/ST/STM32_USB_Device_Library/Core/Src/usbd_core.c **** * @brief  USBD_SOF
 518:../Middlewares/ST/STM32_USB_Device_Library/Core/Src/usbd_core.c **** *         Handle SOF event
 519:../Middlewares/ST/STM32_USB_Device_Library/Core/Src/usbd_core.c **** * @param  pdev: device instance
 520:../Middlewares/ST/STM32_USB_Device_Library/Core/Src/usbd_core.c **** * @retval status
 521:../Middlewares/ST/STM32_USB_Device_Library/Core/Src/usbd_core.c **** */
 522:../Middlewares/ST/STM32_USB_Device_Library/Core/Src/usbd_core.c **** 
 523:../Middlewares/ST/STM32_USB_Device_Library/Core/Src/usbd_core.c **** USBD_StatusTypeDef USBD_LL_SOF(USBD_HandleTypeDef *pdev)
 524:../Middlewares/ST/STM32_USB_Device_Library/Core/Src/usbd_core.c **** {
 1260              		.loc 1 524 0
 1261              		.cfi_startproc
 1262              		@ args = 0, pretend = 0, frame = 8
 1263              		@ frame_needed = 1, uses_anonymous_args = 0
ARM GAS  /tmp/ccZKQXDx.s 			page 32


 1264 0000 80B5     		push	{r7, lr}
 1265              	.LCFI80:
 1266              		.cfi_def_cfa_offset 8
 1267              		.cfi_offset 7, -8
 1268              		.cfi_offset 14, -4
 1269 0002 82B0     		sub	sp, sp, #8
 1270              	.LCFI81:
 1271              		.cfi_def_cfa_offset 16
 1272 0004 00AF     		add	r7, sp, #0
 1273              	.LCFI82:
 1274              		.cfi_def_cfa_register 7
 1275 0006 7860     		str	r0, [r7, #4]
 525:../Middlewares/ST/STM32_USB_Device_Library/Core/Src/usbd_core.c ****   if (pdev->dev_state == USBD_STATE_CONFIGURED)
 1276              		.loc 1 525 0
 1277 0008 7B68     		ldr	r3, [r7, #4]
 1278 000a 93F89C32 		ldrb	r3, [r3, #668]	@ zero_extendqisi2
 1279 000e 032B     		cmp	r3, #3
 1280 0010 0BD1     		bne	.L67
 526:../Middlewares/ST/STM32_USB_Device_Library/Core/Src/usbd_core.c ****   {
 527:../Middlewares/ST/STM32_USB_Device_Library/Core/Src/usbd_core.c ****     if (pdev->pClass->SOF != NULL)
 1281              		.loc 1 527 0
 1282 0012 7B68     		ldr	r3, [r7, #4]
 1283 0014 D3F8B432 		ldr	r3, [r3, #692]
 1284 0018 DB69     		ldr	r3, [r3, #28]
 1285 001a 002B     		cmp	r3, #0
 1286 001c 05D0     		beq	.L67
 528:../Middlewares/ST/STM32_USB_Device_Library/Core/Src/usbd_core.c ****     {
 529:../Middlewares/ST/STM32_USB_Device_Library/Core/Src/usbd_core.c ****       pdev->pClass->SOF(pdev);
 1287              		.loc 1 529 0
 1288 001e 7B68     		ldr	r3, [r7, #4]
 1289 0020 D3F8B432 		ldr	r3, [r3, #692]
 1290 0024 DB69     		ldr	r3, [r3, #28]
 1291 0026 7868     		ldr	r0, [r7, #4]
 1292 0028 9847     		blx	r3
 1293              	.LVL9:
 1294              	.L67:
 530:../Middlewares/ST/STM32_USB_Device_Library/Core/Src/usbd_core.c ****     }
 531:../Middlewares/ST/STM32_USB_Device_Library/Core/Src/usbd_core.c ****   }
 532:../Middlewares/ST/STM32_USB_Device_Library/Core/Src/usbd_core.c **** 
 533:../Middlewares/ST/STM32_USB_Device_Library/Core/Src/usbd_core.c ****   return USBD_OK;
 1295              		.loc 1 533 0
 1296 002a 0023     		movs	r3, #0
 534:../Middlewares/ST/STM32_USB_Device_Library/Core/Src/usbd_core.c **** }
 1297              		.loc 1 534 0
 1298 002c 1846     		mov	r0, r3
 1299 002e 0837     		adds	r7, r7, #8
 1300              	.LCFI83:
 1301              		.cfi_def_cfa_offset 8
 1302 0030 BD46     		mov	sp, r7
 1303              	.LCFI84:
 1304              		.cfi_def_cfa_register 13
 1305              		@ sp needed
 1306 0032 80BD     		pop	{r7, pc}
 1307              		.cfi_endproc
 1308              	.LFE146:
 1310              		.section	.text.USBD_LL_IsoINIncomplete,"ax",%progbits
 1311              		.align	1
ARM GAS  /tmp/ccZKQXDx.s 			page 33


 1312              		.global	USBD_LL_IsoINIncomplete
 1313              		.syntax unified
 1314              		.thumb
 1315              		.thumb_func
 1316              		.fpu fpv4-sp-d16
 1318              	USBD_LL_IsoINIncomplete:
 1319              	.LFB147:
 535:../Middlewares/ST/STM32_USB_Device_Library/Core/Src/usbd_core.c **** 
 536:../Middlewares/ST/STM32_USB_Device_Library/Core/Src/usbd_core.c **** /**
 537:../Middlewares/ST/STM32_USB_Device_Library/Core/Src/usbd_core.c **** * @brief  USBD_IsoINIncomplete
 538:../Middlewares/ST/STM32_USB_Device_Library/Core/Src/usbd_core.c **** *         Handle iso in incomplete event
 539:../Middlewares/ST/STM32_USB_Device_Library/Core/Src/usbd_core.c **** * @param  pdev: device instance
 540:../Middlewares/ST/STM32_USB_Device_Library/Core/Src/usbd_core.c **** * @retval status
 541:../Middlewares/ST/STM32_USB_Device_Library/Core/Src/usbd_core.c **** */
 542:../Middlewares/ST/STM32_USB_Device_Library/Core/Src/usbd_core.c **** USBD_StatusTypeDef USBD_LL_IsoINIncomplete(USBD_HandleTypeDef *pdev,
 543:../Middlewares/ST/STM32_USB_Device_Library/Core/Src/usbd_core.c ****                                            uint8_t epnum)
 544:../Middlewares/ST/STM32_USB_Device_Library/Core/Src/usbd_core.c **** {
 1320              		.loc 1 544 0
 1321              		.cfi_startproc
 1322              		@ args = 0, pretend = 0, frame = 8
 1323              		@ frame_needed = 1, uses_anonymous_args = 0
 1324              		@ link register save eliminated.
 1325 0000 80B4     		push	{r7}
 1326              	.LCFI85:
 1327              		.cfi_def_cfa_offset 4
 1328              		.cfi_offset 7, -4
 1329 0002 83B0     		sub	sp, sp, #12
 1330              	.LCFI86:
 1331              		.cfi_def_cfa_offset 16
 1332 0004 00AF     		add	r7, sp, #0
 1333              	.LCFI87:
 1334              		.cfi_def_cfa_register 7
 1335 0006 7860     		str	r0, [r7, #4]
 1336 0008 0B46     		mov	r3, r1
 1337 000a FB70     		strb	r3, [r7, #3]
 545:../Middlewares/ST/STM32_USB_Device_Library/Core/Src/usbd_core.c ****   /* Prevent unused arguments compilation warning */
 546:../Middlewares/ST/STM32_USB_Device_Library/Core/Src/usbd_core.c ****   UNUSED(pdev);
 547:../Middlewares/ST/STM32_USB_Device_Library/Core/Src/usbd_core.c ****   UNUSED(epnum);
 548:../Middlewares/ST/STM32_USB_Device_Library/Core/Src/usbd_core.c **** 
 549:../Middlewares/ST/STM32_USB_Device_Library/Core/Src/usbd_core.c ****   return USBD_OK;
 1338              		.loc 1 549 0
 1339 000c 0023     		movs	r3, #0
 550:../Middlewares/ST/STM32_USB_Device_Library/Core/Src/usbd_core.c **** }
 1340              		.loc 1 550 0
 1341 000e 1846     		mov	r0, r3
 1342 0010 0C37     		adds	r7, r7, #12
 1343              	.LCFI88:
 1344              		.cfi_def_cfa_offset 4
 1345 0012 BD46     		mov	sp, r7
 1346              	.LCFI89:
 1347              		.cfi_def_cfa_register 13
 1348              		@ sp needed
 1349 0014 5DF8047B 		ldr	r7, [sp], #4
 1350              	.LCFI90:
 1351              		.cfi_restore 7
 1352              		.cfi_def_cfa_offset 0
 1353 0018 7047     		bx	lr
ARM GAS  /tmp/ccZKQXDx.s 			page 34


 1354              		.cfi_endproc
 1355              	.LFE147:
 1357              		.section	.text.USBD_LL_IsoOUTIncomplete,"ax",%progbits
 1358              		.align	1
 1359              		.global	USBD_LL_IsoOUTIncomplete
 1360              		.syntax unified
 1361              		.thumb
 1362              		.thumb_func
 1363              		.fpu fpv4-sp-d16
 1365              	USBD_LL_IsoOUTIncomplete:
 1366              	.LFB148:
 551:../Middlewares/ST/STM32_USB_Device_Library/Core/Src/usbd_core.c **** 
 552:../Middlewares/ST/STM32_USB_Device_Library/Core/Src/usbd_core.c **** /**
 553:../Middlewares/ST/STM32_USB_Device_Library/Core/Src/usbd_core.c **** * @brief  USBD_IsoOUTIncomplete
 554:../Middlewares/ST/STM32_USB_Device_Library/Core/Src/usbd_core.c **** *         Handle iso out incomplete event
 555:../Middlewares/ST/STM32_USB_Device_Library/Core/Src/usbd_core.c **** * @param  pdev: device instance
 556:../Middlewares/ST/STM32_USB_Device_Library/Core/Src/usbd_core.c **** * @retval status
 557:../Middlewares/ST/STM32_USB_Device_Library/Core/Src/usbd_core.c **** */
 558:../Middlewares/ST/STM32_USB_Device_Library/Core/Src/usbd_core.c **** USBD_StatusTypeDef USBD_LL_IsoOUTIncomplete(USBD_HandleTypeDef *pdev,
 559:../Middlewares/ST/STM32_USB_Device_Library/Core/Src/usbd_core.c ****                                             uint8_t epnum)
 560:../Middlewares/ST/STM32_USB_Device_Library/Core/Src/usbd_core.c **** {
 1367              		.loc 1 560 0
 1368              		.cfi_startproc
 1369              		@ args = 0, pretend = 0, frame = 8
 1370              		@ frame_needed = 1, uses_anonymous_args = 0
 1371              		@ link register save eliminated.
 1372 0000 80B4     		push	{r7}
 1373              	.LCFI91:
 1374              		.cfi_def_cfa_offset 4
 1375              		.cfi_offset 7, -4
 1376 0002 83B0     		sub	sp, sp, #12
 1377              	.LCFI92:
 1378              		.cfi_def_cfa_offset 16
 1379 0004 00AF     		add	r7, sp, #0
 1380              	.LCFI93:
 1381              		.cfi_def_cfa_register 7
 1382 0006 7860     		str	r0, [r7, #4]
 1383 0008 0B46     		mov	r3, r1
 1384 000a FB70     		strb	r3, [r7, #3]
 561:../Middlewares/ST/STM32_USB_Device_Library/Core/Src/usbd_core.c ****   /* Prevent unused arguments compilation warning */
 562:../Middlewares/ST/STM32_USB_Device_Library/Core/Src/usbd_core.c ****   UNUSED(pdev);
 563:../Middlewares/ST/STM32_USB_Device_Library/Core/Src/usbd_core.c ****   UNUSED(epnum);
 564:../Middlewares/ST/STM32_USB_Device_Library/Core/Src/usbd_core.c **** 
 565:../Middlewares/ST/STM32_USB_Device_Library/Core/Src/usbd_core.c ****   return USBD_OK;
 1385              		.loc 1 565 0
 1386 000c 0023     		movs	r3, #0
 566:../Middlewares/ST/STM32_USB_Device_Library/Core/Src/usbd_core.c **** }
 1387              		.loc 1 566 0
 1388 000e 1846     		mov	r0, r3
 1389 0010 0C37     		adds	r7, r7, #12
 1390              	.LCFI94:
 1391              		.cfi_def_cfa_offset 4
 1392 0012 BD46     		mov	sp, r7
 1393              	.LCFI95:
 1394              		.cfi_def_cfa_register 13
 1395              		@ sp needed
 1396 0014 5DF8047B 		ldr	r7, [sp], #4
ARM GAS  /tmp/ccZKQXDx.s 			page 35


 1397              	.LCFI96:
 1398              		.cfi_restore 7
 1399              		.cfi_def_cfa_offset 0
 1400 0018 7047     		bx	lr
 1401              		.cfi_endproc
 1402              	.LFE148:
 1404              		.section	.text.USBD_LL_DevConnected,"ax",%progbits
 1405              		.align	1
 1406              		.global	USBD_LL_DevConnected
 1407              		.syntax unified
 1408              		.thumb
 1409              		.thumb_func
 1410              		.fpu fpv4-sp-d16
 1412              	USBD_LL_DevConnected:
 1413              	.LFB149:
 567:../Middlewares/ST/STM32_USB_Device_Library/Core/Src/usbd_core.c **** 
 568:../Middlewares/ST/STM32_USB_Device_Library/Core/Src/usbd_core.c **** /**
 569:../Middlewares/ST/STM32_USB_Device_Library/Core/Src/usbd_core.c **** * @brief  USBD_DevConnected
 570:../Middlewares/ST/STM32_USB_Device_Library/Core/Src/usbd_core.c **** *         Handle device connection event
 571:../Middlewares/ST/STM32_USB_Device_Library/Core/Src/usbd_core.c **** * @param  pdev: device instance
 572:../Middlewares/ST/STM32_USB_Device_Library/Core/Src/usbd_core.c **** * @retval status
 573:../Middlewares/ST/STM32_USB_Device_Library/Core/Src/usbd_core.c **** */
 574:../Middlewares/ST/STM32_USB_Device_Library/Core/Src/usbd_core.c **** USBD_StatusTypeDef USBD_LL_DevConnected(USBD_HandleTypeDef *pdev)
 575:../Middlewares/ST/STM32_USB_Device_Library/Core/Src/usbd_core.c **** {
 1414              		.loc 1 575 0
 1415              		.cfi_startproc
 1416              		@ args = 0, pretend = 0, frame = 8
 1417              		@ frame_needed = 1, uses_anonymous_args = 0
 1418              		@ link register save eliminated.
 1419 0000 80B4     		push	{r7}
 1420              	.LCFI97:
 1421              		.cfi_def_cfa_offset 4
 1422              		.cfi_offset 7, -4
 1423 0002 83B0     		sub	sp, sp, #12
 1424              	.LCFI98:
 1425              		.cfi_def_cfa_offset 16
 1426 0004 00AF     		add	r7, sp, #0
 1427              	.LCFI99:
 1428              		.cfi_def_cfa_register 7
 1429 0006 7860     		str	r0, [r7, #4]
 576:../Middlewares/ST/STM32_USB_Device_Library/Core/Src/usbd_core.c ****   /* Prevent unused argument compilation warning */
 577:../Middlewares/ST/STM32_USB_Device_Library/Core/Src/usbd_core.c ****   UNUSED(pdev);
 578:../Middlewares/ST/STM32_USB_Device_Library/Core/Src/usbd_core.c **** 
 579:../Middlewares/ST/STM32_USB_Device_Library/Core/Src/usbd_core.c ****   return USBD_OK;
 1430              		.loc 1 579 0
 1431 0008 0023     		movs	r3, #0
 580:../Middlewares/ST/STM32_USB_Device_Library/Core/Src/usbd_core.c **** }
 1432              		.loc 1 580 0
 1433 000a 1846     		mov	r0, r3
 1434 000c 0C37     		adds	r7, r7, #12
 1435              	.LCFI100:
 1436              		.cfi_def_cfa_offset 4
 1437 000e BD46     		mov	sp, r7
 1438              	.LCFI101:
 1439              		.cfi_def_cfa_register 13
 1440              		@ sp needed
 1441 0010 5DF8047B 		ldr	r7, [sp], #4
ARM GAS  /tmp/ccZKQXDx.s 			page 36


 1442              	.LCFI102:
 1443              		.cfi_restore 7
 1444              		.cfi_def_cfa_offset 0
 1445 0014 7047     		bx	lr
 1446              		.cfi_endproc
 1447              	.LFE149:
 1449              		.section	.text.USBD_LL_DevDisconnected,"ax",%progbits
 1450              		.align	1
 1451              		.global	USBD_LL_DevDisconnected
 1452              		.syntax unified
 1453              		.thumb
 1454              		.thumb_func
 1455              		.fpu fpv4-sp-d16
 1457              	USBD_LL_DevDisconnected:
 1458              	.LFB150:
 581:../Middlewares/ST/STM32_USB_Device_Library/Core/Src/usbd_core.c **** 
 582:../Middlewares/ST/STM32_USB_Device_Library/Core/Src/usbd_core.c **** /**
 583:../Middlewares/ST/STM32_USB_Device_Library/Core/Src/usbd_core.c **** * @brief  USBD_DevDisconnected
 584:../Middlewares/ST/STM32_USB_Device_Library/Core/Src/usbd_core.c **** *         Handle device disconnection event
 585:../Middlewares/ST/STM32_USB_Device_Library/Core/Src/usbd_core.c **** * @param  pdev: device instance
 586:../Middlewares/ST/STM32_USB_Device_Library/Core/Src/usbd_core.c **** * @retval status
 587:../Middlewares/ST/STM32_USB_Device_Library/Core/Src/usbd_core.c **** */
 588:../Middlewares/ST/STM32_USB_Device_Library/Core/Src/usbd_core.c **** USBD_StatusTypeDef USBD_LL_DevDisconnected(USBD_HandleTypeDef *pdev)
 589:../Middlewares/ST/STM32_USB_Device_Library/Core/Src/usbd_core.c **** {
 1459              		.loc 1 589 0
 1460              		.cfi_startproc
 1461              		@ args = 0, pretend = 0, frame = 8
 1462              		@ frame_needed = 1, uses_anonymous_args = 0
 1463 0000 80B5     		push	{r7, lr}
 1464              	.LCFI103:
 1465              		.cfi_def_cfa_offset 8
 1466              		.cfi_offset 7, -8
 1467              		.cfi_offset 14, -4
 1468 0002 82B0     		sub	sp, sp, #8
 1469              	.LCFI104:
 1470              		.cfi_def_cfa_offset 16
 1471 0004 00AF     		add	r7, sp, #0
 1472              	.LCFI105:
 1473              		.cfi_def_cfa_register 7
 1474 0006 7860     		str	r0, [r7, #4]
 590:../Middlewares/ST/STM32_USB_Device_Library/Core/Src/usbd_core.c ****   /* Free Class Resources */
 591:../Middlewares/ST/STM32_USB_Device_Library/Core/Src/usbd_core.c ****   pdev->dev_state = USBD_STATE_DEFAULT;
 1475              		.loc 1 591 0
 1476 0008 7B68     		ldr	r3, [r7, #4]
 1477 000a 0122     		movs	r2, #1
 1478 000c 83F89C22 		strb	r2, [r3, #668]
 592:../Middlewares/ST/STM32_USB_Device_Library/Core/Src/usbd_core.c ****   pdev->pClass->DeInit(pdev, (uint8_t)pdev->dev_config);
 1479              		.loc 1 592 0
 1480 0010 7B68     		ldr	r3, [r7, #4]
 1481 0012 D3F8B432 		ldr	r3, [r3, #692]
 1482 0016 5B68     		ldr	r3, [r3, #4]
 1483 0018 7A68     		ldr	r2, [r7, #4]
 1484 001a 5268     		ldr	r2, [r2, #4]
 1485 001c D2B2     		uxtb	r2, r2
 1486 001e 1146     		mov	r1, r2
 1487 0020 7868     		ldr	r0, [r7, #4]
 1488 0022 9847     		blx	r3
ARM GAS  /tmp/ccZKQXDx.s 			page 37


 1489              	.LVL10:
 593:../Middlewares/ST/STM32_USB_Device_Library/Core/Src/usbd_core.c **** 
 594:../Middlewares/ST/STM32_USB_Device_Library/Core/Src/usbd_core.c ****   return USBD_OK;
 1490              		.loc 1 594 0
 1491 0024 0023     		movs	r3, #0
 595:../Middlewares/ST/STM32_USB_Device_Library/Core/Src/usbd_core.c **** }
 1492              		.loc 1 595 0
 1493 0026 1846     		mov	r0, r3
 1494 0028 0837     		adds	r7, r7, #8
 1495              	.LCFI106:
 1496              		.cfi_def_cfa_offset 8
 1497 002a BD46     		mov	sp, r7
 1498              	.LCFI107:
 1499              		.cfi_def_cfa_register 13
 1500              		@ sp needed
 1501 002c 80BD     		pop	{r7, pc}
 1502              		.cfi_endproc
 1503              	.LFE150:
 1505              		.text
 1506              	.Letext0:
 1507              		.file 2 "/usr/include/newlib/machine/_default_types.h"
 1508              		.file 3 "/usr/include/newlib/sys/lock.h"
 1509              		.file 4 "/usr/include/newlib/sys/_types.h"
 1510              		.file 5 "/usr/lib/gcc/arm-none-eabi/6.3.1/include/stddef.h"
 1511              		.file 6 "/usr/include/newlib/sys/reent.h"
 1512              		.file 7 "/usr/include/newlib/sys/_stdint.h"
 1513              		.file 8 "/usr/include/newlib/stdlib.h"
 1514              		.file 9 "../Drivers/CMSIS/Include/core_cm4.h"
 1515              		.file 10 "../Drivers/CMSIS/Device/ST/STM32F3xx/Include/system_stm32f3xx.h"
 1516              		.file 11 "../Drivers/STM32F3xx_HAL_Driver/Inc/stm32f3xx_hal.h"
 1517              		.file 12 "../Middlewares/ST/STM32_USB_Device_Library/Core/Inc/usbd_def.h"
ARM GAS  /tmp/ccZKQXDx.s 			page 38

