ARM GAS  /tmp/ccAi8l3Y.s 			page 1


   1              		.cpu cortex-m4
   2              		.eabi_attribute 27, 1
   3              		.eabi_attribute 28, 1
   4              		.eabi_attribute 20, 1
   5              		.eabi_attribute 21, 1
   6              		.eabi_attribute 23, 3
   7              		.eabi_attribute 24, 1
   8              		.eabi_attribute 25, 1
   9              		.eabi_attribute 26, 1
  10              		.eabi_attribute 30, 6
  11              		.eabi_attribute 34, 1
  12              		.eabi_attribute 18, 4
  13              		.file	"usbd_cdc_if.c"
  14              		.text
  15              	.Ltext0:
  16              		.cfi_sections	.debug_frame
  17              		.comm	UserRxBufferFS,1000,4
  18              		.comm	UserTxBufferFS,1000,4
  19              		.global	USBD_Interface_fops_FS
  20              		.section	.data.USBD_Interface_fops_FS,"aw",%progbits
  21              		.align	2
  24              	USBD_Interface_fops_FS:
  25 0000 00000000 		.word	CDC_Init_FS
  26 0004 00000000 		.word	CDC_DeInit_FS
  27 0008 00000000 		.word	CDC_Control_FS
  28 000c 00000000 		.word	CDC_Receive_FS
  29              		.section	.text.CDC_Init_FS,"ax",%progbits
  30              		.align	1
  31              		.syntax unified
  32              		.thumb
  33              		.thumb_func
  34              		.fpu fpv4-sp-d16
  36              	CDC_Init_FS:
  37              	.LFB131:
  38              		.file 1 "../USB_DEVICE/App/usbd_cdc_if.c"
   1:../USB_DEVICE/App/usbd_cdc_if.c **** /* USER CODE BEGIN Header */
   2:../USB_DEVICE/App/usbd_cdc_if.c **** /**
   3:../USB_DEVICE/App/usbd_cdc_if.c ****   ******************************************************************************
   4:../USB_DEVICE/App/usbd_cdc_if.c ****   * @file           : usbd_cdc_if.c
   5:../USB_DEVICE/App/usbd_cdc_if.c ****   * @version        : v2.0_Cube
   6:../USB_DEVICE/App/usbd_cdc_if.c ****   * @brief          : Usb device for Virtual Com Port.
   7:../USB_DEVICE/App/usbd_cdc_if.c ****   ******************************************************************************
   8:../USB_DEVICE/App/usbd_cdc_if.c ****   * @attention
   9:../USB_DEVICE/App/usbd_cdc_if.c ****   *
  10:../USB_DEVICE/App/usbd_cdc_if.c ****   * <h2><center>&copy; Copyright (c) 2020 STMicroelectronics.
  11:../USB_DEVICE/App/usbd_cdc_if.c ****   * All rights reserved.</center></h2>
  12:../USB_DEVICE/App/usbd_cdc_if.c ****   *
  13:../USB_DEVICE/App/usbd_cdc_if.c ****   * This software component is licensed by ST under Ultimate Liberty license
  14:../USB_DEVICE/App/usbd_cdc_if.c ****   * SLA0044, the "License"; You may not use this file except in compliance with
  15:../USB_DEVICE/App/usbd_cdc_if.c ****   * the License. You may obtain a copy of the License at:
  16:../USB_DEVICE/App/usbd_cdc_if.c ****   *                             www.st.com/SLA0044
  17:../USB_DEVICE/App/usbd_cdc_if.c ****   *
  18:../USB_DEVICE/App/usbd_cdc_if.c ****   ******************************************************************************
  19:../USB_DEVICE/App/usbd_cdc_if.c ****   */
  20:../USB_DEVICE/App/usbd_cdc_if.c **** /* USER CODE END Header */
  21:../USB_DEVICE/App/usbd_cdc_if.c **** 
  22:../USB_DEVICE/App/usbd_cdc_if.c **** /* Includes ------------------------------------------------------------------*/
ARM GAS  /tmp/ccAi8l3Y.s 			page 2


  23:../USB_DEVICE/App/usbd_cdc_if.c **** #include "usbd_cdc_if.h"
  24:../USB_DEVICE/App/usbd_cdc_if.c **** 
  25:../USB_DEVICE/App/usbd_cdc_if.c **** /* USER CODE BEGIN INCLUDE */
  26:../USB_DEVICE/App/usbd_cdc_if.c **** #include "cmd_shell.h"
  27:../USB_DEVICE/App/usbd_cdc_if.c **** 
  28:../USB_DEVICE/App/usbd_cdc_if.c **** /* USER CODE END INCLUDE */
  29:../USB_DEVICE/App/usbd_cdc_if.c **** 
  30:../USB_DEVICE/App/usbd_cdc_if.c **** /* Private typedef -----------------------------------------------------------*/
  31:../USB_DEVICE/App/usbd_cdc_if.c **** /* Private define ------------------------------------------------------------*/
  32:../USB_DEVICE/App/usbd_cdc_if.c **** /* Private macro -------------------------------------------------------------*/
  33:../USB_DEVICE/App/usbd_cdc_if.c **** 
  34:../USB_DEVICE/App/usbd_cdc_if.c **** /* USER CODE BEGIN PV */
  35:../USB_DEVICE/App/usbd_cdc_if.c **** /* Private variables ---------------------------------------------------------*/
  36:../USB_DEVICE/App/usbd_cdc_if.c **** 
  37:../USB_DEVICE/App/usbd_cdc_if.c **** /* USER CODE END PV */
  38:../USB_DEVICE/App/usbd_cdc_if.c **** 
  39:../USB_DEVICE/App/usbd_cdc_if.c **** /** @addtogroup STM32_USB_OTG_DEVICE_LIBRARY
  40:../USB_DEVICE/App/usbd_cdc_if.c ****   * @brief Usb device library.
  41:../USB_DEVICE/App/usbd_cdc_if.c ****   * @{
  42:../USB_DEVICE/App/usbd_cdc_if.c ****   */
  43:../USB_DEVICE/App/usbd_cdc_if.c **** 
  44:../USB_DEVICE/App/usbd_cdc_if.c **** /** @addtogroup USBD_CDC_IF
  45:../USB_DEVICE/App/usbd_cdc_if.c ****   * @{
  46:../USB_DEVICE/App/usbd_cdc_if.c ****   */
  47:../USB_DEVICE/App/usbd_cdc_if.c **** 
  48:../USB_DEVICE/App/usbd_cdc_if.c **** /** @defgroup USBD_CDC_IF_Private_TypesDefinitions USBD_CDC_IF_Private_TypesDefinitions
  49:../USB_DEVICE/App/usbd_cdc_if.c ****   * @brief Private types.
  50:../USB_DEVICE/App/usbd_cdc_if.c ****   * @{
  51:../USB_DEVICE/App/usbd_cdc_if.c ****   */
  52:../USB_DEVICE/App/usbd_cdc_if.c **** 
  53:../USB_DEVICE/App/usbd_cdc_if.c **** /* USER CODE BEGIN PRIVATE_TYPES */
  54:../USB_DEVICE/App/usbd_cdc_if.c **** 
  55:../USB_DEVICE/App/usbd_cdc_if.c **** /* USER CODE END PRIVATE_TYPES */
  56:../USB_DEVICE/App/usbd_cdc_if.c **** 
  57:../USB_DEVICE/App/usbd_cdc_if.c **** /**
  58:../USB_DEVICE/App/usbd_cdc_if.c ****   * @}
  59:../USB_DEVICE/App/usbd_cdc_if.c ****   */
  60:../USB_DEVICE/App/usbd_cdc_if.c **** 
  61:../USB_DEVICE/App/usbd_cdc_if.c **** /** @defgroup USBD_CDC_IF_Private_Defines USBD_CDC_IF_Private_Defines
  62:../USB_DEVICE/App/usbd_cdc_if.c ****   * @brief Private defines.
  63:../USB_DEVICE/App/usbd_cdc_if.c ****   * @{
  64:../USB_DEVICE/App/usbd_cdc_if.c ****   */
  65:../USB_DEVICE/App/usbd_cdc_if.c **** 
  66:../USB_DEVICE/App/usbd_cdc_if.c **** /* USER CODE BEGIN PRIVATE_DEFINES */
  67:../USB_DEVICE/App/usbd_cdc_if.c **** /* Define size for the receive and transmit buffer over CDC */
  68:../USB_DEVICE/App/usbd_cdc_if.c **** /* It's up to user to redefine and/or remove those define */
  69:../USB_DEVICE/App/usbd_cdc_if.c **** #define APP_RX_DATA_SIZE  1000
  70:../USB_DEVICE/App/usbd_cdc_if.c **** #define APP_TX_DATA_SIZE  1000
  71:../USB_DEVICE/App/usbd_cdc_if.c **** /* USER CODE END PRIVATE_DEFINES */
  72:../USB_DEVICE/App/usbd_cdc_if.c **** 
  73:../USB_DEVICE/App/usbd_cdc_if.c **** /**
  74:../USB_DEVICE/App/usbd_cdc_if.c ****   * @}
  75:../USB_DEVICE/App/usbd_cdc_if.c ****   */
  76:../USB_DEVICE/App/usbd_cdc_if.c **** 
  77:../USB_DEVICE/App/usbd_cdc_if.c **** /** @defgroup USBD_CDC_IF_Private_Macros USBD_CDC_IF_Private_Macros
  78:../USB_DEVICE/App/usbd_cdc_if.c ****   * @brief Private macros.
  79:../USB_DEVICE/App/usbd_cdc_if.c ****   * @{
ARM GAS  /tmp/ccAi8l3Y.s 			page 3


  80:../USB_DEVICE/App/usbd_cdc_if.c ****   */
  81:../USB_DEVICE/App/usbd_cdc_if.c **** 
  82:../USB_DEVICE/App/usbd_cdc_if.c **** /* USER CODE BEGIN PRIVATE_MACRO */
  83:../USB_DEVICE/App/usbd_cdc_if.c **** 
  84:../USB_DEVICE/App/usbd_cdc_if.c **** /* USER CODE END PRIVATE_MACRO */
  85:../USB_DEVICE/App/usbd_cdc_if.c **** 
  86:../USB_DEVICE/App/usbd_cdc_if.c **** /**
  87:../USB_DEVICE/App/usbd_cdc_if.c ****   * @}
  88:../USB_DEVICE/App/usbd_cdc_if.c ****   */
  89:../USB_DEVICE/App/usbd_cdc_if.c **** 
  90:../USB_DEVICE/App/usbd_cdc_if.c **** /** @defgroup USBD_CDC_IF_Private_Variables USBD_CDC_IF_Private_Variables
  91:../USB_DEVICE/App/usbd_cdc_if.c ****   * @brief Private variables.
  92:../USB_DEVICE/App/usbd_cdc_if.c ****   * @{
  93:../USB_DEVICE/App/usbd_cdc_if.c ****   */
  94:../USB_DEVICE/App/usbd_cdc_if.c **** /* Create buffer for reception and transmission           */
  95:../USB_DEVICE/App/usbd_cdc_if.c **** /* It's up to user to redefine and/or remove those define */
  96:../USB_DEVICE/App/usbd_cdc_if.c **** /** Received data over USB are stored in this buffer      */
  97:../USB_DEVICE/App/usbd_cdc_if.c **** uint8_t UserRxBufferFS[APP_RX_DATA_SIZE];
  98:../USB_DEVICE/App/usbd_cdc_if.c **** 
  99:../USB_DEVICE/App/usbd_cdc_if.c **** /** Data to send over USB CDC are stored in this buffer   */
 100:../USB_DEVICE/App/usbd_cdc_if.c **** uint8_t UserTxBufferFS[APP_TX_DATA_SIZE];
 101:../USB_DEVICE/App/usbd_cdc_if.c **** 
 102:../USB_DEVICE/App/usbd_cdc_if.c **** /* USER CODE BEGIN PRIVATE_VARIABLES */
 103:../USB_DEVICE/App/usbd_cdc_if.c **** 
 104:../USB_DEVICE/App/usbd_cdc_if.c **** /* USER CODE END PRIVATE_VARIABLES */
 105:../USB_DEVICE/App/usbd_cdc_if.c **** 
 106:../USB_DEVICE/App/usbd_cdc_if.c **** /**
 107:../USB_DEVICE/App/usbd_cdc_if.c ****   * @}
 108:../USB_DEVICE/App/usbd_cdc_if.c ****   */
 109:../USB_DEVICE/App/usbd_cdc_if.c **** 
 110:../USB_DEVICE/App/usbd_cdc_if.c **** /** @defgroup USBD_CDC_IF_Exported_Variables USBD_CDC_IF_Exported_Variables
 111:../USB_DEVICE/App/usbd_cdc_if.c ****   * @brief Public variables.
 112:../USB_DEVICE/App/usbd_cdc_if.c ****   * @{
 113:../USB_DEVICE/App/usbd_cdc_if.c ****   */
 114:../USB_DEVICE/App/usbd_cdc_if.c **** 
 115:../USB_DEVICE/App/usbd_cdc_if.c **** extern USBD_HandleTypeDef hUsbDeviceFS;
 116:../USB_DEVICE/App/usbd_cdc_if.c **** 
 117:../USB_DEVICE/App/usbd_cdc_if.c **** /* USER CODE BEGIN EXPORTED_VARIABLES */
 118:../USB_DEVICE/App/usbd_cdc_if.c **** 
 119:../USB_DEVICE/App/usbd_cdc_if.c **** /* USER CODE END EXPORTED_VARIABLES */
 120:../USB_DEVICE/App/usbd_cdc_if.c **** 
 121:../USB_DEVICE/App/usbd_cdc_if.c **** /**
 122:../USB_DEVICE/App/usbd_cdc_if.c ****   * @}
 123:../USB_DEVICE/App/usbd_cdc_if.c ****   */
 124:../USB_DEVICE/App/usbd_cdc_if.c **** 
 125:../USB_DEVICE/App/usbd_cdc_if.c **** /** @defgroup USBD_CDC_IF_Private_FunctionPrototypes USBD_CDC_IF_Private_FunctionPrototypes
 126:../USB_DEVICE/App/usbd_cdc_if.c ****   * @brief Private functions declaration.
 127:../USB_DEVICE/App/usbd_cdc_if.c ****   * @{
 128:../USB_DEVICE/App/usbd_cdc_if.c ****   */
 129:../USB_DEVICE/App/usbd_cdc_if.c **** 
 130:../USB_DEVICE/App/usbd_cdc_if.c **** static int8_t CDC_Init_FS(void);
 131:../USB_DEVICE/App/usbd_cdc_if.c **** static int8_t CDC_DeInit_FS(void);
 132:../USB_DEVICE/App/usbd_cdc_if.c **** static int8_t CDC_Control_FS(uint8_t cmd, uint8_t* pbuf, uint16_t length);
 133:../USB_DEVICE/App/usbd_cdc_if.c **** static int8_t CDC_Receive_FS(uint8_t* pbuf, uint32_t *Len);
 134:../USB_DEVICE/App/usbd_cdc_if.c **** 
 135:../USB_DEVICE/App/usbd_cdc_if.c **** /* USER CODE BEGIN PRIVATE_FUNCTIONS_DECLARATION */
 136:../USB_DEVICE/App/usbd_cdc_if.c **** 
ARM GAS  /tmp/ccAi8l3Y.s 			page 4


 137:../USB_DEVICE/App/usbd_cdc_if.c **** /* USER CODE END PRIVATE_FUNCTIONS_DECLARATION */
 138:../USB_DEVICE/App/usbd_cdc_if.c **** 
 139:../USB_DEVICE/App/usbd_cdc_if.c **** /**
 140:../USB_DEVICE/App/usbd_cdc_if.c ****   * @}
 141:../USB_DEVICE/App/usbd_cdc_if.c ****   */
 142:../USB_DEVICE/App/usbd_cdc_if.c **** 
 143:../USB_DEVICE/App/usbd_cdc_if.c **** USBD_CDC_ItfTypeDef USBD_Interface_fops_FS =
 144:../USB_DEVICE/App/usbd_cdc_if.c **** {
 145:../USB_DEVICE/App/usbd_cdc_if.c ****   CDC_Init_FS,
 146:../USB_DEVICE/App/usbd_cdc_if.c ****   CDC_DeInit_FS,
 147:../USB_DEVICE/App/usbd_cdc_if.c ****   CDC_Control_FS,
 148:../USB_DEVICE/App/usbd_cdc_if.c ****   CDC_Receive_FS
 149:../USB_DEVICE/App/usbd_cdc_if.c **** };
 150:../USB_DEVICE/App/usbd_cdc_if.c **** 
 151:../USB_DEVICE/App/usbd_cdc_if.c **** /* Private functions ---------------------------------------------------------*/
 152:../USB_DEVICE/App/usbd_cdc_if.c **** /**
 153:../USB_DEVICE/App/usbd_cdc_if.c ****   * @brief  Initializes the CDC media low layer over the FS USB IP
 154:../USB_DEVICE/App/usbd_cdc_if.c ****   * @retval USBD_OK if all operations are OK else USBD_FAIL
 155:../USB_DEVICE/App/usbd_cdc_if.c ****   */
 156:../USB_DEVICE/App/usbd_cdc_if.c **** static int8_t CDC_Init_FS(void)
 157:../USB_DEVICE/App/usbd_cdc_if.c **** {
  39              		.loc 1 157 0
  40              		.cfi_startproc
  41              		@ args = 0, pretend = 0, frame = 0
  42              		@ frame_needed = 1, uses_anonymous_args = 0
  43 0000 80B5     		push	{r7, lr}
  44              	.LCFI0:
  45              		.cfi_def_cfa_offset 8
  46              		.cfi_offset 7, -8
  47              		.cfi_offset 14, -4
  48 0002 00AF     		add	r7, sp, #0
  49              	.LCFI1:
  50              		.cfi_def_cfa_register 7
 158:../USB_DEVICE/App/usbd_cdc_if.c ****   /* USER CODE BEGIN 3 */
 159:../USB_DEVICE/App/usbd_cdc_if.c ****   /* Set Application Buffers */
 160:../USB_DEVICE/App/usbd_cdc_if.c ****   USBD_CDC_SetTxBuffer(&hUsbDeviceFS, UserTxBufferFS, 0);
  51              		.loc 1 160 0
  52 0004 0022     		movs	r2, #0
  53 0006 0549     		ldr	r1, .L3
  54 0008 0548     		ldr	r0, .L3+4
  55 000a FFF7FEFF 		bl	USBD_CDC_SetTxBuffer
 161:../USB_DEVICE/App/usbd_cdc_if.c ****   USBD_CDC_SetRxBuffer(&hUsbDeviceFS, UserRxBufferFS);
  56              		.loc 1 161 0
  57 000e 0549     		ldr	r1, .L3+8
  58 0010 0348     		ldr	r0, .L3+4
  59 0012 FFF7FEFF 		bl	USBD_CDC_SetRxBuffer
 162:../USB_DEVICE/App/usbd_cdc_if.c ****   return (USBD_OK);
  60              		.loc 1 162 0
  61 0016 0023     		movs	r3, #0
 163:../USB_DEVICE/App/usbd_cdc_if.c ****   /* USER CODE END 3 */
 164:../USB_DEVICE/App/usbd_cdc_if.c **** }
  62              		.loc 1 164 0
  63 0018 1846     		mov	r0, r3
  64 001a 80BD     		pop	{r7, pc}
  65              	.L4:
  66              		.align	2
  67              	.L3:
ARM GAS  /tmp/ccAi8l3Y.s 			page 5


  68 001c 00000000 		.word	UserTxBufferFS
  69 0020 00000000 		.word	hUsbDeviceFS
  70 0024 00000000 		.word	UserRxBufferFS
  71              		.cfi_endproc
  72              	.LFE131:
  74              		.section	.text.CDC_DeInit_FS,"ax",%progbits
  75              		.align	1
  76              		.syntax unified
  77              		.thumb
  78              		.thumb_func
  79              		.fpu fpv4-sp-d16
  81              	CDC_DeInit_FS:
  82              	.LFB132:
 165:../USB_DEVICE/App/usbd_cdc_if.c **** 
 166:../USB_DEVICE/App/usbd_cdc_if.c **** /**
 167:../USB_DEVICE/App/usbd_cdc_if.c ****   * @brief  DeInitializes the CDC media low layer
 168:../USB_DEVICE/App/usbd_cdc_if.c ****   * @retval USBD_OK if all operations are OK else USBD_FAIL
 169:../USB_DEVICE/App/usbd_cdc_if.c ****   */
 170:../USB_DEVICE/App/usbd_cdc_if.c **** static int8_t CDC_DeInit_FS(void)
 171:../USB_DEVICE/App/usbd_cdc_if.c **** {
  83              		.loc 1 171 0
  84              		.cfi_startproc
  85              		@ args = 0, pretend = 0, frame = 0
  86              		@ frame_needed = 1, uses_anonymous_args = 0
  87              		@ link register save eliminated.
  88 0000 80B4     		push	{r7}
  89              	.LCFI2:
  90              		.cfi_def_cfa_offset 4
  91              		.cfi_offset 7, -4
  92 0002 00AF     		add	r7, sp, #0
  93              	.LCFI3:
  94              		.cfi_def_cfa_register 7
 172:../USB_DEVICE/App/usbd_cdc_if.c ****   /* USER CODE BEGIN 4 */
 173:../USB_DEVICE/App/usbd_cdc_if.c ****   return (USBD_OK);
  95              		.loc 1 173 0
  96 0004 0023     		movs	r3, #0
 174:../USB_DEVICE/App/usbd_cdc_if.c ****   /* USER CODE END 4 */
 175:../USB_DEVICE/App/usbd_cdc_if.c **** }
  97              		.loc 1 175 0
  98 0006 1846     		mov	r0, r3
  99 0008 BD46     		mov	sp, r7
 100              	.LCFI4:
 101              		.cfi_def_cfa_register 13
 102              		@ sp needed
 103 000a 5DF8047B 		ldr	r7, [sp], #4
 104              	.LCFI5:
 105              		.cfi_restore 7
 106              		.cfi_def_cfa_offset 0
 107 000e 7047     		bx	lr
 108              		.cfi_endproc
 109              	.LFE132:
 111              		.section	.text.CDC_Control_FS,"ax",%progbits
 112              		.align	1
 113              		.syntax unified
 114              		.thumb
 115              		.thumb_func
 116              		.fpu fpv4-sp-d16
ARM GAS  /tmp/ccAi8l3Y.s 			page 6


 118              	CDC_Control_FS:
 119              	.LFB133:
 176:../USB_DEVICE/App/usbd_cdc_if.c **** 
 177:../USB_DEVICE/App/usbd_cdc_if.c **** /**
 178:../USB_DEVICE/App/usbd_cdc_if.c ****   * @brief  Manage the CDC class requests
 179:../USB_DEVICE/App/usbd_cdc_if.c ****   * @param  cmd: Command code
 180:../USB_DEVICE/App/usbd_cdc_if.c ****   * @param  pbuf: Buffer containing command data (request parameters)
 181:../USB_DEVICE/App/usbd_cdc_if.c ****   * @param  length: Number of data to be sent (in bytes)
 182:../USB_DEVICE/App/usbd_cdc_if.c ****   * @retval Result of the operation: USBD_OK if all operations are OK else USBD_FAIL
 183:../USB_DEVICE/App/usbd_cdc_if.c ****   */
 184:../USB_DEVICE/App/usbd_cdc_if.c **** static int8_t CDC_Control_FS(uint8_t cmd, uint8_t* pbuf, uint16_t length)
 185:../USB_DEVICE/App/usbd_cdc_if.c **** {
 120              		.loc 1 185 0
 121              		.cfi_startproc
 122              		@ args = 0, pretend = 0, frame = 8
 123              		@ frame_needed = 1, uses_anonymous_args = 0
 124              		@ link register save eliminated.
 125 0000 80B4     		push	{r7}
 126              	.LCFI6:
 127              		.cfi_def_cfa_offset 4
 128              		.cfi_offset 7, -4
 129 0002 83B0     		sub	sp, sp, #12
 130              	.LCFI7:
 131              		.cfi_def_cfa_offset 16
 132 0004 00AF     		add	r7, sp, #0
 133              	.LCFI8:
 134              		.cfi_def_cfa_register 7
 135 0006 0346     		mov	r3, r0
 136 0008 3960     		str	r1, [r7]
 137 000a FB71     		strb	r3, [r7, #7]
 138 000c 1346     		mov	r3, r2	@ movhi
 139 000e BB80     		strh	r3, [r7, #4]	@ movhi
 186:../USB_DEVICE/App/usbd_cdc_if.c ****   /* USER CODE BEGIN 5 */
 187:../USB_DEVICE/App/usbd_cdc_if.c ****   switch(cmd)
 140              		.loc 1 187 0
 141 0010 FB79     		ldrb	r3, [r7, #7]	@ zero_extendqisi2
 142 0012 232B     		cmp	r3, #35
 143 0014 4AD8     		bhi	.L21
 144 0016 01A2     		adr	r2, .L10
 145 0018 52F823F0 		ldr	pc, [r2, r3, lsl #2]
 146              		.p2align 2
 147              	.L10:
 148 001c AD000000 		.word	.L21+1
 149 0020 AD000000 		.word	.L21+1
 150 0024 AD000000 		.word	.L21+1
 151 0028 AD000000 		.word	.L21+1
 152 002c AD000000 		.word	.L21+1
 153 0030 AD000000 		.word	.L21+1
 154 0034 AD000000 		.word	.L21+1
 155 0038 AD000000 		.word	.L21+1
 156 003c AD000000 		.word	.L21+1
 157 0040 AD000000 		.word	.L21+1
 158 0044 AD000000 		.word	.L21+1
 159 0048 AD000000 		.word	.L21+1
 160 004c AD000000 		.word	.L21+1
 161 0050 AD000000 		.word	.L21+1
 162 0054 AD000000 		.word	.L21+1
ARM GAS  /tmp/ccAi8l3Y.s 			page 7


 163 0058 AD000000 		.word	.L21+1
 164 005c AD000000 		.word	.L21+1
 165 0060 AD000000 		.word	.L21+1
 166 0064 AD000000 		.word	.L21+1
 167 0068 AD000000 		.word	.L21+1
 168 006c AD000000 		.word	.L21+1
 169 0070 AD000000 		.word	.L21+1
 170 0074 AD000000 		.word	.L21+1
 171 0078 AD000000 		.word	.L21+1
 172 007c AD000000 		.word	.L21+1
 173 0080 AD000000 		.word	.L21+1
 174 0084 AD000000 		.word	.L21+1
 175 0088 AD000000 		.word	.L21+1
 176 008c AD000000 		.word	.L21+1
 177 0090 AD000000 		.word	.L21+1
 178 0094 AD000000 		.word	.L21+1
 179 0098 AD000000 		.word	.L21+1
 180 009c AD000000 		.word	.L21+1
 181 00a0 AD000000 		.word	.L21+1
 182 00a4 AD000000 		.word	.L21+1
 183 00a8 AD000000 		.word	.L21+1
 184              		.p2align 1
 185              	.L21:
 188:../USB_DEVICE/App/usbd_cdc_if.c ****   {
 189:../USB_DEVICE/App/usbd_cdc_if.c ****     case CDC_SEND_ENCAPSULATED_COMMAND:
 190:../USB_DEVICE/App/usbd_cdc_if.c **** 
 191:../USB_DEVICE/App/usbd_cdc_if.c ****     break;
 192:../USB_DEVICE/App/usbd_cdc_if.c **** 
 193:../USB_DEVICE/App/usbd_cdc_if.c ****     case CDC_GET_ENCAPSULATED_RESPONSE:
 194:../USB_DEVICE/App/usbd_cdc_if.c **** 
 195:../USB_DEVICE/App/usbd_cdc_if.c ****     break;
 196:../USB_DEVICE/App/usbd_cdc_if.c **** 
 197:../USB_DEVICE/App/usbd_cdc_if.c ****     case CDC_SET_COMM_FEATURE:
 198:../USB_DEVICE/App/usbd_cdc_if.c **** 
 199:../USB_DEVICE/App/usbd_cdc_if.c ****     break;
 200:../USB_DEVICE/App/usbd_cdc_if.c **** 
 201:../USB_DEVICE/App/usbd_cdc_if.c ****     case CDC_GET_COMM_FEATURE:
 202:../USB_DEVICE/App/usbd_cdc_if.c **** 
 203:../USB_DEVICE/App/usbd_cdc_if.c ****     break;
 204:../USB_DEVICE/App/usbd_cdc_if.c **** 
 205:../USB_DEVICE/App/usbd_cdc_if.c ****     case CDC_CLEAR_COMM_FEATURE:
 206:../USB_DEVICE/App/usbd_cdc_if.c **** 
 207:../USB_DEVICE/App/usbd_cdc_if.c ****     break;
 208:../USB_DEVICE/App/usbd_cdc_if.c **** 
 209:../USB_DEVICE/App/usbd_cdc_if.c ****   /*******************************************************************************/
 210:../USB_DEVICE/App/usbd_cdc_if.c ****   /* Line Coding Structure                                                       */
 211:../USB_DEVICE/App/usbd_cdc_if.c ****   /*-----------------------------------------------------------------------------*/
 212:../USB_DEVICE/App/usbd_cdc_if.c ****   /* Offset | Field       | Size | Value  | Description                          */
 213:../USB_DEVICE/App/usbd_cdc_if.c ****   /* 0      | dwDTERate   |   4  | Number |Data terminal rate, in bits per second*/
 214:../USB_DEVICE/App/usbd_cdc_if.c ****   /* 4      | bCharFormat |   1  | Number | Stop bits                            */
 215:../USB_DEVICE/App/usbd_cdc_if.c ****   /*                                        0 - 1 Stop bit                       */
 216:../USB_DEVICE/App/usbd_cdc_if.c ****   /*                                        1 - 1.5 Stop bits                    */
 217:../USB_DEVICE/App/usbd_cdc_if.c ****   /*                                        2 - 2 Stop bits                      */
 218:../USB_DEVICE/App/usbd_cdc_if.c ****   /* 5      | bParityType |  1   | Number | Parity                               */
 219:../USB_DEVICE/App/usbd_cdc_if.c ****   /*                                        0 - None                             */
 220:../USB_DEVICE/App/usbd_cdc_if.c ****   /*                                        1 - Odd                              */
 221:../USB_DEVICE/App/usbd_cdc_if.c ****   /*                                        2 - Even                             */
ARM GAS  /tmp/ccAi8l3Y.s 			page 8


 222:../USB_DEVICE/App/usbd_cdc_if.c ****   /*                                        3 - Mark                             */
 223:../USB_DEVICE/App/usbd_cdc_if.c ****   /*                                        4 - Space                            */
 224:../USB_DEVICE/App/usbd_cdc_if.c ****   /* 6      | bDataBits  |   1   | Number Data bits (5, 6, 7, 8 or 16).          */
 225:../USB_DEVICE/App/usbd_cdc_if.c ****   /*******************************************************************************/
 226:../USB_DEVICE/App/usbd_cdc_if.c ****     case CDC_SET_LINE_CODING:
 227:../USB_DEVICE/App/usbd_cdc_if.c **** 
 228:../USB_DEVICE/App/usbd_cdc_if.c ****     break;
 229:../USB_DEVICE/App/usbd_cdc_if.c **** 
 230:../USB_DEVICE/App/usbd_cdc_if.c ****     case CDC_GET_LINE_CODING:
 231:../USB_DEVICE/App/usbd_cdc_if.c **** 
 232:../USB_DEVICE/App/usbd_cdc_if.c ****     break;
 233:../USB_DEVICE/App/usbd_cdc_if.c **** 
 234:../USB_DEVICE/App/usbd_cdc_if.c ****     case CDC_SET_CONTROL_LINE_STATE:
 235:../USB_DEVICE/App/usbd_cdc_if.c **** 
 236:../USB_DEVICE/App/usbd_cdc_if.c ****     break;
 237:../USB_DEVICE/App/usbd_cdc_if.c **** 
 238:../USB_DEVICE/App/usbd_cdc_if.c ****     case CDC_SEND_BREAK:
 239:../USB_DEVICE/App/usbd_cdc_if.c **** 
 240:../USB_DEVICE/App/usbd_cdc_if.c ****     break;
 241:../USB_DEVICE/App/usbd_cdc_if.c **** 
 242:../USB_DEVICE/App/usbd_cdc_if.c ****   default:
 243:../USB_DEVICE/App/usbd_cdc_if.c ****     break;
 186              		.loc 1 243 0
 187 00ac 00BF     		nop
 244:../USB_DEVICE/App/usbd_cdc_if.c ****   }
 245:../USB_DEVICE/App/usbd_cdc_if.c **** 
 246:../USB_DEVICE/App/usbd_cdc_if.c ****   return (USBD_OK);
 188              		.loc 1 246 0
 189 00ae 0023     		movs	r3, #0
 247:../USB_DEVICE/App/usbd_cdc_if.c ****   /* USER CODE END 5 */
 248:../USB_DEVICE/App/usbd_cdc_if.c **** }
 190              		.loc 1 248 0
 191 00b0 1846     		mov	r0, r3
 192 00b2 0C37     		adds	r7, r7, #12
 193              	.LCFI9:
 194              		.cfi_def_cfa_offset 4
 195 00b4 BD46     		mov	sp, r7
 196              	.LCFI10:
 197              		.cfi_def_cfa_register 13
 198              		@ sp needed
 199 00b6 5DF8047B 		ldr	r7, [sp], #4
 200              	.LCFI11:
 201              		.cfi_restore 7
 202              		.cfi_def_cfa_offset 0
 203 00ba 7047     		bx	lr
 204              		.cfi_endproc
 205              	.LFE133:
 207              		.section	.text.CDC_Receive_FS,"ax",%progbits
 208              		.align	1
 209              		.syntax unified
 210              		.thumb
 211              		.thumb_func
 212              		.fpu fpv4-sp-d16
 214              	CDC_Receive_FS:
 215              	.LFB134:
 249:../USB_DEVICE/App/usbd_cdc_if.c **** 
 250:../USB_DEVICE/App/usbd_cdc_if.c **** /**
ARM GAS  /tmp/ccAi8l3Y.s 			page 9


 251:../USB_DEVICE/App/usbd_cdc_if.c ****   * @brief  Data received over USB OUT endpoint are sent over CDC interface
 252:../USB_DEVICE/App/usbd_cdc_if.c ****   *         through this function.
 253:../USB_DEVICE/App/usbd_cdc_if.c ****   *
 254:../USB_DEVICE/App/usbd_cdc_if.c ****   *         @note
 255:../USB_DEVICE/App/usbd_cdc_if.c ****   *         This function will block any OUT packet reception on USB endpoint
 256:../USB_DEVICE/App/usbd_cdc_if.c ****   *         untill exiting this function. If you exit this function before transfer
 257:../USB_DEVICE/App/usbd_cdc_if.c ****   *         is complete on CDC interface (ie. using DMA controller) it will result
 258:../USB_DEVICE/App/usbd_cdc_if.c ****   *         in receiving more data while previous ones are still not sent.
 259:../USB_DEVICE/App/usbd_cdc_if.c ****   *
 260:../USB_DEVICE/App/usbd_cdc_if.c ****   * @param  Buf: Buffer of data to be received
 261:../USB_DEVICE/App/usbd_cdc_if.c ****   * @param  Len: Number of data received (in bytes)
 262:../USB_DEVICE/App/usbd_cdc_if.c ****   * @retval Result of the operation: USBD_OK if all operations are OK else USBD_FAIL
 263:../USB_DEVICE/App/usbd_cdc_if.c ****   */
 264:../USB_DEVICE/App/usbd_cdc_if.c **** static int8_t CDC_Receive_FS(uint8_t* Buf, uint32_t *Len)
 265:../USB_DEVICE/App/usbd_cdc_if.c **** {
 216              		.loc 1 265 0
 217              		.cfi_startproc
 218              		@ args = 0, pretend = 0, frame = 16
 219              		@ frame_needed = 1, uses_anonymous_args = 0
 220 0000 80B5     		push	{r7, lr}
 221              	.LCFI12:
 222              		.cfi_def_cfa_offset 8
 223              		.cfi_offset 7, -8
 224              		.cfi_offset 14, -4
 225 0002 84B0     		sub	sp, sp, #16
 226              	.LCFI13:
 227              		.cfi_def_cfa_offset 24
 228 0004 00AF     		add	r7, sp, #0
 229              	.LCFI14:
 230              		.cfi_def_cfa_register 7
 231 0006 7860     		str	r0, [r7, #4]
 232 0008 3960     		str	r1, [r7]
 266:../USB_DEVICE/App/usbd_cdc_if.c ****   /* USER CODE BEGIN 6 */
 267:../USB_DEVICE/App/usbd_cdc_if.c ****   USBD_CDC_SetRxBuffer(&hUsbDeviceFS, &Buf[0]);
 233              		.loc 1 267 0
 234 000a 7968     		ldr	r1, [r7, #4]
 235 000c 0B48     		ldr	r0, .L25
 236 000e FFF7FEFF 		bl	USBD_CDC_SetRxBuffer
 268:../USB_DEVICE/App/usbd_cdc_if.c ****   uint8_t res = USBD_CDC_ReceivePacket(&hUsbDeviceFS);
 237              		.loc 1 268 0
 238 0012 0A48     		ldr	r0, .L25
 239 0014 FFF7FEFF 		bl	USBD_CDC_ReceivePacket
 240 0018 0346     		mov	r3, r0
 241 001a FB73     		strb	r3, [r7, #15]
 269:../USB_DEVICE/App/usbd_cdc_if.c ****   if (res == USBD_OK)
 242              		.loc 1 269 0
 243 001c FB7B     		ldrb	r3, [r7, #15]	@ zero_extendqisi2
 244 001e 002B     		cmp	r3, #0
 245 0020 06D1     		bne	.L23
 270:../USB_DEVICE/App/usbd_cdc_if.c ****   {
 271:../USB_DEVICE/App/usbd_cdc_if.c ****     CmdShellReceive(Buf, *Len);
 246              		.loc 1 271 0
 247 0022 3B68     		ldr	r3, [r7]
 248 0024 1B68     		ldr	r3, [r3]
 249 0026 9BB2     		uxth	r3, r3
 250 0028 1946     		mov	r1, r3
 251 002a 7868     		ldr	r0, [r7, #4]
ARM GAS  /tmp/ccAi8l3Y.s 			page 10


 252 002c FFF7FEFF 		bl	CmdShellReceive
 253              	.L23:
 272:../USB_DEVICE/App/usbd_cdc_if.c ****   }
 273:../USB_DEVICE/App/usbd_cdc_if.c ****   return (USBD_OK);
 254              		.loc 1 273 0
 255 0030 0023     		movs	r3, #0
 274:../USB_DEVICE/App/usbd_cdc_if.c ****   /* USER CODE END 6 */
 275:../USB_DEVICE/App/usbd_cdc_if.c **** }
 256              		.loc 1 275 0
 257 0032 1846     		mov	r0, r3
 258 0034 1037     		adds	r7, r7, #16
 259              	.LCFI15:
 260              		.cfi_def_cfa_offset 8
 261 0036 BD46     		mov	sp, r7
 262              	.LCFI16:
 263              		.cfi_def_cfa_register 13
 264              		@ sp needed
 265 0038 80BD     		pop	{r7, pc}
 266              	.L26:
 267 003a 00BF     		.align	2
 268              	.L25:
 269 003c 00000000 		.word	hUsbDeviceFS
 270              		.cfi_endproc
 271              	.LFE134:
 273              		.section	.text.CDC_Transmit_FS,"ax",%progbits
 274              		.align	1
 275              		.global	CDC_Transmit_FS
 276              		.syntax unified
 277              		.thumb
 278              		.thumb_func
 279              		.fpu fpv4-sp-d16
 281              	CDC_Transmit_FS:
 282              	.LFB135:
 276:../USB_DEVICE/App/usbd_cdc_if.c **** 
 277:../USB_DEVICE/App/usbd_cdc_if.c **** /**
 278:../USB_DEVICE/App/usbd_cdc_if.c ****   * @brief  CDC_Transmit_FS
 279:../USB_DEVICE/App/usbd_cdc_if.c ****   *         Data to send over USB IN endpoint are sent over CDC interface
 280:../USB_DEVICE/App/usbd_cdc_if.c ****   *         through this function.
 281:../USB_DEVICE/App/usbd_cdc_if.c ****   *         @note
 282:../USB_DEVICE/App/usbd_cdc_if.c ****   *
 283:../USB_DEVICE/App/usbd_cdc_if.c ****   *
 284:../USB_DEVICE/App/usbd_cdc_if.c ****   * @param  Buf: Buffer of data to be sent
 285:../USB_DEVICE/App/usbd_cdc_if.c ****   * @param  Len: Number of data to be sent (in bytes)
 286:../USB_DEVICE/App/usbd_cdc_if.c ****   * @retval USBD_OK if all operations are OK else USBD_FAIL or USBD_BUSY
 287:../USB_DEVICE/App/usbd_cdc_if.c ****   */
 288:../USB_DEVICE/App/usbd_cdc_if.c **** uint8_t CDC_Transmit_FS(uint8_t* Buf, uint16_t Len)
 289:../USB_DEVICE/App/usbd_cdc_if.c **** {
 283              		.loc 1 289 0
 284              		.cfi_startproc
 285              		@ args = 0, pretend = 0, frame = 16
 286              		@ frame_needed = 1, uses_anonymous_args = 0
 287 0000 80B5     		push	{r7, lr}
 288              	.LCFI17:
 289              		.cfi_def_cfa_offset 8
 290              		.cfi_offset 7, -8
 291              		.cfi_offset 14, -4
 292 0002 84B0     		sub	sp, sp, #16
ARM GAS  /tmp/ccAi8l3Y.s 			page 11


 293              	.LCFI18:
 294              		.cfi_def_cfa_offset 24
 295 0004 00AF     		add	r7, sp, #0
 296              	.LCFI19:
 297              		.cfi_def_cfa_register 7
 298 0006 7860     		str	r0, [r7, #4]
 299 0008 0B46     		mov	r3, r1
 300 000a 7B80     		strh	r3, [r7, #2]	@ movhi
 290:../USB_DEVICE/App/usbd_cdc_if.c ****   uint8_t result = USBD_OK;
 301              		.loc 1 290 0
 302 000c 0023     		movs	r3, #0
 303 000e FB73     		strb	r3, [r7, #15]
 291:../USB_DEVICE/App/usbd_cdc_if.c ****   /* USER CODE BEGIN 7 */
 292:../USB_DEVICE/App/usbd_cdc_if.c ****   USBD_CDC_HandleTypeDef *hcdc = (USBD_CDC_HandleTypeDef*)hUsbDeviceFS.pClassData;
 304              		.loc 1 292 0
 305 0010 0D4B     		ldr	r3, .L30
 306 0012 D3F8B832 		ldr	r3, [r3, #696]
 307 0016 BB60     		str	r3, [r7, #8]
 293:../USB_DEVICE/App/usbd_cdc_if.c ****   if (hcdc->TxState != 0){
 308              		.loc 1 293 0
 309 0018 BB68     		ldr	r3, [r7, #8]
 310 001a D3F81432 		ldr	r3, [r3, #532]
 311 001e 002B     		cmp	r3, #0
 312 0020 01D0     		beq	.L28
 294:../USB_DEVICE/App/usbd_cdc_if.c ****     return USBD_BUSY;
 313              		.loc 1 294 0
 314 0022 0123     		movs	r3, #1
 315 0024 0BE0     		b	.L29
 316              	.L28:
 295:../USB_DEVICE/App/usbd_cdc_if.c ****   }
 296:../USB_DEVICE/App/usbd_cdc_if.c ****   USBD_CDC_SetTxBuffer(&hUsbDeviceFS, Buf, Len);
 317              		.loc 1 296 0
 318 0026 7B88     		ldrh	r3, [r7, #2]
 319 0028 1A46     		mov	r2, r3
 320 002a 7968     		ldr	r1, [r7, #4]
 321 002c 0648     		ldr	r0, .L30
 322 002e FFF7FEFF 		bl	USBD_CDC_SetTxBuffer
 297:../USB_DEVICE/App/usbd_cdc_if.c ****   result = USBD_CDC_TransmitPacket(&hUsbDeviceFS);
 323              		.loc 1 297 0
 324 0032 0548     		ldr	r0, .L30
 325 0034 FFF7FEFF 		bl	USBD_CDC_TransmitPacket
 326 0038 0346     		mov	r3, r0
 327 003a FB73     		strb	r3, [r7, #15]
 298:../USB_DEVICE/App/usbd_cdc_if.c ****   /* USER CODE END 7 */
 299:../USB_DEVICE/App/usbd_cdc_if.c ****   return result;
 328              		.loc 1 299 0
 329 003c FB7B     		ldrb	r3, [r7, #15]	@ zero_extendqisi2
 330              	.L29:
 300:../USB_DEVICE/App/usbd_cdc_if.c **** }
 331              		.loc 1 300 0
 332 003e 1846     		mov	r0, r3
 333 0040 1037     		adds	r7, r7, #16
 334              	.LCFI20:
 335              		.cfi_def_cfa_offset 8
 336 0042 BD46     		mov	sp, r7
 337              	.LCFI21:
 338              		.cfi_def_cfa_register 13
ARM GAS  /tmp/ccAi8l3Y.s 			page 12


 339              		@ sp needed
 340 0044 80BD     		pop	{r7, pc}
 341              	.L31:
 342 0046 00BF     		.align	2
 343              	.L30:
 344 0048 00000000 		.word	hUsbDeviceFS
 345              		.cfi_endproc
 346              	.LFE135:
 348              		.text
 349              	.Letext0:
 350              		.file 2 "/usr/include/newlib/machine/_default_types.h"
 351              		.file 3 "/usr/include/newlib/sys/lock.h"
 352              		.file 4 "/usr/include/newlib/sys/_types.h"
 353              		.file 5 "/usr/lib/gcc/arm-none-eabi/6.3.1/include/stddef.h"
 354              		.file 6 "/usr/include/newlib/sys/reent.h"
 355              		.file 7 "/usr/include/newlib/sys/_stdint.h"
 356              		.file 8 "/usr/include/newlib/stdlib.h"
 357              		.file 9 "../Drivers/CMSIS/Include/core_cm4.h"
 358              		.file 10 "../Drivers/CMSIS/Device/ST/STM32F3xx/Include/system_stm32f3xx.h"
 359              		.file 11 "../Drivers/STM32F3xx_HAL_Driver/Inc/stm32f3xx_hal.h"
 360              		.file 12 "../Middlewares/ST/STM32_USB_Device_Library/Core/Inc/usbd_def.h"
 361              		.file 13 "../Middlewares/ST/STM32_USB_Device_Library/Class/CDC/Inc/usbd_cdc.h"
 362              		.file 14 "../USB_DEVICE/App/usbd_cdc_if.h"
ARM GAS  /tmp/ccAi8l3Y.s 			page 13

