ARM GAS  /tmp/ccvWIHGo.s 			page 1


   1              		.cpu cortex-m4
   2              		.eabi_attribute 27, 1
   3              		.eabi_attribute 28, 1
   4              		.eabi_attribute 20, 1
   5              		.eabi_attribute 21, 1
   6              		.eabi_attribute 23, 3
   7              		.eabi_attribute 24, 1
   8              		.eabi_attribute 25, 1
   9              		.eabi_attribute 26, 1
  10              		.eabi_attribute 30, 6
  11              		.eabi_attribute 34, 1
  12              		.eabi_attribute 18, 4
  13              		.file	"usbd_conf.c"
  14              		.text
  15              	.Ltext0:
  16              		.cfi_sections	.debug_frame
  17              		.comm	hpcd_USB_FS,620,4
  18              		.section	.text.HAL_PCD_MspInit,"ax",%progbits
  19              		.align	1
  20              		.global	HAL_PCD_MspInit
  21              		.syntax unified
  22              		.thumb
  23              		.thumb_func
  24              		.fpu fpv4-sp-d16
  26              	HAL_PCD_MspInit:
  27              	.LFB131:
  28              		.file 1 "../USB_DEVICE/Target/usbd_conf.c"
   1:../USB_DEVICE/Target/usbd_conf.c **** /* USER CODE BEGIN Header */
   2:../USB_DEVICE/Target/usbd_conf.c **** /**
   3:../USB_DEVICE/Target/usbd_conf.c ****   ******************************************************************************
   4:../USB_DEVICE/Target/usbd_conf.c ****   * @file           : Target/usbd_conf.c
   5:../USB_DEVICE/Target/usbd_conf.c ****   * @version        : v2.0_Cube
   6:../USB_DEVICE/Target/usbd_conf.c ****   * @brief          : This file implements the board support package for the USB device library
   7:../USB_DEVICE/Target/usbd_conf.c ****   ******************************************************************************
   8:../USB_DEVICE/Target/usbd_conf.c ****   * @attention
   9:../USB_DEVICE/Target/usbd_conf.c ****   *
  10:../USB_DEVICE/Target/usbd_conf.c ****   * <h2><center>&copy; Copyright (c) 2020 STMicroelectronics.
  11:../USB_DEVICE/Target/usbd_conf.c ****   * All rights reserved.</center></h2>
  12:../USB_DEVICE/Target/usbd_conf.c ****   *
  13:../USB_DEVICE/Target/usbd_conf.c ****   * This software component is licensed by ST under Ultimate Liberty license
  14:../USB_DEVICE/Target/usbd_conf.c ****   * SLA0044, the "License"; You may not use this file except in compliance with
  15:../USB_DEVICE/Target/usbd_conf.c ****   * the License. You may obtain a copy of the License at:
  16:../USB_DEVICE/Target/usbd_conf.c ****   *                             www.st.com/SLA0044
  17:../USB_DEVICE/Target/usbd_conf.c ****   *
  18:../USB_DEVICE/Target/usbd_conf.c ****   ******************************************************************************
  19:../USB_DEVICE/Target/usbd_conf.c ****   */
  20:../USB_DEVICE/Target/usbd_conf.c **** /* USER CODE END Header */
  21:../USB_DEVICE/Target/usbd_conf.c **** 
  22:../USB_DEVICE/Target/usbd_conf.c **** /* Includes ------------------------------------------------------------------*/
  23:../USB_DEVICE/Target/usbd_conf.c **** #include "stm32f3xx.h"
  24:../USB_DEVICE/Target/usbd_conf.c **** #include "stm32f3xx_hal.h"
  25:../USB_DEVICE/Target/usbd_conf.c **** #include "usbd_def.h"
  26:../USB_DEVICE/Target/usbd_conf.c **** #include "usbd_core.h"
  27:../USB_DEVICE/Target/usbd_conf.c **** #include "usbd_cdc.h"
  28:../USB_DEVICE/Target/usbd_conf.c **** 
  29:../USB_DEVICE/Target/usbd_conf.c **** /* USER CODE BEGIN Includes */
  30:../USB_DEVICE/Target/usbd_conf.c **** 
ARM GAS  /tmp/ccvWIHGo.s 			page 2


  31:../USB_DEVICE/Target/usbd_conf.c **** /* USER CODE END Includes */
  32:../USB_DEVICE/Target/usbd_conf.c **** 
  33:../USB_DEVICE/Target/usbd_conf.c **** /* Private typedef -----------------------------------------------------------*/
  34:../USB_DEVICE/Target/usbd_conf.c **** /* Private define ------------------------------------------------------------*/
  35:../USB_DEVICE/Target/usbd_conf.c **** /* Private macro -------------------------------------------------------------*/
  36:../USB_DEVICE/Target/usbd_conf.c **** 
  37:../USB_DEVICE/Target/usbd_conf.c **** /* USER CODE BEGIN PV */
  38:../USB_DEVICE/Target/usbd_conf.c **** /* Private variables ---------------------------------------------------------*/
  39:../USB_DEVICE/Target/usbd_conf.c **** 
  40:../USB_DEVICE/Target/usbd_conf.c **** /* USER CODE END PV */
  41:../USB_DEVICE/Target/usbd_conf.c **** 
  42:../USB_DEVICE/Target/usbd_conf.c **** PCD_HandleTypeDef hpcd_USB_FS;
  43:../USB_DEVICE/Target/usbd_conf.c **** void Error_Handler(void);
  44:../USB_DEVICE/Target/usbd_conf.c **** 
  45:../USB_DEVICE/Target/usbd_conf.c **** /* USER CODE BEGIN 0 */
  46:../USB_DEVICE/Target/usbd_conf.c **** 
  47:../USB_DEVICE/Target/usbd_conf.c **** /* USER CODE END 0 */
  48:../USB_DEVICE/Target/usbd_conf.c **** 
  49:../USB_DEVICE/Target/usbd_conf.c **** /* USER CODE BEGIN PFP */
  50:../USB_DEVICE/Target/usbd_conf.c **** /* Private function prototypes -----------------------------------------------*/
  51:../USB_DEVICE/Target/usbd_conf.c **** 
  52:../USB_DEVICE/Target/usbd_conf.c **** /* USER CODE END PFP */
  53:../USB_DEVICE/Target/usbd_conf.c **** 
  54:../USB_DEVICE/Target/usbd_conf.c **** /* Private functions ---------------------------------------------------------*/
  55:../USB_DEVICE/Target/usbd_conf.c **** static USBD_StatusTypeDef USBD_Get_USB_Status(HAL_StatusTypeDef hal_status);
  56:../USB_DEVICE/Target/usbd_conf.c **** /* USER CODE BEGIN 1 */
  57:../USB_DEVICE/Target/usbd_conf.c **** 
  58:../USB_DEVICE/Target/usbd_conf.c **** /* USER CODE END 1 */
  59:../USB_DEVICE/Target/usbd_conf.c **** #if (USE_HAL_PCD_REGISTER_CALLBACKS == 1U)
  60:../USB_DEVICE/Target/usbd_conf.c **** static void PCDEx_SetConnectionState(PCD_HandleTypeDef *hpcd, uint8_t state);
  61:../USB_DEVICE/Target/usbd_conf.c **** else
  62:../USB_DEVICE/Target/usbd_conf.c **** void HAL_PCDEx_SetConnectionState(PCD_HandleTypeDef *hpcd, uint8_t state);
  63:../USB_DEVICE/Target/usbd_conf.c **** #endif /* USE_HAL_PCD_REGISTER_CALLBACKS */
  64:../USB_DEVICE/Target/usbd_conf.c **** 
  65:../USB_DEVICE/Target/usbd_conf.c **** /*******************************************************************************
  66:../USB_DEVICE/Target/usbd_conf.c ****                        LL Driver Callbacks (PCD -> USB Device Library)
  67:../USB_DEVICE/Target/usbd_conf.c **** *******************************************************************************/
  68:../USB_DEVICE/Target/usbd_conf.c **** /* MSP Init */
  69:../USB_DEVICE/Target/usbd_conf.c **** 
  70:../USB_DEVICE/Target/usbd_conf.c **** void HAL_PCD_MspInit(PCD_HandleTypeDef* pcdHandle)
  71:../USB_DEVICE/Target/usbd_conf.c **** {
  29              		.loc 1 71 0
  30              		.cfi_startproc
  31              		@ args = 0, pretend = 0, frame = 40
  32              		@ frame_needed = 1, uses_anonymous_args = 0
  33 0000 80B5     		push	{r7, lr}
  34              	.LCFI0:
  35              		.cfi_def_cfa_offset 8
  36              		.cfi_offset 7, -8
  37              		.cfi_offset 14, -4
  38 0002 8AB0     		sub	sp, sp, #40
  39              	.LCFI1:
  40              		.cfi_def_cfa_offset 48
  41 0004 00AF     		add	r7, sp, #0
  42              	.LCFI2:
  43              		.cfi_def_cfa_register 7
  44 0006 7860     		str	r0, [r7, #4]
ARM GAS  /tmp/ccvWIHGo.s 			page 3


  72:../USB_DEVICE/Target/usbd_conf.c ****   GPIO_InitTypeDef GPIO_InitStruct = {0};
  45              		.loc 1 72 0
  46 0008 07F11403 		add	r3, r7, #20
  47 000c 0022     		movs	r2, #0
  48 000e 1A60     		str	r2, [r3]
  49 0010 5A60     		str	r2, [r3, #4]
  50 0012 9A60     		str	r2, [r3, #8]
  51 0014 DA60     		str	r2, [r3, #12]
  52 0016 1A61     		str	r2, [r3, #16]
  73:../USB_DEVICE/Target/usbd_conf.c ****   if(pcdHandle->Instance==USB)
  53              		.loc 1 73 0
  54 0018 7B68     		ldr	r3, [r7, #4]
  55 001a 1B68     		ldr	r3, [r3]
  56 001c 1C4A     		ldr	r2, .L4
  57 001e 9342     		cmp	r3, r2
  58 0020 31D1     		bne	.L3
  59              	.LBB2:
  74:../USB_DEVICE/Target/usbd_conf.c ****   {
  75:../USB_DEVICE/Target/usbd_conf.c ****   /* USER CODE BEGIN USB_MspInit 0 */
  76:../USB_DEVICE/Target/usbd_conf.c **** 
  77:../USB_DEVICE/Target/usbd_conf.c ****   /* USER CODE END USB_MspInit 0 */
  78:../USB_DEVICE/Target/usbd_conf.c ****   
  79:../USB_DEVICE/Target/usbd_conf.c ****     __HAL_RCC_GPIOA_CLK_ENABLE();
  60              		.loc 1 79 0
  61 0022 1C4A     		ldr	r2, .L4+4
  62 0024 1B4B     		ldr	r3, .L4+4
  63 0026 5B69     		ldr	r3, [r3, #20]
  64 0028 43F40033 		orr	r3, r3, #131072
  65 002c 5361     		str	r3, [r2, #20]
  66 002e 194B     		ldr	r3, .L4+4
  67 0030 5B69     		ldr	r3, [r3, #20]
  68 0032 03F40033 		and	r3, r3, #131072
  69 0036 3B61     		str	r3, [r7, #16]
  70 0038 3B69     		ldr	r3, [r7, #16]
  71              	.LBE2:
  80:../USB_DEVICE/Target/usbd_conf.c ****     /**USB GPIO Configuration    
  81:../USB_DEVICE/Target/usbd_conf.c ****     PA11     ------> USB_DM
  82:../USB_DEVICE/Target/usbd_conf.c ****     PA12     ------> USB_DP 
  83:../USB_DEVICE/Target/usbd_conf.c ****     */
  84:../USB_DEVICE/Target/usbd_conf.c ****     GPIO_InitStruct.Pin = GPIO_PIN_11|GPIO_PIN_12;
  72              		.loc 1 84 0
  73 003a 4FF4C053 		mov	r3, #6144
  74 003e 7B61     		str	r3, [r7, #20]
  85:../USB_DEVICE/Target/usbd_conf.c ****     GPIO_InitStruct.Mode = GPIO_MODE_AF_PP;
  75              		.loc 1 85 0
  76 0040 0223     		movs	r3, #2
  77 0042 BB61     		str	r3, [r7, #24]
  86:../USB_DEVICE/Target/usbd_conf.c ****     GPIO_InitStruct.Pull = GPIO_NOPULL;
  78              		.loc 1 86 0
  79 0044 0023     		movs	r3, #0
  80 0046 FB61     		str	r3, [r7, #28]
  87:../USB_DEVICE/Target/usbd_conf.c ****     GPIO_InitStruct.Speed = GPIO_SPEED_FREQ_HIGH;
  81              		.loc 1 87 0
  82 0048 0323     		movs	r3, #3
  83 004a 3B62     		str	r3, [r7, #32]
  88:../USB_DEVICE/Target/usbd_conf.c ****     GPIO_InitStruct.Alternate = GPIO_AF14_USB;
  84              		.loc 1 88 0
ARM GAS  /tmp/ccvWIHGo.s 			page 4


  85 004c 0E23     		movs	r3, #14
  86 004e 7B62     		str	r3, [r7, #36]
  89:../USB_DEVICE/Target/usbd_conf.c ****     HAL_GPIO_Init(GPIOA, &GPIO_InitStruct);
  87              		.loc 1 89 0
  88 0050 07F11403 		add	r3, r7, #20
  89 0054 1946     		mov	r1, r3
  90 0056 4FF09040 		mov	r0, #1207959552
  91 005a FFF7FEFF 		bl	HAL_GPIO_Init
  92              	.LBB3:
  90:../USB_DEVICE/Target/usbd_conf.c **** 
  91:../USB_DEVICE/Target/usbd_conf.c ****     /* Peripheral clock enable */
  92:../USB_DEVICE/Target/usbd_conf.c ****     __HAL_RCC_USB_CLK_ENABLE();
  93              		.loc 1 92 0
  94 005e 0D4A     		ldr	r2, .L4+4
  95 0060 0C4B     		ldr	r3, .L4+4
  96 0062 DB69     		ldr	r3, [r3, #28]
  97 0064 43F40003 		orr	r3, r3, #8388608
  98 0068 D361     		str	r3, [r2, #28]
  99 006a 0A4B     		ldr	r3, .L4+4
 100 006c DB69     		ldr	r3, [r3, #28]
 101 006e 03F40003 		and	r3, r3, #8388608
 102 0072 FB60     		str	r3, [r7, #12]
 103 0074 FB68     		ldr	r3, [r7, #12]
 104              	.LBE3:
  93:../USB_DEVICE/Target/usbd_conf.c **** 
  94:../USB_DEVICE/Target/usbd_conf.c ****     /* Peripheral interrupt init */
  95:../USB_DEVICE/Target/usbd_conf.c ****     HAL_NVIC_SetPriority(USB_LP_CAN_RX0_IRQn, 0, 0);
 105              		.loc 1 95 0
 106 0076 0022     		movs	r2, #0
 107 0078 0021     		movs	r1, #0
 108 007a 1420     		movs	r0, #20
 109 007c FFF7FEFF 		bl	HAL_NVIC_SetPriority
  96:../USB_DEVICE/Target/usbd_conf.c ****     HAL_NVIC_EnableIRQ(USB_LP_CAN_RX0_IRQn);
 110              		.loc 1 96 0
 111 0080 1420     		movs	r0, #20
 112 0082 FFF7FEFF 		bl	HAL_NVIC_EnableIRQ
 113              	.L3:
  97:../USB_DEVICE/Target/usbd_conf.c ****   /* USER CODE BEGIN USB_MspInit 1 */
  98:../USB_DEVICE/Target/usbd_conf.c **** 
  99:../USB_DEVICE/Target/usbd_conf.c ****   /* USER CODE END USB_MspInit 1 */
 100:../USB_DEVICE/Target/usbd_conf.c ****   }
 101:../USB_DEVICE/Target/usbd_conf.c **** }
 114              		.loc 1 101 0
 115 0086 00BF     		nop
 116 0088 2837     		adds	r7, r7, #40
 117              	.LCFI3:
 118              		.cfi_def_cfa_offset 8
 119 008a BD46     		mov	sp, r7
 120              	.LCFI4:
 121              		.cfi_def_cfa_register 13
 122              		@ sp needed
 123 008c 80BD     		pop	{r7, pc}
 124              	.L5:
 125 008e 00BF     		.align	2
 126              	.L4:
 127 0090 005C0040 		.word	1073765376
 128 0094 00100240 		.word	1073876992
ARM GAS  /tmp/ccvWIHGo.s 			page 5


 129              		.cfi_endproc
 130              	.LFE131:
 132              		.section	.text.HAL_PCD_MspDeInit,"ax",%progbits
 133              		.align	1
 134              		.global	HAL_PCD_MspDeInit
 135              		.syntax unified
 136              		.thumb
 137              		.thumb_func
 138              		.fpu fpv4-sp-d16
 140              	HAL_PCD_MspDeInit:
 141              	.LFB132:
 102:../USB_DEVICE/Target/usbd_conf.c **** 
 103:../USB_DEVICE/Target/usbd_conf.c **** void HAL_PCD_MspDeInit(PCD_HandleTypeDef* pcdHandle)
 104:../USB_DEVICE/Target/usbd_conf.c **** {
 142              		.loc 1 104 0
 143              		.cfi_startproc
 144              		@ args = 0, pretend = 0, frame = 8
 145              		@ frame_needed = 1, uses_anonymous_args = 0
 146 0000 80B5     		push	{r7, lr}
 147              	.LCFI5:
 148              		.cfi_def_cfa_offset 8
 149              		.cfi_offset 7, -8
 150              		.cfi_offset 14, -4
 151 0002 82B0     		sub	sp, sp, #8
 152              	.LCFI6:
 153              		.cfi_def_cfa_offset 16
 154 0004 00AF     		add	r7, sp, #0
 155              	.LCFI7:
 156              		.cfi_def_cfa_register 7
 157 0006 7860     		str	r0, [r7, #4]
 105:../USB_DEVICE/Target/usbd_conf.c ****   if(pcdHandle->Instance==USB)
 158              		.loc 1 105 0
 159 0008 7B68     		ldr	r3, [r7, #4]
 160 000a 1B68     		ldr	r3, [r3]
 161 000c 0A4A     		ldr	r2, .L9
 162 000e 9342     		cmp	r3, r2
 163 0010 0ED1     		bne	.L8
 106:../USB_DEVICE/Target/usbd_conf.c ****   {
 107:../USB_DEVICE/Target/usbd_conf.c ****   /* USER CODE BEGIN USB_MspDeInit 0 */
 108:../USB_DEVICE/Target/usbd_conf.c **** 
 109:../USB_DEVICE/Target/usbd_conf.c ****   /* USER CODE END USB_MspDeInit 0 */
 110:../USB_DEVICE/Target/usbd_conf.c ****     /* Peripheral clock disable */
 111:../USB_DEVICE/Target/usbd_conf.c ****     __HAL_RCC_USB_CLK_DISABLE();
 164              		.loc 1 111 0
 165 0012 0A4A     		ldr	r2, .L9+4
 166 0014 094B     		ldr	r3, .L9+4
 167 0016 DB69     		ldr	r3, [r3, #28]
 168 0018 23F40003 		bic	r3, r3, #8388608
 169 001c D361     		str	r3, [r2, #28]
 112:../USB_DEVICE/Target/usbd_conf.c ****   
 113:../USB_DEVICE/Target/usbd_conf.c ****     /**USB GPIO Configuration    
 114:../USB_DEVICE/Target/usbd_conf.c ****     PA11     ------> USB_DM
 115:../USB_DEVICE/Target/usbd_conf.c ****     PA12     ------> USB_DP 
 116:../USB_DEVICE/Target/usbd_conf.c ****     */
 117:../USB_DEVICE/Target/usbd_conf.c ****     HAL_GPIO_DeInit(GPIOA, GPIO_PIN_11|GPIO_PIN_12);
 170              		.loc 1 117 0
 171 001e 4FF4C051 		mov	r1, #6144
ARM GAS  /tmp/ccvWIHGo.s 			page 6


 172 0022 4FF09040 		mov	r0, #1207959552
 173 0026 FFF7FEFF 		bl	HAL_GPIO_DeInit
 118:../USB_DEVICE/Target/usbd_conf.c **** 
 119:../USB_DEVICE/Target/usbd_conf.c ****     /* Peripheral interrupt Deinit*/
 120:../USB_DEVICE/Target/usbd_conf.c ****     HAL_NVIC_DisableIRQ(USB_LP_CAN_RX0_IRQn);
 174              		.loc 1 120 0
 175 002a 1420     		movs	r0, #20
 176 002c FFF7FEFF 		bl	HAL_NVIC_DisableIRQ
 177              	.L8:
 121:../USB_DEVICE/Target/usbd_conf.c **** 
 122:../USB_DEVICE/Target/usbd_conf.c ****   /* USER CODE BEGIN USB_MspDeInit 1 */
 123:../USB_DEVICE/Target/usbd_conf.c **** 
 124:../USB_DEVICE/Target/usbd_conf.c ****   /* USER CODE END USB_MspDeInit 1 */
 125:../USB_DEVICE/Target/usbd_conf.c ****   }
 126:../USB_DEVICE/Target/usbd_conf.c **** }
 178              		.loc 1 126 0
 179 0030 00BF     		nop
 180 0032 0837     		adds	r7, r7, #8
 181              	.LCFI8:
 182              		.cfi_def_cfa_offset 8
 183 0034 BD46     		mov	sp, r7
 184              	.LCFI9:
 185              		.cfi_def_cfa_register 13
 186              		@ sp needed
 187 0036 80BD     		pop	{r7, pc}
 188              	.L10:
 189              		.align	2
 190              	.L9:
 191 0038 005C0040 		.word	1073765376
 192 003c 00100240 		.word	1073876992
 193              		.cfi_endproc
 194              	.LFE132:
 196              		.section	.text.HAL_PCD_SetupStageCallback,"ax",%progbits
 197              		.align	1
 198              		.global	HAL_PCD_SetupStageCallback
 199              		.syntax unified
 200              		.thumb
 201              		.thumb_func
 202              		.fpu fpv4-sp-d16
 204              	HAL_PCD_SetupStageCallback:
 205              	.LFB133:
 127:../USB_DEVICE/Target/usbd_conf.c **** 
 128:../USB_DEVICE/Target/usbd_conf.c **** /**
 129:../USB_DEVICE/Target/usbd_conf.c ****   * @brief  Setup stage callback
 130:../USB_DEVICE/Target/usbd_conf.c ****   * @param  hpcd: PCD handle
 131:../USB_DEVICE/Target/usbd_conf.c ****   * @retval None
 132:../USB_DEVICE/Target/usbd_conf.c ****   */
 133:../USB_DEVICE/Target/usbd_conf.c **** #if (USE_HAL_PCD_REGISTER_CALLBACKS == 1U)
 134:../USB_DEVICE/Target/usbd_conf.c **** static void PCD_SetupStageCallback(PCD_HandleTypeDef *hpcd)
 135:../USB_DEVICE/Target/usbd_conf.c **** #else
 136:../USB_DEVICE/Target/usbd_conf.c **** void HAL_PCD_SetupStageCallback(PCD_HandleTypeDef *hpcd)
 137:../USB_DEVICE/Target/usbd_conf.c **** #endif /* USE_HAL_PCD_REGISTER_CALLBACKS */
 138:../USB_DEVICE/Target/usbd_conf.c **** {
 206              		.loc 1 138 0
 207              		.cfi_startproc
 208              		@ args = 0, pretend = 0, frame = 8
 209              		@ frame_needed = 1, uses_anonymous_args = 0
ARM GAS  /tmp/ccvWIHGo.s 			page 7


 210 0000 80B5     		push	{r7, lr}
 211              	.LCFI10:
 212              		.cfi_def_cfa_offset 8
 213              		.cfi_offset 7, -8
 214              		.cfi_offset 14, -4
 215 0002 82B0     		sub	sp, sp, #8
 216              	.LCFI11:
 217              		.cfi_def_cfa_offset 16
 218 0004 00AF     		add	r7, sp, #0
 219              	.LCFI12:
 220              		.cfi_def_cfa_register 7
 221 0006 7860     		str	r0, [r7, #4]
 139:../USB_DEVICE/Target/usbd_conf.c ****   USBD_LL_SetupStage((USBD_HandleTypeDef*)hpcd->pData, (uint8_t *)hpcd->Setup);
 222              		.loc 1 139 0
 223 0008 7B68     		ldr	r3, [r7, #4]
 224 000a D3F86822 		ldr	r2, [r3, #616]
 225 000e 7B68     		ldr	r3, [r7, #4]
 226 0010 03F50C73 		add	r3, r3, #560
 227 0014 1946     		mov	r1, r3
 228 0016 1046     		mov	r0, r2
 229 0018 FFF7FEFF 		bl	USBD_LL_SetupStage
 140:../USB_DEVICE/Target/usbd_conf.c **** }
 230              		.loc 1 140 0
 231 001c 00BF     		nop
 232 001e 0837     		adds	r7, r7, #8
 233              	.LCFI13:
 234              		.cfi_def_cfa_offset 8
 235 0020 BD46     		mov	sp, r7
 236              	.LCFI14:
 237              		.cfi_def_cfa_register 13
 238              		@ sp needed
 239 0022 80BD     		pop	{r7, pc}
 240              		.cfi_endproc
 241              	.LFE133:
 243              		.section	.text.HAL_PCD_DataOutStageCallback,"ax",%progbits
 244              		.align	1
 245              		.global	HAL_PCD_DataOutStageCallback
 246              		.syntax unified
 247              		.thumb
 248              		.thumb_func
 249              		.fpu fpv4-sp-d16
 251              	HAL_PCD_DataOutStageCallback:
 252              	.LFB134:
 141:../USB_DEVICE/Target/usbd_conf.c **** 
 142:../USB_DEVICE/Target/usbd_conf.c **** /**
 143:../USB_DEVICE/Target/usbd_conf.c ****   * @brief  Data Out stage callback.
 144:../USB_DEVICE/Target/usbd_conf.c ****   * @param  hpcd: PCD handle
 145:../USB_DEVICE/Target/usbd_conf.c ****   * @param  epnum: Endpoint number
 146:../USB_DEVICE/Target/usbd_conf.c ****   * @retval None
 147:../USB_DEVICE/Target/usbd_conf.c ****   */
 148:../USB_DEVICE/Target/usbd_conf.c **** #if (USE_HAL_PCD_REGISTER_CALLBACKS == 1U)
 149:../USB_DEVICE/Target/usbd_conf.c **** static void PCD_DataOutStageCallback(PCD_HandleTypeDef *hpcd, uint8_t epnum)
 150:../USB_DEVICE/Target/usbd_conf.c **** #else
 151:../USB_DEVICE/Target/usbd_conf.c **** void HAL_PCD_DataOutStageCallback(PCD_HandleTypeDef *hpcd, uint8_t epnum)
 152:../USB_DEVICE/Target/usbd_conf.c **** #endif /* USE_HAL_PCD_REGISTER_CALLBACKS */
 153:../USB_DEVICE/Target/usbd_conf.c **** {
 253              		.loc 1 153 0
ARM GAS  /tmp/ccvWIHGo.s 			page 8


 254              		.cfi_startproc
 255              		@ args = 0, pretend = 0, frame = 8
 256              		@ frame_needed = 1, uses_anonymous_args = 0
 257 0000 80B5     		push	{r7, lr}
 258              	.LCFI15:
 259              		.cfi_def_cfa_offset 8
 260              		.cfi_offset 7, -8
 261              		.cfi_offset 14, -4
 262 0002 82B0     		sub	sp, sp, #8
 263              	.LCFI16:
 264              		.cfi_def_cfa_offset 16
 265 0004 00AF     		add	r7, sp, #0
 266              	.LCFI17:
 267              		.cfi_def_cfa_register 7
 268 0006 7860     		str	r0, [r7, #4]
 269 0008 0B46     		mov	r3, r1
 270 000a FB70     		strb	r3, [r7, #3]
 154:../USB_DEVICE/Target/usbd_conf.c ****   USBD_LL_DataOutStage((USBD_HandleTypeDef*)hpcd->pData, epnum, hpcd->OUT_ep[epnum].xfer_buff);
 271              		.loc 1 154 0
 272 000c 7B68     		ldr	r3, [r7, #4]
 273 000e D3F86802 		ldr	r0, [r3, #616]
 274 0012 FB78     		ldrb	r3, [r7, #3]	@ zero_extendqisi2
 275 0014 7A68     		ldr	r2, [r7, #4]
 276 0016 5B01     		lsls	r3, r3, #5
 277 0018 1344     		add	r3, r3, r2
 278 001a 03F59E73 		add	r3, r3, #316
 279 001e 1A68     		ldr	r2, [r3]
 280 0020 FB78     		ldrb	r3, [r7, #3]	@ zero_extendqisi2
 281 0022 1946     		mov	r1, r3
 282 0024 FFF7FEFF 		bl	USBD_LL_DataOutStage
 155:../USB_DEVICE/Target/usbd_conf.c **** }
 283              		.loc 1 155 0
 284 0028 00BF     		nop
 285 002a 0837     		adds	r7, r7, #8
 286              	.LCFI18:
 287              		.cfi_def_cfa_offset 8
 288 002c BD46     		mov	sp, r7
 289              	.LCFI19:
 290              		.cfi_def_cfa_register 13
 291              		@ sp needed
 292 002e 80BD     		pop	{r7, pc}
 293              		.cfi_endproc
 294              	.LFE134:
 296              		.section	.text.HAL_PCD_DataInStageCallback,"ax",%progbits
 297              		.align	1
 298              		.global	HAL_PCD_DataInStageCallback
 299              		.syntax unified
 300              		.thumb
 301              		.thumb_func
 302              		.fpu fpv4-sp-d16
 304              	HAL_PCD_DataInStageCallback:
 305              	.LFB135:
 156:../USB_DEVICE/Target/usbd_conf.c **** 
 157:../USB_DEVICE/Target/usbd_conf.c **** /**
 158:../USB_DEVICE/Target/usbd_conf.c ****   * @brief  Data In stage callback.
 159:../USB_DEVICE/Target/usbd_conf.c ****   * @param  hpcd: PCD handle
 160:../USB_DEVICE/Target/usbd_conf.c ****   * @param  epnum: Endpoint number
ARM GAS  /tmp/ccvWIHGo.s 			page 9


 161:../USB_DEVICE/Target/usbd_conf.c ****   * @retval None
 162:../USB_DEVICE/Target/usbd_conf.c ****   */
 163:../USB_DEVICE/Target/usbd_conf.c **** #if (USE_HAL_PCD_REGISTER_CALLBACKS == 1U)
 164:../USB_DEVICE/Target/usbd_conf.c **** static void PCD_DataInStageCallback(PCD_HandleTypeDef *hpcd, uint8_t epnum)
 165:../USB_DEVICE/Target/usbd_conf.c **** #else
 166:../USB_DEVICE/Target/usbd_conf.c **** void HAL_PCD_DataInStageCallback(PCD_HandleTypeDef *hpcd, uint8_t epnum)
 167:../USB_DEVICE/Target/usbd_conf.c **** #endif /* USE_HAL_PCD_REGISTER_CALLBACKS */
 168:../USB_DEVICE/Target/usbd_conf.c **** {
 306              		.loc 1 168 0
 307              		.cfi_startproc
 308              		@ args = 0, pretend = 0, frame = 8
 309              		@ frame_needed = 1, uses_anonymous_args = 0
 310 0000 80B5     		push	{r7, lr}
 311              	.LCFI20:
 312              		.cfi_def_cfa_offset 8
 313              		.cfi_offset 7, -8
 314              		.cfi_offset 14, -4
 315 0002 82B0     		sub	sp, sp, #8
 316              	.LCFI21:
 317              		.cfi_def_cfa_offset 16
 318 0004 00AF     		add	r7, sp, #0
 319              	.LCFI22:
 320              		.cfi_def_cfa_register 7
 321 0006 7860     		str	r0, [r7, #4]
 322 0008 0B46     		mov	r3, r1
 323 000a FB70     		strb	r3, [r7, #3]
 169:../USB_DEVICE/Target/usbd_conf.c ****   USBD_LL_DataInStage((USBD_HandleTypeDef*)hpcd->pData, epnum, hpcd->IN_ep[epnum].xfer_buff);
 324              		.loc 1 169 0
 325 000c 7B68     		ldr	r3, [r7, #4]
 326 000e D3F86802 		ldr	r0, [r3, #616]
 327 0012 FB78     		ldrb	r3, [r7, #3]	@ zero_extendqisi2
 328 0014 7A68     		ldr	r2, [r7, #4]
 329 0016 5B01     		lsls	r3, r3, #5
 330 0018 1344     		add	r3, r3, r2
 331 001a 3C33     		adds	r3, r3, #60
 332 001c 1A68     		ldr	r2, [r3]
 333 001e FB78     		ldrb	r3, [r7, #3]	@ zero_extendqisi2
 334 0020 1946     		mov	r1, r3
 335 0022 FFF7FEFF 		bl	USBD_LL_DataInStage
 170:../USB_DEVICE/Target/usbd_conf.c **** }
 336              		.loc 1 170 0
 337 0026 00BF     		nop
 338 0028 0837     		adds	r7, r7, #8
 339              	.LCFI23:
 340              		.cfi_def_cfa_offset 8
 341 002a BD46     		mov	sp, r7
 342              	.LCFI24:
 343              		.cfi_def_cfa_register 13
 344              		@ sp needed
 345 002c 80BD     		pop	{r7, pc}
 346              		.cfi_endproc
 347              	.LFE135:
 349              		.section	.text.HAL_PCD_SOFCallback,"ax",%progbits
 350              		.align	1
 351              		.global	HAL_PCD_SOFCallback
 352              		.syntax unified
 353              		.thumb
ARM GAS  /tmp/ccvWIHGo.s 			page 10


 354              		.thumb_func
 355              		.fpu fpv4-sp-d16
 357              	HAL_PCD_SOFCallback:
 358              	.LFB136:
 171:../USB_DEVICE/Target/usbd_conf.c **** 
 172:../USB_DEVICE/Target/usbd_conf.c **** /**
 173:../USB_DEVICE/Target/usbd_conf.c ****   * @brief  SOF callback.
 174:../USB_DEVICE/Target/usbd_conf.c ****   * @param  hpcd: PCD handle
 175:../USB_DEVICE/Target/usbd_conf.c ****   * @retval None
 176:../USB_DEVICE/Target/usbd_conf.c ****   */
 177:../USB_DEVICE/Target/usbd_conf.c **** #if (USE_HAL_PCD_REGISTER_CALLBACKS == 1U)
 178:../USB_DEVICE/Target/usbd_conf.c **** static void PCD_SOFCallback(PCD_HandleTypeDef *hpcd)
 179:../USB_DEVICE/Target/usbd_conf.c **** #else
 180:../USB_DEVICE/Target/usbd_conf.c **** void HAL_PCD_SOFCallback(PCD_HandleTypeDef *hpcd)
 181:../USB_DEVICE/Target/usbd_conf.c **** #endif /* USE_HAL_PCD_REGISTER_CALLBACKS */
 182:../USB_DEVICE/Target/usbd_conf.c **** {
 359              		.loc 1 182 0
 360              		.cfi_startproc
 361              		@ args = 0, pretend = 0, frame = 8
 362              		@ frame_needed = 1, uses_anonymous_args = 0
 363 0000 80B5     		push	{r7, lr}
 364              	.LCFI25:
 365              		.cfi_def_cfa_offset 8
 366              		.cfi_offset 7, -8
 367              		.cfi_offset 14, -4
 368 0002 82B0     		sub	sp, sp, #8
 369              	.LCFI26:
 370              		.cfi_def_cfa_offset 16
 371 0004 00AF     		add	r7, sp, #0
 372              	.LCFI27:
 373              		.cfi_def_cfa_register 7
 374 0006 7860     		str	r0, [r7, #4]
 183:../USB_DEVICE/Target/usbd_conf.c ****   USBD_LL_SOF((USBD_HandleTypeDef*)hpcd->pData);
 375              		.loc 1 183 0
 376 0008 7B68     		ldr	r3, [r7, #4]
 377 000a D3F86832 		ldr	r3, [r3, #616]
 378 000e 1846     		mov	r0, r3
 379 0010 FFF7FEFF 		bl	USBD_LL_SOF
 184:../USB_DEVICE/Target/usbd_conf.c **** }
 380              		.loc 1 184 0
 381 0014 00BF     		nop
 382 0016 0837     		adds	r7, r7, #8
 383              	.LCFI28:
 384              		.cfi_def_cfa_offset 8
 385 0018 BD46     		mov	sp, r7
 386              	.LCFI29:
 387              		.cfi_def_cfa_register 13
 388              		@ sp needed
 389 001a 80BD     		pop	{r7, pc}
 390              		.cfi_endproc
 391              	.LFE136:
 393              		.section	.text.HAL_PCD_ResetCallback,"ax",%progbits
 394              		.align	1
 395              		.global	HAL_PCD_ResetCallback
 396              		.syntax unified
 397              		.thumb
 398              		.thumb_func
ARM GAS  /tmp/ccvWIHGo.s 			page 11


 399              		.fpu fpv4-sp-d16
 401              	HAL_PCD_ResetCallback:
 402              	.LFB137:
 185:../USB_DEVICE/Target/usbd_conf.c **** 
 186:../USB_DEVICE/Target/usbd_conf.c **** /**
 187:../USB_DEVICE/Target/usbd_conf.c ****   * @brief  Reset callback.
 188:../USB_DEVICE/Target/usbd_conf.c ****   * @param  hpcd: PCD handle
 189:../USB_DEVICE/Target/usbd_conf.c ****   * @retval None
 190:../USB_DEVICE/Target/usbd_conf.c ****   */
 191:../USB_DEVICE/Target/usbd_conf.c **** #if (USE_HAL_PCD_REGISTER_CALLBACKS == 1U)
 192:../USB_DEVICE/Target/usbd_conf.c **** static void PCD_ResetCallback(PCD_HandleTypeDef *hpcd)
 193:../USB_DEVICE/Target/usbd_conf.c **** #else
 194:../USB_DEVICE/Target/usbd_conf.c **** void HAL_PCD_ResetCallback(PCD_HandleTypeDef *hpcd)
 195:../USB_DEVICE/Target/usbd_conf.c **** #endif /* USE_HAL_PCD_REGISTER_CALLBACKS */
 196:../USB_DEVICE/Target/usbd_conf.c **** { 
 403              		.loc 1 196 0
 404              		.cfi_startproc
 405              		@ args = 0, pretend = 0, frame = 16
 406              		@ frame_needed = 1, uses_anonymous_args = 0
 407 0000 80B5     		push	{r7, lr}
 408              	.LCFI30:
 409              		.cfi_def_cfa_offset 8
 410              		.cfi_offset 7, -8
 411              		.cfi_offset 14, -4
 412 0002 84B0     		sub	sp, sp, #16
 413              	.LCFI31:
 414              		.cfi_def_cfa_offset 24
 415 0004 00AF     		add	r7, sp, #0
 416              	.LCFI32:
 417              		.cfi_def_cfa_register 7
 418 0006 7860     		str	r0, [r7, #4]
 197:../USB_DEVICE/Target/usbd_conf.c ****   USBD_SpeedTypeDef speed = USBD_SPEED_FULL;
 419              		.loc 1 197 0
 420 0008 0123     		movs	r3, #1
 421 000a FB73     		strb	r3, [r7, #15]
 198:../USB_DEVICE/Target/usbd_conf.c **** 
 199:../USB_DEVICE/Target/usbd_conf.c ****   if ( hpcd->Init.speed != PCD_SPEED_FULL)
 422              		.loc 1 199 0
 423 000c 7B68     		ldr	r3, [r7, #4]
 424 000e 9B68     		ldr	r3, [r3, #8]
 425 0010 022B     		cmp	r3, #2
 426 0012 01D0     		beq	.L16
 200:../USB_DEVICE/Target/usbd_conf.c ****   {
 201:../USB_DEVICE/Target/usbd_conf.c ****     Error_Handler();
 427              		.loc 1 201 0
 428 0014 FFF7FEFF 		bl	Error_Handler
 429              	.L16:
 202:../USB_DEVICE/Target/usbd_conf.c ****   }
 203:../USB_DEVICE/Target/usbd_conf.c ****     /* Set Speed. */
 204:../USB_DEVICE/Target/usbd_conf.c ****   USBD_LL_SetSpeed((USBD_HandleTypeDef*)hpcd->pData, speed);
 430              		.loc 1 204 0
 431 0018 7B68     		ldr	r3, [r7, #4]
 432 001a D3F86832 		ldr	r3, [r3, #616]
 433 001e FA7B     		ldrb	r2, [r7, #15]	@ zero_extendqisi2
 434 0020 1146     		mov	r1, r2
 435 0022 1846     		mov	r0, r3
 436 0024 FFF7FEFF 		bl	USBD_LL_SetSpeed
ARM GAS  /tmp/ccvWIHGo.s 			page 12


 205:../USB_DEVICE/Target/usbd_conf.c **** 
 206:../USB_DEVICE/Target/usbd_conf.c ****   /* Reset Device. */
 207:../USB_DEVICE/Target/usbd_conf.c ****   USBD_LL_Reset((USBD_HandleTypeDef*)hpcd->pData);
 437              		.loc 1 207 0
 438 0028 7B68     		ldr	r3, [r7, #4]
 439 002a D3F86832 		ldr	r3, [r3, #616]
 440 002e 1846     		mov	r0, r3
 441 0030 FFF7FEFF 		bl	USBD_LL_Reset
 208:../USB_DEVICE/Target/usbd_conf.c **** }
 442              		.loc 1 208 0
 443 0034 00BF     		nop
 444 0036 1037     		adds	r7, r7, #16
 445              	.LCFI33:
 446              		.cfi_def_cfa_offset 8
 447 0038 BD46     		mov	sp, r7
 448              	.LCFI34:
 449              		.cfi_def_cfa_register 13
 450              		@ sp needed
 451 003a 80BD     		pop	{r7, pc}
 452              		.cfi_endproc
 453              	.LFE137:
 455              		.section	.text.HAL_PCD_SuspendCallback,"ax",%progbits
 456              		.align	1
 457              		.global	HAL_PCD_SuspendCallback
 458              		.syntax unified
 459              		.thumb
 460              		.thumb_func
 461              		.fpu fpv4-sp-d16
 463              	HAL_PCD_SuspendCallback:
 464              	.LFB138:
 209:../USB_DEVICE/Target/usbd_conf.c **** 
 210:../USB_DEVICE/Target/usbd_conf.c **** /**
 211:../USB_DEVICE/Target/usbd_conf.c ****   * @brief  Suspend callback.
 212:../USB_DEVICE/Target/usbd_conf.c ****   * When Low power mode is enabled the debug cannot be used (IAR, Keil doesn't support it)
 213:../USB_DEVICE/Target/usbd_conf.c ****   * @param  hpcd: PCD handle
 214:../USB_DEVICE/Target/usbd_conf.c ****   * @retval None
 215:../USB_DEVICE/Target/usbd_conf.c ****   */
 216:../USB_DEVICE/Target/usbd_conf.c **** #if (USE_HAL_PCD_REGISTER_CALLBACKS == 1U)
 217:../USB_DEVICE/Target/usbd_conf.c **** static void PCD_SuspendCallback(PCD_HandleTypeDef *hpcd)
 218:../USB_DEVICE/Target/usbd_conf.c **** #else
 219:../USB_DEVICE/Target/usbd_conf.c **** void HAL_PCD_SuspendCallback(PCD_HandleTypeDef *hpcd)
 220:../USB_DEVICE/Target/usbd_conf.c **** #endif /* USE_HAL_PCD_REGISTER_CALLBACKS */
 221:../USB_DEVICE/Target/usbd_conf.c **** {
 465              		.loc 1 221 0
 466              		.cfi_startproc
 467              		@ args = 0, pretend = 0, frame = 8
 468              		@ frame_needed = 1, uses_anonymous_args = 0
 469 0000 80B5     		push	{r7, lr}
 470              	.LCFI35:
 471              		.cfi_def_cfa_offset 8
 472              		.cfi_offset 7, -8
 473              		.cfi_offset 14, -4
 474 0002 82B0     		sub	sp, sp, #8
 475              	.LCFI36:
 476              		.cfi_def_cfa_offset 16
 477 0004 00AF     		add	r7, sp, #0
 478              	.LCFI37:
ARM GAS  /tmp/ccvWIHGo.s 			page 13


 479              		.cfi_def_cfa_register 7
 480 0006 7860     		str	r0, [r7, #4]
 222:../USB_DEVICE/Target/usbd_conf.c ****   /* Inform USB library that core enters in suspend Mode. */
 223:../USB_DEVICE/Target/usbd_conf.c ****   USBD_LL_Suspend((USBD_HandleTypeDef*)hpcd->pData);
 481              		.loc 1 223 0
 482 0008 7B68     		ldr	r3, [r7, #4]
 483 000a D3F86832 		ldr	r3, [r3, #616]
 484 000e 1846     		mov	r0, r3
 485 0010 FFF7FEFF 		bl	USBD_LL_Suspend
 224:../USB_DEVICE/Target/usbd_conf.c ****   /* Enter in STOP mode. */
 225:../USB_DEVICE/Target/usbd_conf.c ****   /* USER CODE BEGIN 2 */
 226:../USB_DEVICE/Target/usbd_conf.c ****   if (hpcd->Init.low_power_enable)
 486              		.loc 1 226 0
 487 0014 7B68     		ldr	r3, [r7, #4]
 488 0016 9B69     		ldr	r3, [r3, #24]
 489 0018 002B     		cmp	r3, #0
 490 001a 05D0     		beq	.L19
 227:../USB_DEVICE/Target/usbd_conf.c ****   {
 228:../USB_DEVICE/Target/usbd_conf.c ****     /* Set SLEEPDEEP bit and SleepOnExit of Cortex System Control Register. */
 229:../USB_DEVICE/Target/usbd_conf.c ****     SCB->SCR |= (uint32_t)((uint32_t)(SCB_SCR_SLEEPDEEP_Msk | SCB_SCR_SLEEPONEXIT_Msk));
 491              		.loc 1 229 0
 492 001c 044A     		ldr	r2, .L20
 493 001e 044B     		ldr	r3, .L20
 494 0020 1B69     		ldr	r3, [r3, #16]
 495 0022 43F00603 		orr	r3, r3, #6
 496 0026 1361     		str	r3, [r2, #16]
 497              	.L19:
 230:../USB_DEVICE/Target/usbd_conf.c ****   }
 231:../USB_DEVICE/Target/usbd_conf.c ****   /* USER CODE END 2 */
 232:../USB_DEVICE/Target/usbd_conf.c **** }
 498              		.loc 1 232 0
 499 0028 00BF     		nop
 500 002a 0837     		adds	r7, r7, #8
 501              	.LCFI38:
 502              		.cfi_def_cfa_offset 8
 503 002c BD46     		mov	sp, r7
 504              	.LCFI39:
 505              		.cfi_def_cfa_register 13
 506              		@ sp needed
 507 002e 80BD     		pop	{r7, pc}
 508              	.L21:
 509              		.align	2
 510              	.L20:
 511 0030 00ED00E0 		.word	-536810240
 512              		.cfi_endproc
 513              	.LFE138:
 515              		.section	.text.HAL_PCD_ResumeCallback,"ax",%progbits
 516              		.align	1
 517              		.global	HAL_PCD_ResumeCallback
 518              		.syntax unified
 519              		.thumb
 520              		.thumb_func
 521              		.fpu fpv4-sp-d16
 523              	HAL_PCD_ResumeCallback:
 524              	.LFB139:
 233:../USB_DEVICE/Target/usbd_conf.c **** 
 234:../USB_DEVICE/Target/usbd_conf.c **** /**
ARM GAS  /tmp/ccvWIHGo.s 			page 14


 235:../USB_DEVICE/Target/usbd_conf.c ****   * @brief  Resume callback.
 236:../USB_DEVICE/Target/usbd_conf.c ****   * When Low power mode is enabled the debug cannot be used (IAR, Keil doesn't support it)
 237:../USB_DEVICE/Target/usbd_conf.c ****   * @param  hpcd: PCD handle
 238:../USB_DEVICE/Target/usbd_conf.c ****   * @retval None
 239:../USB_DEVICE/Target/usbd_conf.c ****   */
 240:../USB_DEVICE/Target/usbd_conf.c **** #if (USE_HAL_PCD_REGISTER_CALLBACKS == 1U)
 241:../USB_DEVICE/Target/usbd_conf.c **** static void PCD_ResumeCallback(PCD_HandleTypeDef *hpcd)
 242:../USB_DEVICE/Target/usbd_conf.c **** #else
 243:../USB_DEVICE/Target/usbd_conf.c **** void HAL_PCD_ResumeCallback(PCD_HandleTypeDef *hpcd)
 244:../USB_DEVICE/Target/usbd_conf.c **** #endif /* USE_HAL_PCD_REGISTER_CALLBACKS */
 245:../USB_DEVICE/Target/usbd_conf.c **** {
 525              		.loc 1 245 0
 526              		.cfi_startproc
 527              		@ args = 0, pretend = 0, frame = 8
 528              		@ frame_needed = 1, uses_anonymous_args = 0
 529 0000 80B5     		push	{r7, lr}
 530              	.LCFI40:
 531              		.cfi_def_cfa_offset 8
 532              		.cfi_offset 7, -8
 533              		.cfi_offset 14, -4
 534 0002 82B0     		sub	sp, sp, #8
 535              	.LCFI41:
 536              		.cfi_def_cfa_offset 16
 537 0004 00AF     		add	r7, sp, #0
 538              	.LCFI42:
 539              		.cfi_def_cfa_register 7
 540 0006 7860     		str	r0, [r7, #4]
 246:../USB_DEVICE/Target/usbd_conf.c ****   /* USER CODE BEGIN 3 */
 247:../USB_DEVICE/Target/usbd_conf.c **** 
 248:../USB_DEVICE/Target/usbd_conf.c ****   /* USER CODE END 3 */
 249:../USB_DEVICE/Target/usbd_conf.c ****   USBD_LL_Resume((USBD_HandleTypeDef*)hpcd->pData);
 541              		.loc 1 249 0
 542 0008 7B68     		ldr	r3, [r7, #4]
 543 000a D3F86832 		ldr	r3, [r3, #616]
 544 000e 1846     		mov	r0, r3
 545 0010 FFF7FEFF 		bl	USBD_LL_Resume
 250:../USB_DEVICE/Target/usbd_conf.c **** }
 546              		.loc 1 250 0
 547 0014 00BF     		nop
 548 0016 0837     		adds	r7, r7, #8
 549              	.LCFI43:
 550              		.cfi_def_cfa_offset 8
 551 0018 BD46     		mov	sp, r7
 552              	.LCFI44:
 553              		.cfi_def_cfa_register 13
 554              		@ sp needed
 555 001a 80BD     		pop	{r7, pc}
 556              		.cfi_endproc
 557              	.LFE139:
 559              		.section	.text.HAL_PCD_ISOOUTIncompleteCallback,"ax",%progbits
 560              		.align	1
 561              		.global	HAL_PCD_ISOOUTIncompleteCallback
 562              		.syntax unified
 563              		.thumb
 564              		.thumb_func
 565              		.fpu fpv4-sp-d16
 567              	HAL_PCD_ISOOUTIncompleteCallback:
ARM GAS  /tmp/ccvWIHGo.s 			page 15


 568              	.LFB140:
 251:../USB_DEVICE/Target/usbd_conf.c **** 
 252:../USB_DEVICE/Target/usbd_conf.c **** /**
 253:../USB_DEVICE/Target/usbd_conf.c ****   * @brief  ISOOUTIncomplete callback.
 254:../USB_DEVICE/Target/usbd_conf.c ****   * @param  hpcd: PCD handle
 255:../USB_DEVICE/Target/usbd_conf.c ****   * @param  epnum: Endpoint number
 256:../USB_DEVICE/Target/usbd_conf.c ****   * @retval None
 257:../USB_DEVICE/Target/usbd_conf.c ****   */
 258:../USB_DEVICE/Target/usbd_conf.c **** #if (USE_HAL_PCD_REGISTER_CALLBACKS == 1U)
 259:../USB_DEVICE/Target/usbd_conf.c **** static void PCD_ISOOUTIncompleteCallback(PCD_HandleTypeDef *hpcd, uint8_t epnum)
 260:../USB_DEVICE/Target/usbd_conf.c **** #else
 261:../USB_DEVICE/Target/usbd_conf.c **** void HAL_PCD_ISOOUTIncompleteCallback(PCD_HandleTypeDef *hpcd, uint8_t epnum)
 262:../USB_DEVICE/Target/usbd_conf.c **** #endif /* USE_HAL_PCD_REGISTER_CALLBACKS */
 263:../USB_DEVICE/Target/usbd_conf.c **** {
 569              		.loc 1 263 0
 570              		.cfi_startproc
 571              		@ args = 0, pretend = 0, frame = 8
 572              		@ frame_needed = 1, uses_anonymous_args = 0
 573 0000 80B5     		push	{r7, lr}
 574              	.LCFI45:
 575              		.cfi_def_cfa_offset 8
 576              		.cfi_offset 7, -8
 577              		.cfi_offset 14, -4
 578 0002 82B0     		sub	sp, sp, #8
 579              	.LCFI46:
 580              		.cfi_def_cfa_offset 16
 581 0004 00AF     		add	r7, sp, #0
 582              	.LCFI47:
 583              		.cfi_def_cfa_register 7
 584 0006 7860     		str	r0, [r7, #4]
 585 0008 0B46     		mov	r3, r1
 586 000a FB70     		strb	r3, [r7, #3]
 264:../USB_DEVICE/Target/usbd_conf.c ****   USBD_LL_IsoOUTIncomplete((USBD_HandleTypeDef*)hpcd->pData, epnum);
 587              		.loc 1 264 0
 588 000c 7B68     		ldr	r3, [r7, #4]
 589 000e D3F86832 		ldr	r3, [r3, #616]
 590 0012 FA78     		ldrb	r2, [r7, #3]	@ zero_extendqisi2
 591 0014 1146     		mov	r1, r2
 592 0016 1846     		mov	r0, r3
 593 0018 FFF7FEFF 		bl	USBD_LL_IsoOUTIncomplete
 265:../USB_DEVICE/Target/usbd_conf.c **** }
 594              		.loc 1 265 0
 595 001c 00BF     		nop
 596 001e 0837     		adds	r7, r7, #8
 597              	.LCFI48:
 598              		.cfi_def_cfa_offset 8
 599 0020 BD46     		mov	sp, r7
 600              	.LCFI49:
 601              		.cfi_def_cfa_register 13
 602              		@ sp needed
 603 0022 80BD     		pop	{r7, pc}
 604              		.cfi_endproc
 605              	.LFE140:
 607              		.section	.text.HAL_PCD_ISOINIncompleteCallback,"ax",%progbits
 608              		.align	1
 609              		.global	HAL_PCD_ISOINIncompleteCallback
 610              		.syntax unified
ARM GAS  /tmp/ccvWIHGo.s 			page 16


 611              		.thumb
 612              		.thumb_func
 613              		.fpu fpv4-sp-d16
 615              	HAL_PCD_ISOINIncompleteCallback:
 616              	.LFB141:
 266:../USB_DEVICE/Target/usbd_conf.c **** 
 267:../USB_DEVICE/Target/usbd_conf.c **** /**
 268:../USB_DEVICE/Target/usbd_conf.c ****   * @brief  ISOINIncomplete callback.
 269:../USB_DEVICE/Target/usbd_conf.c ****   * @param  hpcd: PCD handle
 270:../USB_DEVICE/Target/usbd_conf.c ****   * @param  epnum: Endpoint number
 271:../USB_DEVICE/Target/usbd_conf.c ****   * @retval None
 272:../USB_DEVICE/Target/usbd_conf.c ****   */
 273:../USB_DEVICE/Target/usbd_conf.c **** #if (USE_HAL_PCD_REGISTER_CALLBACKS == 1U)
 274:../USB_DEVICE/Target/usbd_conf.c **** static void PCD_ISOINIncompleteCallback(PCD_HandleTypeDef *hpcd, uint8_t epnum)
 275:../USB_DEVICE/Target/usbd_conf.c **** #else
 276:../USB_DEVICE/Target/usbd_conf.c **** void HAL_PCD_ISOINIncompleteCallback(PCD_HandleTypeDef *hpcd, uint8_t epnum)
 277:../USB_DEVICE/Target/usbd_conf.c **** #endif /* USE_HAL_PCD_REGISTER_CALLBACKS */
 278:../USB_DEVICE/Target/usbd_conf.c **** {
 617              		.loc 1 278 0
 618              		.cfi_startproc
 619              		@ args = 0, pretend = 0, frame = 8
 620              		@ frame_needed = 1, uses_anonymous_args = 0
 621 0000 80B5     		push	{r7, lr}
 622              	.LCFI50:
 623              		.cfi_def_cfa_offset 8
 624              		.cfi_offset 7, -8
 625              		.cfi_offset 14, -4
 626 0002 82B0     		sub	sp, sp, #8
 627              	.LCFI51:
 628              		.cfi_def_cfa_offset 16
 629 0004 00AF     		add	r7, sp, #0
 630              	.LCFI52:
 631              		.cfi_def_cfa_register 7
 632 0006 7860     		str	r0, [r7, #4]
 633 0008 0B46     		mov	r3, r1
 634 000a FB70     		strb	r3, [r7, #3]
 279:../USB_DEVICE/Target/usbd_conf.c ****   USBD_LL_IsoINIncomplete((USBD_HandleTypeDef*)hpcd->pData, epnum);
 635              		.loc 1 279 0
 636 000c 7B68     		ldr	r3, [r7, #4]
 637 000e D3F86832 		ldr	r3, [r3, #616]
 638 0012 FA78     		ldrb	r2, [r7, #3]	@ zero_extendqisi2
 639 0014 1146     		mov	r1, r2
 640 0016 1846     		mov	r0, r3
 641 0018 FFF7FEFF 		bl	USBD_LL_IsoINIncomplete
 280:../USB_DEVICE/Target/usbd_conf.c **** }
 642              		.loc 1 280 0
 643 001c 00BF     		nop
 644 001e 0837     		adds	r7, r7, #8
 645              	.LCFI53:
 646              		.cfi_def_cfa_offset 8
 647 0020 BD46     		mov	sp, r7
 648              	.LCFI54:
 649              		.cfi_def_cfa_register 13
 650              		@ sp needed
 651 0022 80BD     		pop	{r7, pc}
 652              		.cfi_endproc
 653              	.LFE141:
ARM GAS  /tmp/ccvWIHGo.s 			page 17


 655              		.section	.text.HAL_PCD_ConnectCallback,"ax",%progbits
 656              		.align	1
 657              		.global	HAL_PCD_ConnectCallback
 658              		.syntax unified
 659              		.thumb
 660              		.thumb_func
 661              		.fpu fpv4-sp-d16
 663              	HAL_PCD_ConnectCallback:
 664              	.LFB142:
 281:../USB_DEVICE/Target/usbd_conf.c **** 
 282:../USB_DEVICE/Target/usbd_conf.c **** /**
 283:../USB_DEVICE/Target/usbd_conf.c ****   * @brief  Connect callback.
 284:../USB_DEVICE/Target/usbd_conf.c ****   * @param  hpcd: PCD handle
 285:../USB_DEVICE/Target/usbd_conf.c ****   * @retval None
 286:../USB_DEVICE/Target/usbd_conf.c ****   */
 287:../USB_DEVICE/Target/usbd_conf.c **** #if (USE_HAL_PCD_REGISTER_CALLBACKS == 1U)
 288:../USB_DEVICE/Target/usbd_conf.c **** static void PCD_ConnectCallback(PCD_HandleTypeDef *hpcd)
 289:../USB_DEVICE/Target/usbd_conf.c **** #else
 290:../USB_DEVICE/Target/usbd_conf.c **** void HAL_PCD_ConnectCallback(PCD_HandleTypeDef *hpcd)
 291:../USB_DEVICE/Target/usbd_conf.c **** #endif /* USE_HAL_PCD_REGISTER_CALLBACKS */
 292:../USB_DEVICE/Target/usbd_conf.c **** {
 665              		.loc 1 292 0
 666              		.cfi_startproc
 667              		@ args = 0, pretend = 0, frame = 8
 668              		@ frame_needed = 1, uses_anonymous_args = 0
 669 0000 80B5     		push	{r7, lr}
 670              	.LCFI55:
 671              		.cfi_def_cfa_offset 8
 672              		.cfi_offset 7, -8
 673              		.cfi_offset 14, -4
 674 0002 82B0     		sub	sp, sp, #8
 675              	.LCFI56:
 676              		.cfi_def_cfa_offset 16
 677 0004 00AF     		add	r7, sp, #0
 678              	.LCFI57:
 679              		.cfi_def_cfa_register 7
 680 0006 7860     		str	r0, [r7, #4]
 293:../USB_DEVICE/Target/usbd_conf.c ****   USBD_LL_DevConnected((USBD_HandleTypeDef*)hpcd->pData);
 681              		.loc 1 293 0
 682 0008 7B68     		ldr	r3, [r7, #4]
 683 000a D3F86832 		ldr	r3, [r3, #616]
 684 000e 1846     		mov	r0, r3
 685 0010 FFF7FEFF 		bl	USBD_LL_DevConnected
 294:../USB_DEVICE/Target/usbd_conf.c **** }
 686              		.loc 1 294 0
 687 0014 00BF     		nop
 688 0016 0837     		adds	r7, r7, #8
 689              	.LCFI58:
 690              		.cfi_def_cfa_offset 8
 691 0018 BD46     		mov	sp, r7
 692              	.LCFI59:
 693              		.cfi_def_cfa_register 13
 694              		@ sp needed
 695 001a 80BD     		pop	{r7, pc}
 696              		.cfi_endproc
 697              	.LFE142:
 699              		.section	.text.HAL_PCD_DisconnectCallback,"ax",%progbits
ARM GAS  /tmp/ccvWIHGo.s 			page 18


 700              		.align	1
 701              		.global	HAL_PCD_DisconnectCallback
 702              		.syntax unified
 703              		.thumb
 704              		.thumb_func
 705              		.fpu fpv4-sp-d16
 707              	HAL_PCD_DisconnectCallback:
 708              	.LFB143:
 295:../USB_DEVICE/Target/usbd_conf.c **** 
 296:../USB_DEVICE/Target/usbd_conf.c **** /**
 297:../USB_DEVICE/Target/usbd_conf.c ****   * @brief  Disconnect callback.
 298:../USB_DEVICE/Target/usbd_conf.c ****   * @param  hpcd: PCD handle
 299:../USB_DEVICE/Target/usbd_conf.c ****   * @retval None
 300:../USB_DEVICE/Target/usbd_conf.c ****   */
 301:../USB_DEVICE/Target/usbd_conf.c **** #if (USE_HAL_PCD_REGISTER_CALLBACKS == 1U)
 302:../USB_DEVICE/Target/usbd_conf.c **** static void PCD_DisconnectCallback(PCD_HandleTypeDef *hpcd)
 303:../USB_DEVICE/Target/usbd_conf.c **** #else
 304:../USB_DEVICE/Target/usbd_conf.c **** void HAL_PCD_DisconnectCallback(PCD_HandleTypeDef *hpcd)
 305:../USB_DEVICE/Target/usbd_conf.c **** #endif /* USE_HAL_PCD_REGISTER_CALLBACKS */
 306:../USB_DEVICE/Target/usbd_conf.c **** {
 709              		.loc 1 306 0
 710              		.cfi_startproc
 711              		@ args = 0, pretend = 0, frame = 8
 712              		@ frame_needed = 1, uses_anonymous_args = 0
 713 0000 80B5     		push	{r7, lr}
 714              	.LCFI60:
 715              		.cfi_def_cfa_offset 8
 716              		.cfi_offset 7, -8
 717              		.cfi_offset 14, -4
 718 0002 82B0     		sub	sp, sp, #8
 719              	.LCFI61:
 720              		.cfi_def_cfa_offset 16
 721 0004 00AF     		add	r7, sp, #0
 722              	.LCFI62:
 723              		.cfi_def_cfa_register 7
 724 0006 7860     		str	r0, [r7, #4]
 307:../USB_DEVICE/Target/usbd_conf.c ****   USBD_LL_DevDisconnected((USBD_HandleTypeDef*)hpcd->pData);
 725              		.loc 1 307 0
 726 0008 7B68     		ldr	r3, [r7, #4]
 727 000a D3F86832 		ldr	r3, [r3, #616]
 728 000e 1846     		mov	r0, r3
 729 0010 FFF7FEFF 		bl	USBD_LL_DevDisconnected
 308:../USB_DEVICE/Target/usbd_conf.c **** }
 730              		.loc 1 308 0
 731 0014 00BF     		nop
 732 0016 0837     		adds	r7, r7, #8
 733              	.LCFI63:
 734              		.cfi_def_cfa_offset 8
 735 0018 BD46     		mov	sp, r7
 736              	.LCFI64:
 737              		.cfi_def_cfa_register 13
 738              		@ sp needed
 739 001a 80BD     		pop	{r7, pc}
 740              		.cfi_endproc
 741              	.LFE143:
 743              		.section	.text.USBD_LL_Init,"ax",%progbits
 744              		.align	1
ARM GAS  /tmp/ccvWIHGo.s 			page 19


 745              		.global	USBD_LL_Init
 746              		.syntax unified
 747              		.thumb
 748              		.thumb_func
 749              		.fpu fpv4-sp-d16
 751              	USBD_LL_Init:
 752              	.LFB144:
 309:../USB_DEVICE/Target/usbd_conf.c **** 
 310:../USB_DEVICE/Target/usbd_conf.c **** /*******************************************************************************
 311:../USB_DEVICE/Target/usbd_conf.c ****                        LL Driver Interface (USB Device Library --> PCD)
 312:../USB_DEVICE/Target/usbd_conf.c **** *******************************************************************************/
 313:../USB_DEVICE/Target/usbd_conf.c **** 
 314:../USB_DEVICE/Target/usbd_conf.c **** /**
 315:../USB_DEVICE/Target/usbd_conf.c ****   * @brief  Initializes the low level portion of the device driver.
 316:../USB_DEVICE/Target/usbd_conf.c ****   * @param  pdev: Device handle
 317:../USB_DEVICE/Target/usbd_conf.c ****   * @retval USBD status
 318:../USB_DEVICE/Target/usbd_conf.c ****   */
 319:../USB_DEVICE/Target/usbd_conf.c **** USBD_StatusTypeDef USBD_LL_Init(USBD_HandleTypeDef *pdev)
 320:../USB_DEVICE/Target/usbd_conf.c **** {
 753              		.loc 1 320 0
 754              		.cfi_startproc
 755              		@ args = 0, pretend = 0, frame = 8
 756              		@ frame_needed = 1, uses_anonymous_args = 0
 757 0000 80B5     		push	{r7, lr}
 758              	.LCFI65:
 759              		.cfi_def_cfa_offset 8
 760              		.cfi_offset 7, -8
 761              		.cfi_offset 14, -4
 762 0002 82B0     		sub	sp, sp, #8
 763              	.LCFI66:
 764              		.cfi_def_cfa_offset 16
 765 0004 00AF     		add	r7, sp, #0
 766              	.LCFI67:
 767              		.cfi_def_cfa_register 7
 768 0006 7860     		str	r0, [r7, #4]
 321:../USB_DEVICE/Target/usbd_conf.c ****   /* Init USB Ip. */
 322:../USB_DEVICE/Target/usbd_conf.c ****   /* Link the driver to the stack. */
 323:../USB_DEVICE/Target/usbd_conf.c ****   hpcd_USB_FS.pData = pdev;
 769              		.loc 1 323 0
 770 0008 284A     		ldr	r2, .L30
 771 000a 7B68     		ldr	r3, [r7, #4]
 772 000c C2F86832 		str	r3, [r2, #616]
 324:../USB_DEVICE/Target/usbd_conf.c ****   pdev->pData = &hpcd_USB_FS;
 773              		.loc 1 324 0
 774 0010 7B68     		ldr	r3, [r7, #4]
 775 0012 264A     		ldr	r2, .L30
 776 0014 C3F8C022 		str	r2, [r3, #704]
 325:../USB_DEVICE/Target/usbd_conf.c **** 
 326:../USB_DEVICE/Target/usbd_conf.c ****   hpcd_USB_FS.Instance = USB;
 777              		.loc 1 326 0
 778 0018 244B     		ldr	r3, .L30
 779 001a 254A     		ldr	r2, .L30+4
 780 001c 1A60     		str	r2, [r3]
 327:../USB_DEVICE/Target/usbd_conf.c ****   hpcd_USB_FS.Init.dev_endpoints = 8;
 781              		.loc 1 327 0
 782 001e 234B     		ldr	r3, .L30
 783 0020 0822     		movs	r2, #8
ARM GAS  /tmp/ccvWIHGo.s 			page 20


 784 0022 5A60     		str	r2, [r3, #4]
 328:../USB_DEVICE/Target/usbd_conf.c ****   hpcd_USB_FS.Init.speed = PCD_SPEED_FULL;
 785              		.loc 1 328 0
 786 0024 214B     		ldr	r3, .L30
 787 0026 0222     		movs	r2, #2
 788 0028 9A60     		str	r2, [r3, #8]
 329:../USB_DEVICE/Target/usbd_conf.c ****   hpcd_USB_FS.Init.phy_itface = PCD_PHY_EMBEDDED;
 789              		.loc 1 329 0
 790 002a 204B     		ldr	r3, .L30
 791 002c 0222     		movs	r2, #2
 792 002e 1A61     		str	r2, [r3, #16]
 330:../USB_DEVICE/Target/usbd_conf.c ****   hpcd_USB_FS.Init.low_power_enable = DISABLE;
 793              		.loc 1 330 0
 794 0030 1E4B     		ldr	r3, .L30
 795 0032 0022     		movs	r2, #0
 796 0034 9A61     		str	r2, [r3, #24]
 331:../USB_DEVICE/Target/usbd_conf.c ****   hpcd_USB_FS.Init.battery_charging_enable = DISABLE;
 797              		.loc 1 331 0
 798 0036 1D4B     		ldr	r3, .L30
 799 0038 0022     		movs	r2, #0
 800 003a 1A62     		str	r2, [r3, #32]
 332:../USB_DEVICE/Target/usbd_conf.c ****   if (HAL_PCD_Init(&hpcd_USB_FS) != HAL_OK)
 801              		.loc 1 332 0
 802 003c 1B48     		ldr	r0, .L30
 803 003e FFF7FEFF 		bl	HAL_PCD_Init
 804 0042 0346     		mov	r3, r0
 805 0044 002B     		cmp	r3, #0
 806 0046 01D0     		beq	.L28
 333:../USB_DEVICE/Target/usbd_conf.c ****   {
 334:../USB_DEVICE/Target/usbd_conf.c ****     Error_Handler( );
 807              		.loc 1 334 0
 808 0048 FFF7FEFF 		bl	Error_Handler
 809              	.L28:
 335:../USB_DEVICE/Target/usbd_conf.c ****   }
 336:../USB_DEVICE/Target/usbd_conf.c **** 
 337:../USB_DEVICE/Target/usbd_conf.c **** #if (USE_HAL_PCD_REGISTER_CALLBACKS == 1U)
 338:../USB_DEVICE/Target/usbd_conf.c ****   /* Register USB PCD CallBacks */
 339:../USB_DEVICE/Target/usbd_conf.c ****   HAL_PCD_RegisterCallback(&hpcd_USB_FS, HAL_PCD_SOF_CB_ID, PCD_SOFCallback);
 340:../USB_DEVICE/Target/usbd_conf.c ****   HAL_PCD_RegisterCallback(&hpcd_USB_FS, HAL_PCD_SETUPSTAGE_CB_ID, PCD_SetupStageCallback);
 341:../USB_DEVICE/Target/usbd_conf.c ****   HAL_PCD_RegisterCallback(&hpcd_USB_FS, HAL_PCD_RESET_CB_ID, PCD_ResetCallback);
 342:../USB_DEVICE/Target/usbd_conf.c ****   HAL_PCD_RegisterCallback(&hpcd_USB_FS, HAL_PCD_SUSPEND_CB_ID, PCD_SuspendCallback);
 343:../USB_DEVICE/Target/usbd_conf.c ****   HAL_PCD_RegisterCallback(&hpcd_USB_FS, HAL_PCD_RESUME_CB_ID, PCD_ResumeCallback);
 344:../USB_DEVICE/Target/usbd_conf.c ****   HAL_PCD_RegisterCallback(&hpcd_USB_FS, HAL_PCD_CONNECT_CB_ID, PCD_ConnectCallback);
 345:../USB_DEVICE/Target/usbd_conf.c ****   HAL_PCD_RegisterCallback(&hpcd_USB_FS, HAL_PCD_DISCONNECT_CB_ID, PCD_DisconnectCallback);
 346:../USB_DEVICE/Target/usbd_conf.c **** 
 347:../USB_DEVICE/Target/usbd_conf.c ****   HAL_PCD_RegisterDataOutStageCallback(&hpcd_USB_FS, PCD_DataOutStageCallback);
 348:../USB_DEVICE/Target/usbd_conf.c ****   HAL_PCD_RegisterDataInStageCallback(&hpcd_USB_FS, PCD_DataInStageCallback);
 349:../USB_DEVICE/Target/usbd_conf.c ****   HAL_PCD_RegisterIsoOutIncpltCallback(&hpcd_USB_FS, PCD_ISOOUTIncompleteCallback);
 350:../USB_DEVICE/Target/usbd_conf.c ****   HAL_PCD_RegisterIsoInIncpltCallback(&hpcd_USB_FS, PCD_ISOINIncompleteCallback);
 351:../USB_DEVICE/Target/usbd_conf.c **** #endif /* USE_HAL_PCD_REGISTER_CALLBACKS */
 352:../USB_DEVICE/Target/usbd_conf.c ****   /* USER CODE BEGIN EndPoint_Configuration */
 353:../USB_DEVICE/Target/usbd_conf.c ****   HAL_PCDEx_PMAConfig((PCD_HandleTypeDef*)pdev->pData , 0x00 , PCD_SNG_BUF, 0x18);
 810              		.loc 1 353 0
 811 004c 7B68     		ldr	r3, [r7, #4]
 812 004e D3F8C002 		ldr	r0, [r3, #704]
 813 0052 1823     		movs	r3, #24
 814 0054 0022     		movs	r2, #0
ARM GAS  /tmp/ccvWIHGo.s 			page 21


 815 0056 0021     		movs	r1, #0
 816 0058 FFF7FEFF 		bl	HAL_PCDEx_PMAConfig
 354:../USB_DEVICE/Target/usbd_conf.c ****   HAL_PCDEx_PMAConfig((PCD_HandleTypeDef*)pdev->pData , 0x80 , PCD_SNG_BUF, 0x58);
 817              		.loc 1 354 0
 818 005c 7B68     		ldr	r3, [r7, #4]
 819 005e D3F8C002 		ldr	r0, [r3, #704]
 820 0062 5823     		movs	r3, #88
 821 0064 0022     		movs	r2, #0
 822 0066 8021     		movs	r1, #128
 823 0068 FFF7FEFF 		bl	HAL_PCDEx_PMAConfig
 355:../USB_DEVICE/Target/usbd_conf.c ****   /* USER CODE END EndPoint_Configuration */
 356:../USB_DEVICE/Target/usbd_conf.c ****   /* USER CODE BEGIN EndPoint_Configuration_CDC */
 357:../USB_DEVICE/Target/usbd_conf.c ****   HAL_PCDEx_PMAConfig((PCD_HandleTypeDef*)pdev->pData , 0x81 , PCD_SNG_BUF, 0xC0);
 824              		.loc 1 357 0
 825 006c 7B68     		ldr	r3, [r7, #4]
 826 006e D3F8C002 		ldr	r0, [r3, #704]
 827 0072 C023     		movs	r3, #192
 828 0074 0022     		movs	r2, #0
 829 0076 8121     		movs	r1, #129
 830 0078 FFF7FEFF 		bl	HAL_PCDEx_PMAConfig
 358:../USB_DEVICE/Target/usbd_conf.c ****   HAL_PCDEx_PMAConfig((PCD_HandleTypeDef*)pdev->pData , 0x01 , PCD_SNG_BUF, 0x110);
 831              		.loc 1 358 0
 832 007c 7B68     		ldr	r3, [r7, #4]
 833 007e D3F8C002 		ldr	r0, [r3, #704]
 834 0082 4FF48873 		mov	r3, #272
 835 0086 0022     		movs	r2, #0
 836 0088 0121     		movs	r1, #1
 837 008a FFF7FEFF 		bl	HAL_PCDEx_PMAConfig
 359:../USB_DEVICE/Target/usbd_conf.c ****   HAL_PCDEx_PMAConfig((PCD_HandleTypeDef*)pdev->pData , 0x82 , PCD_SNG_BUF, 0x100);
 838              		.loc 1 359 0
 839 008e 7B68     		ldr	r3, [r7, #4]
 840 0090 D3F8C002 		ldr	r0, [r3, #704]
 841 0094 4FF48073 		mov	r3, #256
 842 0098 0022     		movs	r2, #0
 843 009a 8221     		movs	r1, #130
 844 009c FFF7FEFF 		bl	HAL_PCDEx_PMAConfig
 360:../USB_DEVICE/Target/usbd_conf.c ****   /* USER CODE END EndPoint_Configuration_CDC */
 361:../USB_DEVICE/Target/usbd_conf.c ****   return USBD_OK;
 845              		.loc 1 361 0
 846 00a0 0023     		movs	r3, #0
 362:../USB_DEVICE/Target/usbd_conf.c **** }
 847              		.loc 1 362 0
 848 00a2 1846     		mov	r0, r3
 849 00a4 0837     		adds	r7, r7, #8
 850              	.LCFI68:
 851              		.cfi_def_cfa_offset 8
 852 00a6 BD46     		mov	sp, r7
 853              	.LCFI69:
 854              		.cfi_def_cfa_register 13
 855              		@ sp needed
 856 00a8 80BD     		pop	{r7, pc}
 857              	.L31:
 858 00aa 00BF     		.align	2
 859              	.L30:
 860 00ac 00000000 		.word	hpcd_USB_FS
 861 00b0 005C0040 		.word	1073765376
 862              		.cfi_endproc
ARM GAS  /tmp/ccvWIHGo.s 			page 22


 863              	.LFE144:
 865              		.section	.text.USBD_LL_DeInit,"ax",%progbits
 866              		.align	1
 867              		.global	USBD_LL_DeInit
 868              		.syntax unified
 869              		.thumb
 870              		.thumb_func
 871              		.fpu fpv4-sp-d16
 873              	USBD_LL_DeInit:
 874              	.LFB145:
 363:../USB_DEVICE/Target/usbd_conf.c **** 
 364:../USB_DEVICE/Target/usbd_conf.c **** /**
 365:../USB_DEVICE/Target/usbd_conf.c ****   * @brief  De-Initializes the low level portion of the device driver.
 366:../USB_DEVICE/Target/usbd_conf.c ****   * @param  pdev: Device handle
 367:../USB_DEVICE/Target/usbd_conf.c ****   * @retval USBD status
 368:../USB_DEVICE/Target/usbd_conf.c ****   */
 369:../USB_DEVICE/Target/usbd_conf.c **** USBD_StatusTypeDef USBD_LL_DeInit(USBD_HandleTypeDef *pdev)
 370:../USB_DEVICE/Target/usbd_conf.c **** {
 875              		.loc 1 370 0
 876              		.cfi_startproc
 877              		@ args = 0, pretend = 0, frame = 16
 878              		@ frame_needed = 1, uses_anonymous_args = 0
 879 0000 80B5     		push	{r7, lr}
 880              	.LCFI70:
 881              		.cfi_def_cfa_offset 8
 882              		.cfi_offset 7, -8
 883              		.cfi_offset 14, -4
 884 0002 84B0     		sub	sp, sp, #16
 885              	.LCFI71:
 886              		.cfi_def_cfa_offset 24
 887 0004 00AF     		add	r7, sp, #0
 888              	.LCFI72:
 889              		.cfi_def_cfa_register 7
 890 0006 7860     		str	r0, [r7, #4]
 371:../USB_DEVICE/Target/usbd_conf.c ****   HAL_StatusTypeDef hal_status = HAL_OK;
 891              		.loc 1 371 0
 892 0008 0023     		movs	r3, #0
 893 000a FB73     		strb	r3, [r7, #15]
 372:../USB_DEVICE/Target/usbd_conf.c ****   USBD_StatusTypeDef usb_status = USBD_OK;
 894              		.loc 1 372 0
 895 000c 0023     		movs	r3, #0
 896 000e BB73     		strb	r3, [r7, #14]
 373:../USB_DEVICE/Target/usbd_conf.c **** 
 374:../USB_DEVICE/Target/usbd_conf.c ****   hal_status = HAL_PCD_DeInit(pdev->pData);
 897              		.loc 1 374 0
 898 0010 7B68     		ldr	r3, [r7, #4]
 899 0012 D3F8C032 		ldr	r3, [r3, #704]
 900 0016 1846     		mov	r0, r3
 901 0018 FFF7FEFF 		bl	HAL_PCD_DeInit
 902 001c 0346     		mov	r3, r0
 903 001e FB73     		strb	r3, [r7, #15]
 375:../USB_DEVICE/Target/usbd_conf.c **** 
 376:../USB_DEVICE/Target/usbd_conf.c ****   usb_status =  USBD_Get_USB_Status(hal_status);
 904              		.loc 1 376 0
 905 0020 FB7B     		ldrb	r3, [r7, #15]	@ zero_extendqisi2
 906 0022 1846     		mov	r0, r3
 907 0024 FFF7FEFF 		bl	USBD_Get_USB_Status
ARM GAS  /tmp/ccvWIHGo.s 			page 23


 908 0028 0346     		mov	r3, r0
 909 002a BB73     		strb	r3, [r7, #14]
 377:../USB_DEVICE/Target/usbd_conf.c ****  
 378:../USB_DEVICE/Target/usbd_conf.c ****   return usb_status; 
 910              		.loc 1 378 0
 911 002c BB7B     		ldrb	r3, [r7, #14]	@ zero_extendqisi2
 379:../USB_DEVICE/Target/usbd_conf.c **** }
 912              		.loc 1 379 0
 913 002e 1846     		mov	r0, r3
 914 0030 1037     		adds	r7, r7, #16
 915              	.LCFI73:
 916              		.cfi_def_cfa_offset 8
 917 0032 BD46     		mov	sp, r7
 918              	.LCFI74:
 919              		.cfi_def_cfa_register 13
 920              		@ sp needed
 921 0034 80BD     		pop	{r7, pc}
 922              		.cfi_endproc
 923              	.LFE145:
 925              		.section	.text.USBD_LL_Start,"ax",%progbits
 926              		.align	1
 927              		.global	USBD_LL_Start
 928              		.syntax unified
 929              		.thumb
 930              		.thumb_func
 931              		.fpu fpv4-sp-d16
 933              	USBD_LL_Start:
 934              	.LFB146:
 380:../USB_DEVICE/Target/usbd_conf.c **** 
 381:../USB_DEVICE/Target/usbd_conf.c **** /**
 382:../USB_DEVICE/Target/usbd_conf.c ****   * @brief  Starts the low level portion of the device driver.
 383:../USB_DEVICE/Target/usbd_conf.c ****   * @param  pdev: Device handle
 384:../USB_DEVICE/Target/usbd_conf.c ****   * @retval USBD status
 385:../USB_DEVICE/Target/usbd_conf.c ****   */
 386:../USB_DEVICE/Target/usbd_conf.c **** USBD_StatusTypeDef USBD_LL_Start(USBD_HandleTypeDef *pdev)
 387:../USB_DEVICE/Target/usbd_conf.c **** {
 935              		.loc 1 387 0
 936              		.cfi_startproc
 937              		@ args = 0, pretend = 0, frame = 16
 938              		@ frame_needed = 1, uses_anonymous_args = 0
 939 0000 80B5     		push	{r7, lr}
 940              	.LCFI75:
 941              		.cfi_def_cfa_offset 8
 942              		.cfi_offset 7, -8
 943              		.cfi_offset 14, -4
 944 0002 84B0     		sub	sp, sp, #16
 945              	.LCFI76:
 946              		.cfi_def_cfa_offset 24
 947 0004 00AF     		add	r7, sp, #0
 948              	.LCFI77:
 949              		.cfi_def_cfa_register 7
 950 0006 7860     		str	r0, [r7, #4]
 388:../USB_DEVICE/Target/usbd_conf.c ****   HAL_StatusTypeDef hal_status = HAL_OK;
 951              		.loc 1 388 0
 952 0008 0023     		movs	r3, #0
 953 000a FB73     		strb	r3, [r7, #15]
 389:../USB_DEVICE/Target/usbd_conf.c ****   USBD_StatusTypeDef usb_status = USBD_OK;
ARM GAS  /tmp/ccvWIHGo.s 			page 24


 954              		.loc 1 389 0
 955 000c 0023     		movs	r3, #0
 956 000e BB73     		strb	r3, [r7, #14]
 390:../USB_DEVICE/Target/usbd_conf.c ****  
 391:../USB_DEVICE/Target/usbd_conf.c ****   hal_status = HAL_PCD_Start(pdev->pData);
 957              		.loc 1 391 0
 958 0010 7B68     		ldr	r3, [r7, #4]
 959 0012 D3F8C032 		ldr	r3, [r3, #704]
 960 0016 1846     		mov	r0, r3
 961 0018 FFF7FEFF 		bl	HAL_PCD_Start
 962 001c 0346     		mov	r3, r0
 963 001e FB73     		strb	r3, [r7, #15]
 392:../USB_DEVICE/Target/usbd_conf.c ****   
 393:../USB_DEVICE/Target/usbd_conf.c ****   usb_status =  USBD_Get_USB_Status(hal_status);  
 964              		.loc 1 393 0
 965 0020 FB7B     		ldrb	r3, [r7, #15]	@ zero_extendqisi2
 966 0022 1846     		mov	r0, r3
 967 0024 FFF7FEFF 		bl	USBD_Get_USB_Status
 968 0028 0346     		mov	r3, r0
 969 002a BB73     		strb	r3, [r7, #14]
 394:../USB_DEVICE/Target/usbd_conf.c ****   
 395:../USB_DEVICE/Target/usbd_conf.c ****   return usb_status;
 970              		.loc 1 395 0
 971 002c BB7B     		ldrb	r3, [r7, #14]	@ zero_extendqisi2
 396:../USB_DEVICE/Target/usbd_conf.c **** }
 972              		.loc 1 396 0
 973 002e 1846     		mov	r0, r3
 974 0030 1037     		adds	r7, r7, #16
 975              	.LCFI78:
 976              		.cfi_def_cfa_offset 8
 977 0032 BD46     		mov	sp, r7
 978              	.LCFI79:
 979              		.cfi_def_cfa_register 13
 980              		@ sp needed
 981 0034 80BD     		pop	{r7, pc}
 982              		.cfi_endproc
 983              	.LFE146:
 985              		.section	.text.USBD_LL_Stop,"ax",%progbits
 986              		.align	1
 987              		.global	USBD_LL_Stop
 988              		.syntax unified
 989              		.thumb
 990              		.thumb_func
 991              		.fpu fpv4-sp-d16
 993              	USBD_LL_Stop:
 994              	.LFB147:
 397:../USB_DEVICE/Target/usbd_conf.c **** 
 398:../USB_DEVICE/Target/usbd_conf.c **** /**
 399:../USB_DEVICE/Target/usbd_conf.c ****   * @brief  Stops the low level portion of the device driver.
 400:../USB_DEVICE/Target/usbd_conf.c ****   * @param  pdev: Device handle
 401:../USB_DEVICE/Target/usbd_conf.c ****   * @retval USBD status
 402:../USB_DEVICE/Target/usbd_conf.c ****   */
 403:../USB_DEVICE/Target/usbd_conf.c **** USBD_StatusTypeDef USBD_LL_Stop(USBD_HandleTypeDef *pdev)
 404:../USB_DEVICE/Target/usbd_conf.c **** {
 995              		.loc 1 404 0
 996              		.cfi_startproc
 997              		@ args = 0, pretend = 0, frame = 16
ARM GAS  /tmp/ccvWIHGo.s 			page 25


 998              		@ frame_needed = 1, uses_anonymous_args = 0
 999 0000 80B5     		push	{r7, lr}
 1000              	.LCFI80:
 1001              		.cfi_def_cfa_offset 8
 1002              		.cfi_offset 7, -8
 1003              		.cfi_offset 14, -4
 1004 0002 84B0     		sub	sp, sp, #16
 1005              	.LCFI81:
 1006              		.cfi_def_cfa_offset 24
 1007 0004 00AF     		add	r7, sp, #0
 1008              	.LCFI82:
 1009              		.cfi_def_cfa_register 7
 1010 0006 7860     		str	r0, [r7, #4]
 405:../USB_DEVICE/Target/usbd_conf.c ****   HAL_StatusTypeDef hal_status = HAL_OK;
 1011              		.loc 1 405 0
 1012 0008 0023     		movs	r3, #0
 1013 000a FB73     		strb	r3, [r7, #15]
 406:../USB_DEVICE/Target/usbd_conf.c ****   USBD_StatusTypeDef usb_status = USBD_OK;
 1014              		.loc 1 406 0
 1015 000c 0023     		movs	r3, #0
 1016 000e BB73     		strb	r3, [r7, #14]
 407:../USB_DEVICE/Target/usbd_conf.c **** 
 408:../USB_DEVICE/Target/usbd_conf.c ****   hal_status = HAL_PCD_Stop(pdev->pData);
 1017              		.loc 1 408 0
 1018 0010 7B68     		ldr	r3, [r7, #4]
 1019 0012 D3F8C032 		ldr	r3, [r3, #704]
 1020 0016 1846     		mov	r0, r3
 1021 0018 FFF7FEFF 		bl	HAL_PCD_Stop
 1022 001c 0346     		mov	r3, r0
 1023 001e FB73     		strb	r3, [r7, #15]
 409:../USB_DEVICE/Target/usbd_conf.c **** 
 410:../USB_DEVICE/Target/usbd_conf.c ****   usb_status =  USBD_Get_USB_Status(hal_status);
 1024              		.loc 1 410 0
 1025 0020 FB7B     		ldrb	r3, [r7, #15]	@ zero_extendqisi2
 1026 0022 1846     		mov	r0, r3
 1027 0024 FFF7FEFF 		bl	USBD_Get_USB_Status
 1028 0028 0346     		mov	r3, r0
 1029 002a BB73     		strb	r3, [r7, #14]
 411:../USB_DEVICE/Target/usbd_conf.c ****   
 412:../USB_DEVICE/Target/usbd_conf.c ****   return usb_status;
 1030              		.loc 1 412 0
 1031 002c BB7B     		ldrb	r3, [r7, #14]	@ zero_extendqisi2
 413:../USB_DEVICE/Target/usbd_conf.c **** }
 1032              		.loc 1 413 0
 1033 002e 1846     		mov	r0, r3
 1034 0030 1037     		adds	r7, r7, #16
 1035              	.LCFI83:
 1036              		.cfi_def_cfa_offset 8
 1037 0032 BD46     		mov	sp, r7
 1038              	.LCFI84:
 1039              		.cfi_def_cfa_register 13
 1040              		@ sp needed
 1041 0034 80BD     		pop	{r7, pc}
 1042              		.cfi_endproc
 1043              	.LFE147:
 1045              		.section	.text.USBD_LL_OpenEP,"ax",%progbits
 1046              		.align	1
ARM GAS  /tmp/ccvWIHGo.s 			page 26


 1047              		.global	USBD_LL_OpenEP
 1048              		.syntax unified
 1049              		.thumb
 1050              		.thumb_func
 1051              		.fpu fpv4-sp-d16
 1053              	USBD_LL_OpenEP:
 1054              	.LFB148:
 414:../USB_DEVICE/Target/usbd_conf.c **** 
 415:../USB_DEVICE/Target/usbd_conf.c **** /**
 416:../USB_DEVICE/Target/usbd_conf.c ****   * @brief  Opens an endpoint of the low level driver.
 417:../USB_DEVICE/Target/usbd_conf.c ****   * @param  pdev: Device handle
 418:../USB_DEVICE/Target/usbd_conf.c ****   * @param  ep_addr: Endpoint number
 419:../USB_DEVICE/Target/usbd_conf.c ****   * @param  ep_type: Endpoint type
 420:../USB_DEVICE/Target/usbd_conf.c ****   * @param  ep_mps: Endpoint max packet size
 421:../USB_DEVICE/Target/usbd_conf.c ****   * @retval USBD status
 422:../USB_DEVICE/Target/usbd_conf.c ****   */
 423:../USB_DEVICE/Target/usbd_conf.c **** USBD_StatusTypeDef USBD_LL_OpenEP(USBD_HandleTypeDef *pdev, uint8_t ep_addr, uint8_t ep_type, uint1
 424:../USB_DEVICE/Target/usbd_conf.c **** {
 1055              		.loc 1 424 0
 1056              		.cfi_startproc
 1057              		@ args = 0, pretend = 0, frame = 16
 1058              		@ frame_needed = 1, uses_anonymous_args = 0
 1059 0000 80B5     		push	{r7, lr}
 1060              	.LCFI85:
 1061              		.cfi_def_cfa_offset 8
 1062              		.cfi_offset 7, -8
 1063              		.cfi_offset 14, -4
 1064 0002 84B0     		sub	sp, sp, #16
 1065              	.LCFI86:
 1066              		.cfi_def_cfa_offset 24
 1067 0004 00AF     		add	r7, sp, #0
 1068              	.LCFI87:
 1069              		.cfi_def_cfa_register 7
 1070 0006 7860     		str	r0, [r7, #4]
 1071 0008 0846     		mov	r0, r1
 1072 000a 1146     		mov	r1, r2
 1073 000c 1A46     		mov	r2, r3
 1074 000e 0346     		mov	r3, r0
 1075 0010 FB70     		strb	r3, [r7, #3]
 1076 0012 0B46     		mov	r3, r1
 1077 0014 BB70     		strb	r3, [r7, #2]
 1078 0016 1346     		mov	r3, r2	@ movhi
 1079 0018 3B80     		strh	r3, [r7]	@ movhi
 425:../USB_DEVICE/Target/usbd_conf.c ****   HAL_StatusTypeDef hal_status = HAL_OK;
 1080              		.loc 1 425 0
 1081 001a 0023     		movs	r3, #0
 1082 001c FB73     		strb	r3, [r7, #15]
 426:../USB_DEVICE/Target/usbd_conf.c ****   USBD_StatusTypeDef usb_status = USBD_OK;
 1083              		.loc 1 426 0
 1084 001e 0023     		movs	r3, #0
 1085 0020 BB73     		strb	r3, [r7, #14]
 427:../USB_DEVICE/Target/usbd_conf.c **** 
 428:../USB_DEVICE/Target/usbd_conf.c ****   hal_status = HAL_PCD_EP_Open(pdev->pData, ep_addr, ep_mps, ep_type);
 1086              		.loc 1 428 0
 1087 0022 7B68     		ldr	r3, [r7, #4]
 1088 0024 D3F8C002 		ldr	r0, [r3, #704]
 1089 0028 BB78     		ldrb	r3, [r7, #2]	@ zero_extendqisi2
ARM GAS  /tmp/ccvWIHGo.s 			page 27


 1090 002a 3A88     		ldrh	r2, [r7]
 1091 002c F978     		ldrb	r1, [r7, #3]	@ zero_extendqisi2
 1092 002e FFF7FEFF 		bl	HAL_PCD_EP_Open
 1093 0032 0346     		mov	r3, r0
 1094 0034 FB73     		strb	r3, [r7, #15]
 429:../USB_DEVICE/Target/usbd_conf.c **** 
 430:../USB_DEVICE/Target/usbd_conf.c ****   usb_status =  USBD_Get_USB_Status(hal_status);
 1095              		.loc 1 430 0
 1096 0036 FB7B     		ldrb	r3, [r7, #15]	@ zero_extendqisi2
 1097 0038 1846     		mov	r0, r3
 1098 003a FFF7FEFF 		bl	USBD_Get_USB_Status
 1099 003e 0346     		mov	r3, r0
 1100 0040 BB73     		strb	r3, [r7, #14]
 431:../USB_DEVICE/Target/usbd_conf.c ****  
 432:../USB_DEVICE/Target/usbd_conf.c ****   return usb_status;
 1101              		.loc 1 432 0
 1102 0042 BB7B     		ldrb	r3, [r7, #14]	@ zero_extendqisi2
 433:../USB_DEVICE/Target/usbd_conf.c **** }
 1103              		.loc 1 433 0
 1104 0044 1846     		mov	r0, r3
 1105 0046 1037     		adds	r7, r7, #16
 1106              	.LCFI88:
 1107              		.cfi_def_cfa_offset 8
 1108 0048 BD46     		mov	sp, r7
 1109              	.LCFI89:
 1110              		.cfi_def_cfa_register 13
 1111              		@ sp needed
 1112 004a 80BD     		pop	{r7, pc}
 1113              		.cfi_endproc
 1114              	.LFE148:
 1116              		.section	.text.USBD_LL_CloseEP,"ax",%progbits
 1117              		.align	1
 1118              		.global	USBD_LL_CloseEP
 1119              		.syntax unified
 1120              		.thumb
 1121              		.thumb_func
 1122              		.fpu fpv4-sp-d16
 1124              	USBD_LL_CloseEP:
 1125              	.LFB149:
 434:../USB_DEVICE/Target/usbd_conf.c **** 
 435:../USB_DEVICE/Target/usbd_conf.c **** /**
 436:../USB_DEVICE/Target/usbd_conf.c ****   * @brief  Closes an endpoint of the low level driver.
 437:../USB_DEVICE/Target/usbd_conf.c ****   * @param  pdev: Device handle
 438:../USB_DEVICE/Target/usbd_conf.c ****   * @param  ep_addr: Endpoint number
 439:../USB_DEVICE/Target/usbd_conf.c ****   * @retval USBD status
 440:../USB_DEVICE/Target/usbd_conf.c ****   */
 441:../USB_DEVICE/Target/usbd_conf.c **** USBD_StatusTypeDef USBD_LL_CloseEP(USBD_HandleTypeDef *pdev, uint8_t ep_addr)
 442:../USB_DEVICE/Target/usbd_conf.c **** {
 1126              		.loc 1 442 0
 1127              		.cfi_startproc
 1128              		@ args = 0, pretend = 0, frame = 16
 1129              		@ frame_needed = 1, uses_anonymous_args = 0
 1130 0000 80B5     		push	{r7, lr}
 1131              	.LCFI90:
 1132              		.cfi_def_cfa_offset 8
 1133              		.cfi_offset 7, -8
 1134              		.cfi_offset 14, -4
ARM GAS  /tmp/ccvWIHGo.s 			page 28


 1135 0002 84B0     		sub	sp, sp, #16
 1136              	.LCFI91:
 1137              		.cfi_def_cfa_offset 24
 1138 0004 00AF     		add	r7, sp, #0
 1139              	.LCFI92:
 1140              		.cfi_def_cfa_register 7
 1141 0006 7860     		str	r0, [r7, #4]
 1142 0008 0B46     		mov	r3, r1
 1143 000a FB70     		strb	r3, [r7, #3]
 443:../USB_DEVICE/Target/usbd_conf.c ****   HAL_StatusTypeDef hal_status = HAL_OK;
 1144              		.loc 1 443 0
 1145 000c 0023     		movs	r3, #0
 1146 000e FB73     		strb	r3, [r7, #15]
 444:../USB_DEVICE/Target/usbd_conf.c ****   USBD_StatusTypeDef usb_status = USBD_OK;
 1147              		.loc 1 444 0
 1148 0010 0023     		movs	r3, #0
 1149 0012 BB73     		strb	r3, [r7, #14]
 445:../USB_DEVICE/Target/usbd_conf.c ****   
 446:../USB_DEVICE/Target/usbd_conf.c ****   hal_status = HAL_PCD_EP_Close(pdev->pData, ep_addr);
 1150              		.loc 1 446 0
 1151 0014 7B68     		ldr	r3, [r7, #4]
 1152 0016 D3F8C032 		ldr	r3, [r3, #704]
 1153 001a FA78     		ldrb	r2, [r7, #3]	@ zero_extendqisi2
 1154 001c 1146     		mov	r1, r2
 1155 001e 1846     		mov	r0, r3
 1156 0020 FFF7FEFF 		bl	HAL_PCD_EP_Close
 1157 0024 0346     		mov	r3, r0
 1158 0026 FB73     		strb	r3, [r7, #15]
 447:../USB_DEVICE/Target/usbd_conf.c ****       
 448:../USB_DEVICE/Target/usbd_conf.c ****   usb_status =  USBD_Get_USB_Status(hal_status);
 1159              		.loc 1 448 0
 1160 0028 FB7B     		ldrb	r3, [r7, #15]	@ zero_extendqisi2
 1161 002a 1846     		mov	r0, r3
 1162 002c FFF7FEFF 		bl	USBD_Get_USB_Status
 1163 0030 0346     		mov	r3, r0
 1164 0032 BB73     		strb	r3, [r7, #14]
 449:../USB_DEVICE/Target/usbd_conf.c **** 
 450:../USB_DEVICE/Target/usbd_conf.c ****   return usb_status;  
 1165              		.loc 1 450 0
 1166 0034 BB7B     		ldrb	r3, [r7, #14]	@ zero_extendqisi2
 451:../USB_DEVICE/Target/usbd_conf.c **** }
 1167              		.loc 1 451 0
 1168 0036 1846     		mov	r0, r3
 1169 0038 1037     		adds	r7, r7, #16
 1170              	.LCFI93:
 1171              		.cfi_def_cfa_offset 8
 1172 003a BD46     		mov	sp, r7
 1173              	.LCFI94:
 1174              		.cfi_def_cfa_register 13
 1175              		@ sp needed
 1176 003c 80BD     		pop	{r7, pc}
 1177              		.cfi_endproc
 1178              	.LFE149:
 1180              		.section	.text.USBD_LL_FlushEP,"ax",%progbits
 1181              		.align	1
 1182              		.global	USBD_LL_FlushEP
 1183              		.syntax unified
ARM GAS  /tmp/ccvWIHGo.s 			page 29


 1184              		.thumb
 1185              		.thumb_func
 1186              		.fpu fpv4-sp-d16
 1188              	USBD_LL_FlushEP:
 1189              	.LFB150:
 452:../USB_DEVICE/Target/usbd_conf.c **** 
 453:../USB_DEVICE/Target/usbd_conf.c **** /**
 454:../USB_DEVICE/Target/usbd_conf.c ****   * @brief  Flushes an endpoint of the Low Level Driver.
 455:../USB_DEVICE/Target/usbd_conf.c ****   * @param  pdev: Device handle
 456:../USB_DEVICE/Target/usbd_conf.c ****   * @param  ep_addr: Endpoint number
 457:../USB_DEVICE/Target/usbd_conf.c ****   * @retval USBD status
 458:../USB_DEVICE/Target/usbd_conf.c ****   */
 459:../USB_DEVICE/Target/usbd_conf.c **** USBD_StatusTypeDef USBD_LL_FlushEP(USBD_HandleTypeDef *pdev, uint8_t ep_addr)
 460:../USB_DEVICE/Target/usbd_conf.c **** {
 1190              		.loc 1 460 0
 1191              		.cfi_startproc
 1192              		@ args = 0, pretend = 0, frame = 16
 1193              		@ frame_needed = 1, uses_anonymous_args = 0
 1194 0000 80B5     		push	{r7, lr}
 1195              	.LCFI95:
 1196              		.cfi_def_cfa_offset 8
 1197              		.cfi_offset 7, -8
 1198              		.cfi_offset 14, -4
 1199 0002 84B0     		sub	sp, sp, #16
 1200              	.LCFI96:
 1201              		.cfi_def_cfa_offset 24
 1202 0004 00AF     		add	r7, sp, #0
 1203              	.LCFI97:
 1204              		.cfi_def_cfa_register 7
 1205 0006 7860     		str	r0, [r7, #4]
 1206 0008 0B46     		mov	r3, r1
 1207 000a FB70     		strb	r3, [r7, #3]
 461:../USB_DEVICE/Target/usbd_conf.c ****   HAL_StatusTypeDef hal_status = HAL_OK;
 1208              		.loc 1 461 0
 1209 000c 0023     		movs	r3, #0
 1210 000e FB73     		strb	r3, [r7, #15]
 462:../USB_DEVICE/Target/usbd_conf.c ****   USBD_StatusTypeDef usb_status = USBD_OK;
 1211              		.loc 1 462 0
 1212 0010 0023     		movs	r3, #0
 1213 0012 BB73     		strb	r3, [r7, #14]
 463:../USB_DEVICE/Target/usbd_conf.c ****   
 464:../USB_DEVICE/Target/usbd_conf.c ****   hal_status = HAL_PCD_EP_Flush(pdev->pData, ep_addr);
 1214              		.loc 1 464 0
 1215 0014 7B68     		ldr	r3, [r7, #4]
 1216 0016 D3F8C032 		ldr	r3, [r3, #704]
 1217 001a FA78     		ldrb	r2, [r7, #3]	@ zero_extendqisi2
 1218 001c 1146     		mov	r1, r2
 1219 001e 1846     		mov	r0, r3
 1220 0020 FFF7FEFF 		bl	HAL_PCD_EP_Flush
 1221 0024 0346     		mov	r3, r0
 1222 0026 FB73     		strb	r3, [r7, #15]
 465:../USB_DEVICE/Target/usbd_conf.c ****       
 466:../USB_DEVICE/Target/usbd_conf.c ****   usb_status =  USBD_Get_USB_Status(hal_status);
 1223              		.loc 1 466 0
 1224 0028 FB7B     		ldrb	r3, [r7, #15]	@ zero_extendqisi2
 1225 002a 1846     		mov	r0, r3
 1226 002c FFF7FEFF 		bl	USBD_Get_USB_Status
ARM GAS  /tmp/ccvWIHGo.s 			page 30


 1227 0030 0346     		mov	r3, r0
 1228 0032 BB73     		strb	r3, [r7, #14]
 467:../USB_DEVICE/Target/usbd_conf.c ****   
 468:../USB_DEVICE/Target/usbd_conf.c ****   return usb_status;  
 1229              		.loc 1 468 0
 1230 0034 BB7B     		ldrb	r3, [r7, #14]	@ zero_extendqisi2
 469:../USB_DEVICE/Target/usbd_conf.c **** }
 1231              		.loc 1 469 0
 1232 0036 1846     		mov	r0, r3
 1233 0038 1037     		adds	r7, r7, #16
 1234              	.LCFI98:
 1235              		.cfi_def_cfa_offset 8
 1236 003a BD46     		mov	sp, r7
 1237              	.LCFI99:
 1238              		.cfi_def_cfa_register 13
 1239              		@ sp needed
 1240 003c 80BD     		pop	{r7, pc}
 1241              		.cfi_endproc
 1242              	.LFE150:
 1244              		.section	.text.USBD_LL_StallEP,"ax",%progbits
 1245              		.align	1
 1246              		.global	USBD_LL_StallEP
 1247              		.syntax unified
 1248              		.thumb
 1249              		.thumb_func
 1250              		.fpu fpv4-sp-d16
 1252              	USBD_LL_StallEP:
 1253              	.LFB151:
 470:../USB_DEVICE/Target/usbd_conf.c **** 
 471:../USB_DEVICE/Target/usbd_conf.c **** /**
 472:../USB_DEVICE/Target/usbd_conf.c ****   * @brief  Sets a Stall condition on an endpoint of the Low Level Driver.
 473:../USB_DEVICE/Target/usbd_conf.c ****   * @param  pdev: Device handle
 474:../USB_DEVICE/Target/usbd_conf.c ****   * @param  ep_addr: Endpoint number
 475:../USB_DEVICE/Target/usbd_conf.c ****   * @retval USBD status
 476:../USB_DEVICE/Target/usbd_conf.c ****   */
 477:../USB_DEVICE/Target/usbd_conf.c **** USBD_StatusTypeDef USBD_LL_StallEP(USBD_HandleTypeDef *pdev, uint8_t ep_addr)
 478:../USB_DEVICE/Target/usbd_conf.c **** {
 1254              		.loc 1 478 0
 1255              		.cfi_startproc
 1256              		@ args = 0, pretend = 0, frame = 16
 1257              		@ frame_needed = 1, uses_anonymous_args = 0
 1258 0000 80B5     		push	{r7, lr}
 1259              	.LCFI100:
 1260              		.cfi_def_cfa_offset 8
 1261              		.cfi_offset 7, -8
 1262              		.cfi_offset 14, -4
 1263 0002 84B0     		sub	sp, sp, #16
 1264              	.LCFI101:
 1265              		.cfi_def_cfa_offset 24
 1266 0004 00AF     		add	r7, sp, #0
 1267              	.LCFI102:
 1268              		.cfi_def_cfa_register 7
 1269 0006 7860     		str	r0, [r7, #4]
 1270 0008 0B46     		mov	r3, r1
 1271 000a FB70     		strb	r3, [r7, #3]
 479:../USB_DEVICE/Target/usbd_conf.c ****   HAL_StatusTypeDef hal_status = HAL_OK;
 1272              		.loc 1 479 0
ARM GAS  /tmp/ccvWIHGo.s 			page 31


 1273 000c 0023     		movs	r3, #0
 1274 000e FB73     		strb	r3, [r7, #15]
 480:../USB_DEVICE/Target/usbd_conf.c ****   USBD_StatusTypeDef usb_status = USBD_OK;
 1275              		.loc 1 480 0
 1276 0010 0023     		movs	r3, #0
 1277 0012 BB73     		strb	r3, [r7, #14]
 481:../USB_DEVICE/Target/usbd_conf.c ****   
 482:../USB_DEVICE/Target/usbd_conf.c ****   hal_status = HAL_PCD_EP_SetStall(pdev->pData, ep_addr);
 1278              		.loc 1 482 0
 1279 0014 7B68     		ldr	r3, [r7, #4]
 1280 0016 D3F8C032 		ldr	r3, [r3, #704]
 1281 001a FA78     		ldrb	r2, [r7, #3]	@ zero_extendqisi2
 1282 001c 1146     		mov	r1, r2
 1283 001e 1846     		mov	r0, r3
 1284 0020 FFF7FEFF 		bl	HAL_PCD_EP_SetStall
 1285 0024 0346     		mov	r3, r0
 1286 0026 FB73     		strb	r3, [r7, #15]
 483:../USB_DEVICE/Target/usbd_conf.c **** 
 484:../USB_DEVICE/Target/usbd_conf.c ****   usb_status =  USBD_Get_USB_Status(hal_status);
 1287              		.loc 1 484 0
 1288 0028 FB7B     		ldrb	r3, [r7, #15]	@ zero_extendqisi2
 1289 002a 1846     		mov	r0, r3
 1290 002c FFF7FEFF 		bl	USBD_Get_USB_Status
 1291 0030 0346     		mov	r3, r0
 1292 0032 BB73     		strb	r3, [r7, #14]
 485:../USB_DEVICE/Target/usbd_conf.c ****  
 486:../USB_DEVICE/Target/usbd_conf.c ****   return usb_status;  
 1293              		.loc 1 486 0
 1294 0034 BB7B     		ldrb	r3, [r7, #14]	@ zero_extendqisi2
 487:../USB_DEVICE/Target/usbd_conf.c **** }
 1295              		.loc 1 487 0
 1296 0036 1846     		mov	r0, r3
 1297 0038 1037     		adds	r7, r7, #16
 1298              	.LCFI103:
 1299              		.cfi_def_cfa_offset 8
 1300 003a BD46     		mov	sp, r7
 1301              	.LCFI104:
 1302              		.cfi_def_cfa_register 13
 1303              		@ sp needed
 1304 003c 80BD     		pop	{r7, pc}
 1305              		.cfi_endproc
 1306              	.LFE151:
 1308              		.section	.text.USBD_LL_ClearStallEP,"ax",%progbits
 1309              		.align	1
 1310              		.global	USBD_LL_ClearStallEP
 1311              		.syntax unified
 1312              		.thumb
 1313              		.thumb_func
 1314              		.fpu fpv4-sp-d16
 1316              	USBD_LL_ClearStallEP:
 1317              	.LFB152:
 488:../USB_DEVICE/Target/usbd_conf.c **** 
 489:../USB_DEVICE/Target/usbd_conf.c **** /**
 490:../USB_DEVICE/Target/usbd_conf.c ****   * @brief  Clears a Stall condition on an endpoint of the Low Level Driver.
 491:../USB_DEVICE/Target/usbd_conf.c ****   * @param  pdev: Device handle
 492:../USB_DEVICE/Target/usbd_conf.c ****   * @param  ep_addr: Endpoint number
 493:../USB_DEVICE/Target/usbd_conf.c ****   * @retval USBD status
ARM GAS  /tmp/ccvWIHGo.s 			page 32


 494:../USB_DEVICE/Target/usbd_conf.c ****   */
 495:../USB_DEVICE/Target/usbd_conf.c **** USBD_StatusTypeDef USBD_LL_ClearStallEP(USBD_HandleTypeDef *pdev, uint8_t ep_addr)
 496:../USB_DEVICE/Target/usbd_conf.c **** {
 1318              		.loc 1 496 0
 1319              		.cfi_startproc
 1320              		@ args = 0, pretend = 0, frame = 16
 1321              		@ frame_needed = 1, uses_anonymous_args = 0
 1322 0000 80B5     		push	{r7, lr}
 1323              	.LCFI105:
 1324              		.cfi_def_cfa_offset 8
 1325              		.cfi_offset 7, -8
 1326              		.cfi_offset 14, -4
 1327 0002 84B0     		sub	sp, sp, #16
 1328              	.LCFI106:
 1329              		.cfi_def_cfa_offset 24
 1330 0004 00AF     		add	r7, sp, #0
 1331              	.LCFI107:
 1332              		.cfi_def_cfa_register 7
 1333 0006 7860     		str	r0, [r7, #4]
 1334 0008 0B46     		mov	r3, r1
 1335 000a FB70     		strb	r3, [r7, #3]
 497:../USB_DEVICE/Target/usbd_conf.c ****   HAL_StatusTypeDef hal_status = HAL_OK;
 1336              		.loc 1 497 0
 1337 000c 0023     		movs	r3, #0
 1338 000e FB73     		strb	r3, [r7, #15]
 498:../USB_DEVICE/Target/usbd_conf.c ****   USBD_StatusTypeDef usb_status = USBD_OK;
 1339              		.loc 1 498 0
 1340 0010 0023     		movs	r3, #0
 1341 0012 BB73     		strb	r3, [r7, #14]
 499:../USB_DEVICE/Target/usbd_conf.c ****   
 500:../USB_DEVICE/Target/usbd_conf.c ****   hal_status = HAL_PCD_EP_ClrStall(pdev->pData, ep_addr);  
 1342              		.loc 1 500 0
 1343 0014 7B68     		ldr	r3, [r7, #4]
 1344 0016 D3F8C032 		ldr	r3, [r3, #704]
 1345 001a FA78     		ldrb	r2, [r7, #3]	@ zero_extendqisi2
 1346 001c 1146     		mov	r1, r2
 1347 001e 1846     		mov	r0, r3
 1348 0020 FFF7FEFF 		bl	HAL_PCD_EP_ClrStall
 1349 0024 0346     		mov	r3, r0
 1350 0026 FB73     		strb	r3, [r7, #15]
 501:../USB_DEVICE/Target/usbd_conf.c ****      
 502:../USB_DEVICE/Target/usbd_conf.c ****   usb_status =  USBD_Get_USB_Status(hal_status);
 1351              		.loc 1 502 0
 1352 0028 FB7B     		ldrb	r3, [r7, #15]	@ zero_extendqisi2
 1353 002a 1846     		mov	r0, r3
 1354 002c FFF7FEFF 		bl	USBD_Get_USB_Status
 1355 0030 0346     		mov	r3, r0
 1356 0032 BB73     		strb	r3, [r7, #14]
 503:../USB_DEVICE/Target/usbd_conf.c **** 
 504:../USB_DEVICE/Target/usbd_conf.c ****   return usb_status; 
 1357              		.loc 1 504 0
 1358 0034 BB7B     		ldrb	r3, [r7, #14]	@ zero_extendqisi2
 505:../USB_DEVICE/Target/usbd_conf.c **** }
 1359              		.loc 1 505 0
 1360 0036 1846     		mov	r0, r3
 1361 0038 1037     		adds	r7, r7, #16
 1362              	.LCFI108:
ARM GAS  /tmp/ccvWIHGo.s 			page 33


 1363              		.cfi_def_cfa_offset 8
 1364 003a BD46     		mov	sp, r7
 1365              	.LCFI109:
 1366              		.cfi_def_cfa_register 13
 1367              		@ sp needed
 1368 003c 80BD     		pop	{r7, pc}
 1369              		.cfi_endproc
 1370              	.LFE152:
 1372              		.section	.text.USBD_LL_IsStallEP,"ax",%progbits
 1373              		.align	1
 1374              		.global	USBD_LL_IsStallEP
 1375              		.syntax unified
 1376              		.thumb
 1377              		.thumb_func
 1378              		.fpu fpv4-sp-d16
 1380              	USBD_LL_IsStallEP:
 1381              	.LFB153:
 506:../USB_DEVICE/Target/usbd_conf.c **** 
 507:../USB_DEVICE/Target/usbd_conf.c **** /**
 508:../USB_DEVICE/Target/usbd_conf.c ****   * @brief  Returns Stall condition.
 509:../USB_DEVICE/Target/usbd_conf.c ****   * @param  pdev: Device handle
 510:../USB_DEVICE/Target/usbd_conf.c ****   * @param  ep_addr: Endpoint number
 511:../USB_DEVICE/Target/usbd_conf.c ****   * @retval Stall (1: Yes, 0: No)
 512:../USB_DEVICE/Target/usbd_conf.c ****   */
 513:../USB_DEVICE/Target/usbd_conf.c **** uint8_t USBD_LL_IsStallEP(USBD_HandleTypeDef *pdev, uint8_t ep_addr)
 514:../USB_DEVICE/Target/usbd_conf.c **** {
 1382              		.loc 1 514 0
 1383              		.cfi_startproc
 1384              		@ args = 0, pretend = 0, frame = 16
 1385              		@ frame_needed = 1, uses_anonymous_args = 0
 1386              		@ link register save eliminated.
 1387 0000 80B4     		push	{r7}
 1388              	.LCFI110:
 1389              		.cfi_def_cfa_offset 4
 1390              		.cfi_offset 7, -4
 1391 0002 85B0     		sub	sp, sp, #20
 1392              	.LCFI111:
 1393              		.cfi_def_cfa_offset 24
 1394 0004 00AF     		add	r7, sp, #0
 1395              	.LCFI112:
 1396              		.cfi_def_cfa_register 7
 1397 0006 7860     		str	r0, [r7, #4]
 1398 0008 0B46     		mov	r3, r1
 1399 000a FB70     		strb	r3, [r7, #3]
 515:../USB_DEVICE/Target/usbd_conf.c ****   PCD_HandleTypeDef *hpcd = (PCD_HandleTypeDef*) pdev->pData;
 1400              		.loc 1 515 0
 1401 000c 7B68     		ldr	r3, [r7, #4]
 1402 000e D3F8C032 		ldr	r3, [r3, #704]
 1403 0012 FB60     		str	r3, [r7, #12]
 516:../USB_DEVICE/Target/usbd_conf.c ****   
 517:../USB_DEVICE/Target/usbd_conf.c ****   if((ep_addr & 0x80) == 0x80)
 1404              		.loc 1 517 0
 1405 0014 97F90330 		ldrsb	r3, [r7, #3]
 1406 0018 002B     		cmp	r3, #0
 1407 001a 08DA     		bge	.L49
 518:../USB_DEVICE/Target/usbd_conf.c ****   {
 519:../USB_DEVICE/Target/usbd_conf.c ****     return hpcd->IN_ep[ep_addr & 0x7F].is_stall; 
ARM GAS  /tmp/ccvWIHGo.s 			page 34


 1408              		.loc 1 519 0
 1409 001c FB78     		ldrb	r3, [r7, #3]	@ zero_extendqisi2
 1410 001e 03F07F03 		and	r3, r3, #127
 1411 0022 FA68     		ldr	r2, [r7, #12]
 1412 0024 5B01     		lsls	r3, r3, #5
 1413 0026 1344     		add	r3, r3, r2
 1414 0028 2A33     		adds	r3, r3, #42
 1415 002a 1B78     		ldrb	r3, [r3]	@ zero_extendqisi2
 1416 002c 08E0     		b	.L50
 1417              	.L49:
 520:../USB_DEVICE/Target/usbd_conf.c ****   }
 521:../USB_DEVICE/Target/usbd_conf.c ****   else
 522:../USB_DEVICE/Target/usbd_conf.c ****   {
 523:../USB_DEVICE/Target/usbd_conf.c ****     return hpcd->OUT_ep[ep_addr & 0x7F].is_stall; 
 1418              		.loc 1 523 0
 1419 002e FB78     		ldrb	r3, [r7, #3]	@ zero_extendqisi2
 1420 0030 03F07F03 		and	r3, r3, #127
 1421 0034 FA68     		ldr	r2, [r7, #12]
 1422 0036 5B01     		lsls	r3, r3, #5
 1423 0038 1344     		add	r3, r3, r2
 1424 003a 03F59573 		add	r3, r3, #298
 1425 003e 1B78     		ldrb	r3, [r3]	@ zero_extendqisi2
 1426              	.L50:
 524:../USB_DEVICE/Target/usbd_conf.c ****   }
 525:../USB_DEVICE/Target/usbd_conf.c **** }
 1427              		.loc 1 525 0
 1428 0040 1846     		mov	r0, r3
 1429 0042 1437     		adds	r7, r7, #20
 1430              	.LCFI113:
 1431              		.cfi_def_cfa_offset 4
 1432 0044 BD46     		mov	sp, r7
 1433              	.LCFI114:
 1434              		.cfi_def_cfa_register 13
 1435              		@ sp needed
 1436 0046 5DF8047B 		ldr	r7, [sp], #4
 1437              	.LCFI115:
 1438              		.cfi_restore 7
 1439              		.cfi_def_cfa_offset 0
 1440 004a 7047     		bx	lr
 1441              		.cfi_endproc
 1442              	.LFE153:
 1444              		.section	.text.USBD_LL_SetUSBAddress,"ax",%progbits
 1445              		.align	1
 1446              		.global	USBD_LL_SetUSBAddress
 1447              		.syntax unified
 1448              		.thumb
 1449              		.thumb_func
 1450              		.fpu fpv4-sp-d16
 1452              	USBD_LL_SetUSBAddress:
 1453              	.LFB154:
 526:../USB_DEVICE/Target/usbd_conf.c **** 
 527:../USB_DEVICE/Target/usbd_conf.c **** /**
 528:../USB_DEVICE/Target/usbd_conf.c ****   * @brief  Assigns a USB address to the device.
 529:../USB_DEVICE/Target/usbd_conf.c ****   * @param  pdev: Device handle
 530:../USB_DEVICE/Target/usbd_conf.c ****   * @param  dev_addr: Device address
 531:../USB_DEVICE/Target/usbd_conf.c ****   * @retval USBD status
 532:../USB_DEVICE/Target/usbd_conf.c ****   */
ARM GAS  /tmp/ccvWIHGo.s 			page 35


 533:../USB_DEVICE/Target/usbd_conf.c **** USBD_StatusTypeDef USBD_LL_SetUSBAddress(USBD_HandleTypeDef *pdev, uint8_t dev_addr)
 534:../USB_DEVICE/Target/usbd_conf.c **** {
 1454              		.loc 1 534 0
 1455              		.cfi_startproc
 1456              		@ args = 0, pretend = 0, frame = 16
 1457              		@ frame_needed = 1, uses_anonymous_args = 0
 1458 0000 80B5     		push	{r7, lr}
 1459              	.LCFI116:
 1460              		.cfi_def_cfa_offset 8
 1461              		.cfi_offset 7, -8
 1462              		.cfi_offset 14, -4
 1463 0002 84B0     		sub	sp, sp, #16
 1464              	.LCFI117:
 1465              		.cfi_def_cfa_offset 24
 1466 0004 00AF     		add	r7, sp, #0
 1467              	.LCFI118:
 1468              		.cfi_def_cfa_register 7
 1469 0006 7860     		str	r0, [r7, #4]
 1470 0008 0B46     		mov	r3, r1
 1471 000a FB70     		strb	r3, [r7, #3]
 535:../USB_DEVICE/Target/usbd_conf.c ****   HAL_StatusTypeDef hal_status = HAL_OK;
 1472              		.loc 1 535 0
 1473 000c 0023     		movs	r3, #0
 1474 000e FB73     		strb	r3, [r7, #15]
 536:../USB_DEVICE/Target/usbd_conf.c ****   USBD_StatusTypeDef usb_status = USBD_OK;
 1475              		.loc 1 536 0
 1476 0010 0023     		movs	r3, #0
 1477 0012 BB73     		strb	r3, [r7, #14]
 537:../USB_DEVICE/Target/usbd_conf.c ****   
 538:../USB_DEVICE/Target/usbd_conf.c ****   hal_status = HAL_PCD_SetAddress(pdev->pData, dev_addr);
 1478              		.loc 1 538 0
 1479 0014 7B68     		ldr	r3, [r7, #4]
 1480 0016 D3F8C032 		ldr	r3, [r3, #704]
 1481 001a FA78     		ldrb	r2, [r7, #3]	@ zero_extendqisi2
 1482 001c 1146     		mov	r1, r2
 1483 001e 1846     		mov	r0, r3
 1484 0020 FFF7FEFF 		bl	HAL_PCD_SetAddress
 1485 0024 0346     		mov	r3, r0
 1486 0026 FB73     		strb	r3, [r7, #15]
 539:../USB_DEVICE/Target/usbd_conf.c ****      
 540:../USB_DEVICE/Target/usbd_conf.c ****   usb_status =  USBD_Get_USB_Status(hal_status);
 1487              		.loc 1 540 0
 1488 0028 FB7B     		ldrb	r3, [r7, #15]	@ zero_extendqisi2
 1489 002a 1846     		mov	r0, r3
 1490 002c FFF7FEFF 		bl	USBD_Get_USB_Status
 1491 0030 0346     		mov	r3, r0
 1492 0032 BB73     		strb	r3, [r7, #14]
 541:../USB_DEVICE/Target/usbd_conf.c ****  
 542:../USB_DEVICE/Target/usbd_conf.c ****   return usb_status;  
 1493              		.loc 1 542 0
 1494 0034 BB7B     		ldrb	r3, [r7, #14]	@ zero_extendqisi2
 543:../USB_DEVICE/Target/usbd_conf.c **** }
 1495              		.loc 1 543 0
 1496 0036 1846     		mov	r0, r3
 1497 0038 1037     		adds	r7, r7, #16
 1498              	.LCFI119:
 1499              		.cfi_def_cfa_offset 8
ARM GAS  /tmp/ccvWIHGo.s 			page 36


 1500 003a BD46     		mov	sp, r7
 1501              	.LCFI120:
 1502              		.cfi_def_cfa_register 13
 1503              		@ sp needed
 1504 003c 80BD     		pop	{r7, pc}
 1505              		.cfi_endproc
 1506              	.LFE154:
 1508              		.section	.text.USBD_LL_Transmit,"ax",%progbits
 1509              		.align	1
 1510              		.global	USBD_LL_Transmit
 1511              		.syntax unified
 1512              		.thumb
 1513              		.thumb_func
 1514              		.fpu fpv4-sp-d16
 1516              	USBD_LL_Transmit:
 1517              	.LFB155:
 544:../USB_DEVICE/Target/usbd_conf.c **** 
 545:../USB_DEVICE/Target/usbd_conf.c **** /**
 546:../USB_DEVICE/Target/usbd_conf.c ****   * @brief  Transmits data over an endpoint.
 547:../USB_DEVICE/Target/usbd_conf.c ****   * @param  pdev: Device handle
 548:../USB_DEVICE/Target/usbd_conf.c ****   * @param  ep_addr: Endpoint number
 549:../USB_DEVICE/Target/usbd_conf.c ****   * @param  pbuf: Pointer to data to be sent
 550:../USB_DEVICE/Target/usbd_conf.c ****   * @param  size: Data size    
 551:../USB_DEVICE/Target/usbd_conf.c ****   * @retval USBD status
 552:../USB_DEVICE/Target/usbd_conf.c ****   */
 553:../USB_DEVICE/Target/usbd_conf.c **** USBD_StatusTypeDef USBD_LL_Transmit(USBD_HandleTypeDef *pdev, uint8_t ep_addr, uint8_t *pbuf, uint1
 554:../USB_DEVICE/Target/usbd_conf.c **** {
 1518              		.loc 1 554 0
 1519              		.cfi_startproc
 1520              		@ args = 0, pretend = 0, frame = 24
 1521              		@ frame_needed = 1, uses_anonymous_args = 0
 1522 0000 80B5     		push	{r7, lr}
 1523              	.LCFI121:
 1524              		.cfi_def_cfa_offset 8
 1525              		.cfi_offset 7, -8
 1526              		.cfi_offset 14, -4
 1527 0002 86B0     		sub	sp, sp, #24
 1528              	.LCFI122:
 1529              		.cfi_def_cfa_offset 32
 1530 0004 00AF     		add	r7, sp, #0
 1531              	.LCFI123:
 1532              		.cfi_def_cfa_register 7
 1533 0006 F860     		str	r0, [r7, #12]
 1534 0008 7A60     		str	r2, [r7, #4]
 1535 000a 1A46     		mov	r2, r3
 1536 000c 0B46     		mov	r3, r1
 1537 000e FB72     		strb	r3, [r7, #11]
 1538 0010 1346     		mov	r3, r2	@ movhi
 1539 0012 3B81     		strh	r3, [r7, #8]	@ movhi
 555:../USB_DEVICE/Target/usbd_conf.c ****   HAL_StatusTypeDef hal_status = HAL_OK;
 1540              		.loc 1 555 0
 1541 0014 0023     		movs	r3, #0
 1542 0016 FB75     		strb	r3, [r7, #23]
 556:../USB_DEVICE/Target/usbd_conf.c ****   USBD_StatusTypeDef usb_status = USBD_OK;
 1543              		.loc 1 556 0
 1544 0018 0023     		movs	r3, #0
 1545 001a BB75     		strb	r3, [r7, #22]
ARM GAS  /tmp/ccvWIHGo.s 			page 37


 557:../USB_DEVICE/Target/usbd_conf.c **** 
 558:../USB_DEVICE/Target/usbd_conf.c ****   hal_status = HAL_PCD_EP_Transmit(pdev->pData, ep_addr, pbuf, size);
 1546              		.loc 1 558 0
 1547 001c FB68     		ldr	r3, [r7, #12]
 1548 001e D3F8C002 		ldr	r0, [r3, #704]
 1549 0022 3B89     		ldrh	r3, [r7, #8]
 1550 0024 F97A     		ldrb	r1, [r7, #11]	@ zero_extendqisi2
 1551 0026 7A68     		ldr	r2, [r7, #4]
 1552 0028 FFF7FEFF 		bl	HAL_PCD_EP_Transmit
 1553 002c 0346     		mov	r3, r0
 1554 002e FB75     		strb	r3, [r7, #23]
 559:../USB_DEVICE/Target/usbd_conf.c ****      
 560:../USB_DEVICE/Target/usbd_conf.c ****   usb_status =  USBD_Get_USB_Status(hal_status);
 1555              		.loc 1 560 0
 1556 0030 FB7D     		ldrb	r3, [r7, #23]	@ zero_extendqisi2
 1557 0032 1846     		mov	r0, r3
 1558 0034 FFF7FEFF 		bl	USBD_Get_USB_Status
 1559 0038 0346     		mov	r3, r0
 1560 003a BB75     		strb	r3, [r7, #22]
 561:../USB_DEVICE/Target/usbd_conf.c ****   
 562:../USB_DEVICE/Target/usbd_conf.c ****   return usb_status;    
 1561              		.loc 1 562 0
 1562 003c BB7D     		ldrb	r3, [r7, #22]	@ zero_extendqisi2
 563:../USB_DEVICE/Target/usbd_conf.c **** }
 1563              		.loc 1 563 0
 1564 003e 1846     		mov	r0, r3
 1565 0040 1837     		adds	r7, r7, #24
 1566              	.LCFI124:
 1567              		.cfi_def_cfa_offset 8
 1568 0042 BD46     		mov	sp, r7
 1569              	.LCFI125:
 1570              		.cfi_def_cfa_register 13
 1571              		@ sp needed
 1572 0044 80BD     		pop	{r7, pc}
 1573              		.cfi_endproc
 1574              	.LFE155:
 1576              		.section	.text.USBD_LL_PrepareReceive,"ax",%progbits
 1577              		.align	1
 1578              		.global	USBD_LL_PrepareReceive
 1579              		.syntax unified
 1580              		.thumb
 1581              		.thumb_func
 1582              		.fpu fpv4-sp-d16
 1584              	USBD_LL_PrepareReceive:
 1585              	.LFB156:
 564:../USB_DEVICE/Target/usbd_conf.c **** 
 565:../USB_DEVICE/Target/usbd_conf.c **** /**
 566:../USB_DEVICE/Target/usbd_conf.c ****   * @brief  Prepares an endpoint for reception.
 567:../USB_DEVICE/Target/usbd_conf.c ****   * @param  pdev: Device handle
 568:../USB_DEVICE/Target/usbd_conf.c ****   * @param  ep_addr: Endpoint number
 569:../USB_DEVICE/Target/usbd_conf.c ****   * @param  pbuf: Pointer to data to be received
 570:../USB_DEVICE/Target/usbd_conf.c ****   * @param  size: Data size
 571:../USB_DEVICE/Target/usbd_conf.c ****   * @retval USBD status
 572:../USB_DEVICE/Target/usbd_conf.c ****   */
 573:../USB_DEVICE/Target/usbd_conf.c **** USBD_StatusTypeDef USBD_LL_PrepareReceive(USBD_HandleTypeDef *pdev, uint8_t ep_addr, uint8_t *pbuf,
 574:../USB_DEVICE/Target/usbd_conf.c **** {
 1586              		.loc 1 574 0
ARM GAS  /tmp/ccvWIHGo.s 			page 38


 1587              		.cfi_startproc
 1588              		@ args = 0, pretend = 0, frame = 24
 1589              		@ frame_needed = 1, uses_anonymous_args = 0
 1590 0000 80B5     		push	{r7, lr}
 1591              	.LCFI126:
 1592              		.cfi_def_cfa_offset 8
 1593              		.cfi_offset 7, -8
 1594              		.cfi_offset 14, -4
 1595 0002 86B0     		sub	sp, sp, #24
 1596              	.LCFI127:
 1597              		.cfi_def_cfa_offset 32
 1598 0004 00AF     		add	r7, sp, #0
 1599              	.LCFI128:
 1600              		.cfi_def_cfa_register 7
 1601 0006 F860     		str	r0, [r7, #12]
 1602 0008 7A60     		str	r2, [r7, #4]
 1603 000a 1A46     		mov	r2, r3
 1604 000c 0B46     		mov	r3, r1
 1605 000e FB72     		strb	r3, [r7, #11]
 1606 0010 1346     		mov	r3, r2	@ movhi
 1607 0012 3B81     		strh	r3, [r7, #8]	@ movhi
 575:../USB_DEVICE/Target/usbd_conf.c ****   HAL_StatusTypeDef hal_status = HAL_OK;
 1608              		.loc 1 575 0
 1609 0014 0023     		movs	r3, #0
 1610 0016 FB75     		strb	r3, [r7, #23]
 576:../USB_DEVICE/Target/usbd_conf.c ****   USBD_StatusTypeDef usb_status = USBD_OK;
 1611              		.loc 1 576 0
 1612 0018 0023     		movs	r3, #0
 1613 001a BB75     		strb	r3, [r7, #22]
 577:../USB_DEVICE/Target/usbd_conf.c **** 
 578:../USB_DEVICE/Target/usbd_conf.c ****   hal_status = HAL_PCD_EP_Receive(pdev->pData, ep_addr, pbuf, size);
 1614              		.loc 1 578 0
 1615 001c FB68     		ldr	r3, [r7, #12]
 1616 001e D3F8C002 		ldr	r0, [r3, #704]
 1617 0022 3B89     		ldrh	r3, [r7, #8]
 1618 0024 F97A     		ldrb	r1, [r7, #11]	@ zero_extendqisi2
 1619 0026 7A68     		ldr	r2, [r7, #4]
 1620 0028 FFF7FEFF 		bl	HAL_PCD_EP_Receive
 1621 002c 0346     		mov	r3, r0
 1622 002e FB75     		strb	r3, [r7, #23]
 579:../USB_DEVICE/Target/usbd_conf.c ****      
 580:../USB_DEVICE/Target/usbd_conf.c ****   usb_status =  USBD_Get_USB_Status(hal_status);
 1623              		.loc 1 580 0
 1624 0030 FB7D     		ldrb	r3, [r7, #23]	@ zero_extendqisi2
 1625 0032 1846     		mov	r0, r3
 1626 0034 FFF7FEFF 		bl	USBD_Get_USB_Status
 1627 0038 0346     		mov	r3, r0
 1628 003a BB75     		strb	r3, [r7, #22]
 581:../USB_DEVICE/Target/usbd_conf.c ****   	
 582:../USB_DEVICE/Target/usbd_conf.c ****   return usb_status; 
 1629              		.loc 1 582 0
 1630 003c BB7D     		ldrb	r3, [r7, #22]	@ zero_extendqisi2
 583:../USB_DEVICE/Target/usbd_conf.c **** }
 1631              		.loc 1 583 0
 1632 003e 1846     		mov	r0, r3
 1633 0040 1837     		adds	r7, r7, #24
 1634              	.LCFI129:
ARM GAS  /tmp/ccvWIHGo.s 			page 39


 1635              		.cfi_def_cfa_offset 8
 1636 0042 BD46     		mov	sp, r7
 1637              	.LCFI130:
 1638              		.cfi_def_cfa_register 13
 1639              		@ sp needed
 1640 0044 80BD     		pop	{r7, pc}
 1641              		.cfi_endproc
 1642              	.LFE156:
 1644              		.section	.text.USBD_LL_GetRxDataSize,"ax",%progbits
 1645              		.align	1
 1646              		.global	USBD_LL_GetRxDataSize
 1647              		.syntax unified
 1648              		.thumb
 1649              		.thumb_func
 1650              		.fpu fpv4-sp-d16
 1652              	USBD_LL_GetRxDataSize:
 1653              	.LFB157:
 584:../USB_DEVICE/Target/usbd_conf.c **** 
 585:../USB_DEVICE/Target/usbd_conf.c **** /**
 586:../USB_DEVICE/Target/usbd_conf.c ****   * @brief  Returns the last transfered packet size.
 587:../USB_DEVICE/Target/usbd_conf.c ****   * @param  pdev: Device handle
 588:../USB_DEVICE/Target/usbd_conf.c ****   * @param  ep_addr: Endpoint number
 589:../USB_DEVICE/Target/usbd_conf.c ****   * @retval Recived Data Size
 590:../USB_DEVICE/Target/usbd_conf.c ****   */
 591:../USB_DEVICE/Target/usbd_conf.c **** uint32_t USBD_LL_GetRxDataSize(USBD_HandleTypeDef *pdev, uint8_t ep_addr)
 592:../USB_DEVICE/Target/usbd_conf.c **** {
 1654              		.loc 1 592 0
 1655              		.cfi_startproc
 1656              		@ args = 0, pretend = 0, frame = 8
 1657              		@ frame_needed = 1, uses_anonymous_args = 0
 1658 0000 80B5     		push	{r7, lr}
 1659              	.LCFI131:
 1660              		.cfi_def_cfa_offset 8
 1661              		.cfi_offset 7, -8
 1662              		.cfi_offset 14, -4
 1663 0002 82B0     		sub	sp, sp, #8
 1664              	.LCFI132:
 1665              		.cfi_def_cfa_offset 16
 1666 0004 00AF     		add	r7, sp, #0
 1667              	.LCFI133:
 1668              		.cfi_def_cfa_register 7
 1669 0006 7860     		str	r0, [r7, #4]
 1670 0008 0B46     		mov	r3, r1
 1671 000a FB70     		strb	r3, [r7, #3]
 593:../USB_DEVICE/Target/usbd_conf.c ****   return HAL_PCD_EP_GetRxCount((PCD_HandleTypeDef*) pdev->pData, ep_addr);
 1672              		.loc 1 593 0
 1673 000c 7B68     		ldr	r3, [r7, #4]
 1674 000e D3F8C032 		ldr	r3, [r3, #704]
 1675 0012 FA78     		ldrb	r2, [r7, #3]	@ zero_extendqisi2
 1676 0014 1146     		mov	r1, r2
 1677 0016 1846     		mov	r0, r3
 1678 0018 FFF7FEFF 		bl	HAL_PCD_EP_GetRxCount
 1679 001c 0346     		mov	r3, r0
 594:../USB_DEVICE/Target/usbd_conf.c **** }
 1680              		.loc 1 594 0
 1681 001e 1846     		mov	r0, r3
 1682 0020 0837     		adds	r7, r7, #8
ARM GAS  /tmp/ccvWIHGo.s 			page 40


 1683              	.LCFI134:
 1684              		.cfi_def_cfa_offset 8
 1685 0022 BD46     		mov	sp, r7
 1686              	.LCFI135:
 1687              		.cfi_def_cfa_register 13
 1688              		@ sp needed
 1689 0024 80BD     		pop	{r7, pc}
 1690              		.cfi_endproc
 1691              	.LFE157:
 1693              		.section	.text.USBD_LL_Delay,"ax",%progbits
 1694              		.align	1
 1695              		.global	USBD_LL_Delay
 1696              		.syntax unified
 1697              		.thumb
 1698              		.thumb_func
 1699              		.fpu fpv4-sp-d16
 1701              	USBD_LL_Delay:
 1702              	.LFB158:
 595:../USB_DEVICE/Target/usbd_conf.c **** 
 596:../USB_DEVICE/Target/usbd_conf.c **** /**
 597:../USB_DEVICE/Target/usbd_conf.c ****   * @brief  Delays routine for the USB device library.
 598:../USB_DEVICE/Target/usbd_conf.c ****   * @param  Delay: Delay in ms
 599:../USB_DEVICE/Target/usbd_conf.c ****   * @retval None
 600:../USB_DEVICE/Target/usbd_conf.c ****   */
 601:../USB_DEVICE/Target/usbd_conf.c **** void USBD_LL_Delay(uint32_t Delay)
 602:../USB_DEVICE/Target/usbd_conf.c **** {
 1703              		.loc 1 602 0
 1704              		.cfi_startproc
 1705              		@ args = 0, pretend = 0, frame = 8
 1706              		@ frame_needed = 1, uses_anonymous_args = 0
 1707 0000 80B5     		push	{r7, lr}
 1708              	.LCFI136:
 1709              		.cfi_def_cfa_offset 8
 1710              		.cfi_offset 7, -8
 1711              		.cfi_offset 14, -4
 1712 0002 82B0     		sub	sp, sp, #8
 1713              	.LCFI137:
 1714              		.cfi_def_cfa_offset 16
 1715 0004 00AF     		add	r7, sp, #0
 1716              	.LCFI138:
 1717              		.cfi_def_cfa_register 7
 1718 0006 7860     		str	r0, [r7, #4]
 603:../USB_DEVICE/Target/usbd_conf.c ****   HAL_Delay(Delay);
 1719              		.loc 1 603 0
 1720 0008 7868     		ldr	r0, [r7, #4]
 1721 000a FFF7FEFF 		bl	HAL_Delay
 604:../USB_DEVICE/Target/usbd_conf.c **** }
 1722              		.loc 1 604 0
 1723 000e 00BF     		nop
 1724 0010 0837     		adds	r7, r7, #8
 1725              	.LCFI139:
 1726              		.cfi_def_cfa_offset 8
 1727 0012 BD46     		mov	sp, r7
 1728              	.LCFI140:
 1729              		.cfi_def_cfa_register 13
 1730              		@ sp needed
 1731 0014 80BD     		pop	{r7, pc}
ARM GAS  /tmp/ccvWIHGo.s 			page 41


 1732              		.cfi_endproc
 1733              	.LFE158:
 1735              		.section	.text.USBD_static_malloc,"ax",%progbits
 1736              		.align	1
 1737              		.global	USBD_static_malloc
 1738              		.syntax unified
 1739              		.thumb
 1740              		.thumb_func
 1741              		.fpu fpv4-sp-d16
 1743              	USBD_static_malloc:
 1744              	.LFB159:
 605:../USB_DEVICE/Target/usbd_conf.c **** 
 606:../USB_DEVICE/Target/usbd_conf.c **** /**
 607:../USB_DEVICE/Target/usbd_conf.c ****   * @brief  Static single allocation.
 608:../USB_DEVICE/Target/usbd_conf.c ****   * @param  size: Size of allocated memory
 609:../USB_DEVICE/Target/usbd_conf.c ****   * @retval None
 610:../USB_DEVICE/Target/usbd_conf.c ****   */
 611:../USB_DEVICE/Target/usbd_conf.c **** void *USBD_static_malloc(uint32_t size)
 612:../USB_DEVICE/Target/usbd_conf.c **** {
 1745              		.loc 1 612 0
 1746              		.cfi_startproc
 1747              		@ args = 0, pretend = 0, frame = 8
 1748              		@ frame_needed = 1, uses_anonymous_args = 0
 1749              		@ link register save eliminated.
 1750 0000 80B4     		push	{r7}
 1751              	.LCFI141:
 1752              		.cfi_def_cfa_offset 4
 1753              		.cfi_offset 7, -4
 1754 0002 83B0     		sub	sp, sp, #12
 1755              	.LCFI142:
 1756              		.cfi_def_cfa_offset 16
 1757 0004 00AF     		add	r7, sp, #0
 1758              	.LCFI143:
 1759              		.cfi_def_cfa_register 7
 1760 0006 7860     		str	r0, [r7, #4]
 613:../USB_DEVICE/Target/usbd_conf.c ****   static uint32_t mem[(sizeof(USBD_CDC_HandleTypeDef)/4)+1];/* On 32-bit boundary */
 614:../USB_DEVICE/Target/usbd_conf.c ****   return mem;
 1761              		.loc 1 614 0
 1762 0008 034B     		ldr	r3, .L62
 615:../USB_DEVICE/Target/usbd_conf.c **** }
 1763              		.loc 1 615 0
 1764 000a 1846     		mov	r0, r3
 1765 000c 0C37     		adds	r7, r7, #12
 1766              	.LCFI144:
 1767              		.cfi_def_cfa_offset 4
 1768 000e BD46     		mov	sp, r7
 1769              	.LCFI145:
 1770              		.cfi_def_cfa_register 13
 1771              		@ sp needed
 1772 0010 5DF8047B 		ldr	r7, [sp], #4
 1773              	.LCFI146:
 1774              		.cfi_restore 7
 1775              		.cfi_def_cfa_offset 0
 1776 0014 7047     		bx	lr
 1777              	.L63:
 1778 0016 00BF     		.align	2
 1779              	.L62:
ARM GAS  /tmp/ccvWIHGo.s 			page 42


 1780 0018 00000000 		.word	mem.10041
 1781              		.cfi_endproc
 1782              	.LFE159:
 1784              		.section	.text.USBD_static_free,"ax",%progbits
 1785              		.align	1
 1786              		.global	USBD_static_free
 1787              		.syntax unified
 1788              		.thumb
 1789              		.thumb_func
 1790              		.fpu fpv4-sp-d16
 1792              	USBD_static_free:
 1793              	.LFB160:
 616:../USB_DEVICE/Target/usbd_conf.c **** 
 617:../USB_DEVICE/Target/usbd_conf.c **** /**
 618:../USB_DEVICE/Target/usbd_conf.c ****   * @brief  Dummy memory free
 619:../USB_DEVICE/Target/usbd_conf.c ****   * @param  p: Pointer to allocated  memory address
 620:../USB_DEVICE/Target/usbd_conf.c ****   * @retval None
 621:../USB_DEVICE/Target/usbd_conf.c ****   */
 622:../USB_DEVICE/Target/usbd_conf.c **** void USBD_static_free(void *p)
 623:../USB_DEVICE/Target/usbd_conf.c **** {
 1794              		.loc 1 623 0
 1795              		.cfi_startproc
 1796              		@ args = 0, pretend = 0, frame = 8
 1797              		@ frame_needed = 1, uses_anonymous_args = 0
 1798              		@ link register save eliminated.
 1799 0000 80B4     		push	{r7}
 1800              	.LCFI147:
 1801              		.cfi_def_cfa_offset 4
 1802              		.cfi_offset 7, -4
 1803 0002 83B0     		sub	sp, sp, #12
 1804              	.LCFI148:
 1805              		.cfi_def_cfa_offset 16
 1806 0004 00AF     		add	r7, sp, #0
 1807              	.LCFI149:
 1808              		.cfi_def_cfa_register 7
 1809 0006 7860     		str	r0, [r7, #4]
 624:../USB_DEVICE/Target/usbd_conf.c **** 
 625:../USB_DEVICE/Target/usbd_conf.c **** }
 1810              		.loc 1 625 0
 1811 0008 00BF     		nop
 1812 000a 0C37     		adds	r7, r7, #12
 1813              	.LCFI150:
 1814              		.cfi_def_cfa_offset 4
 1815 000c BD46     		mov	sp, r7
 1816              	.LCFI151:
 1817              		.cfi_def_cfa_register 13
 1818              		@ sp needed
 1819 000e 5DF8047B 		ldr	r7, [sp], #4
 1820              	.LCFI152:
 1821              		.cfi_restore 7
 1822              		.cfi_def_cfa_offset 0
 1823 0012 7047     		bx	lr
 1824              		.cfi_endproc
 1825              	.LFE160:
 1827              		.section	.text.HAL_PCDEx_SetConnectionState,"ax",%progbits
 1828              		.align	1
 1829              		.global	HAL_PCDEx_SetConnectionState
ARM GAS  /tmp/ccvWIHGo.s 			page 43


 1830              		.syntax unified
 1831              		.thumb
 1832              		.thumb_func
 1833              		.fpu fpv4-sp-d16
 1835              	HAL_PCDEx_SetConnectionState:
 1836              	.LFB161:
 626:../USB_DEVICE/Target/usbd_conf.c **** 
 627:../USB_DEVICE/Target/usbd_conf.c **** /**
 628:../USB_DEVICE/Target/usbd_conf.c ****   * @brief Software device connection
 629:../USB_DEVICE/Target/usbd_conf.c ****   * @param hpcd: PCD handle
 630:../USB_DEVICE/Target/usbd_conf.c ****   * @param state: Connection state (0: disconnected / 1: connected)
 631:../USB_DEVICE/Target/usbd_conf.c ****   * @retval None
 632:../USB_DEVICE/Target/usbd_conf.c ****   */
 633:../USB_DEVICE/Target/usbd_conf.c **** #if (USE_HAL_PCD_REGISTER_CALLBACKS == 1U)
 634:../USB_DEVICE/Target/usbd_conf.c **** void PCDEx_SetConnectionState(PCD_HandleTypeDef *hpcd, uint8_t state)
 635:../USB_DEVICE/Target/usbd_conf.c **** #else
 636:../USB_DEVICE/Target/usbd_conf.c **** void HAL_PCDEx_SetConnectionState(PCD_HandleTypeDef *hpcd, uint8_t state)
 637:../USB_DEVICE/Target/usbd_conf.c **** #endif /* USE_HAL_PCD_REGISTER_CALLBACKS */
 638:../USB_DEVICE/Target/usbd_conf.c **** {
 1837              		.loc 1 638 0
 1838              		.cfi_startproc
 1839              		@ args = 0, pretend = 0, frame = 8
 1840              		@ frame_needed = 1, uses_anonymous_args = 0
 1841              		@ link register save eliminated.
 1842 0000 80B4     		push	{r7}
 1843              	.LCFI153:
 1844              		.cfi_def_cfa_offset 4
 1845              		.cfi_offset 7, -4
 1846 0002 83B0     		sub	sp, sp, #12
 1847              	.LCFI154:
 1848              		.cfi_def_cfa_offset 16
 1849 0004 00AF     		add	r7, sp, #0
 1850              	.LCFI155:
 1851              		.cfi_def_cfa_register 7
 1852 0006 7860     		str	r0, [r7, #4]
 1853 0008 0B46     		mov	r3, r1
 1854 000a FB70     		strb	r3, [r7, #3]
 639:../USB_DEVICE/Target/usbd_conf.c ****   /* USER CODE BEGIN 6 */
 640:../USB_DEVICE/Target/usbd_conf.c ****   if (state == 1)
 641:../USB_DEVICE/Target/usbd_conf.c ****   {
 642:../USB_DEVICE/Target/usbd_conf.c ****     /* Configure Low connection state. */
 643:../USB_DEVICE/Target/usbd_conf.c **** 
 644:../USB_DEVICE/Target/usbd_conf.c ****   }
 645:../USB_DEVICE/Target/usbd_conf.c ****   else
 646:../USB_DEVICE/Target/usbd_conf.c ****   {
 647:../USB_DEVICE/Target/usbd_conf.c ****     /* Configure High connection state. */
 648:../USB_DEVICE/Target/usbd_conf.c **** 
 649:../USB_DEVICE/Target/usbd_conf.c ****   }
 650:../USB_DEVICE/Target/usbd_conf.c ****   /* USER CODE END 6 */
 651:../USB_DEVICE/Target/usbd_conf.c **** }
 1855              		.loc 1 651 0
 1856 000c 00BF     		nop
 1857 000e 0C37     		adds	r7, r7, #12
 1858              	.LCFI156:
 1859              		.cfi_def_cfa_offset 4
 1860 0010 BD46     		mov	sp, r7
 1861              	.LCFI157:
ARM GAS  /tmp/ccvWIHGo.s 			page 44


 1862              		.cfi_def_cfa_register 13
 1863              		@ sp needed
 1864 0012 5DF8047B 		ldr	r7, [sp], #4
 1865              	.LCFI158:
 1866              		.cfi_restore 7
 1867              		.cfi_def_cfa_offset 0
 1868 0016 7047     		bx	lr
 1869              		.cfi_endproc
 1870              	.LFE161:
 1872              		.section	.text.USBD_Get_USB_Status,"ax",%progbits
 1873              		.align	1
 1874              		.syntax unified
 1875              		.thumb
 1876              		.thumb_func
 1877              		.fpu fpv4-sp-d16
 1879              	USBD_Get_USB_Status:
 1880              	.LFB162:
 652:../USB_DEVICE/Target/usbd_conf.c **** 
 653:../USB_DEVICE/Target/usbd_conf.c **** /**
 654:../USB_DEVICE/Target/usbd_conf.c ****   * @brief  Retuns the USB status depending on the HAL status:
 655:../USB_DEVICE/Target/usbd_conf.c ****   * @param  hal_status: HAL status
 656:../USB_DEVICE/Target/usbd_conf.c ****   * @retval USB status
 657:../USB_DEVICE/Target/usbd_conf.c ****   */
 658:../USB_DEVICE/Target/usbd_conf.c **** USBD_StatusTypeDef USBD_Get_USB_Status(HAL_StatusTypeDef hal_status)
 659:../USB_DEVICE/Target/usbd_conf.c **** {
 1881              		.loc 1 659 0
 1882              		.cfi_startproc
 1883              		@ args = 0, pretend = 0, frame = 16
 1884              		@ frame_needed = 1, uses_anonymous_args = 0
 1885              		@ link register save eliminated.
 1886 0000 80B4     		push	{r7}
 1887              	.LCFI159:
 1888              		.cfi_def_cfa_offset 4
 1889              		.cfi_offset 7, -4
 1890 0002 85B0     		sub	sp, sp, #20
 1891              	.LCFI160:
 1892              		.cfi_def_cfa_offset 24
 1893 0004 00AF     		add	r7, sp, #0
 1894              	.LCFI161:
 1895              		.cfi_def_cfa_register 7
 1896 0006 0346     		mov	r3, r0
 1897 0008 FB71     		strb	r3, [r7, #7]
 660:../USB_DEVICE/Target/usbd_conf.c ****   USBD_StatusTypeDef usb_status = USBD_OK;
 1898              		.loc 1 660 0
 1899 000a 0023     		movs	r3, #0
 1900 000c FB73     		strb	r3, [r7, #15]
 661:../USB_DEVICE/Target/usbd_conf.c **** 
 662:../USB_DEVICE/Target/usbd_conf.c ****   switch (hal_status)
 1901              		.loc 1 662 0
 1902 000e FB79     		ldrb	r3, [r7, #7]	@ zero_extendqisi2
 1903 0010 032B     		cmp	r3, #3
 1904 0012 17D8     		bhi	.L67
 1905 0014 01A2     		adr	r2, .L69
 1906 0016 52F823F0 		ldr	pc, [r2, r3, lsl #2]
 1907 001a 00BF     		.p2align 2
 1908              	.L69:
 1909 001c 2D000000 		.word	.L68+1
ARM GAS  /tmp/ccvWIHGo.s 			page 45


 1910 0020 33000000 		.word	.L70+1
 1911 0024 39000000 		.word	.L71+1
 1912 0028 3F000000 		.word	.L72+1
 1913              		.p2align 1
 1914              	.L68:
 663:../USB_DEVICE/Target/usbd_conf.c ****   {
 664:../USB_DEVICE/Target/usbd_conf.c ****     case HAL_OK :
 665:../USB_DEVICE/Target/usbd_conf.c ****       usb_status = USBD_OK;
 1915              		.loc 1 665 0
 1916 002c 0023     		movs	r3, #0
 1917 002e FB73     		strb	r3, [r7, #15]
 666:../USB_DEVICE/Target/usbd_conf.c ****     break;
 1918              		.loc 1 666 0
 1919 0030 0BE0     		b	.L73
 1920              	.L70:
 667:../USB_DEVICE/Target/usbd_conf.c ****     case HAL_ERROR :
 668:../USB_DEVICE/Target/usbd_conf.c ****       usb_status = USBD_FAIL;
 1921              		.loc 1 668 0
 1922 0032 0223     		movs	r3, #2
 1923 0034 FB73     		strb	r3, [r7, #15]
 669:../USB_DEVICE/Target/usbd_conf.c ****     break;
 1924              		.loc 1 669 0
 1925 0036 08E0     		b	.L73
 1926              	.L71:
 670:../USB_DEVICE/Target/usbd_conf.c ****     case HAL_BUSY :
 671:../USB_DEVICE/Target/usbd_conf.c ****       usb_status = USBD_BUSY;
 1927              		.loc 1 671 0
 1928 0038 0123     		movs	r3, #1
 1929 003a FB73     		strb	r3, [r7, #15]
 672:../USB_DEVICE/Target/usbd_conf.c ****     break;
 1930              		.loc 1 672 0
 1931 003c 05E0     		b	.L73
 1932              	.L72:
 673:../USB_DEVICE/Target/usbd_conf.c ****     case HAL_TIMEOUT :
 674:../USB_DEVICE/Target/usbd_conf.c ****       usb_status = USBD_FAIL;
 1933              		.loc 1 674 0
 1934 003e 0223     		movs	r3, #2
 1935 0040 FB73     		strb	r3, [r7, #15]
 675:../USB_DEVICE/Target/usbd_conf.c ****     break;
 1936              		.loc 1 675 0
 1937 0042 02E0     		b	.L73
 1938              	.L67:
 676:../USB_DEVICE/Target/usbd_conf.c ****     default :
 677:../USB_DEVICE/Target/usbd_conf.c ****       usb_status = USBD_FAIL;
 1939              		.loc 1 677 0
 1940 0044 0223     		movs	r3, #2
 1941 0046 FB73     		strb	r3, [r7, #15]
 678:../USB_DEVICE/Target/usbd_conf.c ****     break;
 1942              		.loc 1 678 0
 1943 0048 00BF     		nop
 1944              	.L73:
 679:../USB_DEVICE/Target/usbd_conf.c ****   }
 680:../USB_DEVICE/Target/usbd_conf.c ****   return usb_status;
 1945              		.loc 1 680 0
 1946 004a FB7B     		ldrb	r3, [r7, #15]	@ zero_extendqisi2
 681:../USB_DEVICE/Target/usbd_conf.c **** }
 1947              		.loc 1 681 0
ARM GAS  /tmp/ccvWIHGo.s 			page 46


 1948 004c 1846     		mov	r0, r3
 1949 004e 1437     		adds	r7, r7, #20
 1950              	.LCFI162:
 1951              		.cfi_def_cfa_offset 4
 1952 0050 BD46     		mov	sp, r7
 1953              	.LCFI163:
 1954              		.cfi_def_cfa_register 13
 1955              		@ sp needed
 1956 0052 5DF8047B 		ldr	r7, [sp], #4
 1957              	.LCFI164:
 1958              		.cfi_restore 7
 1959              		.cfi_def_cfa_offset 0
 1960 0056 7047     		bx	lr
 1961              		.cfi_endproc
 1962              	.LFE162:
 1964              		.section	.bss.mem.10041,"aw",%nobits
 1965              		.align	2
 1968              	mem.10041:
 1969 0000 00000000 		.space	544
 1969      00000000 
 1969      00000000 
 1969      00000000 
 1969      00000000 
 1970              		.text
 1971              	.Letext0:
 1972              		.file 2 "/usr/include/newlib/machine/_default_types.h"
 1973              		.file 3 "/usr/include/newlib/sys/_stdint.h"
 1974              		.file 4 "../Drivers/CMSIS/Include/core_cm4.h"
 1975              		.file 5 "../Drivers/CMSIS/Device/ST/STM32F3xx/Include/system_stm32f3xx.h"
 1976              		.file 6 "../Drivers/CMSIS/Device/ST/STM32F3xx/Include/stm32f303xc.h"
 1977              		.file 7 "../Drivers/CMSIS/Device/ST/STM32F3xx/Include/stm32f3xx.h"
 1978              		.file 8 "../Drivers/STM32F3xx_HAL_Driver/Inc/stm32f3xx_hal_def.h"
 1979              		.file 9 "../Drivers/STM32F3xx_HAL_Driver/Inc/stm32f3xx_hal_gpio.h"
 1980              		.file 10 "../Drivers/STM32F3xx_HAL_Driver/Inc/stm32f3xx_ll_usb.h"
 1981              		.file 11 "../Drivers/STM32F3xx_HAL_Driver/Inc/stm32f3xx_hal_pcd.h"
 1982              		.file 12 "../Drivers/STM32F3xx_HAL_Driver/Inc/stm32f3xx_hal.h"
 1983              		.file 13 "/usr/include/newlib/sys/lock.h"
 1984              		.file 14 "/usr/include/newlib/sys/_types.h"
 1985              		.file 15 "/usr/lib/gcc/arm-none-eabi/6.3.1/include/stddef.h"
 1986              		.file 16 "/usr/include/newlib/sys/reent.h"
 1987              		.file 17 "/usr/include/newlib/stdlib.h"
 1988              		.file 18 "../Middlewares/ST/STM32_USB_Device_Library/Core/Inc/usbd_def.h"
 1989              		.file 19 "../Middlewares/ST/STM32_USB_Device_Library/Class/CDC/Inc/usbd_cdc.h"
ARM GAS  /tmp/ccvWIHGo.s 			page 47

