ARM GAS  /var/folders/k7/81v8fz9j4v98_s0dd31l1wsr0000gn/T//ccVTd8mE.s 			page 1


   1              		.cpu cortex-m4
   2              		.eabi_attribute 27, 1
   3              		.eabi_attribute 28, 1
   4              		.eabi_attribute 20, 1
   5              		.eabi_attribute 21, 1
   6              		.eabi_attribute 23, 3
   7              		.eabi_attribute 24, 1
   8              		.eabi_attribute 25, 1
   9              		.eabi_attribute 26, 1
  10              		.eabi_attribute 30, 6
  11              		.eabi_attribute 34, 1
  12              		.eabi_attribute 18, 4
  13              		.file	"dma.c"
  14              		.text
  15              	.Ltext0:
  16              		.cfi_sections	.debug_frame
  17              		.section	.text.MX_DMA_Init,"ax",%progbits
  18              		.align	1
  19              		.global	MX_DMA_Init
  20              		.arch armv7e-m
  21              		.syntax unified
  22              		.thumb
  23              		.thumb_func
  24              		.fpu fpv4-sp-d16
  26              	MX_DMA_Init:
  27              	.LFB292:
  28              		.file 1 "Src/dma.c"
   1:Src/dma.c     **** /* USER CODE BEGIN Header */
   2:Src/dma.c     **** /**
   3:Src/dma.c     ****   ******************************************************************************
   4:Src/dma.c     ****   * @file    dma.c
   5:Src/dma.c     ****   * @brief   This file provides code for the configuration
   6:Src/dma.c     ****   *          of all the requested memory to memory DMA transfers.
   7:Src/dma.c     ****   ******************************************************************************
   8:Src/dma.c     ****   * @attention
   9:Src/dma.c     ****   *
  10:Src/dma.c     ****   * Copyright (c) 2022 STMicroelectronics.
  11:Src/dma.c     ****   * All rights reserved.
  12:Src/dma.c     ****   *
  13:Src/dma.c     ****   * This software is licensed under terms that can be found in the LICENSE file
  14:Src/dma.c     ****   * in the root directory of this software component.
  15:Src/dma.c     ****   * If no LICENSE file comes with this software, it is provided AS-IS.
  16:Src/dma.c     ****   *
  17:Src/dma.c     ****   ******************************************************************************
  18:Src/dma.c     ****   */
  19:Src/dma.c     **** /* USER CODE END Header */
  20:Src/dma.c     **** 
  21:Src/dma.c     **** /* Includes ------------------------------------------------------------------*/
  22:Src/dma.c     **** #include "dma.h"
  23:Src/dma.c     **** 
  24:Src/dma.c     **** /* USER CODE BEGIN 0 */
  25:Src/dma.c     **** 
  26:Src/dma.c     **** /* USER CODE END 0 */
  27:Src/dma.c     **** 
  28:Src/dma.c     **** /*----------------------------------------------------------------------------*/
  29:Src/dma.c     **** /* Configure DMA                                                              */
  30:Src/dma.c     **** /*----------------------------------------------------------------------------*/
ARM GAS  /var/folders/k7/81v8fz9j4v98_s0dd31l1wsr0000gn/T//ccVTd8mE.s 			page 2


  31:Src/dma.c     **** 
  32:Src/dma.c     **** /* USER CODE BEGIN 1 */
  33:Src/dma.c     **** 
  34:Src/dma.c     **** /* USER CODE END 1 */
  35:Src/dma.c     **** 
  36:Src/dma.c     **** /**
  37:Src/dma.c     ****   * Enable DMA controller clock
  38:Src/dma.c     ****   */
  39:Src/dma.c     **** void MX_DMA_Init(void)
  40:Src/dma.c     **** {
  29              		.loc 1 40 1
  30              		.cfi_startproc
  31              		@ args = 0, pretend = 0, frame = 8
  32              		@ frame_needed = 1, uses_anonymous_args = 0
  33 0000 80B5     		push	{r7, lr}
  34              	.LCFI0:
  35              		.cfi_def_cfa_offset 8
  36              		.cfi_offset 7, -8
  37              		.cfi_offset 14, -4
  38 0002 82B0     		sub	sp, sp, #8
  39              	.LCFI1:
  40              		.cfi_def_cfa_offset 16
  41 0004 00AF     		add	r7, sp, #0
  42              	.LCFI2:
  43              		.cfi_def_cfa_register 7
  44              	.LBB2:
  41:Src/dma.c     **** 
  42:Src/dma.c     ****   /* DMA controller clock enable */
  43:Src/dma.c     ****   __HAL_RCC_DMA1_CLK_ENABLE();
  45              		.loc 1 43 3
  46 0006 144B     		ldr	r3, .L2
  47 0008 9B6C     		ldr	r3, [r3, #72]
  48 000a 134A     		ldr	r2, .L2
  49 000c 43F00103 		orr	r3, r3, #1
  50 0010 9364     		str	r3, [r2, #72]
  51 0012 114B     		ldr	r3, .L2
  52 0014 9B6C     		ldr	r3, [r3, #72]
  53 0016 03F00103 		and	r3, r3, #1
  54 001a 7B60     		str	r3, [r7, #4]
  55 001c 7B68     		ldr	r3, [r7, #4]
  56              	.LBE2:
  44:Src/dma.c     **** 
  45:Src/dma.c     ****   /* DMA interrupt init */
  46:Src/dma.c     ****   /* DMA1_Channel3_IRQn interrupt configuration */
  47:Src/dma.c     ****   HAL_NVIC_SetPriority(DMA1_Channel3_IRQn, 0, 0);
  57              		.loc 1 47 3
  58 001e 0022     		movs	r2, #0
  59 0020 0021     		movs	r1, #0
  60 0022 0D20     		movs	r0, #13
  61 0024 FFF7FEFF 		bl	HAL_NVIC_SetPriority
  48:Src/dma.c     ****   HAL_NVIC_EnableIRQ(DMA1_Channel3_IRQn);
  62              		.loc 1 48 3
  63 0028 0D20     		movs	r0, #13
  64 002a FFF7FEFF 		bl	HAL_NVIC_EnableIRQ
  49:Src/dma.c     ****   /* DMA1_Channel6_IRQn interrupt configuration */
  50:Src/dma.c     ****   HAL_NVIC_SetPriority(DMA1_Channel6_IRQn, 0, 0);
  65              		.loc 1 50 3
ARM GAS  /var/folders/k7/81v8fz9j4v98_s0dd31l1wsr0000gn/T//ccVTd8mE.s 			page 3


  66 002e 0022     		movs	r2, #0
  67 0030 0021     		movs	r1, #0
  68 0032 1020     		movs	r0, #16
  69 0034 FFF7FEFF 		bl	HAL_NVIC_SetPriority
  51:Src/dma.c     ****   HAL_NVIC_EnableIRQ(DMA1_Channel6_IRQn);
  70              		.loc 1 51 3
  71 0038 1020     		movs	r0, #16
  72 003a FFF7FEFF 		bl	HAL_NVIC_EnableIRQ
  52:Src/dma.c     ****   /* DMA1_Channel7_IRQn interrupt configuration */
  53:Src/dma.c     ****   HAL_NVIC_SetPriority(DMA1_Channel7_IRQn, 0, 0);
  73              		.loc 1 53 3
  74 003e 0022     		movs	r2, #0
  75 0040 0021     		movs	r1, #0
  76 0042 1120     		movs	r0, #17
  77 0044 FFF7FEFF 		bl	HAL_NVIC_SetPriority
  54:Src/dma.c     ****   HAL_NVIC_EnableIRQ(DMA1_Channel7_IRQn);
  78              		.loc 1 54 3
  79 0048 1120     		movs	r0, #17
  80 004a FFF7FEFF 		bl	HAL_NVIC_EnableIRQ
  55:Src/dma.c     **** 
  56:Src/dma.c     **** }
  81              		.loc 1 56 1
  82 004e 00BF     		nop
  83 0050 0837     		adds	r7, r7, #8
  84              	.LCFI3:
  85              		.cfi_def_cfa_offset 8
  86 0052 BD46     		mov	sp, r7
  87              	.LCFI4:
  88              		.cfi_def_cfa_register 13
  89              		@ sp needed
  90 0054 80BD     		pop	{r7, pc}
  91              	.L3:
  92 0056 00BF     		.align	2
  93              	.L2:
  94 0058 00100240 		.word	1073876992
  95              		.cfi_endproc
  96              	.LFE292:
  98              		.text
  99              	.Letext0:
 100              		.file 2 "/Users/isikcanyilmaz/KODMOD/b607/test/mcu/tools/gcc9.2.1/mac/arm-none-eabi/include/machin
 101              		.file 3 "/Users/isikcanyilmaz/KODMOD/b607/test/mcu/tools/gcc9.2.1/mac/arm-none-eabi/include/sys/_s
 102              		.file 4 "Drivers/CMSIS/Include/core_cm4.h"
 103              		.file 5 "Drivers/CMSIS/Device/ST/STM32L4xx/Include/system_stm32l4xx.h"
 104              		.file 6 "Drivers/CMSIS/Device/ST/STM32L4xx/Include/stm32l452xx.h"
 105              		.file 7 "Drivers/STM32L4xx_HAL_Driver/Inc/stm32l4xx_hal_def.h"
 106              		.file 8 "Drivers/STM32L4xx_HAL_Driver/Inc/stm32l4xx_hal_flash.h"
 107              		.file 9 "Drivers/STM32L4xx_HAL_Driver/Inc/stm32l4xx_hal.h"
ARM GAS  /var/folders/k7/81v8fz9j4v98_s0dd31l1wsr0000gn/T//ccVTd8mE.s 			page 4

