ARM GAS  /var/folders/k7/81v8fz9j4v98_s0dd31l1wsr0000gn/T//cc32Ibjb.s 			page 1


   1              		.cpu cortex-m4
   2              		.eabi_attribute 27, 1
   3              		.eabi_attribute 28, 1
   4              		.eabi_attribute 20, 1
   5              		.eabi_attribute 21, 1
   6              		.eabi_attribute 23, 3
   7              		.eabi_attribute 24, 1
   8              		.eabi_attribute 25, 1
   9              		.eabi_attribute 26, 1
  10              		.eabi_attribute 30, 6
  11              		.eabi_attribute 34, 1
  12              		.eabi_attribute 18, 4
  13              		.file	"events.c"
  14              		.text
  15              	.Ltext0:
  16              		.cfi_sections	.debug_frame
  17              		.comm	eventQueueBuffer,512,4
  18              		.comm	eventQueueHandle,12,4
  19              		.section	.text.Events_Init,"ax",%progbits
  20              		.align	1
  21              		.global	Events_Init
  22              		.arch armv7e-m
  23              		.syntax unified
  24              		.thumb
  25              		.thumb_func
  26              		.fpu fpv4-sp-d16
  28              	Events_Init:
  29              	.LFB292:
  30              		.file 1 "Src/events.c"
   1:Src/events.c  **** #include "main.h"
   2:Src/events.c  **** #include "events.h"
   3:Src/events.c  **** #include "queue.h"
   4:Src/events.c  **** 
   5:Src/events.c  **** /*
   6:Src/events.c  ****  * EVENTS, EVENT QUEUE
   7:Src/events.c  ****  * Basically simply a wrapper around the queue api. main loop processes
   8:Src/events.c  ****  * these events
   9:Src/events.c  ****  */
  10:Src/events.c  **** 
  11:Src/events.c  **** uint32_t eventQueueBuffer[CNFG_EVENTS_QUEUE_SIZE];
  12:Src/events.c  **** Queue_t eventQueueHandle;
  13:Src/events.c  **** 
  14:Src/events.c  **** void Events_Init(void)
  15:Src/events.c  **** {
  31              		.loc 1 15 1
  32              		.cfi_startproc
  33              		@ args = 0, pretend = 0, frame = 16
  34              		@ frame_needed = 1, uses_anonymous_args = 0
  35 0000 90B5     		push	{r4, r7, lr}
  36              	.LCFI0:
  37              		.cfi_def_cfa_offset 12
  38              		.cfi_offset 4, -12
  39              		.cfi_offset 7, -8
  40              		.cfi_offset 14, -4
  41 0002 85B0     		sub	sp, sp, #20
  42              	.LCFI1:
  43              		.cfi_def_cfa_offset 32
ARM GAS  /var/folders/k7/81v8fz9j4v98_s0dd31l1wsr0000gn/T//cc32Ibjb.s 			page 2


  44 0004 00AF     		add	r7, sp, #0
  45              	.LCFI2:
  46              		.cfi_def_cfa_register 7
  16:Src/events.c  ****   eventQueueHandle = Queue_Init(CNFG_EVENTS_QUEUE_SIZE, (uint32_t *) &eventQueueBuffer);
  47              		.loc 1 16 22
  48 0006 084C     		ldr	r4, .L2
  49 0008 3B46     		mov	r3, r7
  50 000a 084A     		ldr	r2, .L2+4
  51 000c 8021     		movs	r1, #128
  52 000e 1846     		mov	r0, r3
  53 0010 FFF7FEFF 		bl	Queue_Init
  54 0014 3B46     		mov	r3, r7
  55 0016 93E80700 		ldm	r3, {r0, r1, r2}
  56 001a 84E80700 		stm	r4, {r0, r1, r2}
  17:Src/events.c  **** }
  57              		.loc 1 17 1
  58 001e 00BF     		nop
  59 0020 1437     		adds	r7, r7, #20
  60              	.LCFI3:
  61              		.cfi_def_cfa_offset 12
  62 0022 BD46     		mov	sp, r7
  63              	.LCFI4:
  64              		.cfi_def_cfa_register 13
  65              		@ sp needed
  66 0024 90BD     		pop	{r4, r7, pc}
  67              	.L3:
  68 0026 00BF     		.align	2
  69              	.L2:
  70 0028 00000000 		.word	eventQueueHandle
  71 002c 00000000 		.word	eventQueueBuffer
  72              		.cfi_endproc
  73              	.LFE292:
  75              		.section	.text.Events_Enqueue,"ax",%progbits
  76              		.align	1
  77              		.global	Events_Enqueue
  78              		.syntax unified
  79              		.thumb
  80              		.thumb_func
  81              		.fpu fpv4-sp-d16
  83              	Events_Enqueue:
  84              	.LFB293:
  18:Src/events.c  **** 
  19:Src/events.c  **** void Events_Enqueue(Event_t e)
  20:Src/events.c  **** {
  85              		.loc 1 20 1
  86              		.cfi_startproc
  87              		@ args = 0, pretend = 0, frame = 8
  88              		@ frame_needed = 1, uses_anonymous_args = 0
  89 0000 80B5     		push	{r7, lr}
  90              	.LCFI5:
  91              		.cfi_def_cfa_offset 8
  92              		.cfi_offset 7, -8
  93              		.cfi_offset 14, -4
  94 0002 82B0     		sub	sp, sp, #8
  95              	.LCFI6:
  96              		.cfi_def_cfa_offset 16
  97 0004 00AF     		add	r7, sp, #0
ARM GAS  /var/folders/k7/81v8fz9j4v98_s0dd31l1wsr0000gn/T//cc32Ibjb.s 			page 3


  98              	.LCFI7:
  99              		.cfi_def_cfa_register 7
 100 0006 7860     		str	r0, [r7, #4]
  21:Src/events.c  ****   Queue_Enqueue(&eventQueueHandle, * (uint32_t *) &e);
 101              		.loc 1 21 51
 102 0008 3B1D     		adds	r3, r7, #4
 103              		.loc 1 21 3
 104 000a 1B68     		ldr	r3, [r3]
 105 000c 1946     		mov	r1, r3
 106 000e 0348     		ldr	r0, .L5
 107 0010 FFF7FEFF 		bl	Queue_Enqueue
  22:Src/events.c  **** }
 108              		.loc 1 22 1
 109 0014 00BF     		nop
 110 0016 0837     		adds	r7, r7, #8
 111              	.LCFI8:
 112              		.cfi_def_cfa_offset 8
 113 0018 BD46     		mov	sp, r7
 114              	.LCFI9:
 115              		.cfi_def_cfa_register 13
 116              		@ sp needed
 117 001a 80BD     		pop	{r7, pc}
 118              	.L6:
 119              		.align	2
 120              	.L5:
 121 001c 00000000 		.word	eventQueueHandle
 122              		.cfi_endproc
 123              	.LFE293:
 125              		.section	.text.Events_Dequeue,"ax",%progbits
 126              		.align	1
 127              		.global	Events_Dequeue
 128              		.syntax unified
 129              		.thumb
 130              		.thumb_func
 131              		.fpu fpv4-sp-d16
 133              	Events_Dequeue:
 134              	.LFB294:
  23:Src/events.c  **** 
  24:Src/events.c  **** Event_t Events_Dequeue(void)
  25:Src/events.c  **** {
 135              		.loc 1 25 1
 136              		.cfi_startproc
 137              		@ args = 0, pretend = 0, frame = 8
 138              		@ frame_needed = 1, uses_anonymous_args = 0
 139 0000 80B5     		push	{r7, lr}
 140              	.LCFI10:
 141              		.cfi_def_cfa_offset 8
 142              		.cfi_offset 7, -8
 143              		.cfi_offset 14, -4
 144 0002 82B0     		sub	sp, sp, #8
 145              	.LCFI11:
 146              		.cfi_def_cfa_offset 16
 147 0004 00AF     		add	r7, sp, #0
 148              	.LCFI12:
 149              		.cfi_def_cfa_register 7
  26:Src/events.c  ****   Event_t e;
  27:Src/events.c  ****   Queue_Dequeue(&eventQueueHandle, (uint32_t *) &e);
ARM GAS  /var/folders/k7/81v8fz9j4v98_s0dd31l1wsr0000gn/T//cc32Ibjb.s 			page 4


 150              		.loc 1 27 3
 151 0006 3B46     		mov	r3, r7
 152 0008 1946     		mov	r1, r3
 153 000a 0B48     		ldr	r0, .L9
 154 000c FFF7FEFF 		bl	Queue_Dequeue
  28:Src/events.c  ****   return e;
 155              		.loc 1 28 10
 156 0010 3B68     		ldr	r3, [r7]
 157 0012 7B60     		str	r3, [r7, #4]
 158 0014 0023     		movs	r3, #0
 159 0016 3A79     		ldrb	r2, [r7, #4]	@ zero_extendqisi2
 160 0018 62F30703 		bfi	r3, r2, #0, #8
 161 001c 7A79     		ldrb	r2, [r7, #5]	@ zero_extendqisi2
 162 001e 62F30F23 		bfi	r3, r2, #8, #8
 163 0022 BA79     		ldrb	r2, [r7, #6]	@ zero_extendqisi2
 164 0024 62F31743 		bfi	r3, r2, #16, #8
 165 0028 FA79     		ldrb	r2, [r7, #7]	@ zero_extendqisi2
 166 002a 62F31F63 		bfi	r3, r2, #24, #8
  29:Src/events.c  **** }
 167              		.loc 1 29 1
 168 002e 1846     		mov	r0, r3
 169 0030 0837     		adds	r7, r7, #8
 170              	.LCFI13:
 171              		.cfi_def_cfa_offset 8
 172 0032 BD46     		mov	sp, r7
 173              	.LCFI14:
 174              		.cfi_def_cfa_register 13
 175              		@ sp needed
 176 0034 80BD     		pop	{r7, pc}
 177              	.L10:
 178 0036 00BF     		.align	2
 179              	.L9:
 180 0038 00000000 		.word	eventQueueHandle
 181              		.cfi_endproc
 182              	.LFE294:
 184              		.text
 185              	.Letext0:
 186              		.file 2 "/Users/isikcanyilmaz/KODMOD/b607/test/mcu/tools/gcc9.2.1/mac/arm-none-eabi/include/machin
 187              		.file 3 "/Users/isikcanyilmaz/KODMOD/b607/test/mcu/tools/gcc9.2.1/mac/arm-none-eabi/include/sys/_s
 188              		.file 4 "Drivers/CMSIS/Include/core_cm4.h"
 189              		.file 5 "Drivers/CMSIS/Device/ST/STM32L4xx/Include/system_stm32l4xx.h"
 190              		.file 6 "Drivers/STM32L4xx_HAL_Driver/Inc/stm32l4xx_hal_def.h"
 191              		.file 7 "Drivers/STM32L4xx_HAL_Driver/Inc/stm32l4xx_hal_flash.h"
 192              		.file 8 "Drivers/STM32L4xx_HAL_Driver/Inc/stm32l4xx_hal.h"
 193              		.file 9 "Inc/events.h"
 194              		.file 10 "/Users/isikcanyilmaz/KODMOD/b607/test/mcu/tools/gcc9.2.1/mac/arm-none-eabi/include/sys/l
 195              		.file 11 "/Users/isikcanyilmaz/KODMOD/b607/test/mcu/tools/gcc9.2.1/mac/arm-none-eabi/include/sys/_
 196              		.file 12 "/Users/isikcanyilmaz/KODMOD/b607/test/mcu/tools/gcc9.2.1/mac/lib/gcc/arm-none-eabi/9.2.1
 197              		.file 13 "/Users/isikcanyilmaz/KODMOD/b607/test/mcu/tools/gcc9.2.1/mac/arm-none-eabi/include/sys/r
 198              		.file 14 "Inc/queue.h"
ARM GAS  /var/folders/k7/81v8fz9j4v98_s0dd31l1wsr0000gn/T//cc32Ibjb.s 			page 5

