ARM GAS  /var/folders/k7/81v8fz9j4v98_s0dd31l1wsr0000gn/T//ccpVz2vH.s 			page 1


   1              		.cpu cortex-m4
   2              		.eabi_attribute 27, 1
   3              		.eabi_attribute 28, 1
   4              		.eabi_attribute 20, 1
   5              		.eabi_attribute 21, 1
   6              		.eabi_attribute 23, 3
   7              		.eabi_attribute 24, 1
   8              		.eabi_attribute 25, 1
   9              		.eabi_attribute 26, 1
  10              		.eabi_attribute 30, 6
  11              		.eabi_attribute 34, 1
  12              		.eabi_attribute 18, 4
  13              		.file	"stm32l4xx_hal_uart.c"
  14              		.text
  15              	.Ltext0:
  16              		.cfi_sections	.debug_frame
  17              		.section	.text.HAL_UART_Init,"ax",%progbits
  18              		.align	1
  19              		.global	HAL_UART_Init
  20              		.arch armv7e-m
  21              		.syntax unified
  22              		.thumb
  23              		.thumb_func
  24              		.fpu fpv4-sp-d16
  26              	HAL_UART_Init:
  27              	.LFB292:
  28              		.file 1 "Drivers/STM32L4xx_HAL_Driver/Src/stm32l4xx_hal_uart.c"
   1:Drivers/STM32L4xx_HAL_Driver/Src/stm32l4xx_hal_uart.c **** /**
   2:Drivers/STM32L4xx_HAL_Driver/Src/stm32l4xx_hal_uart.c ****   ******************************************************************************
   3:Drivers/STM32L4xx_HAL_Driver/Src/stm32l4xx_hal_uart.c ****   * @file    stm32l4xx_hal_uart.c
   4:Drivers/STM32L4xx_HAL_Driver/Src/stm32l4xx_hal_uart.c ****   * @author  MCD Application Team
   5:Drivers/STM32L4xx_HAL_Driver/Src/stm32l4xx_hal_uart.c ****   * @brief   UART HAL module driver.
   6:Drivers/STM32L4xx_HAL_Driver/Src/stm32l4xx_hal_uart.c ****   *          This file provides firmware functions to manage the following
   7:Drivers/STM32L4xx_HAL_Driver/Src/stm32l4xx_hal_uart.c ****   *          functionalities of the Universal Asynchronous Receiver Transmitter Peripheral (UART).
   8:Drivers/STM32L4xx_HAL_Driver/Src/stm32l4xx_hal_uart.c ****   *           + Initialization and de-initialization functions
   9:Drivers/STM32L4xx_HAL_Driver/Src/stm32l4xx_hal_uart.c ****   *           + IO operation functions
  10:Drivers/STM32L4xx_HAL_Driver/Src/stm32l4xx_hal_uart.c ****   *           + Peripheral Control functions
  11:Drivers/STM32L4xx_HAL_Driver/Src/stm32l4xx_hal_uart.c ****   *
  12:Drivers/STM32L4xx_HAL_Driver/Src/stm32l4xx_hal_uart.c ****   *
  13:Drivers/STM32L4xx_HAL_Driver/Src/stm32l4xx_hal_uart.c ****   ******************************************************************************
  14:Drivers/STM32L4xx_HAL_Driver/Src/stm32l4xx_hal_uart.c ****   * @attention
  15:Drivers/STM32L4xx_HAL_Driver/Src/stm32l4xx_hal_uart.c ****   *
  16:Drivers/STM32L4xx_HAL_Driver/Src/stm32l4xx_hal_uart.c ****   * Copyright (c) 2017 STMicroelectronics.
  17:Drivers/STM32L4xx_HAL_Driver/Src/stm32l4xx_hal_uart.c ****   * All rights reserved.
  18:Drivers/STM32L4xx_HAL_Driver/Src/stm32l4xx_hal_uart.c ****   *
  19:Drivers/STM32L4xx_HAL_Driver/Src/stm32l4xx_hal_uart.c ****   * This software is licensed under terms that can be found in the LICENSE file
  20:Drivers/STM32L4xx_HAL_Driver/Src/stm32l4xx_hal_uart.c ****   * in the root directory of this software component.
  21:Drivers/STM32L4xx_HAL_Driver/Src/stm32l4xx_hal_uart.c ****   * If no LICENSE file comes with this software, it is provided AS-IS.
  22:Drivers/STM32L4xx_HAL_Driver/Src/stm32l4xx_hal_uart.c ****   *
  23:Drivers/STM32L4xx_HAL_Driver/Src/stm32l4xx_hal_uart.c ****   ******************************************************************************
  24:Drivers/STM32L4xx_HAL_Driver/Src/stm32l4xx_hal_uart.c ****   @verbatim
  25:Drivers/STM32L4xx_HAL_Driver/Src/stm32l4xx_hal_uart.c ****  ===============================================================================
  26:Drivers/STM32L4xx_HAL_Driver/Src/stm32l4xx_hal_uart.c ****                         ##### How to use this driver #####
  27:Drivers/STM32L4xx_HAL_Driver/Src/stm32l4xx_hal_uart.c ****  ===============================================================================
  28:Drivers/STM32L4xx_HAL_Driver/Src/stm32l4xx_hal_uart.c ****   [..]
  29:Drivers/STM32L4xx_HAL_Driver/Src/stm32l4xx_hal_uart.c ****     The UART HAL driver can be used as follows:
  30:Drivers/STM32L4xx_HAL_Driver/Src/stm32l4xx_hal_uart.c **** 
ARM GAS  /var/folders/k7/81v8fz9j4v98_s0dd31l1wsr0000gn/T//ccpVz2vH.s 			page 2


  31:Drivers/STM32L4xx_HAL_Driver/Src/stm32l4xx_hal_uart.c ****     (#) Declare a UART_HandleTypeDef handle structure (eg. UART_HandleTypeDef huart).
  32:Drivers/STM32L4xx_HAL_Driver/Src/stm32l4xx_hal_uart.c ****     (#) Initialize the UART low level resources by implementing the HAL_UART_MspInit() API:
  33:Drivers/STM32L4xx_HAL_Driver/Src/stm32l4xx_hal_uart.c ****         (++) Enable the USARTx interface clock.
  34:Drivers/STM32L4xx_HAL_Driver/Src/stm32l4xx_hal_uart.c ****         (++) UART pins configuration:
  35:Drivers/STM32L4xx_HAL_Driver/Src/stm32l4xx_hal_uart.c ****             (+++) Enable the clock for the UART GPIOs.
  36:Drivers/STM32L4xx_HAL_Driver/Src/stm32l4xx_hal_uart.c ****             (+++) Configure these UART pins as alternate function pull-up.
  37:Drivers/STM32L4xx_HAL_Driver/Src/stm32l4xx_hal_uart.c ****         (++) NVIC configuration if you need to use interrupt process (HAL_UART_Transmit_IT()
  38:Drivers/STM32L4xx_HAL_Driver/Src/stm32l4xx_hal_uart.c ****              and HAL_UART_Receive_IT() APIs):
  39:Drivers/STM32L4xx_HAL_Driver/Src/stm32l4xx_hal_uart.c ****             (+++) Configure the USARTx interrupt priority.
  40:Drivers/STM32L4xx_HAL_Driver/Src/stm32l4xx_hal_uart.c ****             (+++) Enable the NVIC USART IRQ handle.
  41:Drivers/STM32L4xx_HAL_Driver/Src/stm32l4xx_hal_uart.c ****         (++) UART interrupts handling:
  42:Drivers/STM32L4xx_HAL_Driver/Src/stm32l4xx_hal_uart.c ****               -@@-  The specific UART interrupts (Transmission complete interrupt,
  43:Drivers/STM32L4xx_HAL_Driver/Src/stm32l4xx_hal_uart.c ****                 RXNE interrupt, RX/TX FIFOs related interrupts and Error Interrupts)
  44:Drivers/STM32L4xx_HAL_Driver/Src/stm32l4xx_hal_uart.c ****                 are managed using the macros __HAL_UART_ENABLE_IT() and __HAL_UART_DISABLE_IT()
  45:Drivers/STM32L4xx_HAL_Driver/Src/stm32l4xx_hal_uart.c ****                 inside the transmit and receive processes.
  46:Drivers/STM32L4xx_HAL_Driver/Src/stm32l4xx_hal_uart.c ****         (++) DMA Configuration if you need to use DMA process (HAL_UART_Transmit_DMA()
  47:Drivers/STM32L4xx_HAL_Driver/Src/stm32l4xx_hal_uart.c ****              and HAL_UART_Receive_DMA() APIs):
  48:Drivers/STM32L4xx_HAL_Driver/Src/stm32l4xx_hal_uart.c ****             (+++) Declare a DMA handle structure for the Tx/Rx channel.
  49:Drivers/STM32L4xx_HAL_Driver/Src/stm32l4xx_hal_uart.c ****             (+++) Enable the DMAx interface clock.
  50:Drivers/STM32L4xx_HAL_Driver/Src/stm32l4xx_hal_uart.c ****             (+++) Configure the declared DMA handle structure with the required Tx/Rx parameters.
  51:Drivers/STM32L4xx_HAL_Driver/Src/stm32l4xx_hal_uart.c ****             (+++) Configure the DMA Tx/Rx channel.
  52:Drivers/STM32L4xx_HAL_Driver/Src/stm32l4xx_hal_uart.c ****             (+++) Associate the initialized DMA handle to the UART DMA Tx/Rx handle.
  53:Drivers/STM32L4xx_HAL_Driver/Src/stm32l4xx_hal_uart.c ****             (+++) Configure the priority and enable the NVIC for the transfer complete
  54:Drivers/STM32L4xx_HAL_Driver/Src/stm32l4xx_hal_uart.c ****                   interrupt on the DMA Tx/Rx channel.
  55:Drivers/STM32L4xx_HAL_Driver/Src/stm32l4xx_hal_uart.c **** 
  56:Drivers/STM32L4xx_HAL_Driver/Src/stm32l4xx_hal_uart.c ****     (#) Program the Baud Rate, Word Length, Stop Bit, Parity, Prescaler value , Hardware
  57:Drivers/STM32L4xx_HAL_Driver/Src/stm32l4xx_hal_uart.c ****         flow control and Mode (Receiver/Transmitter) in the huart handle Init structure.
  58:Drivers/STM32L4xx_HAL_Driver/Src/stm32l4xx_hal_uart.c **** 
  59:Drivers/STM32L4xx_HAL_Driver/Src/stm32l4xx_hal_uart.c ****     (#) If required, program UART advanced features (TX/RX pins swap, auto Baud rate detection,...)
  60:Drivers/STM32L4xx_HAL_Driver/Src/stm32l4xx_hal_uart.c ****         in the huart handle AdvancedInit structure.
  61:Drivers/STM32L4xx_HAL_Driver/Src/stm32l4xx_hal_uart.c **** 
  62:Drivers/STM32L4xx_HAL_Driver/Src/stm32l4xx_hal_uart.c ****     (#) For the UART asynchronous mode, initialize the UART registers by calling
  63:Drivers/STM32L4xx_HAL_Driver/Src/stm32l4xx_hal_uart.c ****         the HAL_UART_Init() API.
  64:Drivers/STM32L4xx_HAL_Driver/Src/stm32l4xx_hal_uart.c **** 
  65:Drivers/STM32L4xx_HAL_Driver/Src/stm32l4xx_hal_uart.c ****     (#) For the UART Half duplex mode, initialize the UART registers by calling
  66:Drivers/STM32L4xx_HAL_Driver/Src/stm32l4xx_hal_uart.c ****         the HAL_HalfDuplex_Init() API.
  67:Drivers/STM32L4xx_HAL_Driver/Src/stm32l4xx_hal_uart.c **** 
  68:Drivers/STM32L4xx_HAL_Driver/Src/stm32l4xx_hal_uart.c ****     (#) For the UART LIN (Local Interconnection Network) mode, initialize the UART registers
  69:Drivers/STM32L4xx_HAL_Driver/Src/stm32l4xx_hal_uart.c ****         by calling the HAL_LIN_Init() API.
  70:Drivers/STM32L4xx_HAL_Driver/Src/stm32l4xx_hal_uart.c **** 
  71:Drivers/STM32L4xx_HAL_Driver/Src/stm32l4xx_hal_uart.c ****     (#) For the UART Multiprocessor mode, initialize the UART registers
  72:Drivers/STM32L4xx_HAL_Driver/Src/stm32l4xx_hal_uart.c ****         by calling the HAL_MultiProcessor_Init() API.
  73:Drivers/STM32L4xx_HAL_Driver/Src/stm32l4xx_hal_uart.c **** 
  74:Drivers/STM32L4xx_HAL_Driver/Src/stm32l4xx_hal_uart.c ****     (#) For the UART RS485 Driver Enabled mode, initialize the UART registers
  75:Drivers/STM32L4xx_HAL_Driver/Src/stm32l4xx_hal_uart.c ****         by calling the HAL_RS485Ex_Init() API.
  76:Drivers/STM32L4xx_HAL_Driver/Src/stm32l4xx_hal_uart.c **** 
  77:Drivers/STM32L4xx_HAL_Driver/Src/stm32l4xx_hal_uart.c ****     [..]
  78:Drivers/STM32L4xx_HAL_Driver/Src/stm32l4xx_hal_uart.c ****     (@) These API's (HAL_UART_Init(), HAL_HalfDuplex_Init(), HAL_LIN_Init(), HAL_MultiProcessor_Ini
  79:Drivers/STM32L4xx_HAL_Driver/Src/stm32l4xx_hal_uart.c ****         also configure the low level Hardware GPIO, CLOCK, CORTEX...etc) by
  80:Drivers/STM32L4xx_HAL_Driver/Src/stm32l4xx_hal_uart.c ****         calling the customized HAL_UART_MspInit() API.
  81:Drivers/STM32L4xx_HAL_Driver/Src/stm32l4xx_hal_uart.c **** 
  82:Drivers/STM32L4xx_HAL_Driver/Src/stm32l4xx_hal_uart.c ****     ##### Callback registration #####
  83:Drivers/STM32L4xx_HAL_Driver/Src/stm32l4xx_hal_uart.c ****     ==================================
  84:Drivers/STM32L4xx_HAL_Driver/Src/stm32l4xx_hal_uart.c **** 
  85:Drivers/STM32L4xx_HAL_Driver/Src/stm32l4xx_hal_uart.c ****     [..]
  86:Drivers/STM32L4xx_HAL_Driver/Src/stm32l4xx_hal_uart.c ****     The compilation define USE_HAL_UART_REGISTER_CALLBACKS when set to 1
  87:Drivers/STM32L4xx_HAL_Driver/Src/stm32l4xx_hal_uart.c ****     allows the user to configure dynamically the driver callbacks.
ARM GAS  /var/folders/k7/81v8fz9j4v98_s0dd31l1wsr0000gn/T//ccpVz2vH.s 			page 3


  88:Drivers/STM32L4xx_HAL_Driver/Src/stm32l4xx_hal_uart.c **** 
  89:Drivers/STM32L4xx_HAL_Driver/Src/stm32l4xx_hal_uart.c ****     [..]
  90:Drivers/STM32L4xx_HAL_Driver/Src/stm32l4xx_hal_uart.c ****     Use Function HAL_UART_RegisterCallback() to register a user callback.
  91:Drivers/STM32L4xx_HAL_Driver/Src/stm32l4xx_hal_uart.c ****     Function HAL_UART_RegisterCallback() allows to register following callbacks:
  92:Drivers/STM32L4xx_HAL_Driver/Src/stm32l4xx_hal_uart.c ****     (+) TxHalfCpltCallback        : Tx Half Complete Callback.
  93:Drivers/STM32L4xx_HAL_Driver/Src/stm32l4xx_hal_uart.c ****     (+) TxCpltCallback            : Tx Complete Callback.
  94:Drivers/STM32L4xx_HAL_Driver/Src/stm32l4xx_hal_uart.c ****     (+) RxHalfCpltCallback        : Rx Half Complete Callback.
  95:Drivers/STM32L4xx_HAL_Driver/Src/stm32l4xx_hal_uart.c ****     (+) RxCpltCallback            : Rx Complete Callback.
  96:Drivers/STM32L4xx_HAL_Driver/Src/stm32l4xx_hal_uart.c ****     (+) ErrorCallback             : Error Callback.
  97:Drivers/STM32L4xx_HAL_Driver/Src/stm32l4xx_hal_uart.c ****     (+) AbortCpltCallback         : Abort Complete Callback.
  98:Drivers/STM32L4xx_HAL_Driver/Src/stm32l4xx_hal_uart.c ****     (+) AbortTransmitCpltCallback : Abort Transmit Complete Callback.
  99:Drivers/STM32L4xx_HAL_Driver/Src/stm32l4xx_hal_uart.c ****     (+) AbortReceiveCpltCallback  : Abort Receive Complete Callback.
 100:Drivers/STM32L4xx_HAL_Driver/Src/stm32l4xx_hal_uart.c ****     (+) WakeupCallback            : Wakeup Callback.
 101:Drivers/STM32L4xx_HAL_Driver/Src/stm32l4xx_hal_uart.c **** #if defined(USART_CR1_FIFOEN)
 102:Drivers/STM32L4xx_HAL_Driver/Src/stm32l4xx_hal_uart.c ****     (+) RxFifoFullCallback        : Rx Fifo Full Callback.
 103:Drivers/STM32L4xx_HAL_Driver/Src/stm32l4xx_hal_uart.c ****     (+) TxFifoEmptyCallback       : Tx Fifo Empty Callback.
 104:Drivers/STM32L4xx_HAL_Driver/Src/stm32l4xx_hal_uart.c **** #endif
 105:Drivers/STM32L4xx_HAL_Driver/Src/stm32l4xx_hal_uart.c ****     (+) MspInitCallback           : UART MspInit.
 106:Drivers/STM32L4xx_HAL_Driver/Src/stm32l4xx_hal_uart.c ****     (+) MspDeInitCallback         : UART MspDeInit.
 107:Drivers/STM32L4xx_HAL_Driver/Src/stm32l4xx_hal_uart.c ****     This function takes as parameters the HAL peripheral handle, the Callback ID
 108:Drivers/STM32L4xx_HAL_Driver/Src/stm32l4xx_hal_uart.c ****     and a pointer to the user callback function.
 109:Drivers/STM32L4xx_HAL_Driver/Src/stm32l4xx_hal_uart.c **** 
 110:Drivers/STM32L4xx_HAL_Driver/Src/stm32l4xx_hal_uart.c ****     [..]
 111:Drivers/STM32L4xx_HAL_Driver/Src/stm32l4xx_hal_uart.c ****     Use function HAL_UART_UnRegisterCallback() to reset a callback to the default
 112:Drivers/STM32L4xx_HAL_Driver/Src/stm32l4xx_hal_uart.c ****     weak (surcharged) function.
 113:Drivers/STM32L4xx_HAL_Driver/Src/stm32l4xx_hal_uart.c ****     HAL_UART_UnRegisterCallback() takes as parameters the HAL peripheral handle,
 114:Drivers/STM32L4xx_HAL_Driver/Src/stm32l4xx_hal_uart.c ****     and the Callback ID.
 115:Drivers/STM32L4xx_HAL_Driver/Src/stm32l4xx_hal_uart.c ****     This function allows to reset following callbacks:
 116:Drivers/STM32L4xx_HAL_Driver/Src/stm32l4xx_hal_uart.c ****     (+) TxHalfCpltCallback        : Tx Half Complete Callback.
 117:Drivers/STM32L4xx_HAL_Driver/Src/stm32l4xx_hal_uart.c ****     (+) TxCpltCallback            : Tx Complete Callback.
 118:Drivers/STM32L4xx_HAL_Driver/Src/stm32l4xx_hal_uart.c ****     (+) RxHalfCpltCallback        : Rx Half Complete Callback.
 119:Drivers/STM32L4xx_HAL_Driver/Src/stm32l4xx_hal_uart.c ****     (+) RxCpltCallback            : Rx Complete Callback.
 120:Drivers/STM32L4xx_HAL_Driver/Src/stm32l4xx_hal_uart.c ****     (+) ErrorCallback             : Error Callback.
 121:Drivers/STM32L4xx_HAL_Driver/Src/stm32l4xx_hal_uart.c ****     (+) AbortCpltCallback         : Abort Complete Callback.
 122:Drivers/STM32L4xx_HAL_Driver/Src/stm32l4xx_hal_uart.c ****     (+) AbortTransmitCpltCallback : Abort Transmit Complete Callback.
 123:Drivers/STM32L4xx_HAL_Driver/Src/stm32l4xx_hal_uart.c ****     (+) AbortReceiveCpltCallback  : Abort Receive Complete Callback.
 124:Drivers/STM32L4xx_HAL_Driver/Src/stm32l4xx_hal_uart.c ****     (+) WakeupCallback            : Wakeup Callback.
 125:Drivers/STM32L4xx_HAL_Driver/Src/stm32l4xx_hal_uart.c **** #if defined(USART_CR1_FIFOEN)
 126:Drivers/STM32L4xx_HAL_Driver/Src/stm32l4xx_hal_uart.c ****     (+) RxFifoFullCallback        : Rx Fifo Full Callback.
 127:Drivers/STM32L4xx_HAL_Driver/Src/stm32l4xx_hal_uart.c ****     (+) TxFifoEmptyCallback       : Tx Fifo Empty Callback.
 128:Drivers/STM32L4xx_HAL_Driver/Src/stm32l4xx_hal_uart.c **** #endif
 129:Drivers/STM32L4xx_HAL_Driver/Src/stm32l4xx_hal_uart.c ****     (+) MspInitCallback           : UART MspInit.
 130:Drivers/STM32L4xx_HAL_Driver/Src/stm32l4xx_hal_uart.c ****     (+) MspDeInitCallback         : UART MspDeInit.
 131:Drivers/STM32L4xx_HAL_Driver/Src/stm32l4xx_hal_uart.c **** 
 132:Drivers/STM32L4xx_HAL_Driver/Src/stm32l4xx_hal_uart.c ****     [..]
 133:Drivers/STM32L4xx_HAL_Driver/Src/stm32l4xx_hal_uart.c ****     For specific callback RxEventCallback, use dedicated registration/reset functions:
 134:Drivers/STM32L4xx_HAL_Driver/Src/stm32l4xx_hal_uart.c ****     respectively HAL_UART_RegisterRxEventCallback() , HAL_UART_UnRegisterRxEventCallback().
 135:Drivers/STM32L4xx_HAL_Driver/Src/stm32l4xx_hal_uart.c **** 
 136:Drivers/STM32L4xx_HAL_Driver/Src/stm32l4xx_hal_uart.c ****     [..]
 137:Drivers/STM32L4xx_HAL_Driver/Src/stm32l4xx_hal_uart.c ****     By default, after the HAL_UART_Init() and when the state is HAL_UART_STATE_RESET
 138:Drivers/STM32L4xx_HAL_Driver/Src/stm32l4xx_hal_uart.c ****     all callbacks are set to the corresponding weak (surcharged) functions:
 139:Drivers/STM32L4xx_HAL_Driver/Src/stm32l4xx_hal_uart.c ****     examples HAL_UART_TxCpltCallback(), HAL_UART_RxHalfCpltCallback().
 140:Drivers/STM32L4xx_HAL_Driver/Src/stm32l4xx_hal_uart.c ****     Exception done for MspInit and MspDeInit functions that are respectively
 141:Drivers/STM32L4xx_HAL_Driver/Src/stm32l4xx_hal_uart.c ****     reset to the legacy weak (surcharged) functions in the HAL_UART_Init()
 142:Drivers/STM32L4xx_HAL_Driver/Src/stm32l4xx_hal_uart.c ****     and HAL_UART_DeInit() only when these callbacks are null (not registered beforehand).
 143:Drivers/STM32L4xx_HAL_Driver/Src/stm32l4xx_hal_uart.c ****     If not, MspInit or MspDeInit are not null, the HAL_UART_Init() and HAL_UART_DeInit()
 144:Drivers/STM32L4xx_HAL_Driver/Src/stm32l4xx_hal_uart.c ****     keep and use the user MspInit/MspDeInit callbacks (registered beforehand).
ARM GAS  /var/folders/k7/81v8fz9j4v98_s0dd31l1wsr0000gn/T//ccpVz2vH.s 			page 4


 145:Drivers/STM32L4xx_HAL_Driver/Src/stm32l4xx_hal_uart.c **** 
 146:Drivers/STM32L4xx_HAL_Driver/Src/stm32l4xx_hal_uart.c ****     [..]
 147:Drivers/STM32L4xx_HAL_Driver/Src/stm32l4xx_hal_uart.c ****     Callbacks can be registered/unregistered in HAL_UART_STATE_READY state only.
 148:Drivers/STM32L4xx_HAL_Driver/Src/stm32l4xx_hal_uart.c ****     Exception done MspInit/MspDeInit that can be registered/unregistered
 149:Drivers/STM32L4xx_HAL_Driver/Src/stm32l4xx_hal_uart.c ****     in HAL_UART_STATE_READY or HAL_UART_STATE_RESET state, thus registered (user)
 150:Drivers/STM32L4xx_HAL_Driver/Src/stm32l4xx_hal_uart.c ****     MspInit/DeInit callbacks can be used during the Init/DeInit.
 151:Drivers/STM32L4xx_HAL_Driver/Src/stm32l4xx_hal_uart.c ****     In that case first register the MspInit/MspDeInit user callbacks
 152:Drivers/STM32L4xx_HAL_Driver/Src/stm32l4xx_hal_uart.c ****     using HAL_UART_RegisterCallback() before calling HAL_UART_DeInit()
 153:Drivers/STM32L4xx_HAL_Driver/Src/stm32l4xx_hal_uart.c ****     or HAL_UART_Init() function.
 154:Drivers/STM32L4xx_HAL_Driver/Src/stm32l4xx_hal_uart.c **** 
 155:Drivers/STM32L4xx_HAL_Driver/Src/stm32l4xx_hal_uart.c ****     [..]
 156:Drivers/STM32L4xx_HAL_Driver/Src/stm32l4xx_hal_uart.c ****     When The compilation define USE_HAL_UART_REGISTER_CALLBACKS is set to 0 or
 157:Drivers/STM32L4xx_HAL_Driver/Src/stm32l4xx_hal_uart.c ****     not defined, the callback registration feature is not available
 158:Drivers/STM32L4xx_HAL_Driver/Src/stm32l4xx_hal_uart.c ****     and weak (surcharged) callbacks are used.
 159:Drivers/STM32L4xx_HAL_Driver/Src/stm32l4xx_hal_uart.c **** 
 160:Drivers/STM32L4xx_HAL_Driver/Src/stm32l4xx_hal_uart.c **** 
 161:Drivers/STM32L4xx_HAL_Driver/Src/stm32l4xx_hal_uart.c ****   @endverbatim
 162:Drivers/STM32L4xx_HAL_Driver/Src/stm32l4xx_hal_uart.c ****   ******************************************************************************
 163:Drivers/STM32L4xx_HAL_Driver/Src/stm32l4xx_hal_uart.c ****   */
 164:Drivers/STM32L4xx_HAL_Driver/Src/stm32l4xx_hal_uart.c **** 
 165:Drivers/STM32L4xx_HAL_Driver/Src/stm32l4xx_hal_uart.c **** /* Includes ------------------------------------------------------------------*/
 166:Drivers/STM32L4xx_HAL_Driver/Src/stm32l4xx_hal_uart.c **** #include "stm32l4xx_hal.h"
 167:Drivers/STM32L4xx_HAL_Driver/Src/stm32l4xx_hal_uart.c **** 
 168:Drivers/STM32L4xx_HAL_Driver/Src/stm32l4xx_hal_uart.c **** /** @addtogroup STM32L4xx_HAL_Driver
 169:Drivers/STM32L4xx_HAL_Driver/Src/stm32l4xx_hal_uart.c ****   * @{
 170:Drivers/STM32L4xx_HAL_Driver/Src/stm32l4xx_hal_uart.c ****   */
 171:Drivers/STM32L4xx_HAL_Driver/Src/stm32l4xx_hal_uart.c **** 
 172:Drivers/STM32L4xx_HAL_Driver/Src/stm32l4xx_hal_uart.c **** /** @defgroup UART UART
 173:Drivers/STM32L4xx_HAL_Driver/Src/stm32l4xx_hal_uart.c ****   * @brief HAL UART module driver
 174:Drivers/STM32L4xx_HAL_Driver/Src/stm32l4xx_hal_uart.c ****   * @{
 175:Drivers/STM32L4xx_HAL_Driver/Src/stm32l4xx_hal_uart.c ****   */
 176:Drivers/STM32L4xx_HAL_Driver/Src/stm32l4xx_hal_uart.c **** 
 177:Drivers/STM32L4xx_HAL_Driver/Src/stm32l4xx_hal_uart.c **** #ifdef HAL_UART_MODULE_ENABLED
 178:Drivers/STM32L4xx_HAL_Driver/Src/stm32l4xx_hal_uart.c **** 
 179:Drivers/STM32L4xx_HAL_Driver/Src/stm32l4xx_hal_uart.c **** /* Private typedef -----------------------------------------------------------*/
 180:Drivers/STM32L4xx_HAL_Driver/Src/stm32l4xx_hal_uart.c **** /* Private define ------------------------------------------------------------*/
 181:Drivers/STM32L4xx_HAL_Driver/Src/stm32l4xx_hal_uart.c **** /** @defgroup UART_Private_Constants UART Private Constants
 182:Drivers/STM32L4xx_HAL_Driver/Src/stm32l4xx_hal_uart.c ****   * @{
 183:Drivers/STM32L4xx_HAL_Driver/Src/stm32l4xx_hal_uart.c ****   */
 184:Drivers/STM32L4xx_HAL_Driver/Src/stm32l4xx_hal_uart.c **** #if defined(USART_CR1_FIFOEN)
 185:Drivers/STM32L4xx_HAL_Driver/Src/stm32l4xx_hal_uart.c **** #define USART_CR1_FIELDS  ((uint32_t)(USART_CR1_M | USART_CR1_PCE | USART_CR1_PS | USART_CR1_TE | U
 186:Drivers/STM32L4xx_HAL_Driver/Src/stm32l4xx_hal_uart.c ****                                       USART_CR1_OVER8 | USART_CR1_FIFOEN)) /*!< UART or USART CR1 f
 187:Drivers/STM32L4xx_HAL_Driver/Src/stm32l4xx_hal_uart.c **** #else
 188:Drivers/STM32L4xx_HAL_Driver/Src/stm32l4xx_hal_uart.c **** #define USART_CR1_FIELDS  ((uint32_t)(USART_CR1_M | USART_CR1_PCE | USART_CR1_PS | USART_CR1_TE | U
 189:Drivers/STM32L4xx_HAL_Driver/Src/stm32l4xx_hal_uart.c ****                                       USART_CR1_OVER8)) /*!< UART or USART CR1 fields of parameters
 190:Drivers/STM32L4xx_HAL_Driver/Src/stm32l4xx_hal_uart.c **** #endif /* USART_CR1_FIFOEN */
 191:Drivers/STM32L4xx_HAL_Driver/Src/stm32l4xx_hal_uart.c **** 
 192:Drivers/STM32L4xx_HAL_Driver/Src/stm32l4xx_hal_uart.c **** #if defined(USART_CR1_FIFOEN)
 193:Drivers/STM32L4xx_HAL_Driver/Src/stm32l4xx_hal_uart.c **** #define USART_CR3_FIELDS  ((uint32_t)(USART_CR3_RTSE | USART_CR3_CTSE | USART_CR3_ONEBIT | USART_CR
 194:Drivers/STM32L4xx_HAL_Driver/Src/stm32l4xx_hal_uart.c ****                                       USART_CR3_RXFTCFG)) /*!< UART or USART CR3 fields of paramete
 195:Drivers/STM32L4xx_HAL_Driver/Src/stm32l4xx_hal_uart.c **** #else
 196:Drivers/STM32L4xx_HAL_Driver/Src/stm32l4xx_hal_uart.c **** #define USART_CR3_FIELDS  ((uint32_t)(USART_CR3_RTSE | USART_CR3_CTSE |\
 197:Drivers/STM32L4xx_HAL_Driver/Src/stm32l4xx_hal_uart.c ****                             USART_CR3_ONEBIT)) /*!< UART or USART CR3 fields of parameters set by U
 198:Drivers/STM32L4xx_HAL_Driver/Src/stm32l4xx_hal_uart.c **** #endif /* USART_CR1_FIFOEN */
 199:Drivers/STM32L4xx_HAL_Driver/Src/stm32l4xx_hal_uart.c **** 
 200:Drivers/STM32L4xx_HAL_Driver/Src/stm32l4xx_hal_uart.c **** #define LPUART_BRR_MIN  0x00000300U  /* LPUART BRR minimum authorized value */
 201:Drivers/STM32L4xx_HAL_Driver/Src/stm32l4xx_hal_uart.c **** #define LPUART_BRR_MAX  0x000FFFFFU  /* LPUART BRR maximum authorized value */
ARM GAS  /var/folders/k7/81v8fz9j4v98_s0dd31l1wsr0000gn/T//ccpVz2vH.s 			page 5


 202:Drivers/STM32L4xx_HAL_Driver/Src/stm32l4xx_hal_uart.c **** 
 203:Drivers/STM32L4xx_HAL_Driver/Src/stm32l4xx_hal_uart.c **** #define UART_BRR_MIN    0x10U        /* UART BRR minimum authorized value */
 204:Drivers/STM32L4xx_HAL_Driver/Src/stm32l4xx_hal_uart.c **** #define UART_BRR_MAX    0x0000FFFFU  /* UART BRR maximum authorized value */
 205:Drivers/STM32L4xx_HAL_Driver/Src/stm32l4xx_hal_uart.c **** /**
 206:Drivers/STM32L4xx_HAL_Driver/Src/stm32l4xx_hal_uart.c ****   * @}
 207:Drivers/STM32L4xx_HAL_Driver/Src/stm32l4xx_hal_uart.c ****   */
 208:Drivers/STM32L4xx_HAL_Driver/Src/stm32l4xx_hal_uart.c **** 
 209:Drivers/STM32L4xx_HAL_Driver/Src/stm32l4xx_hal_uart.c **** /* Private macros ------------------------------------------------------------*/
 210:Drivers/STM32L4xx_HAL_Driver/Src/stm32l4xx_hal_uart.c **** /* Private function prototypes -----------------------------------------------*/
 211:Drivers/STM32L4xx_HAL_Driver/Src/stm32l4xx_hal_uart.c **** /** @addtogroup UART_Private_Functions
 212:Drivers/STM32L4xx_HAL_Driver/Src/stm32l4xx_hal_uart.c ****   * @{
 213:Drivers/STM32L4xx_HAL_Driver/Src/stm32l4xx_hal_uart.c ****   */
 214:Drivers/STM32L4xx_HAL_Driver/Src/stm32l4xx_hal_uart.c **** static void UART_EndTxTransfer(UART_HandleTypeDef *huart);
 215:Drivers/STM32L4xx_HAL_Driver/Src/stm32l4xx_hal_uart.c **** static void UART_EndRxTransfer(UART_HandleTypeDef *huart);
 216:Drivers/STM32L4xx_HAL_Driver/Src/stm32l4xx_hal_uart.c **** static void UART_DMATransmitCplt(DMA_HandleTypeDef *hdma);
 217:Drivers/STM32L4xx_HAL_Driver/Src/stm32l4xx_hal_uart.c **** static void UART_DMAReceiveCplt(DMA_HandleTypeDef *hdma);
 218:Drivers/STM32L4xx_HAL_Driver/Src/stm32l4xx_hal_uart.c **** static void UART_DMARxHalfCplt(DMA_HandleTypeDef *hdma);
 219:Drivers/STM32L4xx_HAL_Driver/Src/stm32l4xx_hal_uart.c **** static void UART_DMATxHalfCplt(DMA_HandleTypeDef *hdma);
 220:Drivers/STM32L4xx_HAL_Driver/Src/stm32l4xx_hal_uart.c **** static void UART_DMAError(DMA_HandleTypeDef *hdma);
 221:Drivers/STM32L4xx_HAL_Driver/Src/stm32l4xx_hal_uart.c **** static void UART_DMAAbortOnError(DMA_HandleTypeDef *hdma);
 222:Drivers/STM32L4xx_HAL_Driver/Src/stm32l4xx_hal_uart.c **** static void UART_DMATxAbortCallback(DMA_HandleTypeDef *hdma);
 223:Drivers/STM32L4xx_HAL_Driver/Src/stm32l4xx_hal_uart.c **** static void UART_DMARxAbortCallback(DMA_HandleTypeDef *hdma);
 224:Drivers/STM32L4xx_HAL_Driver/Src/stm32l4xx_hal_uart.c **** static void UART_DMATxOnlyAbortCallback(DMA_HandleTypeDef *hdma);
 225:Drivers/STM32L4xx_HAL_Driver/Src/stm32l4xx_hal_uart.c **** static void UART_DMARxOnlyAbortCallback(DMA_HandleTypeDef *hdma);
 226:Drivers/STM32L4xx_HAL_Driver/Src/stm32l4xx_hal_uart.c **** static void UART_TxISR_8BIT(UART_HandleTypeDef *huart);
 227:Drivers/STM32L4xx_HAL_Driver/Src/stm32l4xx_hal_uart.c **** static void UART_TxISR_16BIT(UART_HandleTypeDef *huart);
 228:Drivers/STM32L4xx_HAL_Driver/Src/stm32l4xx_hal_uart.c **** #if defined(USART_CR1_FIFOEN)
 229:Drivers/STM32L4xx_HAL_Driver/Src/stm32l4xx_hal_uart.c **** static void UART_TxISR_8BIT_FIFOEN(UART_HandleTypeDef *huart);
 230:Drivers/STM32L4xx_HAL_Driver/Src/stm32l4xx_hal_uart.c **** static void UART_TxISR_16BIT_FIFOEN(UART_HandleTypeDef *huart);
 231:Drivers/STM32L4xx_HAL_Driver/Src/stm32l4xx_hal_uart.c **** #endif /* USART_CR1_FIFOEN */
 232:Drivers/STM32L4xx_HAL_Driver/Src/stm32l4xx_hal_uart.c **** static void UART_EndTransmit_IT(UART_HandleTypeDef *huart);
 233:Drivers/STM32L4xx_HAL_Driver/Src/stm32l4xx_hal_uart.c **** static void UART_RxISR_8BIT(UART_HandleTypeDef *huart);
 234:Drivers/STM32L4xx_HAL_Driver/Src/stm32l4xx_hal_uart.c **** static void UART_RxISR_16BIT(UART_HandleTypeDef *huart);
 235:Drivers/STM32L4xx_HAL_Driver/Src/stm32l4xx_hal_uart.c **** #if defined(USART_CR1_FIFOEN)
 236:Drivers/STM32L4xx_HAL_Driver/Src/stm32l4xx_hal_uart.c **** static void UART_RxISR_8BIT_FIFOEN(UART_HandleTypeDef *huart);
 237:Drivers/STM32L4xx_HAL_Driver/Src/stm32l4xx_hal_uart.c **** static void UART_RxISR_16BIT_FIFOEN(UART_HandleTypeDef *huart);
 238:Drivers/STM32L4xx_HAL_Driver/Src/stm32l4xx_hal_uart.c **** #endif /* USART_CR1_FIFOEN */
 239:Drivers/STM32L4xx_HAL_Driver/Src/stm32l4xx_hal_uart.c **** /**
 240:Drivers/STM32L4xx_HAL_Driver/Src/stm32l4xx_hal_uart.c ****   * @}
 241:Drivers/STM32L4xx_HAL_Driver/Src/stm32l4xx_hal_uart.c ****   */
 242:Drivers/STM32L4xx_HAL_Driver/Src/stm32l4xx_hal_uart.c **** 
 243:Drivers/STM32L4xx_HAL_Driver/Src/stm32l4xx_hal_uart.c **** /* Private variables ---------------------------------------------------------*/
 244:Drivers/STM32L4xx_HAL_Driver/Src/stm32l4xx_hal_uart.c **** #if defined(USART_PRESC_PRESCALER)
 245:Drivers/STM32L4xx_HAL_Driver/Src/stm32l4xx_hal_uart.c **** /** @addtogroup UART_Private_variables
 246:Drivers/STM32L4xx_HAL_Driver/Src/stm32l4xx_hal_uart.c ****   * @{
 247:Drivers/STM32L4xx_HAL_Driver/Src/stm32l4xx_hal_uart.c ****   */
 248:Drivers/STM32L4xx_HAL_Driver/Src/stm32l4xx_hal_uart.c **** const uint16_t UARTPrescTable[12] = {1U, 2U, 4U, 6U, 8U, 10U, 12U, 16U, 32U, 64U, 128U, 256U};
 249:Drivers/STM32L4xx_HAL_Driver/Src/stm32l4xx_hal_uart.c **** /**
 250:Drivers/STM32L4xx_HAL_Driver/Src/stm32l4xx_hal_uart.c ****   * @}
 251:Drivers/STM32L4xx_HAL_Driver/Src/stm32l4xx_hal_uart.c ****   */
 252:Drivers/STM32L4xx_HAL_Driver/Src/stm32l4xx_hal_uart.c **** 
 253:Drivers/STM32L4xx_HAL_Driver/Src/stm32l4xx_hal_uart.c **** #endif /* USART_PRESC_PRESCALER */
 254:Drivers/STM32L4xx_HAL_Driver/Src/stm32l4xx_hal_uart.c **** /* Exported Constants --------------------------------------------------------*/
 255:Drivers/STM32L4xx_HAL_Driver/Src/stm32l4xx_hal_uart.c **** /* Exported functions --------------------------------------------------------*/
 256:Drivers/STM32L4xx_HAL_Driver/Src/stm32l4xx_hal_uart.c **** 
 257:Drivers/STM32L4xx_HAL_Driver/Src/stm32l4xx_hal_uart.c **** /** @defgroup UART_Exported_Functions UART Exported Functions
 258:Drivers/STM32L4xx_HAL_Driver/Src/stm32l4xx_hal_uart.c ****   * @{
ARM GAS  /var/folders/k7/81v8fz9j4v98_s0dd31l1wsr0000gn/T//ccpVz2vH.s 			page 6


 259:Drivers/STM32L4xx_HAL_Driver/Src/stm32l4xx_hal_uart.c ****   */
 260:Drivers/STM32L4xx_HAL_Driver/Src/stm32l4xx_hal_uart.c **** 
 261:Drivers/STM32L4xx_HAL_Driver/Src/stm32l4xx_hal_uart.c **** /** @defgroup UART_Exported_Functions_Group1 Initialization and de-initialization functions
 262:Drivers/STM32L4xx_HAL_Driver/Src/stm32l4xx_hal_uart.c ****   *  @brief    Initialization and Configuration functions
 263:Drivers/STM32L4xx_HAL_Driver/Src/stm32l4xx_hal_uart.c ****   *
 264:Drivers/STM32L4xx_HAL_Driver/Src/stm32l4xx_hal_uart.c **** @verbatim
 265:Drivers/STM32L4xx_HAL_Driver/Src/stm32l4xx_hal_uart.c **** ===============================================================================
 266:Drivers/STM32L4xx_HAL_Driver/Src/stm32l4xx_hal_uart.c ****             ##### Initialization and Configuration functions #####
 267:Drivers/STM32L4xx_HAL_Driver/Src/stm32l4xx_hal_uart.c ****  ===============================================================================
 268:Drivers/STM32L4xx_HAL_Driver/Src/stm32l4xx_hal_uart.c ****     [..]
 269:Drivers/STM32L4xx_HAL_Driver/Src/stm32l4xx_hal_uart.c ****     This subsection provides a set of functions allowing to initialize the USARTx or the UARTy
 270:Drivers/STM32L4xx_HAL_Driver/Src/stm32l4xx_hal_uart.c ****     in asynchronous mode.
 271:Drivers/STM32L4xx_HAL_Driver/Src/stm32l4xx_hal_uart.c ****       (+) For the asynchronous mode the parameters below can be configured:
 272:Drivers/STM32L4xx_HAL_Driver/Src/stm32l4xx_hal_uart.c ****         (++) Baud Rate
 273:Drivers/STM32L4xx_HAL_Driver/Src/stm32l4xx_hal_uart.c ****         (++) Word Length
 274:Drivers/STM32L4xx_HAL_Driver/Src/stm32l4xx_hal_uart.c ****         (++) Stop Bit
 275:Drivers/STM32L4xx_HAL_Driver/Src/stm32l4xx_hal_uart.c ****         (++) Parity: If the parity is enabled, then the MSB bit of the data written
 276:Drivers/STM32L4xx_HAL_Driver/Src/stm32l4xx_hal_uart.c ****              in the data register is transmitted but is changed by the parity bit.
 277:Drivers/STM32L4xx_HAL_Driver/Src/stm32l4xx_hal_uart.c ****         (++) Hardware flow control
 278:Drivers/STM32L4xx_HAL_Driver/Src/stm32l4xx_hal_uart.c ****         (++) Receiver/transmitter modes
 279:Drivers/STM32L4xx_HAL_Driver/Src/stm32l4xx_hal_uart.c ****         (++) Over Sampling Method
 280:Drivers/STM32L4xx_HAL_Driver/Src/stm32l4xx_hal_uart.c ****         (++) One-Bit Sampling Method
 281:Drivers/STM32L4xx_HAL_Driver/Src/stm32l4xx_hal_uart.c ****       (+) For the asynchronous mode, the following advanced features can be configured as well:
 282:Drivers/STM32L4xx_HAL_Driver/Src/stm32l4xx_hal_uart.c ****         (++) TX and/or RX pin level inversion
 283:Drivers/STM32L4xx_HAL_Driver/Src/stm32l4xx_hal_uart.c ****         (++) data logical level inversion
 284:Drivers/STM32L4xx_HAL_Driver/Src/stm32l4xx_hal_uart.c ****         (++) RX and TX pins swap
 285:Drivers/STM32L4xx_HAL_Driver/Src/stm32l4xx_hal_uart.c ****         (++) RX overrun detection disabling
 286:Drivers/STM32L4xx_HAL_Driver/Src/stm32l4xx_hal_uart.c ****         (++) DMA disabling on RX error
 287:Drivers/STM32L4xx_HAL_Driver/Src/stm32l4xx_hal_uart.c ****         (++) MSB first on communication line
 288:Drivers/STM32L4xx_HAL_Driver/Src/stm32l4xx_hal_uart.c ****         (++) auto Baud rate detection
 289:Drivers/STM32L4xx_HAL_Driver/Src/stm32l4xx_hal_uart.c ****     [..]
 290:Drivers/STM32L4xx_HAL_Driver/Src/stm32l4xx_hal_uart.c ****     The HAL_UART_Init(), HAL_HalfDuplex_Init(), HAL_LIN_Init()and HAL_MultiProcessor_Init()API
 291:Drivers/STM32L4xx_HAL_Driver/Src/stm32l4xx_hal_uart.c ****     follow respectively the UART asynchronous, UART Half duplex, UART LIN mode
 292:Drivers/STM32L4xx_HAL_Driver/Src/stm32l4xx_hal_uart.c ****     and UART multiprocessor mode configuration procedures (details for the procedures
 293:Drivers/STM32L4xx_HAL_Driver/Src/stm32l4xx_hal_uart.c ****     are available in reference manual).
 294:Drivers/STM32L4xx_HAL_Driver/Src/stm32l4xx_hal_uart.c **** 
 295:Drivers/STM32L4xx_HAL_Driver/Src/stm32l4xx_hal_uart.c **** @endverbatim
 296:Drivers/STM32L4xx_HAL_Driver/Src/stm32l4xx_hal_uart.c **** 
 297:Drivers/STM32L4xx_HAL_Driver/Src/stm32l4xx_hal_uart.c ****   Depending on the frame length defined by the M1 and M0 bits (7-bit,
 298:Drivers/STM32L4xx_HAL_Driver/Src/stm32l4xx_hal_uart.c ****   8-bit or 9-bit), the possible UART formats are listed in the
 299:Drivers/STM32L4xx_HAL_Driver/Src/stm32l4xx_hal_uart.c ****   following table.
 300:Drivers/STM32L4xx_HAL_Driver/Src/stm32l4xx_hal_uart.c **** 
 301:Drivers/STM32L4xx_HAL_Driver/Src/stm32l4xx_hal_uart.c ****   Table 1. UART frame format.
 302:Drivers/STM32L4xx_HAL_Driver/Src/stm32l4xx_hal_uart.c ****     +-----------------------------------------------------------------------+
 303:Drivers/STM32L4xx_HAL_Driver/Src/stm32l4xx_hal_uart.c ****     |  M1 bit |  M0 bit |  PCE bit  |             UART frame                |
 304:Drivers/STM32L4xx_HAL_Driver/Src/stm32l4xx_hal_uart.c ****     |---------|---------|-----------|---------------------------------------|
 305:Drivers/STM32L4xx_HAL_Driver/Src/stm32l4xx_hal_uart.c ****     |    0    |    0    |    0      |    | SB |    8 bit data   | STB |     |
 306:Drivers/STM32L4xx_HAL_Driver/Src/stm32l4xx_hal_uart.c ****     |---------|---------|-----------|---------------------------------------|
 307:Drivers/STM32L4xx_HAL_Driver/Src/stm32l4xx_hal_uart.c ****     |    0    |    0    |    1      |    | SB | 7 bit data | PB | STB |     |
 308:Drivers/STM32L4xx_HAL_Driver/Src/stm32l4xx_hal_uart.c ****     |---------|---------|-----------|---------------------------------------|
 309:Drivers/STM32L4xx_HAL_Driver/Src/stm32l4xx_hal_uart.c ****     |    0    |    1    |    0      |    | SB |    9 bit data   | STB |     |
 310:Drivers/STM32L4xx_HAL_Driver/Src/stm32l4xx_hal_uart.c ****     |---------|---------|-----------|---------------------------------------|
 311:Drivers/STM32L4xx_HAL_Driver/Src/stm32l4xx_hal_uart.c ****     |    0    |    1    |    1      |    | SB | 8 bit data | PB | STB |     |
 312:Drivers/STM32L4xx_HAL_Driver/Src/stm32l4xx_hal_uart.c ****     |---------|---------|-----------|---------------------------------------|
 313:Drivers/STM32L4xx_HAL_Driver/Src/stm32l4xx_hal_uart.c ****     |    1    |    0    |    0      |    | SB |    7 bit data   | STB |     |
 314:Drivers/STM32L4xx_HAL_Driver/Src/stm32l4xx_hal_uart.c ****     |---------|---------|-----------|---------------------------------------|
 315:Drivers/STM32L4xx_HAL_Driver/Src/stm32l4xx_hal_uart.c ****     |    1    |    0    |    1      |    | SB | 6 bit data | PB | STB |     |
ARM GAS  /var/folders/k7/81v8fz9j4v98_s0dd31l1wsr0000gn/T//ccpVz2vH.s 			page 7


 316:Drivers/STM32L4xx_HAL_Driver/Src/stm32l4xx_hal_uart.c ****     +-----------------------------------------------------------------------+
 317:Drivers/STM32L4xx_HAL_Driver/Src/stm32l4xx_hal_uart.c **** 
 318:Drivers/STM32L4xx_HAL_Driver/Src/stm32l4xx_hal_uart.c ****   * @{
 319:Drivers/STM32L4xx_HAL_Driver/Src/stm32l4xx_hal_uart.c ****   */
 320:Drivers/STM32L4xx_HAL_Driver/Src/stm32l4xx_hal_uart.c **** 
 321:Drivers/STM32L4xx_HAL_Driver/Src/stm32l4xx_hal_uart.c **** /**
 322:Drivers/STM32L4xx_HAL_Driver/Src/stm32l4xx_hal_uart.c ****   * @brief Initialize the UART mode according to the specified
 323:Drivers/STM32L4xx_HAL_Driver/Src/stm32l4xx_hal_uart.c ****   *        parameters in the UART_InitTypeDef and initialize the associated handle.
 324:Drivers/STM32L4xx_HAL_Driver/Src/stm32l4xx_hal_uart.c ****   * @param huart UART handle.
 325:Drivers/STM32L4xx_HAL_Driver/Src/stm32l4xx_hal_uart.c ****   * @retval HAL status
 326:Drivers/STM32L4xx_HAL_Driver/Src/stm32l4xx_hal_uart.c ****   */
 327:Drivers/STM32L4xx_HAL_Driver/Src/stm32l4xx_hal_uart.c **** HAL_StatusTypeDef HAL_UART_Init(UART_HandleTypeDef *huart)
 328:Drivers/STM32L4xx_HAL_Driver/Src/stm32l4xx_hal_uart.c **** {
  29              		.loc 1 328 1
  30              		.cfi_startproc
  31              		@ args = 0, pretend = 0, frame = 8
  32              		@ frame_needed = 1, uses_anonymous_args = 0
  33 0000 80B5     		push	{r7, lr}
  34              	.LCFI0:
  35              		.cfi_def_cfa_offset 8
  36              		.cfi_offset 7, -8
  37              		.cfi_offset 14, -4
  38 0002 82B0     		sub	sp, sp, #8
  39              	.LCFI1:
  40              		.cfi_def_cfa_offset 16
  41 0004 00AF     		add	r7, sp, #0
  42              	.LCFI2:
  43              		.cfi_def_cfa_register 7
  44 0006 7860     		str	r0, [r7, #4]
 329:Drivers/STM32L4xx_HAL_Driver/Src/stm32l4xx_hal_uart.c ****   /* Check the UART handle allocation */
 330:Drivers/STM32L4xx_HAL_Driver/Src/stm32l4xx_hal_uart.c ****   if (huart == NULL)
  45              		.loc 1 330 6
  46 0008 7B68     		ldr	r3, [r7, #4]
  47 000a 002B     		cmp	r3, #0
  48 000c 01D1     		bne	.L2
 331:Drivers/STM32L4xx_HAL_Driver/Src/stm32l4xx_hal_uart.c ****   {
 332:Drivers/STM32L4xx_HAL_Driver/Src/stm32l4xx_hal_uart.c ****     return HAL_ERROR;
  49              		.loc 1 332 12
  50 000e 0123     		movs	r3, #1
  51 0010 40E0     		b	.L3
  52              	.L2:
 333:Drivers/STM32L4xx_HAL_Driver/Src/stm32l4xx_hal_uart.c ****   }
 334:Drivers/STM32L4xx_HAL_Driver/Src/stm32l4xx_hal_uart.c **** 
 335:Drivers/STM32L4xx_HAL_Driver/Src/stm32l4xx_hal_uart.c ****   if (huart->Init.HwFlowCtl != UART_HWCONTROL_NONE)
 336:Drivers/STM32L4xx_HAL_Driver/Src/stm32l4xx_hal_uart.c ****   {
 337:Drivers/STM32L4xx_HAL_Driver/Src/stm32l4xx_hal_uart.c ****     /* Check the parameters */
 338:Drivers/STM32L4xx_HAL_Driver/Src/stm32l4xx_hal_uart.c ****     assert_param(IS_UART_HWFLOW_INSTANCE(huart->Instance));
 339:Drivers/STM32L4xx_HAL_Driver/Src/stm32l4xx_hal_uart.c ****   }
 340:Drivers/STM32L4xx_HAL_Driver/Src/stm32l4xx_hal_uart.c ****   else
 341:Drivers/STM32L4xx_HAL_Driver/Src/stm32l4xx_hal_uart.c ****   {
 342:Drivers/STM32L4xx_HAL_Driver/Src/stm32l4xx_hal_uart.c ****     /* Check the parameters */
 343:Drivers/STM32L4xx_HAL_Driver/Src/stm32l4xx_hal_uart.c ****     assert_param((IS_UART_INSTANCE(huart->Instance)) || (IS_LPUART_INSTANCE(huart->Instance)));
 344:Drivers/STM32L4xx_HAL_Driver/Src/stm32l4xx_hal_uart.c ****   }
 345:Drivers/STM32L4xx_HAL_Driver/Src/stm32l4xx_hal_uart.c **** 
 346:Drivers/STM32L4xx_HAL_Driver/Src/stm32l4xx_hal_uart.c ****   if (huart->gState == HAL_UART_STATE_RESET)
  53              		.loc 1 346 12
  54 0012 7B68     		ldr	r3, [r7, #4]
ARM GAS  /var/folders/k7/81v8fz9j4v98_s0dd31l1wsr0000gn/T//ccpVz2vH.s 			page 8


  55 0014 9B6F     		ldr	r3, [r3, #120]
  56              		.loc 1 346 6
  57 0016 002B     		cmp	r3, #0
  58 0018 06D1     		bne	.L4
 347:Drivers/STM32L4xx_HAL_Driver/Src/stm32l4xx_hal_uart.c ****   {
 348:Drivers/STM32L4xx_HAL_Driver/Src/stm32l4xx_hal_uart.c ****     /* Allocate lock resource and initialize it */
 349:Drivers/STM32L4xx_HAL_Driver/Src/stm32l4xx_hal_uart.c ****     huart->Lock = HAL_UNLOCKED;
  59              		.loc 1 349 17
  60 001a 7B68     		ldr	r3, [r7, #4]
  61 001c 0022     		movs	r2, #0
  62 001e 83F87420 		strb	r2, [r3, #116]
 350:Drivers/STM32L4xx_HAL_Driver/Src/stm32l4xx_hal_uart.c **** 
 351:Drivers/STM32L4xx_HAL_Driver/Src/stm32l4xx_hal_uart.c **** #if (USE_HAL_UART_REGISTER_CALLBACKS == 1)
 352:Drivers/STM32L4xx_HAL_Driver/Src/stm32l4xx_hal_uart.c ****     UART_InitCallbacksToDefault(huart);
 353:Drivers/STM32L4xx_HAL_Driver/Src/stm32l4xx_hal_uart.c **** 
 354:Drivers/STM32L4xx_HAL_Driver/Src/stm32l4xx_hal_uart.c ****     if (huart->MspInitCallback == NULL)
 355:Drivers/STM32L4xx_HAL_Driver/Src/stm32l4xx_hal_uart.c ****     {
 356:Drivers/STM32L4xx_HAL_Driver/Src/stm32l4xx_hal_uart.c ****       huart->MspInitCallback = HAL_UART_MspInit;
 357:Drivers/STM32L4xx_HAL_Driver/Src/stm32l4xx_hal_uart.c ****     }
 358:Drivers/STM32L4xx_HAL_Driver/Src/stm32l4xx_hal_uart.c **** 
 359:Drivers/STM32L4xx_HAL_Driver/Src/stm32l4xx_hal_uart.c ****     /* Init the low level hardware */
 360:Drivers/STM32L4xx_HAL_Driver/Src/stm32l4xx_hal_uart.c ****     huart->MspInitCallback(huart);
 361:Drivers/STM32L4xx_HAL_Driver/Src/stm32l4xx_hal_uart.c **** #else
 362:Drivers/STM32L4xx_HAL_Driver/Src/stm32l4xx_hal_uart.c ****     /* Init the low level hardware : GPIO, CLOCK */
 363:Drivers/STM32L4xx_HAL_Driver/Src/stm32l4xx_hal_uart.c ****     HAL_UART_MspInit(huart);
  63              		.loc 1 363 5
  64 0022 7868     		ldr	r0, [r7, #4]
  65 0024 FFF7FEFF 		bl	HAL_UART_MspInit
  66              	.L4:
 364:Drivers/STM32L4xx_HAL_Driver/Src/stm32l4xx_hal_uart.c **** #endif /* (USE_HAL_UART_REGISTER_CALLBACKS) */
 365:Drivers/STM32L4xx_HAL_Driver/Src/stm32l4xx_hal_uart.c ****   }
 366:Drivers/STM32L4xx_HAL_Driver/Src/stm32l4xx_hal_uart.c **** 
 367:Drivers/STM32L4xx_HAL_Driver/Src/stm32l4xx_hal_uart.c ****   huart->gState = HAL_UART_STATE_BUSY;
  67              		.loc 1 367 17
  68 0028 7B68     		ldr	r3, [r7, #4]
  69 002a 2422     		movs	r2, #36
  70 002c 9A67     		str	r2, [r3, #120]
 368:Drivers/STM32L4xx_HAL_Driver/Src/stm32l4xx_hal_uart.c **** 
 369:Drivers/STM32L4xx_HAL_Driver/Src/stm32l4xx_hal_uart.c ****   __HAL_UART_DISABLE(huart);
  71              		.loc 1 369 3
  72 002e 7B68     		ldr	r3, [r7, #4]
  73 0030 1B68     		ldr	r3, [r3]
  74 0032 1A68     		ldr	r2, [r3]
  75 0034 7B68     		ldr	r3, [r7, #4]
  76 0036 1B68     		ldr	r3, [r3]
  77 0038 22F00102 		bic	r2, r2, #1
  78 003c 1A60     		str	r2, [r3]
 370:Drivers/STM32L4xx_HAL_Driver/Src/stm32l4xx_hal_uart.c **** 
 371:Drivers/STM32L4xx_HAL_Driver/Src/stm32l4xx_hal_uart.c ****   /* Set the UART Communication parameters */
 372:Drivers/STM32L4xx_HAL_Driver/Src/stm32l4xx_hal_uart.c ****   if (UART_SetConfig(huart) == HAL_ERROR)
  79              		.loc 1 372 7
  80 003e 7868     		ldr	r0, [r7, #4]
  81 0040 FFF7FEFF 		bl	UART_SetConfig
  82 0044 0346     		mov	r3, r0
  83              		.loc 1 372 6
  84 0046 012B     		cmp	r3, #1
  85 0048 01D1     		bne	.L5
ARM GAS  /var/folders/k7/81v8fz9j4v98_s0dd31l1wsr0000gn/T//ccpVz2vH.s 			page 9


 373:Drivers/STM32L4xx_HAL_Driver/Src/stm32l4xx_hal_uart.c ****   {
 374:Drivers/STM32L4xx_HAL_Driver/Src/stm32l4xx_hal_uart.c ****     return HAL_ERROR;
  86              		.loc 1 374 12
  87 004a 0123     		movs	r3, #1
  88 004c 22E0     		b	.L3
  89              	.L5:
 375:Drivers/STM32L4xx_HAL_Driver/Src/stm32l4xx_hal_uart.c ****   }
 376:Drivers/STM32L4xx_HAL_Driver/Src/stm32l4xx_hal_uart.c **** 
 377:Drivers/STM32L4xx_HAL_Driver/Src/stm32l4xx_hal_uart.c ****   if (huart->AdvancedInit.AdvFeatureInit != UART_ADVFEATURE_NO_INIT)
  90              		.loc 1 377 26
  91 004e 7B68     		ldr	r3, [r7, #4]
  92 0050 5B6A     		ldr	r3, [r3, #36]
  93              		.loc 1 377 6
  94 0052 002B     		cmp	r3, #0
  95 0054 02D0     		beq	.L6
 378:Drivers/STM32L4xx_HAL_Driver/Src/stm32l4xx_hal_uart.c ****   {
 379:Drivers/STM32L4xx_HAL_Driver/Src/stm32l4xx_hal_uart.c ****     UART_AdvFeatureConfig(huart);
  96              		.loc 1 379 5
  97 0056 7868     		ldr	r0, [r7, #4]
  98 0058 FFF7FEFF 		bl	UART_AdvFeatureConfig
  99              	.L6:
 380:Drivers/STM32L4xx_HAL_Driver/Src/stm32l4xx_hal_uart.c ****   }
 381:Drivers/STM32L4xx_HAL_Driver/Src/stm32l4xx_hal_uart.c **** 
 382:Drivers/STM32L4xx_HAL_Driver/Src/stm32l4xx_hal_uart.c ****   /* In asynchronous mode, the following bits must be kept cleared:
 383:Drivers/STM32L4xx_HAL_Driver/Src/stm32l4xx_hal_uart.c ****   - LINEN and CLKEN bits in the USART_CR2 register,
 384:Drivers/STM32L4xx_HAL_Driver/Src/stm32l4xx_hal_uart.c ****   - SCEN, HDSEL and IREN  bits in the USART_CR3 register.*/
 385:Drivers/STM32L4xx_HAL_Driver/Src/stm32l4xx_hal_uart.c ****   CLEAR_BIT(huart->Instance->CR2, (USART_CR2_LINEN | USART_CR2_CLKEN));
 100              		.loc 1 385 3
 101 005c 7B68     		ldr	r3, [r7, #4]
 102 005e 1B68     		ldr	r3, [r3]
 103 0060 5A68     		ldr	r2, [r3, #4]
 104 0062 7B68     		ldr	r3, [r7, #4]
 105 0064 1B68     		ldr	r3, [r3]
 106 0066 22F49042 		bic	r2, r2, #18432
 107 006a 5A60     		str	r2, [r3, #4]
 386:Drivers/STM32L4xx_HAL_Driver/Src/stm32l4xx_hal_uart.c ****   CLEAR_BIT(huart->Instance->CR3, (USART_CR3_SCEN | USART_CR3_HDSEL | USART_CR3_IREN));
 108              		.loc 1 386 3
 109 006c 7B68     		ldr	r3, [r7, #4]
 110 006e 1B68     		ldr	r3, [r3]
 111 0070 9A68     		ldr	r2, [r3, #8]
 112 0072 7B68     		ldr	r3, [r7, #4]
 113 0074 1B68     		ldr	r3, [r3]
 114 0076 22F02A02 		bic	r2, r2, #42
 115 007a 9A60     		str	r2, [r3, #8]
 387:Drivers/STM32L4xx_HAL_Driver/Src/stm32l4xx_hal_uart.c **** 
 388:Drivers/STM32L4xx_HAL_Driver/Src/stm32l4xx_hal_uart.c ****   __HAL_UART_ENABLE(huart);
 116              		.loc 1 388 3
 117 007c 7B68     		ldr	r3, [r7, #4]
 118 007e 1B68     		ldr	r3, [r3]
 119 0080 1A68     		ldr	r2, [r3]
 120 0082 7B68     		ldr	r3, [r7, #4]
 121 0084 1B68     		ldr	r3, [r3]
 122 0086 42F00102 		orr	r2, r2, #1
 123 008a 1A60     		str	r2, [r3]
 389:Drivers/STM32L4xx_HAL_Driver/Src/stm32l4xx_hal_uart.c **** 
 390:Drivers/STM32L4xx_HAL_Driver/Src/stm32l4xx_hal_uart.c ****   /* TEACK and/or REACK to check before moving huart->gState and huart->RxState to Ready */
 391:Drivers/STM32L4xx_HAL_Driver/Src/stm32l4xx_hal_uart.c ****   return (UART_CheckIdleState(huart));
ARM GAS  /var/folders/k7/81v8fz9j4v98_s0dd31l1wsr0000gn/T//ccpVz2vH.s 			page 10


 124              		.loc 1 391 11
 125 008c 7868     		ldr	r0, [r7, #4]
 126 008e FFF7FEFF 		bl	UART_CheckIdleState
 127 0092 0346     		mov	r3, r0
 128              	.L3:
 392:Drivers/STM32L4xx_HAL_Driver/Src/stm32l4xx_hal_uart.c **** }
 129              		.loc 1 392 1
 130 0094 1846     		mov	r0, r3
 131 0096 0837     		adds	r7, r7, #8
 132              	.LCFI3:
 133              		.cfi_def_cfa_offset 8
 134 0098 BD46     		mov	sp, r7
 135              	.LCFI4:
 136              		.cfi_def_cfa_register 13
 137              		@ sp needed
 138 009a 80BD     		pop	{r7, pc}
 139              		.cfi_endproc
 140              	.LFE292:
 142              		.section	.text.HAL_HalfDuplex_Init,"ax",%progbits
 143              		.align	1
 144              		.global	HAL_HalfDuplex_Init
 145              		.syntax unified
 146              		.thumb
 147              		.thumb_func
 148              		.fpu fpv4-sp-d16
 150              	HAL_HalfDuplex_Init:
 151              	.LFB293:
 393:Drivers/STM32L4xx_HAL_Driver/Src/stm32l4xx_hal_uart.c **** 
 394:Drivers/STM32L4xx_HAL_Driver/Src/stm32l4xx_hal_uart.c **** /**
 395:Drivers/STM32L4xx_HAL_Driver/Src/stm32l4xx_hal_uart.c ****   * @brief Initialize the half-duplex mode according to the specified
 396:Drivers/STM32L4xx_HAL_Driver/Src/stm32l4xx_hal_uart.c ****   *        parameters in the UART_InitTypeDef and creates the associated handle.
 397:Drivers/STM32L4xx_HAL_Driver/Src/stm32l4xx_hal_uart.c ****   * @param huart UART handle.
 398:Drivers/STM32L4xx_HAL_Driver/Src/stm32l4xx_hal_uart.c ****   * @retval HAL status
 399:Drivers/STM32L4xx_HAL_Driver/Src/stm32l4xx_hal_uart.c ****   */
 400:Drivers/STM32L4xx_HAL_Driver/Src/stm32l4xx_hal_uart.c **** HAL_StatusTypeDef HAL_HalfDuplex_Init(UART_HandleTypeDef *huart)
 401:Drivers/STM32L4xx_HAL_Driver/Src/stm32l4xx_hal_uart.c **** {
 152              		.loc 1 401 1
 153              		.cfi_startproc
 154              		@ args = 0, pretend = 0, frame = 8
 155              		@ frame_needed = 1, uses_anonymous_args = 0
 156 0000 80B5     		push	{r7, lr}
 157              	.LCFI5:
 158              		.cfi_def_cfa_offset 8
 159              		.cfi_offset 7, -8
 160              		.cfi_offset 14, -4
 161 0002 82B0     		sub	sp, sp, #8
 162              	.LCFI6:
 163              		.cfi_def_cfa_offset 16
 164 0004 00AF     		add	r7, sp, #0
 165              	.LCFI7:
 166              		.cfi_def_cfa_register 7
 167 0006 7860     		str	r0, [r7, #4]
 402:Drivers/STM32L4xx_HAL_Driver/Src/stm32l4xx_hal_uart.c ****   /* Check the UART handle allocation */
 403:Drivers/STM32L4xx_HAL_Driver/Src/stm32l4xx_hal_uart.c ****   if (huart == NULL)
 168              		.loc 1 403 6
 169 0008 7B68     		ldr	r3, [r7, #4]
 170 000a 002B     		cmp	r3, #0
ARM GAS  /var/folders/k7/81v8fz9j4v98_s0dd31l1wsr0000gn/T//ccpVz2vH.s 			page 11


 171 000c 01D1     		bne	.L8
 404:Drivers/STM32L4xx_HAL_Driver/Src/stm32l4xx_hal_uart.c ****   {
 405:Drivers/STM32L4xx_HAL_Driver/Src/stm32l4xx_hal_uart.c ****     return HAL_ERROR;
 172              		.loc 1 405 12
 173 000e 0123     		movs	r3, #1
 174 0010 48E0     		b	.L9
 175              	.L8:
 406:Drivers/STM32L4xx_HAL_Driver/Src/stm32l4xx_hal_uart.c ****   }
 407:Drivers/STM32L4xx_HAL_Driver/Src/stm32l4xx_hal_uart.c **** 
 408:Drivers/STM32L4xx_HAL_Driver/Src/stm32l4xx_hal_uart.c ****   /* Check UART instance */
 409:Drivers/STM32L4xx_HAL_Driver/Src/stm32l4xx_hal_uart.c ****   assert_param(IS_UART_HALFDUPLEX_INSTANCE(huart->Instance));
 410:Drivers/STM32L4xx_HAL_Driver/Src/stm32l4xx_hal_uart.c **** 
 411:Drivers/STM32L4xx_HAL_Driver/Src/stm32l4xx_hal_uart.c ****   if (huart->gState == HAL_UART_STATE_RESET)
 176              		.loc 1 411 12
 177 0012 7B68     		ldr	r3, [r7, #4]
 178 0014 9B6F     		ldr	r3, [r3, #120]
 179              		.loc 1 411 6
 180 0016 002B     		cmp	r3, #0
 181 0018 06D1     		bne	.L10
 412:Drivers/STM32L4xx_HAL_Driver/Src/stm32l4xx_hal_uart.c ****   {
 413:Drivers/STM32L4xx_HAL_Driver/Src/stm32l4xx_hal_uart.c ****     /* Allocate lock resource and initialize it */
 414:Drivers/STM32L4xx_HAL_Driver/Src/stm32l4xx_hal_uart.c ****     huart->Lock = HAL_UNLOCKED;
 182              		.loc 1 414 17
 183 001a 7B68     		ldr	r3, [r7, #4]
 184 001c 0022     		movs	r2, #0
 185 001e 83F87420 		strb	r2, [r3, #116]
 415:Drivers/STM32L4xx_HAL_Driver/Src/stm32l4xx_hal_uart.c **** 
 416:Drivers/STM32L4xx_HAL_Driver/Src/stm32l4xx_hal_uart.c **** #if (USE_HAL_UART_REGISTER_CALLBACKS == 1)
 417:Drivers/STM32L4xx_HAL_Driver/Src/stm32l4xx_hal_uart.c ****     UART_InitCallbacksToDefault(huart);
 418:Drivers/STM32L4xx_HAL_Driver/Src/stm32l4xx_hal_uart.c **** 
 419:Drivers/STM32L4xx_HAL_Driver/Src/stm32l4xx_hal_uart.c ****     if (huart->MspInitCallback == NULL)
 420:Drivers/STM32L4xx_HAL_Driver/Src/stm32l4xx_hal_uart.c ****     {
 421:Drivers/STM32L4xx_HAL_Driver/Src/stm32l4xx_hal_uart.c ****       huart->MspInitCallback = HAL_UART_MspInit;
 422:Drivers/STM32L4xx_HAL_Driver/Src/stm32l4xx_hal_uart.c ****     }
 423:Drivers/STM32L4xx_HAL_Driver/Src/stm32l4xx_hal_uart.c **** 
 424:Drivers/STM32L4xx_HAL_Driver/Src/stm32l4xx_hal_uart.c ****     /* Init the low level hardware */
 425:Drivers/STM32L4xx_HAL_Driver/Src/stm32l4xx_hal_uart.c ****     huart->MspInitCallback(huart);
 426:Drivers/STM32L4xx_HAL_Driver/Src/stm32l4xx_hal_uart.c **** #else
 427:Drivers/STM32L4xx_HAL_Driver/Src/stm32l4xx_hal_uart.c ****     /* Init the low level hardware : GPIO, CLOCK */
 428:Drivers/STM32L4xx_HAL_Driver/Src/stm32l4xx_hal_uart.c ****     HAL_UART_MspInit(huart);
 186              		.loc 1 428 5
 187 0022 7868     		ldr	r0, [r7, #4]
 188 0024 FFF7FEFF 		bl	HAL_UART_MspInit
 189              	.L10:
 429:Drivers/STM32L4xx_HAL_Driver/Src/stm32l4xx_hal_uart.c **** #endif /* (USE_HAL_UART_REGISTER_CALLBACKS) */
 430:Drivers/STM32L4xx_HAL_Driver/Src/stm32l4xx_hal_uart.c ****   }
 431:Drivers/STM32L4xx_HAL_Driver/Src/stm32l4xx_hal_uart.c **** 
 432:Drivers/STM32L4xx_HAL_Driver/Src/stm32l4xx_hal_uart.c ****   huart->gState = HAL_UART_STATE_BUSY;
 190              		.loc 1 432 17
 191 0028 7B68     		ldr	r3, [r7, #4]
 192 002a 2422     		movs	r2, #36
 193 002c 9A67     		str	r2, [r3, #120]
 433:Drivers/STM32L4xx_HAL_Driver/Src/stm32l4xx_hal_uart.c **** 
 434:Drivers/STM32L4xx_HAL_Driver/Src/stm32l4xx_hal_uart.c ****   __HAL_UART_DISABLE(huart);
 194              		.loc 1 434 3
 195 002e 7B68     		ldr	r3, [r7, #4]
 196 0030 1B68     		ldr	r3, [r3]
ARM GAS  /var/folders/k7/81v8fz9j4v98_s0dd31l1wsr0000gn/T//ccpVz2vH.s 			page 12


 197 0032 1A68     		ldr	r2, [r3]
 198 0034 7B68     		ldr	r3, [r7, #4]
 199 0036 1B68     		ldr	r3, [r3]
 200 0038 22F00102 		bic	r2, r2, #1
 201 003c 1A60     		str	r2, [r3]
 435:Drivers/STM32L4xx_HAL_Driver/Src/stm32l4xx_hal_uart.c **** 
 436:Drivers/STM32L4xx_HAL_Driver/Src/stm32l4xx_hal_uart.c ****   /* Set the UART Communication parameters */
 437:Drivers/STM32L4xx_HAL_Driver/Src/stm32l4xx_hal_uart.c ****   if (UART_SetConfig(huart) == HAL_ERROR)
 202              		.loc 1 437 7
 203 003e 7868     		ldr	r0, [r7, #4]
 204 0040 FFF7FEFF 		bl	UART_SetConfig
 205 0044 0346     		mov	r3, r0
 206              		.loc 1 437 6
 207 0046 012B     		cmp	r3, #1
 208 0048 01D1     		bne	.L11
 438:Drivers/STM32L4xx_HAL_Driver/Src/stm32l4xx_hal_uart.c ****   {
 439:Drivers/STM32L4xx_HAL_Driver/Src/stm32l4xx_hal_uart.c ****     return HAL_ERROR;
 209              		.loc 1 439 12
 210 004a 0123     		movs	r3, #1
 211 004c 2AE0     		b	.L9
 212              	.L11:
 440:Drivers/STM32L4xx_HAL_Driver/Src/stm32l4xx_hal_uart.c ****   }
 441:Drivers/STM32L4xx_HAL_Driver/Src/stm32l4xx_hal_uart.c **** 
 442:Drivers/STM32L4xx_HAL_Driver/Src/stm32l4xx_hal_uart.c ****   if (huart->AdvancedInit.AdvFeatureInit != UART_ADVFEATURE_NO_INIT)
 213              		.loc 1 442 26
 214 004e 7B68     		ldr	r3, [r7, #4]
 215 0050 5B6A     		ldr	r3, [r3, #36]
 216              		.loc 1 442 6
 217 0052 002B     		cmp	r3, #0
 218 0054 02D0     		beq	.L12
 443:Drivers/STM32L4xx_HAL_Driver/Src/stm32l4xx_hal_uart.c ****   {
 444:Drivers/STM32L4xx_HAL_Driver/Src/stm32l4xx_hal_uart.c ****     UART_AdvFeatureConfig(huart);
 219              		.loc 1 444 5
 220 0056 7868     		ldr	r0, [r7, #4]
 221 0058 FFF7FEFF 		bl	UART_AdvFeatureConfig
 222              	.L12:
 445:Drivers/STM32L4xx_HAL_Driver/Src/stm32l4xx_hal_uart.c ****   }
 446:Drivers/STM32L4xx_HAL_Driver/Src/stm32l4xx_hal_uart.c **** 
 447:Drivers/STM32L4xx_HAL_Driver/Src/stm32l4xx_hal_uart.c ****   /* In half-duplex mode, the following bits must be kept cleared:
 448:Drivers/STM32L4xx_HAL_Driver/Src/stm32l4xx_hal_uart.c ****   - LINEN and CLKEN bits in the USART_CR2 register,
 449:Drivers/STM32L4xx_HAL_Driver/Src/stm32l4xx_hal_uart.c ****   - SCEN and IREN bits in the USART_CR3 register.*/
 450:Drivers/STM32L4xx_HAL_Driver/Src/stm32l4xx_hal_uart.c ****   CLEAR_BIT(huart->Instance->CR2, (USART_CR2_LINEN | USART_CR2_CLKEN));
 223              		.loc 1 450 3
 224 005c 7B68     		ldr	r3, [r7, #4]
 225 005e 1B68     		ldr	r3, [r3]
 226 0060 5A68     		ldr	r2, [r3, #4]
 227 0062 7B68     		ldr	r3, [r7, #4]
 228 0064 1B68     		ldr	r3, [r3]
 229 0066 22F49042 		bic	r2, r2, #18432
 230 006a 5A60     		str	r2, [r3, #4]
 451:Drivers/STM32L4xx_HAL_Driver/Src/stm32l4xx_hal_uart.c ****   CLEAR_BIT(huart->Instance->CR3, (USART_CR3_IREN | USART_CR3_SCEN));
 231              		.loc 1 451 3
 232 006c 7B68     		ldr	r3, [r7, #4]
 233 006e 1B68     		ldr	r3, [r3]
 234 0070 9A68     		ldr	r2, [r3, #8]
 235 0072 7B68     		ldr	r3, [r7, #4]
 236 0074 1B68     		ldr	r3, [r3]
ARM GAS  /var/folders/k7/81v8fz9j4v98_s0dd31l1wsr0000gn/T//ccpVz2vH.s 			page 13


 237 0076 22F02202 		bic	r2, r2, #34
 238 007a 9A60     		str	r2, [r3, #8]
 452:Drivers/STM32L4xx_HAL_Driver/Src/stm32l4xx_hal_uart.c **** 
 453:Drivers/STM32L4xx_HAL_Driver/Src/stm32l4xx_hal_uart.c ****   /* Enable the Half-Duplex mode by setting the HDSEL bit in the CR3 register */
 454:Drivers/STM32L4xx_HAL_Driver/Src/stm32l4xx_hal_uart.c ****   SET_BIT(huart->Instance->CR3, USART_CR3_HDSEL);
 239              		.loc 1 454 3
 240 007c 7B68     		ldr	r3, [r7, #4]
 241 007e 1B68     		ldr	r3, [r3]
 242 0080 9A68     		ldr	r2, [r3, #8]
 243 0082 7B68     		ldr	r3, [r7, #4]
 244 0084 1B68     		ldr	r3, [r3]
 245 0086 42F00802 		orr	r2, r2, #8
 246 008a 9A60     		str	r2, [r3, #8]
 455:Drivers/STM32L4xx_HAL_Driver/Src/stm32l4xx_hal_uart.c **** 
 456:Drivers/STM32L4xx_HAL_Driver/Src/stm32l4xx_hal_uart.c ****   __HAL_UART_ENABLE(huart);
 247              		.loc 1 456 3
 248 008c 7B68     		ldr	r3, [r7, #4]
 249 008e 1B68     		ldr	r3, [r3]
 250 0090 1A68     		ldr	r2, [r3]
 251 0092 7B68     		ldr	r3, [r7, #4]
 252 0094 1B68     		ldr	r3, [r3]
 253 0096 42F00102 		orr	r2, r2, #1
 254 009a 1A60     		str	r2, [r3]
 457:Drivers/STM32L4xx_HAL_Driver/Src/stm32l4xx_hal_uart.c **** 
 458:Drivers/STM32L4xx_HAL_Driver/Src/stm32l4xx_hal_uart.c ****   /* TEACK and/or REACK to check before moving huart->gState and huart->RxState to Ready */
 459:Drivers/STM32L4xx_HAL_Driver/Src/stm32l4xx_hal_uart.c ****   return (UART_CheckIdleState(huart));
 255              		.loc 1 459 11
 256 009c 7868     		ldr	r0, [r7, #4]
 257 009e FFF7FEFF 		bl	UART_CheckIdleState
 258 00a2 0346     		mov	r3, r0
 259              	.L9:
 460:Drivers/STM32L4xx_HAL_Driver/Src/stm32l4xx_hal_uart.c **** }
 260              		.loc 1 460 1
 261 00a4 1846     		mov	r0, r3
 262 00a6 0837     		adds	r7, r7, #8
 263              	.LCFI8:
 264              		.cfi_def_cfa_offset 8
 265 00a8 BD46     		mov	sp, r7
 266              	.LCFI9:
 267              		.cfi_def_cfa_register 13
 268              		@ sp needed
 269 00aa 80BD     		pop	{r7, pc}
 270              		.cfi_endproc
 271              	.LFE293:
 273              		.section	.text.HAL_LIN_Init,"ax",%progbits
 274              		.align	1
 275              		.global	HAL_LIN_Init
 276              		.syntax unified
 277              		.thumb
 278              		.thumb_func
 279              		.fpu fpv4-sp-d16
 281              	HAL_LIN_Init:
 282              	.LFB294:
 461:Drivers/STM32L4xx_HAL_Driver/Src/stm32l4xx_hal_uart.c **** 
 462:Drivers/STM32L4xx_HAL_Driver/Src/stm32l4xx_hal_uart.c **** 
 463:Drivers/STM32L4xx_HAL_Driver/Src/stm32l4xx_hal_uart.c **** /**
 464:Drivers/STM32L4xx_HAL_Driver/Src/stm32l4xx_hal_uart.c ****   * @brief Initialize the LIN mode according to the specified
ARM GAS  /var/folders/k7/81v8fz9j4v98_s0dd31l1wsr0000gn/T//ccpVz2vH.s 			page 14


 465:Drivers/STM32L4xx_HAL_Driver/Src/stm32l4xx_hal_uart.c ****   *        parameters in the UART_InitTypeDef and creates the associated handle.
 466:Drivers/STM32L4xx_HAL_Driver/Src/stm32l4xx_hal_uart.c ****   * @param huart             UART handle.
 467:Drivers/STM32L4xx_HAL_Driver/Src/stm32l4xx_hal_uart.c ****   * @param BreakDetectLength Specifies the LIN break detection length.
 468:Drivers/STM32L4xx_HAL_Driver/Src/stm32l4xx_hal_uart.c ****   *        This parameter can be one of the following values:
 469:Drivers/STM32L4xx_HAL_Driver/Src/stm32l4xx_hal_uart.c ****   *          @arg @ref UART_LINBREAKDETECTLENGTH_10B 10-bit break detection
 470:Drivers/STM32L4xx_HAL_Driver/Src/stm32l4xx_hal_uart.c ****   *          @arg @ref UART_LINBREAKDETECTLENGTH_11B 11-bit break detection
 471:Drivers/STM32L4xx_HAL_Driver/Src/stm32l4xx_hal_uart.c ****   * @retval HAL status
 472:Drivers/STM32L4xx_HAL_Driver/Src/stm32l4xx_hal_uart.c ****   */
 473:Drivers/STM32L4xx_HAL_Driver/Src/stm32l4xx_hal_uart.c **** HAL_StatusTypeDef HAL_LIN_Init(UART_HandleTypeDef *huart, uint32_t BreakDetectLength)
 474:Drivers/STM32L4xx_HAL_Driver/Src/stm32l4xx_hal_uart.c **** {
 283              		.loc 1 474 1
 284              		.cfi_startproc
 285              		@ args = 0, pretend = 0, frame = 8
 286              		@ frame_needed = 1, uses_anonymous_args = 0
 287 0000 80B5     		push	{r7, lr}
 288              	.LCFI10:
 289              		.cfi_def_cfa_offset 8
 290              		.cfi_offset 7, -8
 291              		.cfi_offset 14, -4
 292 0002 82B0     		sub	sp, sp, #8
 293              	.LCFI11:
 294              		.cfi_def_cfa_offset 16
 295 0004 00AF     		add	r7, sp, #0
 296              	.LCFI12:
 297              		.cfi_def_cfa_register 7
 298 0006 7860     		str	r0, [r7, #4]
 299 0008 3960     		str	r1, [r7]
 475:Drivers/STM32L4xx_HAL_Driver/Src/stm32l4xx_hal_uart.c ****   /* Check the UART handle allocation */
 476:Drivers/STM32L4xx_HAL_Driver/Src/stm32l4xx_hal_uart.c ****   if (huart == NULL)
 300              		.loc 1 476 6
 301 000a 7B68     		ldr	r3, [r7, #4]
 302 000c 002B     		cmp	r3, #0
 303 000e 01D1     		bne	.L14
 477:Drivers/STM32L4xx_HAL_Driver/Src/stm32l4xx_hal_uart.c ****   {
 478:Drivers/STM32L4xx_HAL_Driver/Src/stm32l4xx_hal_uart.c ****     return HAL_ERROR;
 304              		.loc 1 478 12
 305 0010 0123     		movs	r3, #1
 306 0012 5FE0     		b	.L15
 307              	.L14:
 479:Drivers/STM32L4xx_HAL_Driver/Src/stm32l4xx_hal_uart.c ****   }
 480:Drivers/STM32L4xx_HAL_Driver/Src/stm32l4xx_hal_uart.c **** 
 481:Drivers/STM32L4xx_HAL_Driver/Src/stm32l4xx_hal_uart.c ****   /* Check the LIN UART instance */
 482:Drivers/STM32L4xx_HAL_Driver/Src/stm32l4xx_hal_uart.c ****   assert_param(IS_UART_LIN_INSTANCE(huart->Instance));
 483:Drivers/STM32L4xx_HAL_Driver/Src/stm32l4xx_hal_uart.c ****   /* Check the Break detection length parameter */
 484:Drivers/STM32L4xx_HAL_Driver/Src/stm32l4xx_hal_uart.c ****   assert_param(IS_UART_LIN_BREAK_DETECT_LENGTH(BreakDetectLength));
 485:Drivers/STM32L4xx_HAL_Driver/Src/stm32l4xx_hal_uart.c **** 
 486:Drivers/STM32L4xx_HAL_Driver/Src/stm32l4xx_hal_uart.c ****   /* LIN mode limited to 16-bit oversampling only */
 487:Drivers/STM32L4xx_HAL_Driver/Src/stm32l4xx_hal_uart.c ****   if (huart->Init.OverSampling == UART_OVERSAMPLING_8)
 308              		.loc 1 487 18
 309 0014 7B68     		ldr	r3, [r7, #4]
 310 0016 DB69     		ldr	r3, [r3, #28]
 311              		.loc 1 487 6
 312 0018 B3F5004F 		cmp	r3, #32768
 313 001c 01D1     		bne	.L16
 488:Drivers/STM32L4xx_HAL_Driver/Src/stm32l4xx_hal_uart.c ****   {
 489:Drivers/STM32L4xx_HAL_Driver/Src/stm32l4xx_hal_uart.c ****     return HAL_ERROR;
 314              		.loc 1 489 12
ARM GAS  /var/folders/k7/81v8fz9j4v98_s0dd31l1wsr0000gn/T//ccpVz2vH.s 			page 15


 315 001e 0123     		movs	r3, #1
 316 0020 58E0     		b	.L15
 317              	.L16:
 490:Drivers/STM32L4xx_HAL_Driver/Src/stm32l4xx_hal_uart.c ****   }
 491:Drivers/STM32L4xx_HAL_Driver/Src/stm32l4xx_hal_uart.c ****   /* LIN mode limited to 8-bit data length */
 492:Drivers/STM32L4xx_HAL_Driver/Src/stm32l4xx_hal_uart.c ****   if (huart->Init.WordLength != UART_WORDLENGTH_8B)
 318              		.loc 1 492 18
 319 0022 7B68     		ldr	r3, [r7, #4]
 320 0024 9B68     		ldr	r3, [r3, #8]
 321              		.loc 1 492 6
 322 0026 002B     		cmp	r3, #0
 323 0028 01D0     		beq	.L17
 493:Drivers/STM32L4xx_HAL_Driver/Src/stm32l4xx_hal_uart.c ****   {
 494:Drivers/STM32L4xx_HAL_Driver/Src/stm32l4xx_hal_uart.c ****     return HAL_ERROR;
 324              		.loc 1 494 12
 325 002a 0123     		movs	r3, #1
 326 002c 52E0     		b	.L15
 327              	.L17:
 495:Drivers/STM32L4xx_HAL_Driver/Src/stm32l4xx_hal_uart.c ****   }
 496:Drivers/STM32L4xx_HAL_Driver/Src/stm32l4xx_hal_uart.c **** 
 497:Drivers/STM32L4xx_HAL_Driver/Src/stm32l4xx_hal_uart.c ****   if (huart->gState == HAL_UART_STATE_RESET)
 328              		.loc 1 497 12
 329 002e 7B68     		ldr	r3, [r7, #4]
 330 0030 9B6F     		ldr	r3, [r3, #120]
 331              		.loc 1 497 6
 332 0032 002B     		cmp	r3, #0
 333 0034 06D1     		bne	.L18
 498:Drivers/STM32L4xx_HAL_Driver/Src/stm32l4xx_hal_uart.c ****   {
 499:Drivers/STM32L4xx_HAL_Driver/Src/stm32l4xx_hal_uart.c ****     /* Allocate lock resource and initialize it */
 500:Drivers/STM32L4xx_HAL_Driver/Src/stm32l4xx_hal_uart.c ****     huart->Lock = HAL_UNLOCKED;
 334              		.loc 1 500 17
 335 0036 7B68     		ldr	r3, [r7, #4]
 336 0038 0022     		movs	r2, #0
 337 003a 83F87420 		strb	r2, [r3, #116]
 501:Drivers/STM32L4xx_HAL_Driver/Src/stm32l4xx_hal_uart.c **** 
 502:Drivers/STM32L4xx_HAL_Driver/Src/stm32l4xx_hal_uart.c **** #if (USE_HAL_UART_REGISTER_CALLBACKS == 1)
 503:Drivers/STM32L4xx_HAL_Driver/Src/stm32l4xx_hal_uart.c ****     UART_InitCallbacksToDefault(huart);
 504:Drivers/STM32L4xx_HAL_Driver/Src/stm32l4xx_hal_uart.c **** 
 505:Drivers/STM32L4xx_HAL_Driver/Src/stm32l4xx_hal_uart.c ****     if (huart->MspInitCallback == NULL)
 506:Drivers/STM32L4xx_HAL_Driver/Src/stm32l4xx_hal_uart.c ****     {
 507:Drivers/STM32L4xx_HAL_Driver/Src/stm32l4xx_hal_uart.c ****       huart->MspInitCallback = HAL_UART_MspInit;
 508:Drivers/STM32L4xx_HAL_Driver/Src/stm32l4xx_hal_uart.c ****     }
 509:Drivers/STM32L4xx_HAL_Driver/Src/stm32l4xx_hal_uart.c **** 
 510:Drivers/STM32L4xx_HAL_Driver/Src/stm32l4xx_hal_uart.c ****     /* Init the low level hardware */
 511:Drivers/STM32L4xx_HAL_Driver/Src/stm32l4xx_hal_uart.c ****     huart->MspInitCallback(huart);
 512:Drivers/STM32L4xx_HAL_Driver/Src/stm32l4xx_hal_uart.c **** #else
 513:Drivers/STM32L4xx_HAL_Driver/Src/stm32l4xx_hal_uart.c ****     /* Init the low level hardware : GPIO, CLOCK */
 514:Drivers/STM32L4xx_HAL_Driver/Src/stm32l4xx_hal_uart.c ****     HAL_UART_MspInit(huart);
 338              		.loc 1 514 5
 339 003e 7868     		ldr	r0, [r7, #4]
 340 0040 FFF7FEFF 		bl	HAL_UART_MspInit
 341              	.L18:
 515:Drivers/STM32L4xx_HAL_Driver/Src/stm32l4xx_hal_uart.c **** #endif /* (USE_HAL_UART_REGISTER_CALLBACKS) */
 516:Drivers/STM32L4xx_HAL_Driver/Src/stm32l4xx_hal_uart.c ****   }
 517:Drivers/STM32L4xx_HAL_Driver/Src/stm32l4xx_hal_uart.c **** 
 518:Drivers/STM32L4xx_HAL_Driver/Src/stm32l4xx_hal_uart.c ****   huart->gState = HAL_UART_STATE_BUSY;
 342              		.loc 1 518 17
ARM GAS  /var/folders/k7/81v8fz9j4v98_s0dd31l1wsr0000gn/T//ccpVz2vH.s 			page 16


 343 0044 7B68     		ldr	r3, [r7, #4]
 344 0046 2422     		movs	r2, #36
 345 0048 9A67     		str	r2, [r3, #120]
 519:Drivers/STM32L4xx_HAL_Driver/Src/stm32l4xx_hal_uart.c **** 
 520:Drivers/STM32L4xx_HAL_Driver/Src/stm32l4xx_hal_uart.c ****   __HAL_UART_DISABLE(huart);
 346              		.loc 1 520 3
 347 004a 7B68     		ldr	r3, [r7, #4]
 348 004c 1B68     		ldr	r3, [r3]
 349 004e 1A68     		ldr	r2, [r3]
 350 0050 7B68     		ldr	r3, [r7, #4]
 351 0052 1B68     		ldr	r3, [r3]
 352 0054 22F00102 		bic	r2, r2, #1
 353 0058 1A60     		str	r2, [r3]
 521:Drivers/STM32L4xx_HAL_Driver/Src/stm32l4xx_hal_uart.c **** 
 522:Drivers/STM32L4xx_HAL_Driver/Src/stm32l4xx_hal_uart.c ****   /* Set the UART Communication parameters */
 523:Drivers/STM32L4xx_HAL_Driver/Src/stm32l4xx_hal_uart.c ****   if (UART_SetConfig(huart) == HAL_ERROR)
 354              		.loc 1 523 7
 355 005a 7868     		ldr	r0, [r7, #4]
 356 005c FFF7FEFF 		bl	UART_SetConfig
 357 0060 0346     		mov	r3, r0
 358              		.loc 1 523 6
 359 0062 012B     		cmp	r3, #1
 360 0064 01D1     		bne	.L19
 524:Drivers/STM32L4xx_HAL_Driver/Src/stm32l4xx_hal_uart.c ****   {
 525:Drivers/STM32L4xx_HAL_Driver/Src/stm32l4xx_hal_uart.c ****     return HAL_ERROR;
 361              		.loc 1 525 12
 362 0066 0123     		movs	r3, #1
 363 0068 34E0     		b	.L15
 364              	.L19:
 526:Drivers/STM32L4xx_HAL_Driver/Src/stm32l4xx_hal_uart.c ****   }
 527:Drivers/STM32L4xx_HAL_Driver/Src/stm32l4xx_hal_uart.c **** 
 528:Drivers/STM32L4xx_HAL_Driver/Src/stm32l4xx_hal_uart.c ****   if (huart->AdvancedInit.AdvFeatureInit != UART_ADVFEATURE_NO_INIT)
 365              		.loc 1 528 26
 366 006a 7B68     		ldr	r3, [r7, #4]
 367 006c 5B6A     		ldr	r3, [r3, #36]
 368              		.loc 1 528 6
 369 006e 002B     		cmp	r3, #0
 370 0070 02D0     		beq	.L20
 529:Drivers/STM32L4xx_HAL_Driver/Src/stm32l4xx_hal_uart.c ****   {
 530:Drivers/STM32L4xx_HAL_Driver/Src/stm32l4xx_hal_uart.c ****     UART_AdvFeatureConfig(huart);
 371              		.loc 1 530 5
 372 0072 7868     		ldr	r0, [r7, #4]
 373 0074 FFF7FEFF 		bl	UART_AdvFeatureConfig
 374              	.L20:
 531:Drivers/STM32L4xx_HAL_Driver/Src/stm32l4xx_hal_uart.c ****   }
 532:Drivers/STM32L4xx_HAL_Driver/Src/stm32l4xx_hal_uart.c **** 
 533:Drivers/STM32L4xx_HAL_Driver/Src/stm32l4xx_hal_uart.c ****   /* In LIN mode, the following bits must be kept cleared:
 534:Drivers/STM32L4xx_HAL_Driver/Src/stm32l4xx_hal_uart.c ****   - LINEN and CLKEN bits in the USART_CR2 register,
 535:Drivers/STM32L4xx_HAL_Driver/Src/stm32l4xx_hal_uart.c ****   - SCEN and IREN bits in the USART_CR3 register.*/
 536:Drivers/STM32L4xx_HAL_Driver/Src/stm32l4xx_hal_uart.c ****   CLEAR_BIT(huart->Instance->CR2, USART_CR2_CLKEN);
 375              		.loc 1 536 3
 376 0078 7B68     		ldr	r3, [r7, #4]
 377 007a 1B68     		ldr	r3, [r3]
 378 007c 5A68     		ldr	r2, [r3, #4]
 379 007e 7B68     		ldr	r3, [r7, #4]
 380 0080 1B68     		ldr	r3, [r3]
 381 0082 22F40062 		bic	r2, r2, #2048
ARM GAS  /var/folders/k7/81v8fz9j4v98_s0dd31l1wsr0000gn/T//ccpVz2vH.s 			page 17


 382 0086 5A60     		str	r2, [r3, #4]
 537:Drivers/STM32L4xx_HAL_Driver/Src/stm32l4xx_hal_uart.c ****   CLEAR_BIT(huart->Instance->CR3, (USART_CR3_HDSEL | USART_CR3_IREN | USART_CR3_SCEN));
 383              		.loc 1 537 3
 384 0088 7B68     		ldr	r3, [r7, #4]
 385 008a 1B68     		ldr	r3, [r3]
 386 008c 9A68     		ldr	r2, [r3, #8]
 387 008e 7B68     		ldr	r3, [r7, #4]
 388 0090 1B68     		ldr	r3, [r3]
 389 0092 22F02A02 		bic	r2, r2, #42
 390 0096 9A60     		str	r2, [r3, #8]
 538:Drivers/STM32L4xx_HAL_Driver/Src/stm32l4xx_hal_uart.c **** 
 539:Drivers/STM32L4xx_HAL_Driver/Src/stm32l4xx_hal_uart.c ****   /* Enable the LIN mode by setting the LINEN bit in the CR2 register */
 540:Drivers/STM32L4xx_HAL_Driver/Src/stm32l4xx_hal_uart.c ****   SET_BIT(huart->Instance->CR2, USART_CR2_LINEN);
 391              		.loc 1 540 3
 392 0098 7B68     		ldr	r3, [r7, #4]
 393 009a 1B68     		ldr	r3, [r3]
 394 009c 5A68     		ldr	r2, [r3, #4]
 395 009e 7B68     		ldr	r3, [r7, #4]
 396 00a0 1B68     		ldr	r3, [r3]
 397 00a2 42F48042 		orr	r2, r2, #16384
 398 00a6 5A60     		str	r2, [r3, #4]
 541:Drivers/STM32L4xx_HAL_Driver/Src/stm32l4xx_hal_uart.c **** 
 542:Drivers/STM32L4xx_HAL_Driver/Src/stm32l4xx_hal_uart.c ****   /* Set the USART LIN Break detection length. */
 543:Drivers/STM32L4xx_HAL_Driver/Src/stm32l4xx_hal_uart.c ****   MODIFY_REG(huart->Instance->CR2, USART_CR2_LBDL, BreakDetectLength);
 399              		.loc 1 543 3
 400 00a8 7B68     		ldr	r3, [r7, #4]
 401 00aa 1B68     		ldr	r3, [r3]
 402 00ac 5B68     		ldr	r3, [r3, #4]
 403 00ae 23F02001 		bic	r1, r3, #32
 404 00b2 7B68     		ldr	r3, [r7, #4]
 405 00b4 1B68     		ldr	r3, [r3]
 406 00b6 3A68     		ldr	r2, [r7]
 407 00b8 0A43     		orrs	r2, r2, r1
 408 00ba 5A60     		str	r2, [r3, #4]
 544:Drivers/STM32L4xx_HAL_Driver/Src/stm32l4xx_hal_uart.c **** 
 545:Drivers/STM32L4xx_HAL_Driver/Src/stm32l4xx_hal_uart.c ****   __HAL_UART_ENABLE(huart);
 409              		.loc 1 545 3
 410 00bc 7B68     		ldr	r3, [r7, #4]
 411 00be 1B68     		ldr	r3, [r3]
 412 00c0 1A68     		ldr	r2, [r3]
 413 00c2 7B68     		ldr	r3, [r7, #4]
 414 00c4 1B68     		ldr	r3, [r3]
 415 00c6 42F00102 		orr	r2, r2, #1
 416 00ca 1A60     		str	r2, [r3]
 546:Drivers/STM32L4xx_HAL_Driver/Src/stm32l4xx_hal_uart.c **** 
 547:Drivers/STM32L4xx_HAL_Driver/Src/stm32l4xx_hal_uart.c ****   /* TEACK and/or REACK to check before moving huart->gState and huart->RxState to Ready */
 548:Drivers/STM32L4xx_HAL_Driver/Src/stm32l4xx_hal_uart.c ****   return (UART_CheckIdleState(huart));
 417              		.loc 1 548 11
 418 00cc 7868     		ldr	r0, [r7, #4]
 419 00ce FFF7FEFF 		bl	UART_CheckIdleState
 420 00d2 0346     		mov	r3, r0
 421              	.L15:
 549:Drivers/STM32L4xx_HAL_Driver/Src/stm32l4xx_hal_uart.c **** }
 422              		.loc 1 549 1
 423 00d4 1846     		mov	r0, r3
 424 00d6 0837     		adds	r7, r7, #8
 425              	.LCFI13:
ARM GAS  /var/folders/k7/81v8fz9j4v98_s0dd31l1wsr0000gn/T//ccpVz2vH.s 			page 18


 426              		.cfi_def_cfa_offset 8
 427 00d8 BD46     		mov	sp, r7
 428              	.LCFI14:
 429              		.cfi_def_cfa_register 13
 430              		@ sp needed
 431 00da 80BD     		pop	{r7, pc}
 432              		.cfi_endproc
 433              	.LFE294:
 435              		.section	.text.HAL_MultiProcessor_Init,"ax",%progbits
 436              		.align	1
 437              		.global	HAL_MultiProcessor_Init
 438              		.syntax unified
 439              		.thumb
 440              		.thumb_func
 441              		.fpu fpv4-sp-d16
 443              	HAL_MultiProcessor_Init:
 444              	.LFB295:
 550:Drivers/STM32L4xx_HAL_Driver/Src/stm32l4xx_hal_uart.c **** 
 551:Drivers/STM32L4xx_HAL_Driver/Src/stm32l4xx_hal_uart.c **** 
 552:Drivers/STM32L4xx_HAL_Driver/Src/stm32l4xx_hal_uart.c **** /**
 553:Drivers/STM32L4xx_HAL_Driver/Src/stm32l4xx_hal_uart.c ****   * @brief Initialize the multiprocessor mode according to the specified
 554:Drivers/STM32L4xx_HAL_Driver/Src/stm32l4xx_hal_uart.c ****   *        parameters in the UART_InitTypeDef and initialize the associated handle.
 555:Drivers/STM32L4xx_HAL_Driver/Src/stm32l4xx_hal_uart.c ****   * @param huart        UART handle.
 556:Drivers/STM32L4xx_HAL_Driver/Src/stm32l4xx_hal_uart.c ****   * @param Address      UART node address (4-, 6-, 7- or 8-bit long).
 557:Drivers/STM32L4xx_HAL_Driver/Src/stm32l4xx_hal_uart.c ****   * @param WakeUpMethod Specifies the UART wakeup method.
 558:Drivers/STM32L4xx_HAL_Driver/Src/stm32l4xx_hal_uart.c ****   *        This parameter can be one of the following values:
 559:Drivers/STM32L4xx_HAL_Driver/Src/stm32l4xx_hal_uart.c ****   *          @arg @ref UART_WAKEUPMETHOD_IDLELINE WakeUp by an idle line detection
 560:Drivers/STM32L4xx_HAL_Driver/Src/stm32l4xx_hal_uart.c ****   *          @arg @ref UART_WAKEUPMETHOD_ADDRESSMARK WakeUp by an address mark
 561:Drivers/STM32L4xx_HAL_Driver/Src/stm32l4xx_hal_uart.c ****   * @note  If the user resorts to idle line detection wake up, the Address parameter
 562:Drivers/STM32L4xx_HAL_Driver/Src/stm32l4xx_hal_uart.c ****   *        is useless and ignored by the initialization function.
 563:Drivers/STM32L4xx_HAL_Driver/Src/stm32l4xx_hal_uart.c ****   * @note  If the user resorts to address mark wake up, the address length detection
 564:Drivers/STM32L4xx_HAL_Driver/Src/stm32l4xx_hal_uart.c ****   *        is configured by default to 4 bits only. For the UART to be able to
 565:Drivers/STM32L4xx_HAL_Driver/Src/stm32l4xx_hal_uart.c ****   *        manage 6-, 7- or 8-bit long addresses detection, the API
 566:Drivers/STM32L4xx_HAL_Driver/Src/stm32l4xx_hal_uart.c ****   *        HAL_MultiProcessorEx_AddressLength_Set() must be called after
 567:Drivers/STM32L4xx_HAL_Driver/Src/stm32l4xx_hal_uart.c ****   *        HAL_MultiProcessor_Init().
 568:Drivers/STM32L4xx_HAL_Driver/Src/stm32l4xx_hal_uart.c ****   * @retval HAL status
 569:Drivers/STM32L4xx_HAL_Driver/Src/stm32l4xx_hal_uart.c ****   */
 570:Drivers/STM32L4xx_HAL_Driver/Src/stm32l4xx_hal_uart.c **** HAL_StatusTypeDef HAL_MultiProcessor_Init(UART_HandleTypeDef *huart, uint8_t Address, uint32_t Wake
 571:Drivers/STM32L4xx_HAL_Driver/Src/stm32l4xx_hal_uart.c **** {
 445              		.loc 1 571 1
 446              		.cfi_startproc
 447              		@ args = 0, pretend = 0, frame = 16
 448              		@ frame_needed = 1, uses_anonymous_args = 0
 449 0000 80B5     		push	{r7, lr}
 450              	.LCFI15:
 451              		.cfi_def_cfa_offset 8
 452              		.cfi_offset 7, -8
 453              		.cfi_offset 14, -4
 454 0002 84B0     		sub	sp, sp, #16
 455              	.LCFI16:
 456              		.cfi_def_cfa_offset 24
 457 0004 00AF     		add	r7, sp, #0
 458              	.LCFI17:
 459              		.cfi_def_cfa_register 7
 460 0006 F860     		str	r0, [r7, #12]
 461 0008 0B46     		mov	r3, r1
 462 000a 7A60     		str	r2, [r7, #4]
ARM GAS  /var/folders/k7/81v8fz9j4v98_s0dd31l1wsr0000gn/T//ccpVz2vH.s 			page 19


 463 000c FB72     		strb	r3, [r7, #11]
 572:Drivers/STM32L4xx_HAL_Driver/Src/stm32l4xx_hal_uart.c ****   /* Check the UART handle allocation */
 573:Drivers/STM32L4xx_HAL_Driver/Src/stm32l4xx_hal_uart.c ****   if (huart == NULL)
 464              		.loc 1 573 6
 465 000e FB68     		ldr	r3, [r7, #12]
 466 0010 002B     		cmp	r3, #0
 467 0012 01D1     		bne	.L22
 574:Drivers/STM32L4xx_HAL_Driver/Src/stm32l4xx_hal_uart.c ****   {
 575:Drivers/STM32L4xx_HAL_Driver/Src/stm32l4xx_hal_uart.c ****     return HAL_ERROR;
 468              		.loc 1 575 12
 469 0014 0123     		movs	r3, #1
 470 0016 59E0     		b	.L23
 471              	.L22:
 576:Drivers/STM32L4xx_HAL_Driver/Src/stm32l4xx_hal_uart.c ****   }
 577:Drivers/STM32L4xx_HAL_Driver/Src/stm32l4xx_hal_uart.c **** 
 578:Drivers/STM32L4xx_HAL_Driver/Src/stm32l4xx_hal_uart.c ****   /* Check the wake up method parameter */
 579:Drivers/STM32L4xx_HAL_Driver/Src/stm32l4xx_hal_uart.c ****   assert_param(IS_UART_WAKEUPMETHOD(WakeUpMethod));
 580:Drivers/STM32L4xx_HAL_Driver/Src/stm32l4xx_hal_uart.c **** 
 581:Drivers/STM32L4xx_HAL_Driver/Src/stm32l4xx_hal_uart.c ****   if (huart->gState == HAL_UART_STATE_RESET)
 472              		.loc 1 581 12
 473 0018 FB68     		ldr	r3, [r7, #12]
 474 001a 9B6F     		ldr	r3, [r3, #120]
 475              		.loc 1 581 6
 476 001c 002B     		cmp	r3, #0
 477 001e 06D1     		bne	.L24
 582:Drivers/STM32L4xx_HAL_Driver/Src/stm32l4xx_hal_uart.c ****   {
 583:Drivers/STM32L4xx_HAL_Driver/Src/stm32l4xx_hal_uart.c ****     /* Allocate lock resource and initialize it */
 584:Drivers/STM32L4xx_HAL_Driver/Src/stm32l4xx_hal_uart.c ****     huart->Lock = HAL_UNLOCKED;
 478              		.loc 1 584 17
 479 0020 FB68     		ldr	r3, [r7, #12]
 480 0022 0022     		movs	r2, #0
 481 0024 83F87420 		strb	r2, [r3, #116]
 585:Drivers/STM32L4xx_HAL_Driver/Src/stm32l4xx_hal_uart.c **** 
 586:Drivers/STM32L4xx_HAL_Driver/Src/stm32l4xx_hal_uart.c **** #if (USE_HAL_UART_REGISTER_CALLBACKS == 1)
 587:Drivers/STM32L4xx_HAL_Driver/Src/stm32l4xx_hal_uart.c ****     UART_InitCallbacksToDefault(huart);
 588:Drivers/STM32L4xx_HAL_Driver/Src/stm32l4xx_hal_uart.c **** 
 589:Drivers/STM32L4xx_HAL_Driver/Src/stm32l4xx_hal_uart.c ****     if (huart->MspInitCallback == NULL)
 590:Drivers/STM32L4xx_HAL_Driver/Src/stm32l4xx_hal_uart.c ****     {
 591:Drivers/STM32L4xx_HAL_Driver/Src/stm32l4xx_hal_uart.c ****       huart->MspInitCallback = HAL_UART_MspInit;
 592:Drivers/STM32L4xx_HAL_Driver/Src/stm32l4xx_hal_uart.c ****     }
 593:Drivers/STM32L4xx_HAL_Driver/Src/stm32l4xx_hal_uart.c **** 
 594:Drivers/STM32L4xx_HAL_Driver/Src/stm32l4xx_hal_uart.c ****     /* Init the low level hardware */
 595:Drivers/STM32L4xx_HAL_Driver/Src/stm32l4xx_hal_uart.c ****     huart->MspInitCallback(huart);
 596:Drivers/STM32L4xx_HAL_Driver/Src/stm32l4xx_hal_uart.c **** #else
 597:Drivers/STM32L4xx_HAL_Driver/Src/stm32l4xx_hal_uart.c ****     /* Init the low level hardware : GPIO, CLOCK */
 598:Drivers/STM32L4xx_HAL_Driver/Src/stm32l4xx_hal_uart.c ****     HAL_UART_MspInit(huart);
 482              		.loc 1 598 5
 483 0028 F868     		ldr	r0, [r7, #12]
 484 002a FFF7FEFF 		bl	HAL_UART_MspInit
 485              	.L24:
 599:Drivers/STM32L4xx_HAL_Driver/Src/stm32l4xx_hal_uart.c **** #endif /* (USE_HAL_UART_REGISTER_CALLBACKS) */
 600:Drivers/STM32L4xx_HAL_Driver/Src/stm32l4xx_hal_uart.c ****   }
 601:Drivers/STM32L4xx_HAL_Driver/Src/stm32l4xx_hal_uart.c **** 
 602:Drivers/STM32L4xx_HAL_Driver/Src/stm32l4xx_hal_uart.c ****   huart->gState = HAL_UART_STATE_BUSY;
 486              		.loc 1 602 17
 487 002e FB68     		ldr	r3, [r7, #12]
 488 0030 2422     		movs	r2, #36
ARM GAS  /var/folders/k7/81v8fz9j4v98_s0dd31l1wsr0000gn/T//ccpVz2vH.s 			page 20


 489 0032 9A67     		str	r2, [r3, #120]
 603:Drivers/STM32L4xx_HAL_Driver/Src/stm32l4xx_hal_uart.c **** 
 604:Drivers/STM32L4xx_HAL_Driver/Src/stm32l4xx_hal_uart.c ****   __HAL_UART_DISABLE(huart);
 490              		.loc 1 604 3
 491 0034 FB68     		ldr	r3, [r7, #12]
 492 0036 1B68     		ldr	r3, [r3]
 493 0038 1A68     		ldr	r2, [r3]
 494 003a FB68     		ldr	r3, [r7, #12]
 495 003c 1B68     		ldr	r3, [r3]
 496 003e 22F00102 		bic	r2, r2, #1
 497 0042 1A60     		str	r2, [r3]
 605:Drivers/STM32L4xx_HAL_Driver/Src/stm32l4xx_hal_uart.c **** 
 606:Drivers/STM32L4xx_HAL_Driver/Src/stm32l4xx_hal_uart.c ****   /* Set the UART Communication parameters */
 607:Drivers/STM32L4xx_HAL_Driver/Src/stm32l4xx_hal_uart.c ****   if (UART_SetConfig(huart) == HAL_ERROR)
 498              		.loc 1 607 7
 499 0044 F868     		ldr	r0, [r7, #12]
 500 0046 FFF7FEFF 		bl	UART_SetConfig
 501 004a 0346     		mov	r3, r0
 502              		.loc 1 607 6
 503 004c 012B     		cmp	r3, #1
 504 004e 01D1     		bne	.L25
 608:Drivers/STM32L4xx_HAL_Driver/Src/stm32l4xx_hal_uart.c ****   {
 609:Drivers/STM32L4xx_HAL_Driver/Src/stm32l4xx_hal_uart.c ****     return HAL_ERROR;
 505              		.loc 1 609 12
 506 0050 0123     		movs	r3, #1
 507 0052 3BE0     		b	.L23
 508              	.L25:
 610:Drivers/STM32L4xx_HAL_Driver/Src/stm32l4xx_hal_uart.c ****   }
 611:Drivers/STM32L4xx_HAL_Driver/Src/stm32l4xx_hal_uart.c **** 
 612:Drivers/STM32L4xx_HAL_Driver/Src/stm32l4xx_hal_uart.c ****   if (huart->AdvancedInit.AdvFeatureInit != UART_ADVFEATURE_NO_INIT)
 509              		.loc 1 612 26
 510 0054 FB68     		ldr	r3, [r7, #12]
 511 0056 5B6A     		ldr	r3, [r3, #36]
 512              		.loc 1 612 6
 513 0058 002B     		cmp	r3, #0
 514 005a 02D0     		beq	.L26
 613:Drivers/STM32L4xx_HAL_Driver/Src/stm32l4xx_hal_uart.c ****   {
 614:Drivers/STM32L4xx_HAL_Driver/Src/stm32l4xx_hal_uart.c ****     UART_AdvFeatureConfig(huart);
 515              		.loc 1 614 5
 516 005c F868     		ldr	r0, [r7, #12]
 517 005e FFF7FEFF 		bl	UART_AdvFeatureConfig
 518              	.L26:
 615:Drivers/STM32L4xx_HAL_Driver/Src/stm32l4xx_hal_uart.c ****   }
 616:Drivers/STM32L4xx_HAL_Driver/Src/stm32l4xx_hal_uart.c **** 
 617:Drivers/STM32L4xx_HAL_Driver/Src/stm32l4xx_hal_uart.c ****   /* In multiprocessor mode, the following bits must be kept cleared:
 618:Drivers/STM32L4xx_HAL_Driver/Src/stm32l4xx_hal_uart.c ****   - LINEN and CLKEN bits in the USART_CR2 register,
 619:Drivers/STM32L4xx_HAL_Driver/Src/stm32l4xx_hal_uart.c ****   - SCEN, HDSEL and IREN  bits in the USART_CR3 register. */
 620:Drivers/STM32L4xx_HAL_Driver/Src/stm32l4xx_hal_uart.c ****   CLEAR_BIT(huart->Instance->CR2, (USART_CR2_LINEN | USART_CR2_CLKEN));
 519              		.loc 1 620 3
 520 0062 FB68     		ldr	r3, [r7, #12]
 521 0064 1B68     		ldr	r3, [r3]
 522 0066 5A68     		ldr	r2, [r3, #4]
 523 0068 FB68     		ldr	r3, [r7, #12]
 524 006a 1B68     		ldr	r3, [r3]
 525 006c 22F49042 		bic	r2, r2, #18432
 526 0070 5A60     		str	r2, [r3, #4]
 621:Drivers/STM32L4xx_HAL_Driver/Src/stm32l4xx_hal_uart.c ****   CLEAR_BIT(huart->Instance->CR3, (USART_CR3_SCEN | USART_CR3_HDSEL | USART_CR3_IREN));
ARM GAS  /var/folders/k7/81v8fz9j4v98_s0dd31l1wsr0000gn/T//ccpVz2vH.s 			page 21


 527              		.loc 1 621 3
 528 0072 FB68     		ldr	r3, [r7, #12]
 529 0074 1B68     		ldr	r3, [r3]
 530 0076 9A68     		ldr	r2, [r3, #8]
 531 0078 FB68     		ldr	r3, [r7, #12]
 532 007a 1B68     		ldr	r3, [r3]
 533 007c 22F02A02 		bic	r2, r2, #42
 534 0080 9A60     		str	r2, [r3, #8]
 622:Drivers/STM32L4xx_HAL_Driver/Src/stm32l4xx_hal_uart.c **** 
 623:Drivers/STM32L4xx_HAL_Driver/Src/stm32l4xx_hal_uart.c ****   if (WakeUpMethod == UART_WAKEUPMETHOD_ADDRESSMARK)
 535              		.loc 1 623 6
 536 0082 7B68     		ldr	r3, [r7, #4]
 537 0084 B3F5006F 		cmp	r3, #2048
 538 0088 0AD1     		bne	.L27
 624:Drivers/STM32L4xx_HAL_Driver/Src/stm32l4xx_hal_uart.c ****   {
 625:Drivers/STM32L4xx_HAL_Driver/Src/stm32l4xx_hal_uart.c ****     /* If address mark wake up method is chosen, set the USART address node */
 626:Drivers/STM32L4xx_HAL_Driver/Src/stm32l4xx_hal_uart.c ****     MODIFY_REG(huart->Instance->CR2, USART_CR2_ADD, ((uint32_t)Address << UART_CR2_ADDRESS_LSB_POS)
 539              		.loc 1 626 5
 540 008a FB68     		ldr	r3, [r7, #12]
 541 008c 1B68     		ldr	r3, [r3]
 542 008e 5B68     		ldr	r3, [r3, #4]
 543 0090 23F07F41 		bic	r1, r3, #-16777216
 544 0094 FB7A     		ldrb	r3, [r7, #11]	@ zero_extendqisi2
 545 0096 1A06     		lsls	r2, r3, #24
 546 0098 FB68     		ldr	r3, [r7, #12]
 547 009a 1B68     		ldr	r3, [r3]
 548 009c 0A43     		orrs	r2, r2, r1
 549 009e 5A60     		str	r2, [r3, #4]
 550              	.L27:
 627:Drivers/STM32L4xx_HAL_Driver/Src/stm32l4xx_hal_uart.c ****   }
 628:Drivers/STM32L4xx_HAL_Driver/Src/stm32l4xx_hal_uart.c **** 
 629:Drivers/STM32L4xx_HAL_Driver/Src/stm32l4xx_hal_uart.c ****   /* Set the wake up method by setting the WAKE bit in the CR1 register */
 630:Drivers/STM32L4xx_HAL_Driver/Src/stm32l4xx_hal_uart.c ****   MODIFY_REG(huart->Instance->CR1, USART_CR1_WAKE, WakeUpMethod);
 551              		.loc 1 630 3
 552 00a0 FB68     		ldr	r3, [r7, #12]
 553 00a2 1B68     		ldr	r3, [r3]
 554 00a4 1B68     		ldr	r3, [r3]
 555 00a6 23F40061 		bic	r1, r3, #2048
 556 00aa FB68     		ldr	r3, [r7, #12]
 557 00ac 1B68     		ldr	r3, [r3]
 558 00ae 7A68     		ldr	r2, [r7, #4]
 559 00b0 0A43     		orrs	r2, r2, r1
 560 00b2 1A60     		str	r2, [r3]
 631:Drivers/STM32L4xx_HAL_Driver/Src/stm32l4xx_hal_uart.c **** 
 632:Drivers/STM32L4xx_HAL_Driver/Src/stm32l4xx_hal_uart.c ****   __HAL_UART_ENABLE(huart);
 561              		.loc 1 632 3
 562 00b4 FB68     		ldr	r3, [r7, #12]
 563 00b6 1B68     		ldr	r3, [r3]
 564 00b8 1A68     		ldr	r2, [r3]
 565 00ba FB68     		ldr	r3, [r7, #12]
 566 00bc 1B68     		ldr	r3, [r3]
 567 00be 42F00102 		orr	r2, r2, #1
 568 00c2 1A60     		str	r2, [r3]
 633:Drivers/STM32L4xx_HAL_Driver/Src/stm32l4xx_hal_uart.c **** 
 634:Drivers/STM32L4xx_HAL_Driver/Src/stm32l4xx_hal_uart.c ****   /* TEACK and/or REACK to check before moving huart->gState and huart->RxState to Ready */
 635:Drivers/STM32L4xx_HAL_Driver/Src/stm32l4xx_hal_uart.c ****   return (UART_CheckIdleState(huart));
 569              		.loc 1 635 11
ARM GAS  /var/folders/k7/81v8fz9j4v98_s0dd31l1wsr0000gn/T//ccpVz2vH.s 			page 22


 570 00c4 F868     		ldr	r0, [r7, #12]
 571 00c6 FFF7FEFF 		bl	UART_CheckIdleState
 572 00ca 0346     		mov	r3, r0
 573              	.L23:
 636:Drivers/STM32L4xx_HAL_Driver/Src/stm32l4xx_hal_uart.c **** }
 574              		.loc 1 636 1
 575 00cc 1846     		mov	r0, r3
 576 00ce 1037     		adds	r7, r7, #16
 577              	.LCFI18:
 578              		.cfi_def_cfa_offset 8
 579 00d0 BD46     		mov	sp, r7
 580              	.LCFI19:
 581              		.cfi_def_cfa_register 13
 582              		@ sp needed
 583 00d2 80BD     		pop	{r7, pc}
 584              		.cfi_endproc
 585              	.LFE295:
 587              		.section	.text.HAL_UART_DeInit,"ax",%progbits
 588              		.align	1
 589              		.global	HAL_UART_DeInit
 590              		.syntax unified
 591              		.thumb
 592              		.thumb_func
 593              		.fpu fpv4-sp-d16
 595              	HAL_UART_DeInit:
 596              	.LFB296:
 637:Drivers/STM32L4xx_HAL_Driver/Src/stm32l4xx_hal_uart.c **** 
 638:Drivers/STM32L4xx_HAL_Driver/Src/stm32l4xx_hal_uart.c **** 
 639:Drivers/STM32L4xx_HAL_Driver/Src/stm32l4xx_hal_uart.c **** /**
 640:Drivers/STM32L4xx_HAL_Driver/Src/stm32l4xx_hal_uart.c ****   * @brief DeInitialize the UART peripheral.
 641:Drivers/STM32L4xx_HAL_Driver/Src/stm32l4xx_hal_uart.c ****   * @param huart UART handle.
 642:Drivers/STM32L4xx_HAL_Driver/Src/stm32l4xx_hal_uart.c ****   * @retval HAL status
 643:Drivers/STM32L4xx_HAL_Driver/Src/stm32l4xx_hal_uart.c ****   */
 644:Drivers/STM32L4xx_HAL_Driver/Src/stm32l4xx_hal_uart.c **** HAL_StatusTypeDef HAL_UART_DeInit(UART_HandleTypeDef *huart)
 645:Drivers/STM32L4xx_HAL_Driver/Src/stm32l4xx_hal_uart.c **** {
 597              		.loc 1 645 1
 598              		.cfi_startproc
 599              		@ args = 0, pretend = 0, frame = 8
 600              		@ frame_needed = 1, uses_anonymous_args = 0
 601 0000 80B5     		push	{r7, lr}
 602              	.LCFI20:
 603              		.cfi_def_cfa_offset 8
 604              		.cfi_offset 7, -8
 605              		.cfi_offset 14, -4
 606 0002 82B0     		sub	sp, sp, #8
 607              	.LCFI21:
 608              		.cfi_def_cfa_offset 16
 609 0004 00AF     		add	r7, sp, #0
 610              	.LCFI22:
 611              		.cfi_def_cfa_register 7
 612 0006 7860     		str	r0, [r7, #4]
 646:Drivers/STM32L4xx_HAL_Driver/Src/stm32l4xx_hal_uart.c ****   /* Check the UART handle allocation */
 647:Drivers/STM32L4xx_HAL_Driver/Src/stm32l4xx_hal_uart.c ****   if (huart == NULL)
 613              		.loc 1 647 6
 614 0008 7B68     		ldr	r3, [r7, #4]
 615 000a 002B     		cmp	r3, #0
 616 000c 01D1     		bne	.L29
ARM GAS  /var/folders/k7/81v8fz9j4v98_s0dd31l1wsr0000gn/T//ccpVz2vH.s 			page 23


 648:Drivers/STM32L4xx_HAL_Driver/Src/stm32l4xx_hal_uart.c ****   {
 649:Drivers/STM32L4xx_HAL_Driver/Src/stm32l4xx_hal_uart.c ****     return HAL_ERROR;
 617              		.loc 1 649 12
 618 000e 0123     		movs	r3, #1
 619 0010 2BE0     		b	.L30
 620              	.L29:
 650:Drivers/STM32L4xx_HAL_Driver/Src/stm32l4xx_hal_uart.c ****   }
 651:Drivers/STM32L4xx_HAL_Driver/Src/stm32l4xx_hal_uart.c **** 
 652:Drivers/STM32L4xx_HAL_Driver/Src/stm32l4xx_hal_uart.c ****   /* Check the parameters */
 653:Drivers/STM32L4xx_HAL_Driver/Src/stm32l4xx_hal_uart.c ****   assert_param((IS_UART_INSTANCE(huart->Instance)) || (IS_LPUART_INSTANCE(huart->Instance)));
 654:Drivers/STM32L4xx_HAL_Driver/Src/stm32l4xx_hal_uart.c **** 
 655:Drivers/STM32L4xx_HAL_Driver/Src/stm32l4xx_hal_uart.c ****   huart->gState = HAL_UART_STATE_BUSY;
 621              		.loc 1 655 17
 622 0012 7B68     		ldr	r3, [r7, #4]
 623 0014 2422     		movs	r2, #36
 624 0016 9A67     		str	r2, [r3, #120]
 656:Drivers/STM32L4xx_HAL_Driver/Src/stm32l4xx_hal_uart.c **** 
 657:Drivers/STM32L4xx_HAL_Driver/Src/stm32l4xx_hal_uart.c ****   __HAL_UART_DISABLE(huart);
 625              		.loc 1 657 3
 626 0018 7B68     		ldr	r3, [r7, #4]
 627 001a 1B68     		ldr	r3, [r3]
 628 001c 1A68     		ldr	r2, [r3]
 629 001e 7B68     		ldr	r3, [r7, #4]
 630 0020 1B68     		ldr	r3, [r3]
 631 0022 22F00102 		bic	r2, r2, #1
 632 0026 1A60     		str	r2, [r3]
 658:Drivers/STM32L4xx_HAL_Driver/Src/stm32l4xx_hal_uart.c **** 
 659:Drivers/STM32L4xx_HAL_Driver/Src/stm32l4xx_hal_uart.c ****   huart->Instance->CR1 = 0x0U;
 633              		.loc 1 659 8
 634 0028 7B68     		ldr	r3, [r7, #4]
 635 002a 1B68     		ldr	r3, [r3]
 636              		.loc 1 659 24
 637 002c 0022     		movs	r2, #0
 638 002e 1A60     		str	r2, [r3]
 660:Drivers/STM32L4xx_HAL_Driver/Src/stm32l4xx_hal_uart.c ****   huart->Instance->CR2 = 0x0U;
 639              		.loc 1 660 8
 640 0030 7B68     		ldr	r3, [r7, #4]
 641 0032 1B68     		ldr	r3, [r3]
 642              		.loc 1 660 24
 643 0034 0022     		movs	r2, #0
 644 0036 5A60     		str	r2, [r3, #4]
 661:Drivers/STM32L4xx_HAL_Driver/Src/stm32l4xx_hal_uart.c ****   huart->Instance->CR3 = 0x0U;
 645              		.loc 1 661 8
 646 0038 7B68     		ldr	r3, [r7, #4]
 647 003a 1B68     		ldr	r3, [r3]
 648              		.loc 1 661 24
 649 003c 0022     		movs	r2, #0
 650 003e 9A60     		str	r2, [r3, #8]
 662:Drivers/STM32L4xx_HAL_Driver/Src/stm32l4xx_hal_uart.c **** 
 663:Drivers/STM32L4xx_HAL_Driver/Src/stm32l4xx_hal_uart.c **** #if (USE_HAL_UART_REGISTER_CALLBACKS == 1)
 664:Drivers/STM32L4xx_HAL_Driver/Src/stm32l4xx_hal_uart.c ****   if (huart->MspDeInitCallback == NULL)
 665:Drivers/STM32L4xx_HAL_Driver/Src/stm32l4xx_hal_uart.c ****   {
 666:Drivers/STM32L4xx_HAL_Driver/Src/stm32l4xx_hal_uart.c ****     huart->MspDeInitCallback = HAL_UART_MspDeInit;
 667:Drivers/STM32L4xx_HAL_Driver/Src/stm32l4xx_hal_uart.c ****   }
 668:Drivers/STM32L4xx_HAL_Driver/Src/stm32l4xx_hal_uart.c ****   /* DeInit the low level hardware */
 669:Drivers/STM32L4xx_HAL_Driver/Src/stm32l4xx_hal_uart.c ****   huart->MspDeInitCallback(huart);
 670:Drivers/STM32L4xx_HAL_Driver/Src/stm32l4xx_hal_uart.c **** #else
ARM GAS  /var/folders/k7/81v8fz9j4v98_s0dd31l1wsr0000gn/T//ccpVz2vH.s 			page 24


 671:Drivers/STM32L4xx_HAL_Driver/Src/stm32l4xx_hal_uart.c ****   /* DeInit the low level hardware */
 672:Drivers/STM32L4xx_HAL_Driver/Src/stm32l4xx_hal_uart.c ****   HAL_UART_MspDeInit(huart);
 651              		.loc 1 672 3
 652 0040 7868     		ldr	r0, [r7, #4]
 653 0042 FFF7FEFF 		bl	HAL_UART_MspDeInit
 673:Drivers/STM32L4xx_HAL_Driver/Src/stm32l4xx_hal_uart.c **** #endif /* (USE_HAL_UART_REGISTER_CALLBACKS) */
 674:Drivers/STM32L4xx_HAL_Driver/Src/stm32l4xx_hal_uart.c **** 
 675:Drivers/STM32L4xx_HAL_Driver/Src/stm32l4xx_hal_uart.c ****   huart->ErrorCode = HAL_UART_ERROR_NONE;
 654              		.loc 1 675 20
 655 0046 7B68     		ldr	r3, [r7, #4]
 656 0048 0022     		movs	r2, #0
 657 004a C3F88020 		str	r2, [r3, #128]
 676:Drivers/STM32L4xx_HAL_Driver/Src/stm32l4xx_hal_uart.c ****   huart->gState = HAL_UART_STATE_RESET;
 658              		.loc 1 676 17
 659 004e 7B68     		ldr	r3, [r7, #4]
 660 0050 0022     		movs	r2, #0
 661 0052 9A67     		str	r2, [r3, #120]
 677:Drivers/STM32L4xx_HAL_Driver/Src/stm32l4xx_hal_uart.c ****   huart->RxState = HAL_UART_STATE_RESET;
 662              		.loc 1 677 18
 663 0054 7B68     		ldr	r3, [r7, #4]
 664 0056 0022     		movs	r2, #0
 665 0058 DA67     		str	r2, [r3, #124]
 678:Drivers/STM32L4xx_HAL_Driver/Src/stm32l4xx_hal_uart.c ****   huart->ReceptionType = HAL_UART_RECEPTION_STANDARD;
 666              		.loc 1 678 24
 667 005a 7B68     		ldr	r3, [r7, #4]
 668 005c 0022     		movs	r2, #0
 669 005e 1A66     		str	r2, [r3, #96]
 679:Drivers/STM32L4xx_HAL_Driver/Src/stm32l4xx_hal_uart.c **** 
 680:Drivers/STM32L4xx_HAL_Driver/Src/stm32l4xx_hal_uart.c ****   __HAL_UNLOCK(huart);
 670              		.loc 1 680 3
 671 0060 7B68     		ldr	r3, [r7, #4]
 672 0062 0022     		movs	r2, #0
 673 0064 83F87420 		strb	r2, [r3, #116]
 681:Drivers/STM32L4xx_HAL_Driver/Src/stm32l4xx_hal_uart.c **** 
 682:Drivers/STM32L4xx_HAL_Driver/Src/stm32l4xx_hal_uart.c ****   return HAL_OK;
 674              		.loc 1 682 10
 675 0068 0023     		movs	r3, #0
 676              	.L30:
 683:Drivers/STM32L4xx_HAL_Driver/Src/stm32l4xx_hal_uart.c **** }
 677              		.loc 1 683 1
 678 006a 1846     		mov	r0, r3
 679 006c 0837     		adds	r7, r7, #8
 680              	.LCFI23:
 681              		.cfi_def_cfa_offset 8
 682 006e BD46     		mov	sp, r7
 683              	.LCFI24:
 684              		.cfi_def_cfa_register 13
 685              		@ sp needed
 686 0070 80BD     		pop	{r7, pc}
 687              		.cfi_endproc
 688              	.LFE296:
 690              		.section	.text.HAL_UART_MspInit,"ax",%progbits
 691              		.align	1
 692              		.weak	HAL_UART_MspInit
 693              		.syntax unified
 694              		.thumb
 695              		.thumb_func
ARM GAS  /var/folders/k7/81v8fz9j4v98_s0dd31l1wsr0000gn/T//ccpVz2vH.s 			page 25


 696              		.fpu fpv4-sp-d16
 698              	HAL_UART_MspInit:
 699              	.LFB297:
 684:Drivers/STM32L4xx_HAL_Driver/Src/stm32l4xx_hal_uart.c **** 
 685:Drivers/STM32L4xx_HAL_Driver/Src/stm32l4xx_hal_uart.c **** /**
 686:Drivers/STM32L4xx_HAL_Driver/Src/stm32l4xx_hal_uart.c ****   * @brief Initialize the UART MSP.
 687:Drivers/STM32L4xx_HAL_Driver/Src/stm32l4xx_hal_uart.c ****   * @param huart UART handle.
 688:Drivers/STM32L4xx_HAL_Driver/Src/stm32l4xx_hal_uart.c ****   * @retval None
 689:Drivers/STM32L4xx_HAL_Driver/Src/stm32l4xx_hal_uart.c ****   */
 690:Drivers/STM32L4xx_HAL_Driver/Src/stm32l4xx_hal_uart.c **** __weak void HAL_UART_MspInit(UART_HandleTypeDef *huart)
 691:Drivers/STM32L4xx_HAL_Driver/Src/stm32l4xx_hal_uart.c **** {
 700              		.loc 1 691 1
 701              		.cfi_startproc
 702              		@ args = 0, pretend = 0, frame = 8
 703              		@ frame_needed = 1, uses_anonymous_args = 0
 704              		@ link register save eliminated.
 705 0000 80B4     		push	{r7}
 706              	.LCFI25:
 707              		.cfi_def_cfa_offset 4
 708              		.cfi_offset 7, -4
 709 0002 83B0     		sub	sp, sp, #12
 710              	.LCFI26:
 711              		.cfi_def_cfa_offset 16
 712 0004 00AF     		add	r7, sp, #0
 713              	.LCFI27:
 714              		.cfi_def_cfa_register 7
 715 0006 7860     		str	r0, [r7, #4]
 692:Drivers/STM32L4xx_HAL_Driver/Src/stm32l4xx_hal_uart.c ****   /* Prevent unused argument(s) compilation warning */
 693:Drivers/STM32L4xx_HAL_Driver/Src/stm32l4xx_hal_uart.c ****   UNUSED(huart);
 694:Drivers/STM32L4xx_HAL_Driver/Src/stm32l4xx_hal_uart.c **** 
 695:Drivers/STM32L4xx_HAL_Driver/Src/stm32l4xx_hal_uart.c ****   /* NOTE : This function should not be modified, when the callback is needed,
 696:Drivers/STM32L4xx_HAL_Driver/Src/stm32l4xx_hal_uart.c ****             the HAL_UART_MspInit can be implemented in the user file
 697:Drivers/STM32L4xx_HAL_Driver/Src/stm32l4xx_hal_uart.c ****    */
 698:Drivers/STM32L4xx_HAL_Driver/Src/stm32l4xx_hal_uart.c **** }
 716              		.loc 1 698 1
 717 0008 00BF     		nop
 718 000a 0C37     		adds	r7, r7, #12
 719              	.LCFI28:
 720              		.cfi_def_cfa_offset 4
 721 000c BD46     		mov	sp, r7
 722              	.LCFI29:
 723              		.cfi_def_cfa_register 13
 724              		@ sp needed
 725 000e 5DF8047B 		ldr	r7, [sp], #4
 726              	.LCFI30:
 727              		.cfi_restore 7
 728              		.cfi_def_cfa_offset 0
 729 0012 7047     		bx	lr
 730              		.cfi_endproc
 731              	.LFE297:
 733              		.section	.text.HAL_UART_MspDeInit,"ax",%progbits
 734              		.align	1
 735              		.weak	HAL_UART_MspDeInit
 736              		.syntax unified
 737              		.thumb
 738              		.thumb_func
 739              		.fpu fpv4-sp-d16
ARM GAS  /var/folders/k7/81v8fz9j4v98_s0dd31l1wsr0000gn/T//ccpVz2vH.s 			page 26


 741              	HAL_UART_MspDeInit:
 742              	.LFB298:
 699:Drivers/STM32L4xx_HAL_Driver/Src/stm32l4xx_hal_uart.c **** 
 700:Drivers/STM32L4xx_HAL_Driver/Src/stm32l4xx_hal_uart.c **** /**
 701:Drivers/STM32L4xx_HAL_Driver/Src/stm32l4xx_hal_uart.c ****   * @brief DeInitialize the UART MSP.
 702:Drivers/STM32L4xx_HAL_Driver/Src/stm32l4xx_hal_uart.c ****   * @param huart UART handle.
 703:Drivers/STM32L4xx_HAL_Driver/Src/stm32l4xx_hal_uart.c ****   * @retval None
 704:Drivers/STM32L4xx_HAL_Driver/Src/stm32l4xx_hal_uart.c ****   */
 705:Drivers/STM32L4xx_HAL_Driver/Src/stm32l4xx_hal_uart.c **** __weak void HAL_UART_MspDeInit(UART_HandleTypeDef *huart)
 706:Drivers/STM32L4xx_HAL_Driver/Src/stm32l4xx_hal_uart.c **** {
 743              		.loc 1 706 1
 744              		.cfi_startproc
 745              		@ args = 0, pretend = 0, frame = 8
 746              		@ frame_needed = 1, uses_anonymous_args = 0
 747              		@ link register save eliminated.
 748 0000 80B4     		push	{r7}
 749              	.LCFI31:
 750              		.cfi_def_cfa_offset 4
 751              		.cfi_offset 7, -4
 752 0002 83B0     		sub	sp, sp, #12
 753              	.LCFI32:
 754              		.cfi_def_cfa_offset 16
 755 0004 00AF     		add	r7, sp, #0
 756              	.LCFI33:
 757              		.cfi_def_cfa_register 7
 758 0006 7860     		str	r0, [r7, #4]
 707:Drivers/STM32L4xx_HAL_Driver/Src/stm32l4xx_hal_uart.c ****   /* Prevent unused argument(s) compilation warning */
 708:Drivers/STM32L4xx_HAL_Driver/Src/stm32l4xx_hal_uart.c ****   UNUSED(huart);
 709:Drivers/STM32L4xx_HAL_Driver/Src/stm32l4xx_hal_uart.c **** 
 710:Drivers/STM32L4xx_HAL_Driver/Src/stm32l4xx_hal_uart.c ****   /* NOTE : This function should not be modified, when the callback is needed,
 711:Drivers/STM32L4xx_HAL_Driver/Src/stm32l4xx_hal_uart.c ****             the HAL_UART_MspDeInit can be implemented in the user file
 712:Drivers/STM32L4xx_HAL_Driver/Src/stm32l4xx_hal_uart.c ****    */
 713:Drivers/STM32L4xx_HAL_Driver/Src/stm32l4xx_hal_uart.c **** }
 759              		.loc 1 713 1
 760 0008 00BF     		nop
 761 000a 0C37     		adds	r7, r7, #12
 762              	.LCFI34:
 763              		.cfi_def_cfa_offset 4
 764 000c BD46     		mov	sp, r7
 765              	.LCFI35:
 766              		.cfi_def_cfa_register 13
 767              		@ sp needed
 768 000e 5DF8047B 		ldr	r7, [sp], #4
 769              	.LCFI36:
 770              		.cfi_restore 7
 771              		.cfi_def_cfa_offset 0
 772 0012 7047     		bx	lr
 773              		.cfi_endproc
 774              	.LFE298:
 776              		.section	.text.HAL_UART_Transmit,"ax",%progbits
 777              		.align	1
 778              		.global	HAL_UART_Transmit
 779              		.syntax unified
 780              		.thumb
 781              		.thumb_func
 782              		.fpu fpv4-sp-d16
 784              	HAL_UART_Transmit:
ARM GAS  /var/folders/k7/81v8fz9j4v98_s0dd31l1wsr0000gn/T//ccpVz2vH.s 			page 27


 785              	.LFB299:
 714:Drivers/STM32L4xx_HAL_Driver/Src/stm32l4xx_hal_uart.c **** 
 715:Drivers/STM32L4xx_HAL_Driver/Src/stm32l4xx_hal_uart.c **** #if (USE_HAL_UART_REGISTER_CALLBACKS == 1)
 716:Drivers/STM32L4xx_HAL_Driver/Src/stm32l4xx_hal_uart.c **** /**
 717:Drivers/STM32L4xx_HAL_Driver/Src/stm32l4xx_hal_uart.c ****   * @brief  Register a User UART Callback
 718:Drivers/STM32L4xx_HAL_Driver/Src/stm32l4xx_hal_uart.c ****   *         To be used instead of the weak predefined callback
 719:Drivers/STM32L4xx_HAL_Driver/Src/stm32l4xx_hal_uart.c ****   * @param  huart uart handle
 720:Drivers/STM32L4xx_HAL_Driver/Src/stm32l4xx_hal_uart.c ****   * @param  CallbackID ID of the callback to be registered
 721:Drivers/STM32L4xx_HAL_Driver/Src/stm32l4xx_hal_uart.c ****   *         This parameter can be one of the following values:
 722:Drivers/STM32L4xx_HAL_Driver/Src/stm32l4xx_hal_uart.c ****   *           @arg @ref HAL_UART_TX_HALFCOMPLETE_CB_ID Tx Half Complete Callback ID
 723:Drivers/STM32L4xx_HAL_Driver/Src/stm32l4xx_hal_uart.c ****   *           @arg @ref HAL_UART_TX_COMPLETE_CB_ID Tx Complete Callback ID
 724:Drivers/STM32L4xx_HAL_Driver/Src/stm32l4xx_hal_uart.c ****   *           @arg @ref HAL_UART_RX_HALFCOMPLETE_CB_ID Rx Half Complete Callback ID
 725:Drivers/STM32L4xx_HAL_Driver/Src/stm32l4xx_hal_uart.c ****   *           @arg @ref HAL_UART_RX_COMPLETE_CB_ID Rx Complete Callback ID
 726:Drivers/STM32L4xx_HAL_Driver/Src/stm32l4xx_hal_uart.c ****   *           @arg @ref HAL_UART_ERROR_CB_ID Error Callback ID
 727:Drivers/STM32L4xx_HAL_Driver/Src/stm32l4xx_hal_uart.c ****   *           @arg @ref HAL_UART_ABORT_COMPLETE_CB_ID Abort Complete Callback ID
 728:Drivers/STM32L4xx_HAL_Driver/Src/stm32l4xx_hal_uart.c ****   *           @arg @ref HAL_UART_ABORT_TRANSMIT_COMPLETE_CB_ID Abort Transmit Complete Callback ID
 729:Drivers/STM32L4xx_HAL_Driver/Src/stm32l4xx_hal_uart.c ****   *           @arg @ref HAL_UART_ABORT_RECEIVE_COMPLETE_CB_ID Abort Receive Complete Callback ID
 730:Drivers/STM32L4xx_HAL_Driver/Src/stm32l4xx_hal_uart.c ****   *           @arg @ref HAL_UART_WAKEUP_CB_ID Wakeup Callback ID
 731:Drivers/STM32L4xx_HAL_Driver/Src/stm32l4xx_hal_uart.c **** #if defined(USART_CR1_FIFOEN)
 732:Drivers/STM32L4xx_HAL_Driver/Src/stm32l4xx_hal_uart.c ****   *           @arg @ref HAL_UART_RX_FIFO_FULL_CB_ID Rx Fifo Full Callback ID
 733:Drivers/STM32L4xx_HAL_Driver/Src/stm32l4xx_hal_uart.c ****   *           @arg @ref HAL_UART_TX_FIFO_EMPTY_CB_ID Tx Fifo Empty Callback ID
 734:Drivers/STM32L4xx_HAL_Driver/Src/stm32l4xx_hal_uart.c **** #endif
 735:Drivers/STM32L4xx_HAL_Driver/Src/stm32l4xx_hal_uart.c ****   *           @arg @ref HAL_UART_MSPINIT_CB_ID MspInit Callback ID
 736:Drivers/STM32L4xx_HAL_Driver/Src/stm32l4xx_hal_uart.c ****   *           @arg @ref HAL_UART_MSPDEINIT_CB_ID MspDeInit Callback ID
 737:Drivers/STM32L4xx_HAL_Driver/Src/stm32l4xx_hal_uart.c ****   * @param  pCallback pointer to the Callback function
 738:Drivers/STM32L4xx_HAL_Driver/Src/stm32l4xx_hal_uart.c ****   * @retval HAL status
 739:Drivers/STM32L4xx_HAL_Driver/Src/stm32l4xx_hal_uart.c ****   */
 740:Drivers/STM32L4xx_HAL_Driver/Src/stm32l4xx_hal_uart.c **** HAL_StatusTypeDef HAL_UART_RegisterCallback(UART_HandleTypeDef *huart, HAL_UART_CallbackIDTypeDef C
 741:Drivers/STM32L4xx_HAL_Driver/Src/stm32l4xx_hal_uart.c ****                                             pUART_CallbackTypeDef pCallback)
 742:Drivers/STM32L4xx_HAL_Driver/Src/stm32l4xx_hal_uart.c **** {
 743:Drivers/STM32L4xx_HAL_Driver/Src/stm32l4xx_hal_uart.c ****   HAL_StatusTypeDef status = HAL_OK;
 744:Drivers/STM32L4xx_HAL_Driver/Src/stm32l4xx_hal_uart.c **** 
 745:Drivers/STM32L4xx_HAL_Driver/Src/stm32l4xx_hal_uart.c ****   if (pCallback == NULL)
 746:Drivers/STM32L4xx_HAL_Driver/Src/stm32l4xx_hal_uart.c ****   {
 747:Drivers/STM32L4xx_HAL_Driver/Src/stm32l4xx_hal_uart.c ****     huart->ErrorCode |= HAL_UART_ERROR_INVALID_CALLBACK;
 748:Drivers/STM32L4xx_HAL_Driver/Src/stm32l4xx_hal_uart.c **** 
 749:Drivers/STM32L4xx_HAL_Driver/Src/stm32l4xx_hal_uart.c ****     return HAL_ERROR;
 750:Drivers/STM32L4xx_HAL_Driver/Src/stm32l4xx_hal_uart.c ****   }
 751:Drivers/STM32L4xx_HAL_Driver/Src/stm32l4xx_hal_uart.c **** 
 752:Drivers/STM32L4xx_HAL_Driver/Src/stm32l4xx_hal_uart.c ****   __HAL_LOCK(huart);
 753:Drivers/STM32L4xx_HAL_Driver/Src/stm32l4xx_hal_uart.c **** 
 754:Drivers/STM32L4xx_HAL_Driver/Src/stm32l4xx_hal_uart.c ****   if (huart->gState == HAL_UART_STATE_READY)
 755:Drivers/STM32L4xx_HAL_Driver/Src/stm32l4xx_hal_uart.c ****   {
 756:Drivers/STM32L4xx_HAL_Driver/Src/stm32l4xx_hal_uart.c ****     switch (CallbackID)
 757:Drivers/STM32L4xx_HAL_Driver/Src/stm32l4xx_hal_uart.c ****     {
 758:Drivers/STM32L4xx_HAL_Driver/Src/stm32l4xx_hal_uart.c ****       case HAL_UART_TX_HALFCOMPLETE_CB_ID :
 759:Drivers/STM32L4xx_HAL_Driver/Src/stm32l4xx_hal_uart.c ****         huart->TxHalfCpltCallback = pCallback;
 760:Drivers/STM32L4xx_HAL_Driver/Src/stm32l4xx_hal_uart.c ****         break;
 761:Drivers/STM32L4xx_HAL_Driver/Src/stm32l4xx_hal_uart.c **** 
 762:Drivers/STM32L4xx_HAL_Driver/Src/stm32l4xx_hal_uart.c ****       case HAL_UART_TX_COMPLETE_CB_ID :
 763:Drivers/STM32L4xx_HAL_Driver/Src/stm32l4xx_hal_uart.c ****         huart->TxCpltCallback = pCallback;
 764:Drivers/STM32L4xx_HAL_Driver/Src/stm32l4xx_hal_uart.c ****         break;
 765:Drivers/STM32L4xx_HAL_Driver/Src/stm32l4xx_hal_uart.c **** 
 766:Drivers/STM32L4xx_HAL_Driver/Src/stm32l4xx_hal_uart.c ****       case HAL_UART_RX_HALFCOMPLETE_CB_ID :
 767:Drivers/STM32L4xx_HAL_Driver/Src/stm32l4xx_hal_uart.c ****         huart->RxHalfCpltCallback = pCallback;
 768:Drivers/STM32L4xx_HAL_Driver/Src/stm32l4xx_hal_uart.c ****         break;
 769:Drivers/STM32L4xx_HAL_Driver/Src/stm32l4xx_hal_uart.c **** 
ARM GAS  /var/folders/k7/81v8fz9j4v98_s0dd31l1wsr0000gn/T//ccpVz2vH.s 			page 28


 770:Drivers/STM32L4xx_HAL_Driver/Src/stm32l4xx_hal_uart.c ****       case HAL_UART_RX_COMPLETE_CB_ID :
 771:Drivers/STM32L4xx_HAL_Driver/Src/stm32l4xx_hal_uart.c ****         huart->RxCpltCallback = pCallback;
 772:Drivers/STM32L4xx_HAL_Driver/Src/stm32l4xx_hal_uart.c ****         break;
 773:Drivers/STM32L4xx_HAL_Driver/Src/stm32l4xx_hal_uart.c **** 
 774:Drivers/STM32L4xx_HAL_Driver/Src/stm32l4xx_hal_uart.c ****       case HAL_UART_ERROR_CB_ID :
 775:Drivers/STM32L4xx_HAL_Driver/Src/stm32l4xx_hal_uart.c ****         huart->ErrorCallback = pCallback;
 776:Drivers/STM32L4xx_HAL_Driver/Src/stm32l4xx_hal_uart.c ****         break;
 777:Drivers/STM32L4xx_HAL_Driver/Src/stm32l4xx_hal_uart.c **** 
 778:Drivers/STM32L4xx_HAL_Driver/Src/stm32l4xx_hal_uart.c ****       case HAL_UART_ABORT_COMPLETE_CB_ID :
 779:Drivers/STM32L4xx_HAL_Driver/Src/stm32l4xx_hal_uart.c ****         huart->AbortCpltCallback = pCallback;
 780:Drivers/STM32L4xx_HAL_Driver/Src/stm32l4xx_hal_uart.c ****         break;
 781:Drivers/STM32L4xx_HAL_Driver/Src/stm32l4xx_hal_uart.c **** 
 782:Drivers/STM32L4xx_HAL_Driver/Src/stm32l4xx_hal_uart.c ****       case HAL_UART_ABORT_TRANSMIT_COMPLETE_CB_ID :
 783:Drivers/STM32L4xx_HAL_Driver/Src/stm32l4xx_hal_uart.c ****         huart->AbortTransmitCpltCallback = pCallback;
 784:Drivers/STM32L4xx_HAL_Driver/Src/stm32l4xx_hal_uart.c ****         break;
 785:Drivers/STM32L4xx_HAL_Driver/Src/stm32l4xx_hal_uart.c **** 
 786:Drivers/STM32L4xx_HAL_Driver/Src/stm32l4xx_hal_uart.c ****       case HAL_UART_ABORT_RECEIVE_COMPLETE_CB_ID :
 787:Drivers/STM32L4xx_HAL_Driver/Src/stm32l4xx_hal_uart.c ****         huart->AbortReceiveCpltCallback = pCallback;
 788:Drivers/STM32L4xx_HAL_Driver/Src/stm32l4xx_hal_uart.c ****         break;
 789:Drivers/STM32L4xx_HAL_Driver/Src/stm32l4xx_hal_uart.c **** 
 790:Drivers/STM32L4xx_HAL_Driver/Src/stm32l4xx_hal_uart.c ****       case HAL_UART_WAKEUP_CB_ID :
 791:Drivers/STM32L4xx_HAL_Driver/Src/stm32l4xx_hal_uart.c ****         huart->WakeupCallback = pCallback;
 792:Drivers/STM32L4xx_HAL_Driver/Src/stm32l4xx_hal_uart.c ****         break;
 793:Drivers/STM32L4xx_HAL_Driver/Src/stm32l4xx_hal_uart.c **** 
 794:Drivers/STM32L4xx_HAL_Driver/Src/stm32l4xx_hal_uart.c **** #if defined(USART_CR1_FIFOEN)
 795:Drivers/STM32L4xx_HAL_Driver/Src/stm32l4xx_hal_uart.c ****       case HAL_UART_RX_FIFO_FULL_CB_ID :
 796:Drivers/STM32L4xx_HAL_Driver/Src/stm32l4xx_hal_uart.c ****         huart->RxFifoFullCallback = pCallback;
 797:Drivers/STM32L4xx_HAL_Driver/Src/stm32l4xx_hal_uart.c ****         break;
 798:Drivers/STM32L4xx_HAL_Driver/Src/stm32l4xx_hal_uart.c **** 
 799:Drivers/STM32L4xx_HAL_Driver/Src/stm32l4xx_hal_uart.c ****       case HAL_UART_TX_FIFO_EMPTY_CB_ID :
 800:Drivers/STM32L4xx_HAL_Driver/Src/stm32l4xx_hal_uart.c ****         huart->TxFifoEmptyCallback = pCallback;
 801:Drivers/STM32L4xx_HAL_Driver/Src/stm32l4xx_hal_uart.c ****         break;
 802:Drivers/STM32L4xx_HAL_Driver/Src/stm32l4xx_hal_uart.c **** #endif /* USART_CR1_FIFOEN */
 803:Drivers/STM32L4xx_HAL_Driver/Src/stm32l4xx_hal_uart.c **** 
 804:Drivers/STM32L4xx_HAL_Driver/Src/stm32l4xx_hal_uart.c ****       case HAL_UART_MSPINIT_CB_ID :
 805:Drivers/STM32L4xx_HAL_Driver/Src/stm32l4xx_hal_uart.c ****         huart->MspInitCallback = pCallback;
 806:Drivers/STM32L4xx_HAL_Driver/Src/stm32l4xx_hal_uart.c ****         break;
 807:Drivers/STM32L4xx_HAL_Driver/Src/stm32l4xx_hal_uart.c **** 
 808:Drivers/STM32L4xx_HAL_Driver/Src/stm32l4xx_hal_uart.c ****       case HAL_UART_MSPDEINIT_CB_ID :
 809:Drivers/STM32L4xx_HAL_Driver/Src/stm32l4xx_hal_uart.c ****         huart->MspDeInitCallback = pCallback;
 810:Drivers/STM32L4xx_HAL_Driver/Src/stm32l4xx_hal_uart.c ****         break;
 811:Drivers/STM32L4xx_HAL_Driver/Src/stm32l4xx_hal_uart.c **** 
 812:Drivers/STM32L4xx_HAL_Driver/Src/stm32l4xx_hal_uart.c ****       default :
 813:Drivers/STM32L4xx_HAL_Driver/Src/stm32l4xx_hal_uart.c ****         huart->ErrorCode |= HAL_UART_ERROR_INVALID_CALLBACK;
 814:Drivers/STM32L4xx_HAL_Driver/Src/stm32l4xx_hal_uart.c **** 
 815:Drivers/STM32L4xx_HAL_Driver/Src/stm32l4xx_hal_uart.c ****         status =  HAL_ERROR;
 816:Drivers/STM32L4xx_HAL_Driver/Src/stm32l4xx_hal_uart.c ****         break;
 817:Drivers/STM32L4xx_HAL_Driver/Src/stm32l4xx_hal_uart.c ****     }
 818:Drivers/STM32L4xx_HAL_Driver/Src/stm32l4xx_hal_uart.c ****   }
 819:Drivers/STM32L4xx_HAL_Driver/Src/stm32l4xx_hal_uart.c ****   else if (huart->gState == HAL_UART_STATE_RESET)
 820:Drivers/STM32L4xx_HAL_Driver/Src/stm32l4xx_hal_uart.c ****   {
 821:Drivers/STM32L4xx_HAL_Driver/Src/stm32l4xx_hal_uart.c ****     switch (CallbackID)
 822:Drivers/STM32L4xx_HAL_Driver/Src/stm32l4xx_hal_uart.c ****     {
 823:Drivers/STM32L4xx_HAL_Driver/Src/stm32l4xx_hal_uart.c ****       case HAL_UART_MSPINIT_CB_ID :
 824:Drivers/STM32L4xx_HAL_Driver/Src/stm32l4xx_hal_uart.c ****         huart->MspInitCallback = pCallback;
 825:Drivers/STM32L4xx_HAL_Driver/Src/stm32l4xx_hal_uart.c ****         break;
 826:Drivers/STM32L4xx_HAL_Driver/Src/stm32l4xx_hal_uart.c **** 
ARM GAS  /var/folders/k7/81v8fz9j4v98_s0dd31l1wsr0000gn/T//ccpVz2vH.s 			page 29


 827:Drivers/STM32L4xx_HAL_Driver/Src/stm32l4xx_hal_uart.c ****       case HAL_UART_MSPDEINIT_CB_ID :
 828:Drivers/STM32L4xx_HAL_Driver/Src/stm32l4xx_hal_uart.c ****         huart->MspDeInitCallback = pCallback;
 829:Drivers/STM32L4xx_HAL_Driver/Src/stm32l4xx_hal_uart.c ****         break;
 830:Drivers/STM32L4xx_HAL_Driver/Src/stm32l4xx_hal_uart.c **** 
 831:Drivers/STM32L4xx_HAL_Driver/Src/stm32l4xx_hal_uart.c ****       default :
 832:Drivers/STM32L4xx_HAL_Driver/Src/stm32l4xx_hal_uart.c ****         huart->ErrorCode |= HAL_UART_ERROR_INVALID_CALLBACK;
 833:Drivers/STM32L4xx_HAL_Driver/Src/stm32l4xx_hal_uart.c **** 
 834:Drivers/STM32L4xx_HAL_Driver/Src/stm32l4xx_hal_uart.c ****         status =  HAL_ERROR;
 835:Drivers/STM32L4xx_HAL_Driver/Src/stm32l4xx_hal_uart.c ****         break;
 836:Drivers/STM32L4xx_HAL_Driver/Src/stm32l4xx_hal_uart.c ****     }
 837:Drivers/STM32L4xx_HAL_Driver/Src/stm32l4xx_hal_uart.c ****   }
 838:Drivers/STM32L4xx_HAL_Driver/Src/stm32l4xx_hal_uart.c ****   else
 839:Drivers/STM32L4xx_HAL_Driver/Src/stm32l4xx_hal_uart.c ****   {
 840:Drivers/STM32L4xx_HAL_Driver/Src/stm32l4xx_hal_uart.c ****     huart->ErrorCode |= HAL_UART_ERROR_INVALID_CALLBACK;
 841:Drivers/STM32L4xx_HAL_Driver/Src/stm32l4xx_hal_uart.c **** 
 842:Drivers/STM32L4xx_HAL_Driver/Src/stm32l4xx_hal_uart.c ****     status =  HAL_ERROR;
 843:Drivers/STM32L4xx_HAL_Driver/Src/stm32l4xx_hal_uart.c ****   }
 844:Drivers/STM32L4xx_HAL_Driver/Src/stm32l4xx_hal_uart.c **** 
 845:Drivers/STM32L4xx_HAL_Driver/Src/stm32l4xx_hal_uart.c ****   __HAL_UNLOCK(huart);
 846:Drivers/STM32L4xx_HAL_Driver/Src/stm32l4xx_hal_uart.c **** 
 847:Drivers/STM32L4xx_HAL_Driver/Src/stm32l4xx_hal_uart.c ****   return status;
 848:Drivers/STM32L4xx_HAL_Driver/Src/stm32l4xx_hal_uart.c **** }
 849:Drivers/STM32L4xx_HAL_Driver/Src/stm32l4xx_hal_uart.c **** 
 850:Drivers/STM32L4xx_HAL_Driver/Src/stm32l4xx_hal_uart.c **** /**
 851:Drivers/STM32L4xx_HAL_Driver/Src/stm32l4xx_hal_uart.c ****   * @brief  Unregister an UART Callback
 852:Drivers/STM32L4xx_HAL_Driver/Src/stm32l4xx_hal_uart.c ****   *         UART callaback is redirected to the weak predefined callback
 853:Drivers/STM32L4xx_HAL_Driver/Src/stm32l4xx_hal_uart.c ****   * @param  huart uart handle
 854:Drivers/STM32L4xx_HAL_Driver/Src/stm32l4xx_hal_uart.c ****   * @param  CallbackID ID of the callback to be unregistered
 855:Drivers/STM32L4xx_HAL_Driver/Src/stm32l4xx_hal_uart.c ****   *         This parameter can be one of the following values:
 856:Drivers/STM32L4xx_HAL_Driver/Src/stm32l4xx_hal_uart.c ****   *           @arg @ref HAL_UART_TX_HALFCOMPLETE_CB_ID Tx Half Complete Callback ID
 857:Drivers/STM32L4xx_HAL_Driver/Src/stm32l4xx_hal_uart.c ****   *           @arg @ref HAL_UART_TX_COMPLETE_CB_ID Tx Complete Callback ID
 858:Drivers/STM32L4xx_HAL_Driver/Src/stm32l4xx_hal_uart.c ****   *           @arg @ref HAL_UART_RX_HALFCOMPLETE_CB_ID Rx Half Complete Callback ID
 859:Drivers/STM32L4xx_HAL_Driver/Src/stm32l4xx_hal_uart.c ****   *           @arg @ref HAL_UART_RX_COMPLETE_CB_ID Rx Complete Callback ID
 860:Drivers/STM32L4xx_HAL_Driver/Src/stm32l4xx_hal_uart.c ****   *           @arg @ref HAL_UART_ERROR_CB_ID Error Callback ID
 861:Drivers/STM32L4xx_HAL_Driver/Src/stm32l4xx_hal_uart.c ****   *           @arg @ref HAL_UART_ABORT_COMPLETE_CB_ID Abort Complete Callback ID
 862:Drivers/STM32L4xx_HAL_Driver/Src/stm32l4xx_hal_uart.c ****   *           @arg @ref HAL_UART_ABORT_TRANSMIT_COMPLETE_CB_ID Abort Transmit Complete Callback ID
 863:Drivers/STM32L4xx_HAL_Driver/Src/stm32l4xx_hal_uart.c ****   *           @arg @ref HAL_UART_ABORT_RECEIVE_COMPLETE_CB_ID Abort Receive Complete Callback ID
 864:Drivers/STM32L4xx_HAL_Driver/Src/stm32l4xx_hal_uart.c ****   *           @arg @ref HAL_UART_WAKEUP_CB_ID Wakeup Callback ID
 865:Drivers/STM32L4xx_HAL_Driver/Src/stm32l4xx_hal_uart.c **** #if defined(USART_CR1_FIFOEN)
 866:Drivers/STM32L4xx_HAL_Driver/Src/stm32l4xx_hal_uart.c ****   *           @arg @ref HAL_UART_RX_FIFO_FULL_CB_ID Rx Fifo Full Callback ID
 867:Drivers/STM32L4xx_HAL_Driver/Src/stm32l4xx_hal_uart.c ****   *           @arg @ref HAL_UART_TX_FIFO_EMPTY_CB_ID Tx Fifo Empty Callback ID
 868:Drivers/STM32L4xx_HAL_Driver/Src/stm32l4xx_hal_uart.c **** #endif
 869:Drivers/STM32L4xx_HAL_Driver/Src/stm32l4xx_hal_uart.c ****   *           @arg @ref HAL_UART_MSPINIT_CB_ID MspInit Callback ID
 870:Drivers/STM32L4xx_HAL_Driver/Src/stm32l4xx_hal_uart.c ****   *           @arg @ref HAL_UART_MSPDEINIT_CB_ID MspDeInit Callback ID
 871:Drivers/STM32L4xx_HAL_Driver/Src/stm32l4xx_hal_uart.c ****   * @retval HAL status
 872:Drivers/STM32L4xx_HAL_Driver/Src/stm32l4xx_hal_uart.c ****   */
 873:Drivers/STM32L4xx_HAL_Driver/Src/stm32l4xx_hal_uart.c **** HAL_StatusTypeDef HAL_UART_UnRegisterCallback(UART_HandleTypeDef *huart, HAL_UART_CallbackIDTypeDef
 874:Drivers/STM32L4xx_HAL_Driver/Src/stm32l4xx_hal_uart.c **** {
 875:Drivers/STM32L4xx_HAL_Driver/Src/stm32l4xx_hal_uart.c ****   HAL_StatusTypeDef status = HAL_OK;
 876:Drivers/STM32L4xx_HAL_Driver/Src/stm32l4xx_hal_uart.c **** 
 877:Drivers/STM32L4xx_HAL_Driver/Src/stm32l4xx_hal_uart.c ****   __HAL_LOCK(huart);
 878:Drivers/STM32L4xx_HAL_Driver/Src/stm32l4xx_hal_uart.c **** 
 879:Drivers/STM32L4xx_HAL_Driver/Src/stm32l4xx_hal_uart.c ****   if (HAL_UART_STATE_READY == huart->gState)
 880:Drivers/STM32L4xx_HAL_Driver/Src/stm32l4xx_hal_uart.c ****   {
 881:Drivers/STM32L4xx_HAL_Driver/Src/stm32l4xx_hal_uart.c ****     switch (CallbackID)
 882:Drivers/STM32L4xx_HAL_Driver/Src/stm32l4xx_hal_uart.c ****     {
 883:Drivers/STM32L4xx_HAL_Driver/Src/stm32l4xx_hal_uart.c ****       case HAL_UART_TX_HALFCOMPLETE_CB_ID :
ARM GAS  /var/folders/k7/81v8fz9j4v98_s0dd31l1wsr0000gn/T//ccpVz2vH.s 			page 30


 884:Drivers/STM32L4xx_HAL_Driver/Src/stm32l4xx_hal_uart.c ****         huart->TxHalfCpltCallback = HAL_UART_TxHalfCpltCallback;               /* Legacy weak  TxHa
 885:Drivers/STM32L4xx_HAL_Driver/Src/stm32l4xx_hal_uart.c ****         break;
 886:Drivers/STM32L4xx_HAL_Driver/Src/stm32l4xx_hal_uart.c **** 
 887:Drivers/STM32L4xx_HAL_Driver/Src/stm32l4xx_hal_uart.c ****       case HAL_UART_TX_COMPLETE_CB_ID :
 888:Drivers/STM32L4xx_HAL_Driver/Src/stm32l4xx_hal_uart.c ****         huart->TxCpltCallback = HAL_UART_TxCpltCallback;                       /* Legacy weak TxCpl
 889:Drivers/STM32L4xx_HAL_Driver/Src/stm32l4xx_hal_uart.c ****         break;
 890:Drivers/STM32L4xx_HAL_Driver/Src/stm32l4xx_hal_uart.c **** 
 891:Drivers/STM32L4xx_HAL_Driver/Src/stm32l4xx_hal_uart.c ****       case HAL_UART_RX_HALFCOMPLETE_CB_ID :
 892:Drivers/STM32L4xx_HAL_Driver/Src/stm32l4xx_hal_uart.c ****         huart->RxHalfCpltCallback = HAL_UART_RxHalfCpltCallback;               /* Legacy weak RxHal
 893:Drivers/STM32L4xx_HAL_Driver/Src/stm32l4xx_hal_uart.c ****         break;
 894:Drivers/STM32L4xx_HAL_Driver/Src/stm32l4xx_hal_uart.c **** 
 895:Drivers/STM32L4xx_HAL_Driver/Src/stm32l4xx_hal_uart.c ****       case HAL_UART_RX_COMPLETE_CB_ID :
 896:Drivers/STM32L4xx_HAL_Driver/Src/stm32l4xx_hal_uart.c ****         huart->RxCpltCallback = HAL_UART_RxCpltCallback;                       /* Legacy weak RxCpl
 897:Drivers/STM32L4xx_HAL_Driver/Src/stm32l4xx_hal_uart.c ****         break;
 898:Drivers/STM32L4xx_HAL_Driver/Src/stm32l4xx_hal_uart.c **** 
 899:Drivers/STM32L4xx_HAL_Driver/Src/stm32l4xx_hal_uart.c ****       case HAL_UART_ERROR_CB_ID :
 900:Drivers/STM32L4xx_HAL_Driver/Src/stm32l4xx_hal_uart.c ****         huart->ErrorCallback = HAL_UART_ErrorCallback;                         /* Legacy weak Error
 901:Drivers/STM32L4xx_HAL_Driver/Src/stm32l4xx_hal_uart.c ****         break;
 902:Drivers/STM32L4xx_HAL_Driver/Src/stm32l4xx_hal_uart.c **** 
 903:Drivers/STM32L4xx_HAL_Driver/Src/stm32l4xx_hal_uart.c ****       case HAL_UART_ABORT_COMPLETE_CB_ID :
 904:Drivers/STM32L4xx_HAL_Driver/Src/stm32l4xx_hal_uart.c ****         huart->AbortCpltCallback = HAL_UART_AbortCpltCallback;                 /* Legacy weak Abort
 905:Drivers/STM32L4xx_HAL_Driver/Src/stm32l4xx_hal_uart.c ****         break;
 906:Drivers/STM32L4xx_HAL_Driver/Src/stm32l4xx_hal_uart.c **** 
 907:Drivers/STM32L4xx_HAL_Driver/Src/stm32l4xx_hal_uart.c ****       case HAL_UART_ABORT_TRANSMIT_COMPLETE_CB_ID :
 908:Drivers/STM32L4xx_HAL_Driver/Src/stm32l4xx_hal_uart.c ****         huart->AbortTransmitCpltCallback = HAL_UART_AbortTransmitCpltCallback; /* Legacy weak
 909:Drivers/STM32L4xx_HAL_Driver/Src/stm32l4xx_hal_uart.c ****                                                                                   AbortTransmitCplt
 910:Drivers/STM32L4xx_HAL_Driver/Src/stm32l4xx_hal_uart.c ****         break;
 911:Drivers/STM32L4xx_HAL_Driver/Src/stm32l4xx_hal_uart.c **** 
 912:Drivers/STM32L4xx_HAL_Driver/Src/stm32l4xx_hal_uart.c ****       case HAL_UART_ABORT_RECEIVE_COMPLETE_CB_ID :
 913:Drivers/STM32L4xx_HAL_Driver/Src/stm32l4xx_hal_uart.c ****         huart->AbortReceiveCpltCallback = HAL_UART_AbortReceiveCpltCallback;   /* Legacy weak
 914:Drivers/STM32L4xx_HAL_Driver/Src/stm32l4xx_hal_uart.c ****                                                                                   AbortReceiveCpltC
 915:Drivers/STM32L4xx_HAL_Driver/Src/stm32l4xx_hal_uart.c ****         break;
 916:Drivers/STM32L4xx_HAL_Driver/Src/stm32l4xx_hal_uart.c **** 
 917:Drivers/STM32L4xx_HAL_Driver/Src/stm32l4xx_hal_uart.c ****       case HAL_UART_WAKEUP_CB_ID :
 918:Drivers/STM32L4xx_HAL_Driver/Src/stm32l4xx_hal_uart.c ****         huart->WakeupCallback = HAL_UARTEx_WakeupCallback;                     /* Legacy weak Wakeu
 919:Drivers/STM32L4xx_HAL_Driver/Src/stm32l4xx_hal_uart.c ****         break;
 920:Drivers/STM32L4xx_HAL_Driver/Src/stm32l4xx_hal_uart.c **** 
 921:Drivers/STM32L4xx_HAL_Driver/Src/stm32l4xx_hal_uart.c **** #if defined(USART_CR1_FIFOEN)
 922:Drivers/STM32L4xx_HAL_Driver/Src/stm32l4xx_hal_uart.c ****       case HAL_UART_RX_FIFO_FULL_CB_ID :
 923:Drivers/STM32L4xx_HAL_Driver/Src/stm32l4xx_hal_uart.c ****         huart->RxFifoFullCallback = HAL_UARTEx_RxFifoFullCallback;             /* Legacy weak RxFif
 924:Drivers/STM32L4xx_HAL_Driver/Src/stm32l4xx_hal_uart.c ****         break;
 925:Drivers/STM32L4xx_HAL_Driver/Src/stm32l4xx_hal_uart.c **** 
 926:Drivers/STM32L4xx_HAL_Driver/Src/stm32l4xx_hal_uart.c ****       case HAL_UART_TX_FIFO_EMPTY_CB_ID :
 927:Drivers/STM32L4xx_HAL_Driver/Src/stm32l4xx_hal_uart.c ****         huart->TxFifoEmptyCallback = HAL_UARTEx_TxFifoEmptyCallback;           /* Legacy weak TxFif
 928:Drivers/STM32L4xx_HAL_Driver/Src/stm32l4xx_hal_uart.c ****         break;
 929:Drivers/STM32L4xx_HAL_Driver/Src/stm32l4xx_hal_uart.c **** 
 930:Drivers/STM32L4xx_HAL_Driver/Src/stm32l4xx_hal_uart.c **** #endif /* USART_CR1_FIFOEN */
 931:Drivers/STM32L4xx_HAL_Driver/Src/stm32l4xx_hal_uart.c ****       case HAL_UART_MSPINIT_CB_ID :
 932:Drivers/STM32L4xx_HAL_Driver/Src/stm32l4xx_hal_uart.c ****         huart->MspInitCallback = HAL_UART_MspInit;                             /* Legacy weak MspIn
 933:Drivers/STM32L4xx_HAL_Driver/Src/stm32l4xx_hal_uart.c ****         break;
 934:Drivers/STM32L4xx_HAL_Driver/Src/stm32l4xx_hal_uart.c **** 
 935:Drivers/STM32L4xx_HAL_Driver/Src/stm32l4xx_hal_uart.c ****       case HAL_UART_MSPDEINIT_CB_ID :
 936:Drivers/STM32L4xx_HAL_Driver/Src/stm32l4xx_hal_uart.c ****         huart->MspDeInitCallback = HAL_UART_MspDeInit;                         /* Legacy weak MspDe
 937:Drivers/STM32L4xx_HAL_Driver/Src/stm32l4xx_hal_uart.c ****         break;
 938:Drivers/STM32L4xx_HAL_Driver/Src/stm32l4xx_hal_uart.c **** 
 939:Drivers/STM32L4xx_HAL_Driver/Src/stm32l4xx_hal_uart.c ****       default :
 940:Drivers/STM32L4xx_HAL_Driver/Src/stm32l4xx_hal_uart.c ****         huart->ErrorCode |= HAL_UART_ERROR_INVALID_CALLBACK;
ARM GAS  /var/folders/k7/81v8fz9j4v98_s0dd31l1wsr0000gn/T//ccpVz2vH.s 			page 31


 941:Drivers/STM32L4xx_HAL_Driver/Src/stm32l4xx_hal_uart.c **** 
 942:Drivers/STM32L4xx_HAL_Driver/Src/stm32l4xx_hal_uart.c ****         status =  HAL_ERROR;
 943:Drivers/STM32L4xx_HAL_Driver/Src/stm32l4xx_hal_uart.c ****         break;
 944:Drivers/STM32L4xx_HAL_Driver/Src/stm32l4xx_hal_uart.c ****     }
 945:Drivers/STM32L4xx_HAL_Driver/Src/stm32l4xx_hal_uart.c ****   }
 946:Drivers/STM32L4xx_HAL_Driver/Src/stm32l4xx_hal_uart.c ****   else if (HAL_UART_STATE_RESET == huart->gState)
 947:Drivers/STM32L4xx_HAL_Driver/Src/stm32l4xx_hal_uart.c ****   {
 948:Drivers/STM32L4xx_HAL_Driver/Src/stm32l4xx_hal_uart.c ****     switch (CallbackID)
 949:Drivers/STM32L4xx_HAL_Driver/Src/stm32l4xx_hal_uart.c ****     {
 950:Drivers/STM32L4xx_HAL_Driver/Src/stm32l4xx_hal_uart.c ****       case HAL_UART_MSPINIT_CB_ID :
 951:Drivers/STM32L4xx_HAL_Driver/Src/stm32l4xx_hal_uart.c ****         huart->MspInitCallback = HAL_UART_MspInit;
 952:Drivers/STM32L4xx_HAL_Driver/Src/stm32l4xx_hal_uart.c ****         break;
 953:Drivers/STM32L4xx_HAL_Driver/Src/stm32l4xx_hal_uart.c **** 
 954:Drivers/STM32L4xx_HAL_Driver/Src/stm32l4xx_hal_uart.c ****       case HAL_UART_MSPDEINIT_CB_ID :
 955:Drivers/STM32L4xx_HAL_Driver/Src/stm32l4xx_hal_uart.c ****         huart->MspDeInitCallback = HAL_UART_MspDeInit;
 956:Drivers/STM32L4xx_HAL_Driver/Src/stm32l4xx_hal_uart.c ****         break;
 957:Drivers/STM32L4xx_HAL_Driver/Src/stm32l4xx_hal_uart.c **** 
 958:Drivers/STM32L4xx_HAL_Driver/Src/stm32l4xx_hal_uart.c ****       default :
 959:Drivers/STM32L4xx_HAL_Driver/Src/stm32l4xx_hal_uart.c ****         huart->ErrorCode |= HAL_UART_ERROR_INVALID_CALLBACK;
 960:Drivers/STM32L4xx_HAL_Driver/Src/stm32l4xx_hal_uart.c **** 
 961:Drivers/STM32L4xx_HAL_Driver/Src/stm32l4xx_hal_uart.c ****         status =  HAL_ERROR;
 962:Drivers/STM32L4xx_HAL_Driver/Src/stm32l4xx_hal_uart.c ****         break;
 963:Drivers/STM32L4xx_HAL_Driver/Src/stm32l4xx_hal_uart.c ****     }
 964:Drivers/STM32L4xx_HAL_Driver/Src/stm32l4xx_hal_uart.c ****   }
 965:Drivers/STM32L4xx_HAL_Driver/Src/stm32l4xx_hal_uart.c ****   else
 966:Drivers/STM32L4xx_HAL_Driver/Src/stm32l4xx_hal_uart.c ****   {
 967:Drivers/STM32L4xx_HAL_Driver/Src/stm32l4xx_hal_uart.c ****     huart->ErrorCode |= HAL_UART_ERROR_INVALID_CALLBACK;
 968:Drivers/STM32L4xx_HAL_Driver/Src/stm32l4xx_hal_uart.c **** 
 969:Drivers/STM32L4xx_HAL_Driver/Src/stm32l4xx_hal_uart.c ****     status =  HAL_ERROR;
 970:Drivers/STM32L4xx_HAL_Driver/Src/stm32l4xx_hal_uart.c ****   }
 971:Drivers/STM32L4xx_HAL_Driver/Src/stm32l4xx_hal_uart.c **** 
 972:Drivers/STM32L4xx_HAL_Driver/Src/stm32l4xx_hal_uart.c ****   __HAL_UNLOCK(huart);
 973:Drivers/STM32L4xx_HAL_Driver/Src/stm32l4xx_hal_uart.c **** 
 974:Drivers/STM32L4xx_HAL_Driver/Src/stm32l4xx_hal_uart.c ****   return status;
 975:Drivers/STM32L4xx_HAL_Driver/Src/stm32l4xx_hal_uart.c **** }
 976:Drivers/STM32L4xx_HAL_Driver/Src/stm32l4xx_hal_uart.c **** 
 977:Drivers/STM32L4xx_HAL_Driver/Src/stm32l4xx_hal_uart.c **** /**
 978:Drivers/STM32L4xx_HAL_Driver/Src/stm32l4xx_hal_uart.c ****   * @brief  Register a User UART Rx Event Callback
 979:Drivers/STM32L4xx_HAL_Driver/Src/stm32l4xx_hal_uart.c ****   *         To be used instead of the weak predefined callback
 980:Drivers/STM32L4xx_HAL_Driver/Src/stm32l4xx_hal_uart.c ****   * @param  huart     Uart handle
 981:Drivers/STM32L4xx_HAL_Driver/Src/stm32l4xx_hal_uart.c ****   * @param  pCallback Pointer to the Rx Event Callback function
 982:Drivers/STM32L4xx_HAL_Driver/Src/stm32l4xx_hal_uart.c ****   * @retval HAL status
 983:Drivers/STM32L4xx_HAL_Driver/Src/stm32l4xx_hal_uart.c ****   */
 984:Drivers/STM32L4xx_HAL_Driver/Src/stm32l4xx_hal_uart.c **** HAL_StatusTypeDef HAL_UART_RegisterRxEventCallback(UART_HandleTypeDef *huart, pUART_RxEventCallback
 985:Drivers/STM32L4xx_HAL_Driver/Src/stm32l4xx_hal_uart.c **** {
 986:Drivers/STM32L4xx_HAL_Driver/Src/stm32l4xx_hal_uart.c ****   HAL_StatusTypeDef status = HAL_OK;
 987:Drivers/STM32L4xx_HAL_Driver/Src/stm32l4xx_hal_uart.c **** 
 988:Drivers/STM32L4xx_HAL_Driver/Src/stm32l4xx_hal_uart.c ****   if (pCallback == NULL)
 989:Drivers/STM32L4xx_HAL_Driver/Src/stm32l4xx_hal_uart.c ****   {
 990:Drivers/STM32L4xx_HAL_Driver/Src/stm32l4xx_hal_uart.c ****     huart->ErrorCode |= HAL_UART_ERROR_INVALID_CALLBACK;
 991:Drivers/STM32L4xx_HAL_Driver/Src/stm32l4xx_hal_uart.c **** 
 992:Drivers/STM32L4xx_HAL_Driver/Src/stm32l4xx_hal_uart.c ****     return HAL_ERROR;
 993:Drivers/STM32L4xx_HAL_Driver/Src/stm32l4xx_hal_uart.c ****   }
 994:Drivers/STM32L4xx_HAL_Driver/Src/stm32l4xx_hal_uart.c **** 
 995:Drivers/STM32L4xx_HAL_Driver/Src/stm32l4xx_hal_uart.c ****   /* Process locked */
 996:Drivers/STM32L4xx_HAL_Driver/Src/stm32l4xx_hal_uart.c ****   __HAL_LOCK(huart);
 997:Drivers/STM32L4xx_HAL_Driver/Src/stm32l4xx_hal_uart.c **** 
ARM GAS  /var/folders/k7/81v8fz9j4v98_s0dd31l1wsr0000gn/T//ccpVz2vH.s 			page 32


 998:Drivers/STM32L4xx_HAL_Driver/Src/stm32l4xx_hal_uart.c ****   if (huart->gState == HAL_UART_STATE_READY)
 999:Drivers/STM32L4xx_HAL_Driver/Src/stm32l4xx_hal_uart.c ****   {
1000:Drivers/STM32L4xx_HAL_Driver/Src/stm32l4xx_hal_uart.c ****     huart->RxEventCallback = pCallback;
1001:Drivers/STM32L4xx_HAL_Driver/Src/stm32l4xx_hal_uart.c ****   }
1002:Drivers/STM32L4xx_HAL_Driver/Src/stm32l4xx_hal_uart.c ****   else
1003:Drivers/STM32L4xx_HAL_Driver/Src/stm32l4xx_hal_uart.c ****   {
1004:Drivers/STM32L4xx_HAL_Driver/Src/stm32l4xx_hal_uart.c ****     huart->ErrorCode |= HAL_UART_ERROR_INVALID_CALLBACK;
1005:Drivers/STM32L4xx_HAL_Driver/Src/stm32l4xx_hal_uart.c **** 
1006:Drivers/STM32L4xx_HAL_Driver/Src/stm32l4xx_hal_uart.c ****     status =  HAL_ERROR;
1007:Drivers/STM32L4xx_HAL_Driver/Src/stm32l4xx_hal_uart.c ****   }
1008:Drivers/STM32L4xx_HAL_Driver/Src/stm32l4xx_hal_uart.c **** 
1009:Drivers/STM32L4xx_HAL_Driver/Src/stm32l4xx_hal_uart.c ****   /* Release Lock */
1010:Drivers/STM32L4xx_HAL_Driver/Src/stm32l4xx_hal_uart.c ****   __HAL_UNLOCK(huart);
1011:Drivers/STM32L4xx_HAL_Driver/Src/stm32l4xx_hal_uart.c **** 
1012:Drivers/STM32L4xx_HAL_Driver/Src/stm32l4xx_hal_uart.c ****   return status;
1013:Drivers/STM32L4xx_HAL_Driver/Src/stm32l4xx_hal_uart.c **** }
1014:Drivers/STM32L4xx_HAL_Driver/Src/stm32l4xx_hal_uart.c **** 
1015:Drivers/STM32L4xx_HAL_Driver/Src/stm32l4xx_hal_uart.c **** /**
1016:Drivers/STM32L4xx_HAL_Driver/Src/stm32l4xx_hal_uart.c ****   * @brief  UnRegister the UART Rx Event Callback
1017:Drivers/STM32L4xx_HAL_Driver/Src/stm32l4xx_hal_uart.c ****   *         UART Rx Event Callback is redirected to the weak HAL_UARTEx_RxEventCallback() predefine
1018:Drivers/STM32L4xx_HAL_Driver/Src/stm32l4xx_hal_uart.c ****   * @param  huart     Uart handle
1019:Drivers/STM32L4xx_HAL_Driver/Src/stm32l4xx_hal_uart.c ****   * @retval HAL status
1020:Drivers/STM32L4xx_HAL_Driver/Src/stm32l4xx_hal_uart.c ****   */
1021:Drivers/STM32L4xx_HAL_Driver/Src/stm32l4xx_hal_uart.c **** HAL_StatusTypeDef HAL_UART_UnRegisterRxEventCallback(UART_HandleTypeDef *huart)
1022:Drivers/STM32L4xx_HAL_Driver/Src/stm32l4xx_hal_uart.c **** {
1023:Drivers/STM32L4xx_HAL_Driver/Src/stm32l4xx_hal_uart.c ****   HAL_StatusTypeDef status = HAL_OK;
1024:Drivers/STM32L4xx_HAL_Driver/Src/stm32l4xx_hal_uart.c **** 
1025:Drivers/STM32L4xx_HAL_Driver/Src/stm32l4xx_hal_uart.c ****   /* Process locked */
1026:Drivers/STM32L4xx_HAL_Driver/Src/stm32l4xx_hal_uart.c ****   __HAL_LOCK(huart);
1027:Drivers/STM32L4xx_HAL_Driver/Src/stm32l4xx_hal_uart.c **** 
1028:Drivers/STM32L4xx_HAL_Driver/Src/stm32l4xx_hal_uart.c ****   if (huart->gState == HAL_UART_STATE_READY)
1029:Drivers/STM32L4xx_HAL_Driver/Src/stm32l4xx_hal_uart.c ****   {
1030:Drivers/STM32L4xx_HAL_Driver/Src/stm32l4xx_hal_uart.c ****     huart->RxEventCallback = HAL_UARTEx_RxEventCallback; /* Legacy weak UART Rx Event Callback  */
1031:Drivers/STM32L4xx_HAL_Driver/Src/stm32l4xx_hal_uart.c ****   }
1032:Drivers/STM32L4xx_HAL_Driver/Src/stm32l4xx_hal_uart.c ****   else
1033:Drivers/STM32L4xx_HAL_Driver/Src/stm32l4xx_hal_uart.c ****   {
1034:Drivers/STM32L4xx_HAL_Driver/Src/stm32l4xx_hal_uart.c ****     huart->ErrorCode |= HAL_UART_ERROR_INVALID_CALLBACK;
1035:Drivers/STM32L4xx_HAL_Driver/Src/stm32l4xx_hal_uart.c **** 
1036:Drivers/STM32L4xx_HAL_Driver/Src/stm32l4xx_hal_uart.c ****     status =  HAL_ERROR;
1037:Drivers/STM32L4xx_HAL_Driver/Src/stm32l4xx_hal_uart.c ****   }
1038:Drivers/STM32L4xx_HAL_Driver/Src/stm32l4xx_hal_uart.c **** 
1039:Drivers/STM32L4xx_HAL_Driver/Src/stm32l4xx_hal_uart.c ****   /* Release Lock */
1040:Drivers/STM32L4xx_HAL_Driver/Src/stm32l4xx_hal_uart.c ****   __HAL_UNLOCK(huart);
1041:Drivers/STM32L4xx_HAL_Driver/Src/stm32l4xx_hal_uart.c ****   return status;
1042:Drivers/STM32L4xx_HAL_Driver/Src/stm32l4xx_hal_uart.c **** }
1043:Drivers/STM32L4xx_HAL_Driver/Src/stm32l4xx_hal_uart.c **** 
1044:Drivers/STM32L4xx_HAL_Driver/Src/stm32l4xx_hal_uart.c **** #endif /* USE_HAL_UART_REGISTER_CALLBACKS */
1045:Drivers/STM32L4xx_HAL_Driver/Src/stm32l4xx_hal_uart.c **** 
1046:Drivers/STM32L4xx_HAL_Driver/Src/stm32l4xx_hal_uart.c **** /**
1047:Drivers/STM32L4xx_HAL_Driver/Src/stm32l4xx_hal_uart.c ****   * @}
1048:Drivers/STM32L4xx_HAL_Driver/Src/stm32l4xx_hal_uart.c ****   */
1049:Drivers/STM32L4xx_HAL_Driver/Src/stm32l4xx_hal_uart.c **** 
1050:Drivers/STM32L4xx_HAL_Driver/Src/stm32l4xx_hal_uart.c **** /** @defgroup UART_Exported_Functions_Group2 IO operation functions
1051:Drivers/STM32L4xx_HAL_Driver/Src/stm32l4xx_hal_uart.c ****   * @brief UART Transmit/Receive functions
1052:Drivers/STM32L4xx_HAL_Driver/Src/stm32l4xx_hal_uart.c ****   *
1053:Drivers/STM32L4xx_HAL_Driver/Src/stm32l4xx_hal_uart.c **** @verbatim
1054:Drivers/STM32L4xx_HAL_Driver/Src/stm32l4xx_hal_uart.c ****  ===============================================================================
ARM GAS  /var/folders/k7/81v8fz9j4v98_s0dd31l1wsr0000gn/T//ccpVz2vH.s 			page 33


1055:Drivers/STM32L4xx_HAL_Driver/Src/stm32l4xx_hal_uart.c ****                       ##### IO operation functions #####
1056:Drivers/STM32L4xx_HAL_Driver/Src/stm32l4xx_hal_uart.c ****  ===============================================================================
1057:Drivers/STM32L4xx_HAL_Driver/Src/stm32l4xx_hal_uart.c ****     This subsection provides a set of functions allowing to manage the UART asynchronous
1058:Drivers/STM32L4xx_HAL_Driver/Src/stm32l4xx_hal_uart.c ****     and Half duplex data transfers.
1059:Drivers/STM32L4xx_HAL_Driver/Src/stm32l4xx_hal_uart.c **** 
1060:Drivers/STM32L4xx_HAL_Driver/Src/stm32l4xx_hal_uart.c ****     (#) There are two mode of transfer:
1061:Drivers/STM32L4xx_HAL_Driver/Src/stm32l4xx_hal_uart.c ****        (+) Blocking mode: The communication is performed in polling mode.
1062:Drivers/STM32L4xx_HAL_Driver/Src/stm32l4xx_hal_uart.c ****            The HAL status of all data processing is returned by the same function
1063:Drivers/STM32L4xx_HAL_Driver/Src/stm32l4xx_hal_uart.c ****            after finishing transfer.
1064:Drivers/STM32L4xx_HAL_Driver/Src/stm32l4xx_hal_uart.c ****        (+) Non-Blocking mode: The communication is performed using Interrupts
1065:Drivers/STM32L4xx_HAL_Driver/Src/stm32l4xx_hal_uart.c ****            or DMA, These API's return the HAL status.
1066:Drivers/STM32L4xx_HAL_Driver/Src/stm32l4xx_hal_uart.c ****            The end of the data processing will be indicated through the
1067:Drivers/STM32L4xx_HAL_Driver/Src/stm32l4xx_hal_uart.c ****            dedicated UART IRQ when using Interrupt mode or the DMA IRQ when
1068:Drivers/STM32L4xx_HAL_Driver/Src/stm32l4xx_hal_uart.c ****            using DMA mode.
1069:Drivers/STM32L4xx_HAL_Driver/Src/stm32l4xx_hal_uart.c ****            The HAL_UART_TxCpltCallback(), HAL_UART_RxCpltCallback() user callbacks
1070:Drivers/STM32L4xx_HAL_Driver/Src/stm32l4xx_hal_uart.c ****            will be executed respectively at the end of the transmit or Receive process
1071:Drivers/STM32L4xx_HAL_Driver/Src/stm32l4xx_hal_uart.c ****            The HAL_UART_ErrorCallback()user callback will be executed when a communication error is
1072:Drivers/STM32L4xx_HAL_Driver/Src/stm32l4xx_hal_uart.c **** 
1073:Drivers/STM32L4xx_HAL_Driver/Src/stm32l4xx_hal_uart.c ****     (#) Blocking mode API's are :
1074:Drivers/STM32L4xx_HAL_Driver/Src/stm32l4xx_hal_uart.c ****         (+) HAL_UART_Transmit()
1075:Drivers/STM32L4xx_HAL_Driver/Src/stm32l4xx_hal_uart.c ****         (+) HAL_UART_Receive()
1076:Drivers/STM32L4xx_HAL_Driver/Src/stm32l4xx_hal_uart.c **** 
1077:Drivers/STM32L4xx_HAL_Driver/Src/stm32l4xx_hal_uart.c ****     (#) Non-Blocking mode API's with Interrupt are :
1078:Drivers/STM32L4xx_HAL_Driver/Src/stm32l4xx_hal_uart.c ****         (+) HAL_UART_Transmit_IT()
1079:Drivers/STM32L4xx_HAL_Driver/Src/stm32l4xx_hal_uart.c ****         (+) HAL_UART_Receive_IT()
1080:Drivers/STM32L4xx_HAL_Driver/Src/stm32l4xx_hal_uart.c ****         (+) HAL_UART_IRQHandler()
1081:Drivers/STM32L4xx_HAL_Driver/Src/stm32l4xx_hal_uart.c **** 
1082:Drivers/STM32L4xx_HAL_Driver/Src/stm32l4xx_hal_uart.c ****     (#) Non-Blocking mode API's with DMA are :
1083:Drivers/STM32L4xx_HAL_Driver/Src/stm32l4xx_hal_uart.c ****         (+) HAL_UART_Transmit_DMA()
1084:Drivers/STM32L4xx_HAL_Driver/Src/stm32l4xx_hal_uart.c ****         (+) HAL_UART_Receive_DMA()
1085:Drivers/STM32L4xx_HAL_Driver/Src/stm32l4xx_hal_uart.c ****         (+) HAL_UART_DMAPause()
1086:Drivers/STM32L4xx_HAL_Driver/Src/stm32l4xx_hal_uart.c ****         (+) HAL_UART_DMAResume()
1087:Drivers/STM32L4xx_HAL_Driver/Src/stm32l4xx_hal_uart.c ****         (+) HAL_UART_DMAStop()
1088:Drivers/STM32L4xx_HAL_Driver/Src/stm32l4xx_hal_uart.c **** 
1089:Drivers/STM32L4xx_HAL_Driver/Src/stm32l4xx_hal_uart.c ****     (#) A set of Transfer Complete Callbacks are provided in Non_Blocking mode:
1090:Drivers/STM32L4xx_HAL_Driver/Src/stm32l4xx_hal_uart.c ****         (+) HAL_UART_TxHalfCpltCallback()
1091:Drivers/STM32L4xx_HAL_Driver/Src/stm32l4xx_hal_uart.c ****         (+) HAL_UART_TxCpltCallback()
1092:Drivers/STM32L4xx_HAL_Driver/Src/stm32l4xx_hal_uart.c ****         (+) HAL_UART_RxHalfCpltCallback()
1093:Drivers/STM32L4xx_HAL_Driver/Src/stm32l4xx_hal_uart.c ****         (+) HAL_UART_RxCpltCallback()
1094:Drivers/STM32L4xx_HAL_Driver/Src/stm32l4xx_hal_uart.c ****         (+) HAL_UART_ErrorCallback()
1095:Drivers/STM32L4xx_HAL_Driver/Src/stm32l4xx_hal_uart.c **** 
1096:Drivers/STM32L4xx_HAL_Driver/Src/stm32l4xx_hal_uart.c ****     (#) Non-Blocking mode transfers could be aborted using Abort API's :
1097:Drivers/STM32L4xx_HAL_Driver/Src/stm32l4xx_hal_uart.c ****         (+) HAL_UART_Abort()
1098:Drivers/STM32L4xx_HAL_Driver/Src/stm32l4xx_hal_uart.c ****         (+) HAL_UART_AbortTransmit()
1099:Drivers/STM32L4xx_HAL_Driver/Src/stm32l4xx_hal_uart.c ****         (+) HAL_UART_AbortReceive()
1100:Drivers/STM32L4xx_HAL_Driver/Src/stm32l4xx_hal_uart.c ****         (+) HAL_UART_Abort_IT()
1101:Drivers/STM32L4xx_HAL_Driver/Src/stm32l4xx_hal_uart.c ****         (+) HAL_UART_AbortTransmit_IT()
1102:Drivers/STM32L4xx_HAL_Driver/Src/stm32l4xx_hal_uart.c ****         (+) HAL_UART_AbortReceive_IT()
1103:Drivers/STM32L4xx_HAL_Driver/Src/stm32l4xx_hal_uart.c **** 
1104:Drivers/STM32L4xx_HAL_Driver/Src/stm32l4xx_hal_uart.c ****     (#) For Abort services based on interrupts (HAL_UART_Abortxxx_IT), a set of Abort Complete Call
1105:Drivers/STM32L4xx_HAL_Driver/Src/stm32l4xx_hal_uart.c ****         (+) HAL_UART_AbortCpltCallback()
1106:Drivers/STM32L4xx_HAL_Driver/Src/stm32l4xx_hal_uart.c ****         (+) HAL_UART_AbortTransmitCpltCallback()
1107:Drivers/STM32L4xx_HAL_Driver/Src/stm32l4xx_hal_uart.c ****         (+) HAL_UART_AbortReceiveCpltCallback()
1108:Drivers/STM32L4xx_HAL_Driver/Src/stm32l4xx_hal_uart.c **** 
1109:Drivers/STM32L4xx_HAL_Driver/Src/stm32l4xx_hal_uart.c ****     (#) A Rx Event Reception Callback (Rx event notification) is available for Non_Blocking modes o
1110:Drivers/STM32L4xx_HAL_Driver/Src/stm32l4xx_hal_uart.c ****         reception services:
1111:Drivers/STM32L4xx_HAL_Driver/Src/stm32l4xx_hal_uart.c ****         (+) HAL_UARTEx_RxEventCallback()
ARM GAS  /var/folders/k7/81v8fz9j4v98_s0dd31l1wsr0000gn/T//ccpVz2vH.s 			page 34


1112:Drivers/STM32L4xx_HAL_Driver/Src/stm32l4xx_hal_uart.c **** 
1113:Drivers/STM32L4xx_HAL_Driver/Src/stm32l4xx_hal_uart.c ****     (#) In Non-Blocking mode transfers, possible errors are split into 2 categories.
1114:Drivers/STM32L4xx_HAL_Driver/Src/stm32l4xx_hal_uart.c ****         Errors are handled as follows :
1115:Drivers/STM32L4xx_HAL_Driver/Src/stm32l4xx_hal_uart.c ****        (+) Error is considered as Recoverable and non blocking : Transfer could go till end, but er
1116:Drivers/STM32L4xx_HAL_Driver/Src/stm32l4xx_hal_uart.c ****            to be evaluated by user : this concerns Frame Error, Parity Error or Noise Error
1117:Drivers/STM32L4xx_HAL_Driver/Src/stm32l4xx_hal_uart.c ****            in Interrupt mode reception .
1118:Drivers/STM32L4xx_HAL_Driver/Src/stm32l4xx_hal_uart.c ****            Received character is then retrieved and stored in Rx buffer, Error code is set to allow
1119:Drivers/STM32L4xx_HAL_Driver/Src/stm32l4xx_hal_uart.c ****            to identify error type, and HAL_UART_ErrorCallback() user callback is executed.
1120:Drivers/STM32L4xx_HAL_Driver/Src/stm32l4xx_hal_uart.c ****            Transfer is kept ongoing on UART side.
1121:Drivers/STM32L4xx_HAL_Driver/Src/stm32l4xx_hal_uart.c ****            If user wants to abort it, Abort services should be called by user.
1122:Drivers/STM32L4xx_HAL_Driver/Src/stm32l4xx_hal_uart.c ****        (+) Error is considered as Blocking : Transfer could not be completed properly and is aborte
1123:Drivers/STM32L4xx_HAL_Driver/Src/stm32l4xx_hal_uart.c ****            This concerns Overrun Error In Interrupt mode reception and all errors in DMA mode.
1124:Drivers/STM32L4xx_HAL_Driver/Src/stm32l4xx_hal_uart.c ****            Error code is set to allow user to identify error type, and HAL_UART_ErrorCallback()
1125:Drivers/STM32L4xx_HAL_Driver/Src/stm32l4xx_hal_uart.c ****            user callback is executed.
1126:Drivers/STM32L4xx_HAL_Driver/Src/stm32l4xx_hal_uart.c **** 
1127:Drivers/STM32L4xx_HAL_Driver/Src/stm32l4xx_hal_uart.c ****     -@- In the Half duplex communication, it is forbidden to run the transmit
1128:Drivers/STM32L4xx_HAL_Driver/Src/stm32l4xx_hal_uart.c ****         and receive process in parallel, the UART state HAL_UART_STATE_BUSY_TX_RX can't be useful.
1129:Drivers/STM32L4xx_HAL_Driver/Src/stm32l4xx_hal_uart.c **** 
1130:Drivers/STM32L4xx_HAL_Driver/Src/stm32l4xx_hal_uart.c **** @endverbatim
1131:Drivers/STM32L4xx_HAL_Driver/Src/stm32l4xx_hal_uart.c ****   * @{
1132:Drivers/STM32L4xx_HAL_Driver/Src/stm32l4xx_hal_uart.c ****   */
1133:Drivers/STM32L4xx_HAL_Driver/Src/stm32l4xx_hal_uart.c **** 
1134:Drivers/STM32L4xx_HAL_Driver/Src/stm32l4xx_hal_uart.c **** /**
1135:Drivers/STM32L4xx_HAL_Driver/Src/stm32l4xx_hal_uart.c ****   * @brief Send an amount of data in blocking mode.
1136:Drivers/STM32L4xx_HAL_Driver/Src/stm32l4xx_hal_uart.c ****   * @note   When UART parity is not enabled (PCE = 0), and Word Length is configured to 9 bits (M1-
1137:Drivers/STM32L4xx_HAL_Driver/Src/stm32l4xx_hal_uart.c ****   *         the sent data is handled as a set of u16. In this case, Size must indicate the number
1138:Drivers/STM32L4xx_HAL_Driver/Src/stm32l4xx_hal_uart.c ****   *         of u16 provided through pData.
1139:Drivers/STM32L4xx_HAL_Driver/Src/stm32l4xx_hal_uart.c ****   * @note When FIFO mode is enabled, writing a data in the TDR register adds one
1140:Drivers/STM32L4xx_HAL_Driver/Src/stm32l4xx_hal_uart.c ****   *       data to the TXFIFO. Write operations to the TDR register are performed
1141:Drivers/STM32L4xx_HAL_Driver/Src/stm32l4xx_hal_uart.c ****   *       when TXFNF flag is set. From hardware perspective, TXFNF flag and
1142:Drivers/STM32L4xx_HAL_Driver/Src/stm32l4xx_hal_uart.c ****   *       TXE are mapped on the same bit-field.
1143:Drivers/STM32L4xx_HAL_Driver/Src/stm32l4xx_hal_uart.c ****   * @param huart   UART handle.
1144:Drivers/STM32L4xx_HAL_Driver/Src/stm32l4xx_hal_uart.c ****   * @param pData   Pointer to data buffer (u8 or u16 data elements).
1145:Drivers/STM32L4xx_HAL_Driver/Src/stm32l4xx_hal_uart.c ****   * @param Size    Amount of data elements (u8 or u16) to be sent.
1146:Drivers/STM32L4xx_HAL_Driver/Src/stm32l4xx_hal_uart.c ****   * @param Timeout Timeout duration.
1147:Drivers/STM32L4xx_HAL_Driver/Src/stm32l4xx_hal_uart.c ****   * @retval HAL status
1148:Drivers/STM32L4xx_HAL_Driver/Src/stm32l4xx_hal_uart.c ****   */
1149:Drivers/STM32L4xx_HAL_Driver/Src/stm32l4xx_hal_uart.c **** HAL_StatusTypeDef HAL_UART_Transmit(UART_HandleTypeDef *huart, const uint8_t *pData, uint16_t Size,
1150:Drivers/STM32L4xx_HAL_Driver/Src/stm32l4xx_hal_uart.c **** {
 786              		.loc 1 1150 1
 787              		.cfi_startproc
 788              		@ args = 0, pretend = 0, frame = 32
 789              		@ frame_needed = 1, uses_anonymous_args = 0
 790 0000 80B5     		push	{r7, lr}
 791              	.LCFI37:
 792              		.cfi_def_cfa_offset 8
 793              		.cfi_offset 7, -8
 794              		.cfi_offset 14, -4
 795 0002 8AB0     		sub	sp, sp, #40
 796              	.LCFI38:
 797              		.cfi_def_cfa_offset 48
 798 0004 02AF     		add	r7, sp, #8
 799              	.LCFI39:
 800              		.cfi_def_cfa 7, 40
 801 0006 F860     		str	r0, [r7, #12]
 802 0008 B960     		str	r1, [r7, #8]
 803 000a 3B60     		str	r3, [r7]
ARM GAS  /var/folders/k7/81v8fz9j4v98_s0dd31l1wsr0000gn/T//ccpVz2vH.s 			page 35


 804 000c 1346     		mov	r3, r2	@ movhi
 805 000e FB80     		strh	r3, [r7, #6]	@ movhi
1151:Drivers/STM32L4xx_HAL_Driver/Src/stm32l4xx_hal_uart.c ****   const uint8_t  *pdata8bits;
1152:Drivers/STM32L4xx_HAL_Driver/Src/stm32l4xx_hal_uart.c ****   const uint16_t *pdata16bits;
1153:Drivers/STM32L4xx_HAL_Driver/Src/stm32l4xx_hal_uart.c ****   uint32_t tickstart;
1154:Drivers/STM32L4xx_HAL_Driver/Src/stm32l4xx_hal_uart.c **** 
1155:Drivers/STM32L4xx_HAL_Driver/Src/stm32l4xx_hal_uart.c ****   /* Check that a Tx process is not already ongoing */
1156:Drivers/STM32L4xx_HAL_Driver/Src/stm32l4xx_hal_uart.c ****   if (huart->gState == HAL_UART_STATE_READY)
 806              		.loc 1 1156 12
 807 0010 FB68     		ldr	r3, [r7, #12]
 808 0012 9B6F     		ldr	r3, [r3, #120]
 809              		.loc 1 1156 6
 810 0014 202B     		cmp	r3, #32
 811 0016 40F08280 		bne	.L34
1157:Drivers/STM32L4xx_HAL_Driver/Src/stm32l4xx_hal_uart.c ****   {
1158:Drivers/STM32L4xx_HAL_Driver/Src/stm32l4xx_hal_uart.c ****     if ((pData == NULL) || (Size == 0U))
 812              		.loc 1 1158 8
 813 001a BB68     		ldr	r3, [r7, #8]
 814 001c 002B     		cmp	r3, #0
 815 001e 02D0     		beq	.L35
 816              		.loc 1 1158 25 discriminator 1
 817 0020 FB88     		ldrh	r3, [r7, #6]
 818 0022 002B     		cmp	r3, #0
 819 0024 01D1     		bne	.L36
 820              	.L35:
1159:Drivers/STM32L4xx_HAL_Driver/Src/stm32l4xx_hal_uart.c ****     {
1160:Drivers/STM32L4xx_HAL_Driver/Src/stm32l4xx_hal_uart.c ****       return  HAL_ERROR;
 821              		.loc 1 1160 15
 822 0026 0123     		movs	r3, #1
 823 0028 7AE0     		b	.L37
 824              	.L36:
1161:Drivers/STM32L4xx_HAL_Driver/Src/stm32l4xx_hal_uart.c ****     }
1162:Drivers/STM32L4xx_HAL_Driver/Src/stm32l4xx_hal_uart.c **** 
1163:Drivers/STM32L4xx_HAL_Driver/Src/stm32l4xx_hal_uart.c ****     __HAL_LOCK(huart);
 825              		.loc 1 1163 5
 826 002a FB68     		ldr	r3, [r7, #12]
 827 002c 93F87430 		ldrb	r3, [r3, #116]	@ zero_extendqisi2
 828 0030 012B     		cmp	r3, #1
 829 0032 01D1     		bne	.L38
 830              		.loc 1 1163 5 is_stmt 0 discriminator 1
 831 0034 0223     		movs	r3, #2
 832 0036 73E0     		b	.L37
 833              	.L38:
 834              		.loc 1 1163 5 discriminator 2
 835 0038 FB68     		ldr	r3, [r7, #12]
 836 003a 0122     		movs	r2, #1
 837 003c 83F87420 		strb	r2, [r3, #116]
1164:Drivers/STM32L4xx_HAL_Driver/Src/stm32l4xx_hal_uart.c **** 
1165:Drivers/STM32L4xx_HAL_Driver/Src/stm32l4xx_hal_uart.c ****     huart->ErrorCode = HAL_UART_ERROR_NONE;
 838              		.loc 1 1165 22 is_stmt 1 discriminator 2
 839 0040 FB68     		ldr	r3, [r7, #12]
 840 0042 0022     		movs	r2, #0
 841 0044 C3F88020 		str	r2, [r3, #128]
1166:Drivers/STM32L4xx_HAL_Driver/Src/stm32l4xx_hal_uart.c ****     huart->gState = HAL_UART_STATE_BUSY_TX;
 842              		.loc 1 1166 19 discriminator 2
 843 0048 FB68     		ldr	r3, [r7, #12]
 844 004a 2122     		movs	r2, #33
ARM GAS  /var/folders/k7/81v8fz9j4v98_s0dd31l1wsr0000gn/T//ccpVz2vH.s 			page 36


 845 004c 9A67     		str	r2, [r3, #120]
1167:Drivers/STM32L4xx_HAL_Driver/Src/stm32l4xx_hal_uart.c **** 
1168:Drivers/STM32L4xx_HAL_Driver/Src/stm32l4xx_hal_uart.c ****     /* Init tickstart for timeout management */
1169:Drivers/STM32L4xx_HAL_Driver/Src/stm32l4xx_hal_uart.c ****     tickstart = HAL_GetTick();
 846              		.loc 1 1169 17 discriminator 2
 847 004e FFF7FEFF 		bl	HAL_GetTick
 848 0052 7861     		str	r0, [r7, #20]
1170:Drivers/STM32L4xx_HAL_Driver/Src/stm32l4xx_hal_uart.c **** 
1171:Drivers/STM32L4xx_HAL_Driver/Src/stm32l4xx_hal_uart.c ****     huart->TxXferSize  = Size;
 849              		.loc 1 1171 24 discriminator 2
 850 0054 FB68     		ldr	r3, [r7, #12]
 851 0056 FA88     		ldrh	r2, [r7, #6]	@ movhi
 852 0058 A3F85020 		strh	r2, [r3, #80]	@ movhi
1172:Drivers/STM32L4xx_HAL_Driver/Src/stm32l4xx_hal_uart.c ****     huart->TxXferCount = Size;
 853              		.loc 1 1172 24 discriminator 2
 854 005c FB68     		ldr	r3, [r7, #12]
 855 005e FA88     		ldrh	r2, [r7, #6]	@ movhi
 856 0060 A3F85220 		strh	r2, [r3, #82]	@ movhi
1173:Drivers/STM32L4xx_HAL_Driver/Src/stm32l4xx_hal_uart.c **** 
1174:Drivers/STM32L4xx_HAL_Driver/Src/stm32l4xx_hal_uart.c ****     /* In case of 9bits/No Parity transfer, pData needs to be handled as a uint16_t pointer */
1175:Drivers/STM32L4xx_HAL_Driver/Src/stm32l4xx_hal_uart.c ****     if ((huart->Init.WordLength == UART_WORDLENGTH_9B) && (huart->Init.Parity == UART_PARITY_NONE))
 857              		.loc 1 1175 21 discriminator 2
 858 0064 FB68     		ldr	r3, [r7, #12]
 859 0066 9B68     		ldr	r3, [r3, #8]
 860              		.loc 1 1175 8 discriminator 2
 861 0068 B3F5805F 		cmp	r3, #4096
 862 006c 08D1     		bne	.L39
 863              		.loc 1 1175 71 discriminator 1
 864 006e FB68     		ldr	r3, [r7, #12]
 865 0070 1B69     		ldr	r3, [r3, #16]
 866              		.loc 1 1175 56 discriminator 1
 867 0072 002B     		cmp	r3, #0
 868 0074 04D1     		bne	.L39
1176:Drivers/STM32L4xx_HAL_Driver/Src/stm32l4xx_hal_uart.c ****     {
1177:Drivers/STM32L4xx_HAL_Driver/Src/stm32l4xx_hal_uart.c ****       pdata8bits  = NULL;
 869              		.loc 1 1177 19
 870 0076 0023     		movs	r3, #0
 871 0078 FB61     		str	r3, [r7, #28]
1178:Drivers/STM32L4xx_HAL_Driver/Src/stm32l4xx_hal_uart.c ****       pdata16bits = (const uint16_t *) pData;
 872              		.loc 1 1178 19
 873 007a BB68     		ldr	r3, [r7, #8]
 874 007c BB61     		str	r3, [r7, #24]
 875 007e 03E0     		b	.L40
 876              	.L39:
1179:Drivers/STM32L4xx_HAL_Driver/Src/stm32l4xx_hal_uart.c ****     }
1180:Drivers/STM32L4xx_HAL_Driver/Src/stm32l4xx_hal_uart.c ****     else
1181:Drivers/STM32L4xx_HAL_Driver/Src/stm32l4xx_hal_uart.c ****     {
1182:Drivers/STM32L4xx_HAL_Driver/Src/stm32l4xx_hal_uart.c ****       pdata8bits  = pData;
 877              		.loc 1 1182 19
 878 0080 BB68     		ldr	r3, [r7, #8]
 879 0082 FB61     		str	r3, [r7, #28]
1183:Drivers/STM32L4xx_HAL_Driver/Src/stm32l4xx_hal_uart.c ****       pdata16bits = NULL;
 880              		.loc 1 1183 19
 881 0084 0023     		movs	r3, #0
 882 0086 BB61     		str	r3, [r7, #24]
 883              	.L40:
1184:Drivers/STM32L4xx_HAL_Driver/Src/stm32l4xx_hal_uart.c ****     }
ARM GAS  /var/folders/k7/81v8fz9j4v98_s0dd31l1wsr0000gn/T//ccpVz2vH.s 			page 37


1185:Drivers/STM32L4xx_HAL_Driver/Src/stm32l4xx_hal_uart.c **** 
1186:Drivers/STM32L4xx_HAL_Driver/Src/stm32l4xx_hal_uart.c ****     __HAL_UNLOCK(huart);
 884              		.loc 1 1186 5
 885 0088 FB68     		ldr	r3, [r7, #12]
 886 008a 0022     		movs	r2, #0
 887 008c 83F87420 		strb	r2, [r3, #116]
1187:Drivers/STM32L4xx_HAL_Driver/Src/stm32l4xx_hal_uart.c **** 
1188:Drivers/STM32L4xx_HAL_Driver/Src/stm32l4xx_hal_uart.c ****     while (huart->TxXferCount > 0U)
 888              		.loc 1 1188 11
 889 0090 2DE0     		b	.L41
 890              	.L45:
1189:Drivers/STM32L4xx_HAL_Driver/Src/stm32l4xx_hal_uart.c ****     {
1190:Drivers/STM32L4xx_HAL_Driver/Src/stm32l4xx_hal_uart.c ****       if (UART_WaitOnFlagUntilTimeout(huart, UART_FLAG_TXE, RESET, tickstart, Timeout) != HAL_OK)
 891              		.loc 1 1190 11
 892 0092 3B68     		ldr	r3, [r7]
 893 0094 0093     		str	r3, [sp]
 894 0096 7B69     		ldr	r3, [r7, #20]
 895 0098 0022     		movs	r2, #0
 896 009a 8021     		movs	r1, #128
 897 009c F868     		ldr	r0, [r7, #12]
 898 009e FFF7FEFF 		bl	UART_WaitOnFlagUntilTimeout
 899 00a2 0346     		mov	r3, r0
 900              		.loc 1 1190 10
 901 00a4 002B     		cmp	r3, #0
 902 00a6 01D0     		beq	.L42
1191:Drivers/STM32L4xx_HAL_Driver/Src/stm32l4xx_hal_uart.c ****       {
1192:Drivers/STM32L4xx_HAL_Driver/Src/stm32l4xx_hal_uart.c ****         return HAL_TIMEOUT;
 903              		.loc 1 1192 16
 904 00a8 0323     		movs	r3, #3
 905 00aa 39E0     		b	.L37
 906              	.L42:
1193:Drivers/STM32L4xx_HAL_Driver/Src/stm32l4xx_hal_uart.c ****       }
1194:Drivers/STM32L4xx_HAL_Driver/Src/stm32l4xx_hal_uart.c ****       if (pdata8bits == NULL)
 907              		.loc 1 1194 10
 908 00ac FB69     		ldr	r3, [r7, #28]
 909 00ae 002B     		cmp	r3, #0
 910 00b0 0BD1     		bne	.L43
1195:Drivers/STM32L4xx_HAL_Driver/Src/stm32l4xx_hal_uart.c ****       {
1196:Drivers/STM32L4xx_HAL_Driver/Src/stm32l4xx_hal_uart.c ****         huart->Instance->TDR = (uint16_t)(*pdata16bits & 0x01FFU);
 911              		.loc 1 1196 43
 912 00b2 BB69     		ldr	r3, [r7, #24]
 913 00b4 1A88     		ldrh	r2, [r3]
 914              		.loc 1 1196 14
 915 00b6 FB68     		ldr	r3, [r7, #12]
 916 00b8 1B68     		ldr	r3, [r3]
 917              		.loc 1 1196 32
 918 00ba C2F30802 		ubfx	r2, r2, #0, #9
 919 00be 92B2     		uxth	r2, r2
 920              		.loc 1 1196 30
 921 00c0 1A85     		strh	r2, [r3, #40]	@ movhi
1197:Drivers/STM32L4xx_HAL_Driver/Src/stm32l4xx_hal_uart.c ****         pdata16bits++;
 922              		.loc 1 1197 20
 923 00c2 BB69     		ldr	r3, [r7, #24]
 924 00c4 0233     		adds	r3, r3, #2
 925 00c6 BB61     		str	r3, [r7, #24]
 926 00c8 08E0     		b	.L44
 927              	.L43:
ARM GAS  /var/folders/k7/81v8fz9j4v98_s0dd31l1wsr0000gn/T//ccpVz2vH.s 			page 38


1198:Drivers/STM32L4xx_HAL_Driver/Src/stm32l4xx_hal_uart.c ****       }
1199:Drivers/STM32L4xx_HAL_Driver/Src/stm32l4xx_hal_uart.c ****       else
1200:Drivers/STM32L4xx_HAL_Driver/Src/stm32l4xx_hal_uart.c ****       {
1201:Drivers/STM32L4xx_HAL_Driver/Src/stm32l4xx_hal_uart.c ****         huart->Instance->TDR = (uint8_t)(*pdata8bits & 0xFFU);
 928              		.loc 1 1201 42
 929 00ca FB69     		ldr	r3, [r7, #28]
 930 00cc 1A78     		ldrb	r2, [r3]	@ zero_extendqisi2
 931              		.loc 1 1201 14
 932 00ce FB68     		ldr	r3, [r7, #12]
 933 00d0 1B68     		ldr	r3, [r3]
 934              		.loc 1 1201 32
 935 00d2 92B2     		uxth	r2, r2
 936              		.loc 1 1201 30
 937 00d4 1A85     		strh	r2, [r3, #40]	@ movhi
1202:Drivers/STM32L4xx_HAL_Driver/Src/stm32l4xx_hal_uart.c ****         pdata8bits++;
 938              		.loc 1 1202 19
 939 00d6 FB69     		ldr	r3, [r7, #28]
 940 00d8 0133     		adds	r3, r3, #1
 941 00da FB61     		str	r3, [r7, #28]
 942              	.L44:
1203:Drivers/STM32L4xx_HAL_Driver/Src/stm32l4xx_hal_uart.c ****       }
1204:Drivers/STM32L4xx_HAL_Driver/Src/stm32l4xx_hal_uart.c ****       huart->TxXferCount--;
 943              		.loc 1 1204 12
 944 00dc FB68     		ldr	r3, [r7, #12]
 945 00de B3F85230 		ldrh	r3, [r3, #82]	@ movhi
 946 00e2 9BB2     		uxth	r3, r3
 947              		.loc 1 1204 25
 948 00e4 013B     		subs	r3, r3, #1
 949 00e6 9AB2     		uxth	r2, r3
 950 00e8 FB68     		ldr	r3, [r7, #12]
 951 00ea A3F85220 		strh	r2, [r3, #82]	@ movhi
 952              	.L41:
1188:Drivers/STM32L4xx_HAL_Driver/Src/stm32l4xx_hal_uart.c ****     {
 953              		.loc 1 1188 17
 954 00ee FB68     		ldr	r3, [r7, #12]
 955 00f0 B3F85230 		ldrh	r3, [r3, #82]	@ movhi
 956 00f4 9BB2     		uxth	r3, r3
1188:Drivers/STM32L4xx_HAL_Driver/Src/stm32l4xx_hal_uart.c ****     {
 957              		.loc 1 1188 11
 958 00f6 002B     		cmp	r3, #0
 959 00f8 CBD1     		bne	.L45
1205:Drivers/STM32L4xx_HAL_Driver/Src/stm32l4xx_hal_uart.c ****     }
1206:Drivers/STM32L4xx_HAL_Driver/Src/stm32l4xx_hal_uart.c **** 
1207:Drivers/STM32L4xx_HAL_Driver/Src/stm32l4xx_hal_uart.c ****     if (UART_WaitOnFlagUntilTimeout(huart, UART_FLAG_TC, RESET, tickstart, Timeout) != HAL_OK)
 960              		.loc 1 1207 9
 961 00fa 3B68     		ldr	r3, [r7]
 962 00fc 0093     		str	r3, [sp]
 963 00fe 7B69     		ldr	r3, [r7, #20]
 964 0100 0022     		movs	r2, #0
 965 0102 4021     		movs	r1, #64
 966 0104 F868     		ldr	r0, [r7, #12]
 967 0106 FFF7FEFF 		bl	UART_WaitOnFlagUntilTimeout
 968 010a 0346     		mov	r3, r0
 969              		.loc 1 1207 8
 970 010c 002B     		cmp	r3, #0
 971 010e 01D0     		beq	.L46
1208:Drivers/STM32L4xx_HAL_Driver/Src/stm32l4xx_hal_uart.c ****     {
ARM GAS  /var/folders/k7/81v8fz9j4v98_s0dd31l1wsr0000gn/T//ccpVz2vH.s 			page 39


1209:Drivers/STM32L4xx_HAL_Driver/Src/stm32l4xx_hal_uart.c ****       return HAL_TIMEOUT;
 972              		.loc 1 1209 14
 973 0110 0323     		movs	r3, #3
 974 0112 05E0     		b	.L37
 975              	.L46:
1210:Drivers/STM32L4xx_HAL_Driver/Src/stm32l4xx_hal_uart.c ****     }
1211:Drivers/STM32L4xx_HAL_Driver/Src/stm32l4xx_hal_uart.c **** 
1212:Drivers/STM32L4xx_HAL_Driver/Src/stm32l4xx_hal_uart.c ****     /* At end of Tx process, restore huart->gState to Ready */
1213:Drivers/STM32L4xx_HAL_Driver/Src/stm32l4xx_hal_uart.c ****     huart->gState = HAL_UART_STATE_READY;
 976              		.loc 1 1213 19
 977 0114 FB68     		ldr	r3, [r7, #12]
 978 0116 2022     		movs	r2, #32
 979 0118 9A67     		str	r2, [r3, #120]
1214:Drivers/STM32L4xx_HAL_Driver/Src/stm32l4xx_hal_uart.c **** 
1215:Drivers/STM32L4xx_HAL_Driver/Src/stm32l4xx_hal_uart.c ****     return HAL_OK;
 980              		.loc 1 1215 12
 981 011a 0023     		movs	r3, #0
 982 011c 00E0     		b	.L37
 983              	.L34:
1216:Drivers/STM32L4xx_HAL_Driver/Src/stm32l4xx_hal_uart.c ****   }
1217:Drivers/STM32L4xx_HAL_Driver/Src/stm32l4xx_hal_uart.c ****   else
1218:Drivers/STM32L4xx_HAL_Driver/Src/stm32l4xx_hal_uart.c ****   {
1219:Drivers/STM32L4xx_HAL_Driver/Src/stm32l4xx_hal_uart.c ****     return HAL_BUSY;
 984              		.loc 1 1219 12
 985 011e 0223     		movs	r3, #2
 986              	.L37:
1220:Drivers/STM32L4xx_HAL_Driver/Src/stm32l4xx_hal_uart.c ****   }
1221:Drivers/STM32L4xx_HAL_Driver/Src/stm32l4xx_hal_uart.c **** }
 987              		.loc 1 1221 1
 988 0120 1846     		mov	r0, r3
 989 0122 2037     		adds	r7, r7, #32
 990              	.LCFI40:
 991              		.cfi_def_cfa_offset 8
 992 0124 BD46     		mov	sp, r7
 993              	.LCFI41:
 994              		.cfi_def_cfa_register 13
 995              		@ sp needed
 996 0126 80BD     		pop	{r7, pc}
 997              		.cfi_endproc
 998              	.LFE299:
 1000              		.section	.text.HAL_UART_Receive,"ax",%progbits
 1001              		.align	1
 1002              		.global	HAL_UART_Receive
 1003              		.syntax unified
 1004              		.thumb
 1005              		.thumb_func
 1006              		.fpu fpv4-sp-d16
 1008              	HAL_UART_Receive:
 1009              	.LFB300:
1222:Drivers/STM32L4xx_HAL_Driver/Src/stm32l4xx_hal_uart.c **** 
1223:Drivers/STM32L4xx_HAL_Driver/Src/stm32l4xx_hal_uart.c **** /**
1224:Drivers/STM32L4xx_HAL_Driver/Src/stm32l4xx_hal_uart.c ****   * @brief Receive an amount of data in blocking mode.
1225:Drivers/STM32L4xx_HAL_Driver/Src/stm32l4xx_hal_uart.c ****   * @note   When UART parity is not enabled (PCE = 0), and Word Length is configured to 9 bits (M1-
1226:Drivers/STM32L4xx_HAL_Driver/Src/stm32l4xx_hal_uart.c ****   *         the received data is handled as a set of u16. In this case, Size must indicate the numb
1227:Drivers/STM32L4xx_HAL_Driver/Src/stm32l4xx_hal_uart.c ****   *         of u16 available through pData.
1228:Drivers/STM32L4xx_HAL_Driver/Src/stm32l4xx_hal_uart.c ****   * @note When FIFO mode is enabled, the RXFNE flag is set as long as the RXFIFO
1229:Drivers/STM32L4xx_HAL_Driver/Src/stm32l4xx_hal_uart.c ****   *       is not empty. Read operations from the RDR register are performed when
ARM GAS  /var/folders/k7/81v8fz9j4v98_s0dd31l1wsr0000gn/T//ccpVz2vH.s 			page 40


1230:Drivers/STM32L4xx_HAL_Driver/Src/stm32l4xx_hal_uart.c ****   *       RXFNE flag is set. From hardware perspective, RXFNE flag and
1231:Drivers/STM32L4xx_HAL_Driver/Src/stm32l4xx_hal_uart.c ****   *       RXNE are mapped on the same bit-field.
1232:Drivers/STM32L4xx_HAL_Driver/Src/stm32l4xx_hal_uart.c ****   * @param huart   UART handle.
1233:Drivers/STM32L4xx_HAL_Driver/Src/stm32l4xx_hal_uart.c ****   * @param pData   Pointer to data buffer (u8 or u16 data elements).
1234:Drivers/STM32L4xx_HAL_Driver/Src/stm32l4xx_hal_uart.c ****   * @param Size    Amount of data elements (u8 or u16) to be received.
1235:Drivers/STM32L4xx_HAL_Driver/Src/stm32l4xx_hal_uart.c ****   * @param Timeout Timeout duration.
1236:Drivers/STM32L4xx_HAL_Driver/Src/stm32l4xx_hal_uart.c ****   * @retval HAL status
1237:Drivers/STM32L4xx_HAL_Driver/Src/stm32l4xx_hal_uart.c ****   */
1238:Drivers/STM32L4xx_HAL_Driver/Src/stm32l4xx_hal_uart.c **** HAL_StatusTypeDef HAL_UART_Receive(UART_HandleTypeDef *huart, uint8_t *pData, uint16_t Size, uint32
1239:Drivers/STM32L4xx_HAL_Driver/Src/stm32l4xx_hal_uart.c **** {
 1010              		.loc 1 1239 1
 1011              		.cfi_startproc
 1012              		@ args = 0, pretend = 0, frame = 32
 1013              		@ frame_needed = 1, uses_anonymous_args = 0
 1014 0000 80B5     		push	{r7, lr}
 1015              	.LCFI42:
 1016              		.cfi_def_cfa_offset 8
 1017              		.cfi_offset 7, -8
 1018              		.cfi_offset 14, -4
 1019 0002 8AB0     		sub	sp, sp, #40
 1020              	.LCFI43:
 1021              		.cfi_def_cfa_offset 48
 1022 0004 02AF     		add	r7, sp, #8
 1023              	.LCFI44:
 1024              		.cfi_def_cfa 7, 40
 1025 0006 F860     		str	r0, [r7, #12]
 1026 0008 B960     		str	r1, [r7, #8]
 1027 000a 3B60     		str	r3, [r7]
 1028 000c 1346     		mov	r3, r2	@ movhi
 1029 000e FB80     		strh	r3, [r7, #6]	@ movhi
1240:Drivers/STM32L4xx_HAL_Driver/Src/stm32l4xx_hal_uart.c ****   uint8_t  *pdata8bits;
1241:Drivers/STM32L4xx_HAL_Driver/Src/stm32l4xx_hal_uart.c ****   uint16_t *pdata16bits;
1242:Drivers/STM32L4xx_HAL_Driver/Src/stm32l4xx_hal_uart.c ****   uint16_t uhMask;
1243:Drivers/STM32L4xx_HAL_Driver/Src/stm32l4xx_hal_uart.c ****   uint32_t tickstart;
1244:Drivers/STM32L4xx_HAL_Driver/Src/stm32l4xx_hal_uart.c **** 
1245:Drivers/STM32L4xx_HAL_Driver/Src/stm32l4xx_hal_uart.c ****   /* Check that a Rx process is not already ongoing */
1246:Drivers/STM32L4xx_HAL_Driver/Src/stm32l4xx_hal_uart.c ****   if (huart->RxState == HAL_UART_STATE_READY)
 1030              		.loc 1 1246 12
 1031 0010 FB68     		ldr	r3, [r7, #12]
 1032 0012 DB6F     		ldr	r3, [r3, #124]
 1033              		.loc 1 1246 6
 1034 0014 202B     		cmp	r3, #32
 1035 0016 40F0BF80 		bne	.L48
1247:Drivers/STM32L4xx_HAL_Driver/Src/stm32l4xx_hal_uart.c ****   {
1248:Drivers/STM32L4xx_HAL_Driver/Src/stm32l4xx_hal_uart.c ****     if ((pData == NULL) || (Size == 0U))
 1036              		.loc 1 1248 8
 1037 001a BB68     		ldr	r3, [r7, #8]
 1038 001c 002B     		cmp	r3, #0
 1039 001e 02D0     		beq	.L49
 1040              		.loc 1 1248 25 discriminator 1
 1041 0020 FB88     		ldrh	r3, [r7, #6]
 1042 0022 002B     		cmp	r3, #0
 1043 0024 01D1     		bne	.L50
 1044              	.L49:
1249:Drivers/STM32L4xx_HAL_Driver/Src/stm32l4xx_hal_uart.c ****     {
1250:Drivers/STM32L4xx_HAL_Driver/Src/stm32l4xx_hal_uart.c ****       return  HAL_ERROR;
 1045              		.loc 1 1250 15
ARM GAS  /var/folders/k7/81v8fz9j4v98_s0dd31l1wsr0000gn/T//ccpVz2vH.s 			page 41


 1046 0026 0123     		movs	r3, #1
 1047 0028 B7E0     		b	.L51
 1048              	.L50:
1251:Drivers/STM32L4xx_HAL_Driver/Src/stm32l4xx_hal_uart.c ****     }
1252:Drivers/STM32L4xx_HAL_Driver/Src/stm32l4xx_hal_uart.c **** 
1253:Drivers/STM32L4xx_HAL_Driver/Src/stm32l4xx_hal_uart.c ****     __HAL_LOCK(huart);
 1049              		.loc 1 1253 5
 1050 002a FB68     		ldr	r3, [r7, #12]
 1051 002c 93F87430 		ldrb	r3, [r3, #116]	@ zero_extendqisi2
 1052 0030 012B     		cmp	r3, #1
 1053 0032 01D1     		bne	.L52
 1054              		.loc 1 1253 5 is_stmt 0 discriminator 1
 1055 0034 0223     		movs	r3, #2
 1056 0036 B0E0     		b	.L51
 1057              	.L52:
 1058              		.loc 1 1253 5 discriminator 2
 1059 0038 FB68     		ldr	r3, [r7, #12]
 1060 003a 0122     		movs	r2, #1
 1061 003c 83F87420 		strb	r2, [r3, #116]
1254:Drivers/STM32L4xx_HAL_Driver/Src/stm32l4xx_hal_uart.c **** 
1255:Drivers/STM32L4xx_HAL_Driver/Src/stm32l4xx_hal_uart.c ****     huart->ErrorCode = HAL_UART_ERROR_NONE;
 1062              		.loc 1 1255 22 is_stmt 1 discriminator 2
 1063 0040 FB68     		ldr	r3, [r7, #12]
 1064 0042 0022     		movs	r2, #0
 1065 0044 C3F88020 		str	r2, [r3, #128]
1256:Drivers/STM32L4xx_HAL_Driver/Src/stm32l4xx_hal_uart.c ****     huart->RxState = HAL_UART_STATE_BUSY_RX;
 1066              		.loc 1 1256 20 discriminator 2
 1067 0048 FB68     		ldr	r3, [r7, #12]
 1068 004a 2222     		movs	r2, #34
 1069 004c DA67     		str	r2, [r3, #124]
1257:Drivers/STM32L4xx_HAL_Driver/Src/stm32l4xx_hal_uart.c ****     huart->ReceptionType = HAL_UART_RECEPTION_STANDARD;
 1070              		.loc 1 1257 26 discriminator 2
 1071 004e FB68     		ldr	r3, [r7, #12]
 1072 0050 0022     		movs	r2, #0
 1073 0052 1A66     		str	r2, [r3, #96]
1258:Drivers/STM32L4xx_HAL_Driver/Src/stm32l4xx_hal_uart.c **** 
1259:Drivers/STM32L4xx_HAL_Driver/Src/stm32l4xx_hal_uart.c ****     /* Init tickstart for timeout management */
1260:Drivers/STM32L4xx_HAL_Driver/Src/stm32l4xx_hal_uart.c ****     tickstart = HAL_GetTick();
 1074              		.loc 1 1260 17 discriminator 2
 1075 0054 FFF7FEFF 		bl	HAL_GetTick
 1076 0058 7861     		str	r0, [r7, #20]
1261:Drivers/STM32L4xx_HAL_Driver/Src/stm32l4xx_hal_uart.c **** 
1262:Drivers/STM32L4xx_HAL_Driver/Src/stm32l4xx_hal_uart.c ****     huart->RxXferSize  = Size;
 1077              		.loc 1 1262 24 discriminator 2
 1078 005a FB68     		ldr	r3, [r7, #12]
 1079 005c FA88     		ldrh	r2, [r7, #6]	@ movhi
 1080 005e A3F85820 		strh	r2, [r3, #88]	@ movhi
1263:Drivers/STM32L4xx_HAL_Driver/Src/stm32l4xx_hal_uart.c ****     huart->RxXferCount = Size;
 1081              		.loc 1 1263 24 discriminator 2
 1082 0062 FB68     		ldr	r3, [r7, #12]
 1083 0064 FA88     		ldrh	r2, [r7, #6]	@ movhi
 1084 0066 A3F85A20 		strh	r2, [r3, #90]	@ movhi
1264:Drivers/STM32L4xx_HAL_Driver/Src/stm32l4xx_hal_uart.c **** 
1265:Drivers/STM32L4xx_HAL_Driver/Src/stm32l4xx_hal_uart.c ****     /* Computation of UART mask to apply to RDR register */
1266:Drivers/STM32L4xx_HAL_Driver/Src/stm32l4xx_hal_uart.c ****     UART_MASK_COMPUTATION(huart);
 1085              		.loc 1 1266 5 discriminator 2
 1086 006a FB68     		ldr	r3, [r7, #12]
ARM GAS  /var/folders/k7/81v8fz9j4v98_s0dd31l1wsr0000gn/T//ccpVz2vH.s 			page 42


 1087 006c 9B68     		ldr	r3, [r3, #8]
 1088 006e B3F5805F 		cmp	r3, #4096
 1089 0072 0ED1     		bne	.L53
 1090              		.loc 1 1266 5 is_stmt 0 discriminator 1
 1091 0074 FB68     		ldr	r3, [r7, #12]
 1092 0076 1B69     		ldr	r3, [r3, #16]
 1093 0078 002B     		cmp	r3, #0
 1094 007a 05D1     		bne	.L54
 1095              		.loc 1 1266 5 discriminator 3
 1096 007c FB68     		ldr	r3, [r7, #12]
 1097 007e 40F2FF12 		movw	r2, #511
 1098 0082 A3F85C20 		strh	r2, [r3, #92]	@ movhi
 1099 0086 2DE0     		b	.L55
 1100              	.L54:
 1101              		.loc 1 1266 5 discriminator 4
 1102 0088 FB68     		ldr	r3, [r7, #12]
 1103 008a FF22     		movs	r2, #255
 1104 008c A3F85C20 		strh	r2, [r3, #92]	@ movhi
 1105 0090 28E0     		b	.L55
 1106              	.L53:
 1107              		.loc 1 1266 5 discriminator 2
 1108 0092 FB68     		ldr	r3, [r7, #12]
 1109 0094 9B68     		ldr	r3, [r3, #8]
 1110 0096 002B     		cmp	r3, #0
 1111 0098 0DD1     		bne	.L56
 1112              		.loc 1 1266 5 discriminator 5
 1113 009a FB68     		ldr	r3, [r7, #12]
 1114 009c 1B69     		ldr	r3, [r3, #16]
 1115 009e 002B     		cmp	r3, #0
 1116 00a0 04D1     		bne	.L57
 1117              		.loc 1 1266 5 discriminator 7
 1118 00a2 FB68     		ldr	r3, [r7, #12]
 1119 00a4 FF22     		movs	r2, #255
 1120 00a6 A3F85C20 		strh	r2, [r3, #92]	@ movhi
 1121 00aa 1BE0     		b	.L55
 1122              	.L57:
 1123              		.loc 1 1266 5 discriminator 8
 1124 00ac FB68     		ldr	r3, [r7, #12]
 1125 00ae 7F22     		movs	r2, #127
 1126 00b0 A3F85C20 		strh	r2, [r3, #92]	@ movhi
 1127 00b4 16E0     		b	.L55
 1128              	.L56:
 1129              		.loc 1 1266 5 discriminator 6
 1130 00b6 FB68     		ldr	r3, [r7, #12]
 1131 00b8 9B68     		ldr	r3, [r3, #8]
 1132 00ba B3F1805F 		cmp	r3, #268435456
 1133 00be 0DD1     		bne	.L58
 1134              		.loc 1 1266 5 discriminator 9
 1135 00c0 FB68     		ldr	r3, [r7, #12]
 1136 00c2 1B69     		ldr	r3, [r3, #16]
 1137 00c4 002B     		cmp	r3, #0
 1138 00c6 04D1     		bne	.L59
 1139              		.loc 1 1266 5 discriminator 11
 1140 00c8 FB68     		ldr	r3, [r7, #12]
 1141 00ca 7F22     		movs	r2, #127
 1142 00cc A3F85C20 		strh	r2, [r3, #92]	@ movhi
 1143 00d0 08E0     		b	.L55
ARM GAS  /var/folders/k7/81v8fz9j4v98_s0dd31l1wsr0000gn/T//ccpVz2vH.s 			page 43


 1144              	.L59:
 1145              		.loc 1 1266 5 discriminator 12
 1146 00d2 FB68     		ldr	r3, [r7, #12]
 1147 00d4 3F22     		movs	r2, #63
 1148 00d6 A3F85C20 		strh	r2, [r3, #92]	@ movhi
 1149 00da 03E0     		b	.L55
 1150              	.L58:
 1151              		.loc 1 1266 5 discriminator 10
 1152 00dc FB68     		ldr	r3, [r7, #12]
 1153 00de 0022     		movs	r2, #0
 1154 00e0 A3F85C20 		strh	r2, [r3, #92]	@ movhi
 1155              	.L55:
1267:Drivers/STM32L4xx_HAL_Driver/Src/stm32l4xx_hal_uart.c ****     uhMask = huart->Mask;
 1156              		.loc 1 1267 12 is_stmt 1
 1157 00e4 FB68     		ldr	r3, [r7, #12]
 1158 00e6 B3F85C30 		ldrh	r3, [r3, #92]	@ movhi
 1159 00ea 7B82     		strh	r3, [r7, #18]	@ movhi
1268:Drivers/STM32L4xx_HAL_Driver/Src/stm32l4xx_hal_uart.c **** 
1269:Drivers/STM32L4xx_HAL_Driver/Src/stm32l4xx_hal_uart.c ****     /* In case of 9bits/No Parity transfer, pRxData needs to be handled as a uint16_t pointer */
1270:Drivers/STM32L4xx_HAL_Driver/Src/stm32l4xx_hal_uart.c ****     if ((huart->Init.WordLength == UART_WORDLENGTH_9B) && (huart->Init.Parity == UART_PARITY_NONE))
 1160              		.loc 1 1270 21
 1161 00ec FB68     		ldr	r3, [r7, #12]
 1162 00ee 9B68     		ldr	r3, [r3, #8]
 1163              		.loc 1 1270 8
 1164 00f0 B3F5805F 		cmp	r3, #4096
 1165 00f4 08D1     		bne	.L60
 1166              		.loc 1 1270 71 discriminator 1
 1167 00f6 FB68     		ldr	r3, [r7, #12]
 1168 00f8 1B69     		ldr	r3, [r3, #16]
 1169              		.loc 1 1270 56 discriminator 1
 1170 00fa 002B     		cmp	r3, #0
 1171 00fc 04D1     		bne	.L60
1271:Drivers/STM32L4xx_HAL_Driver/Src/stm32l4xx_hal_uart.c ****     {
1272:Drivers/STM32L4xx_HAL_Driver/Src/stm32l4xx_hal_uart.c ****       pdata8bits  = NULL;
 1172              		.loc 1 1272 19
 1173 00fe 0023     		movs	r3, #0
 1174 0100 FB61     		str	r3, [r7, #28]
1273:Drivers/STM32L4xx_HAL_Driver/Src/stm32l4xx_hal_uart.c ****       pdata16bits = (uint16_t *) pData;
 1175              		.loc 1 1273 19
 1176 0102 BB68     		ldr	r3, [r7, #8]
 1177 0104 BB61     		str	r3, [r7, #24]
 1178 0106 03E0     		b	.L61
 1179              	.L60:
1274:Drivers/STM32L4xx_HAL_Driver/Src/stm32l4xx_hal_uart.c ****     }
1275:Drivers/STM32L4xx_HAL_Driver/Src/stm32l4xx_hal_uart.c ****     else
1276:Drivers/STM32L4xx_HAL_Driver/Src/stm32l4xx_hal_uart.c ****     {
1277:Drivers/STM32L4xx_HAL_Driver/Src/stm32l4xx_hal_uart.c ****       pdata8bits  = pData;
 1180              		.loc 1 1277 19
 1181 0108 BB68     		ldr	r3, [r7, #8]
 1182 010a FB61     		str	r3, [r7, #28]
1278:Drivers/STM32L4xx_HAL_Driver/Src/stm32l4xx_hal_uart.c ****       pdata16bits = NULL;
 1183              		.loc 1 1278 19
 1184 010c 0023     		movs	r3, #0
 1185 010e BB61     		str	r3, [r7, #24]
 1186              	.L61:
1279:Drivers/STM32L4xx_HAL_Driver/Src/stm32l4xx_hal_uart.c ****     }
1280:Drivers/STM32L4xx_HAL_Driver/Src/stm32l4xx_hal_uart.c **** 
ARM GAS  /var/folders/k7/81v8fz9j4v98_s0dd31l1wsr0000gn/T//ccpVz2vH.s 			page 44


1281:Drivers/STM32L4xx_HAL_Driver/Src/stm32l4xx_hal_uart.c ****     __HAL_UNLOCK(huart);
 1187              		.loc 1 1281 5
 1188 0110 FB68     		ldr	r3, [r7, #12]
 1189 0112 0022     		movs	r2, #0
 1190 0114 83F87420 		strb	r2, [r3, #116]
1282:Drivers/STM32L4xx_HAL_Driver/Src/stm32l4xx_hal_uart.c **** 
1283:Drivers/STM32L4xx_HAL_Driver/Src/stm32l4xx_hal_uart.c ****     /* as long as data have to be received */
1284:Drivers/STM32L4xx_HAL_Driver/Src/stm32l4xx_hal_uart.c ****     while (huart->RxXferCount > 0U)
 1191              		.loc 1 1284 11
 1192 0118 33E0     		b	.L62
 1193              	.L66:
1285:Drivers/STM32L4xx_HAL_Driver/Src/stm32l4xx_hal_uart.c ****     {
1286:Drivers/STM32L4xx_HAL_Driver/Src/stm32l4xx_hal_uart.c ****       if (UART_WaitOnFlagUntilTimeout(huart, UART_FLAG_RXNE, RESET, tickstart, Timeout) != HAL_OK)
 1194              		.loc 1 1286 11
 1195 011a 3B68     		ldr	r3, [r7]
 1196 011c 0093     		str	r3, [sp]
 1197 011e 7B69     		ldr	r3, [r7, #20]
 1198 0120 0022     		movs	r2, #0
 1199 0122 2021     		movs	r1, #32
 1200 0124 F868     		ldr	r0, [r7, #12]
 1201 0126 FFF7FEFF 		bl	UART_WaitOnFlagUntilTimeout
 1202 012a 0346     		mov	r3, r0
 1203              		.loc 1 1286 10
 1204 012c 002B     		cmp	r3, #0
 1205 012e 01D0     		beq	.L63
1287:Drivers/STM32L4xx_HAL_Driver/Src/stm32l4xx_hal_uart.c ****       {
1288:Drivers/STM32L4xx_HAL_Driver/Src/stm32l4xx_hal_uart.c ****         return HAL_TIMEOUT;
 1206              		.loc 1 1288 16
 1207 0130 0323     		movs	r3, #3
 1208 0132 32E0     		b	.L51
 1209              	.L63:
1289:Drivers/STM32L4xx_HAL_Driver/Src/stm32l4xx_hal_uart.c ****       }
1290:Drivers/STM32L4xx_HAL_Driver/Src/stm32l4xx_hal_uart.c ****       if (pdata8bits == NULL)
 1210              		.loc 1 1290 10
 1211 0134 FB69     		ldr	r3, [r7, #28]
 1212 0136 002B     		cmp	r3, #0
 1213 0138 0CD1     		bne	.L64
1291:Drivers/STM32L4xx_HAL_Driver/Src/stm32l4xx_hal_uart.c ****       {
1292:Drivers/STM32L4xx_HAL_Driver/Src/stm32l4xx_hal_uart.c ****         *pdata16bits = (uint16_t)(huart->Instance->RDR & uhMask);
 1214              		.loc 1 1292 40
 1215 013a FB68     		ldr	r3, [r7, #12]
 1216 013c 1B68     		ldr	r3, [r3]
 1217              		.loc 1 1292 50
 1218 013e 9B8C     		ldrh	r3, [r3, #36]	@ movhi
 1219 0140 9AB2     		uxth	r2, r3
 1220              		.loc 1 1292 24
 1221 0142 7B8A     		ldrh	r3, [r7, #18]	@ movhi
 1222 0144 1340     		ands	r3, r3, r2
 1223 0146 9AB2     		uxth	r2, r3
 1224              		.loc 1 1292 22
 1225 0148 BB69     		ldr	r3, [r7, #24]
 1226 014a 1A80     		strh	r2, [r3]	@ movhi
1293:Drivers/STM32L4xx_HAL_Driver/Src/stm32l4xx_hal_uart.c ****         pdata16bits++;
 1227              		.loc 1 1293 20
 1228 014c BB69     		ldr	r3, [r7, #24]
 1229 014e 0233     		adds	r3, r3, #2
 1230 0150 BB61     		str	r3, [r7, #24]
ARM GAS  /var/folders/k7/81v8fz9j4v98_s0dd31l1wsr0000gn/T//ccpVz2vH.s 			page 45


 1231 0152 0DE0     		b	.L65
 1232              	.L64:
1294:Drivers/STM32L4xx_HAL_Driver/Src/stm32l4xx_hal_uart.c ****       }
1295:Drivers/STM32L4xx_HAL_Driver/Src/stm32l4xx_hal_uart.c ****       else
1296:Drivers/STM32L4xx_HAL_Driver/Src/stm32l4xx_hal_uart.c ****       {
1297:Drivers/STM32L4xx_HAL_Driver/Src/stm32l4xx_hal_uart.c ****         *pdata8bits = (uint8_t)(huart->Instance->RDR & (uint8_t)uhMask);
 1233              		.loc 1 1297 38
 1234 0154 FB68     		ldr	r3, [r7, #12]
 1235 0156 1B68     		ldr	r3, [r3]
 1236              		.loc 1 1297 48
 1237 0158 9B8C     		ldrh	r3, [r3, #36]	@ movhi
 1238 015a 9BB2     		uxth	r3, r3
 1239              		.loc 1 1297 23
 1240 015c DAB2     		uxtb	r2, r3
 1241              		.loc 1 1297 56
 1242 015e 7B8A     		ldrh	r3, [r7, #18]	@ movhi
 1243 0160 DBB2     		uxtb	r3, r3
 1244              		.loc 1 1297 23
 1245 0162 1340     		ands	r3, r3, r2
 1246 0164 DAB2     		uxtb	r2, r3
 1247              		.loc 1 1297 21
 1248 0166 FB69     		ldr	r3, [r7, #28]
 1249 0168 1A70     		strb	r2, [r3]
1298:Drivers/STM32L4xx_HAL_Driver/Src/stm32l4xx_hal_uart.c ****         pdata8bits++;
 1250              		.loc 1 1298 19
 1251 016a FB69     		ldr	r3, [r7, #28]
 1252 016c 0133     		adds	r3, r3, #1
 1253 016e FB61     		str	r3, [r7, #28]
 1254              	.L65:
1299:Drivers/STM32L4xx_HAL_Driver/Src/stm32l4xx_hal_uart.c ****       }
1300:Drivers/STM32L4xx_HAL_Driver/Src/stm32l4xx_hal_uart.c ****       huart->RxXferCount--;
 1255              		.loc 1 1300 12
 1256 0170 FB68     		ldr	r3, [r7, #12]
 1257 0172 B3F85A30 		ldrh	r3, [r3, #90]	@ movhi
 1258 0176 9BB2     		uxth	r3, r3
 1259              		.loc 1 1300 25
 1260 0178 013B     		subs	r3, r3, #1
 1261 017a 9AB2     		uxth	r2, r3
 1262 017c FB68     		ldr	r3, [r7, #12]
 1263 017e A3F85A20 		strh	r2, [r3, #90]	@ movhi
 1264              	.L62:
1284:Drivers/STM32L4xx_HAL_Driver/Src/stm32l4xx_hal_uart.c ****     {
 1265              		.loc 1 1284 17
 1266 0182 FB68     		ldr	r3, [r7, #12]
 1267 0184 B3F85A30 		ldrh	r3, [r3, #90]	@ movhi
 1268 0188 9BB2     		uxth	r3, r3
1284:Drivers/STM32L4xx_HAL_Driver/Src/stm32l4xx_hal_uart.c ****     {
 1269              		.loc 1 1284 11
 1270 018a 002B     		cmp	r3, #0
 1271 018c C5D1     		bne	.L66
1301:Drivers/STM32L4xx_HAL_Driver/Src/stm32l4xx_hal_uart.c ****     }
1302:Drivers/STM32L4xx_HAL_Driver/Src/stm32l4xx_hal_uart.c **** 
1303:Drivers/STM32L4xx_HAL_Driver/Src/stm32l4xx_hal_uart.c ****     /* At end of Rx process, restore huart->RxState to Ready */
1304:Drivers/STM32L4xx_HAL_Driver/Src/stm32l4xx_hal_uart.c ****     huart->RxState = HAL_UART_STATE_READY;
 1272              		.loc 1 1304 20
 1273 018e FB68     		ldr	r3, [r7, #12]
 1274 0190 2022     		movs	r2, #32
ARM GAS  /var/folders/k7/81v8fz9j4v98_s0dd31l1wsr0000gn/T//ccpVz2vH.s 			page 46


 1275 0192 DA67     		str	r2, [r3, #124]
1305:Drivers/STM32L4xx_HAL_Driver/Src/stm32l4xx_hal_uart.c **** 
1306:Drivers/STM32L4xx_HAL_Driver/Src/stm32l4xx_hal_uart.c ****     return HAL_OK;
 1276              		.loc 1 1306 12
 1277 0194 0023     		movs	r3, #0
 1278 0196 00E0     		b	.L51
 1279              	.L48:
1307:Drivers/STM32L4xx_HAL_Driver/Src/stm32l4xx_hal_uart.c ****   }
1308:Drivers/STM32L4xx_HAL_Driver/Src/stm32l4xx_hal_uart.c ****   else
1309:Drivers/STM32L4xx_HAL_Driver/Src/stm32l4xx_hal_uart.c ****   {
1310:Drivers/STM32L4xx_HAL_Driver/Src/stm32l4xx_hal_uart.c ****     return HAL_BUSY;
 1280              		.loc 1 1310 12
 1281 0198 0223     		movs	r3, #2
 1282              	.L51:
1311:Drivers/STM32L4xx_HAL_Driver/Src/stm32l4xx_hal_uart.c ****   }
1312:Drivers/STM32L4xx_HAL_Driver/Src/stm32l4xx_hal_uart.c **** }
 1283              		.loc 1 1312 1
 1284 019a 1846     		mov	r0, r3
 1285 019c 2037     		adds	r7, r7, #32
 1286              	.LCFI45:
 1287              		.cfi_def_cfa_offset 8
 1288 019e BD46     		mov	sp, r7
 1289              	.LCFI46:
 1290              		.cfi_def_cfa_register 13
 1291              		@ sp needed
 1292 01a0 80BD     		pop	{r7, pc}
 1293              		.cfi_endproc
 1294              	.LFE300:
 1296              		.section	.text.HAL_UART_Transmit_IT,"ax",%progbits
 1297              		.align	1
 1298              		.global	HAL_UART_Transmit_IT
 1299              		.syntax unified
 1300              		.thumb
 1301              		.thumb_func
 1302              		.fpu fpv4-sp-d16
 1304              	HAL_UART_Transmit_IT:
 1305              	.LFB301:
1313:Drivers/STM32L4xx_HAL_Driver/Src/stm32l4xx_hal_uart.c **** 
1314:Drivers/STM32L4xx_HAL_Driver/Src/stm32l4xx_hal_uart.c **** /**
1315:Drivers/STM32L4xx_HAL_Driver/Src/stm32l4xx_hal_uart.c ****   * @brief Send an amount of data in interrupt mode.
1316:Drivers/STM32L4xx_HAL_Driver/Src/stm32l4xx_hal_uart.c ****   * @note   When UART parity is not enabled (PCE = 0), and Word Length is configured to 9 bits (M1-
1317:Drivers/STM32L4xx_HAL_Driver/Src/stm32l4xx_hal_uart.c ****   *         the sent data is handled as a set of u16. In this case, Size must indicate the number
1318:Drivers/STM32L4xx_HAL_Driver/Src/stm32l4xx_hal_uart.c ****   *         of u16 provided through pData.
1319:Drivers/STM32L4xx_HAL_Driver/Src/stm32l4xx_hal_uart.c ****   * @param huart UART handle.
1320:Drivers/STM32L4xx_HAL_Driver/Src/stm32l4xx_hal_uart.c ****   * @param pData Pointer to data buffer (u8 or u16 data elements).
1321:Drivers/STM32L4xx_HAL_Driver/Src/stm32l4xx_hal_uart.c ****   * @param Size  Amount of data elements (u8 or u16) to be sent.
1322:Drivers/STM32L4xx_HAL_Driver/Src/stm32l4xx_hal_uart.c ****   * @retval HAL status
1323:Drivers/STM32L4xx_HAL_Driver/Src/stm32l4xx_hal_uart.c ****   */
1324:Drivers/STM32L4xx_HAL_Driver/Src/stm32l4xx_hal_uart.c **** HAL_StatusTypeDef HAL_UART_Transmit_IT(UART_HandleTypeDef *huart, const uint8_t *pData, uint16_t Si
1325:Drivers/STM32L4xx_HAL_Driver/Src/stm32l4xx_hal_uart.c **** {
 1306              		.loc 1 1325 1
 1307              		.cfi_startproc
 1308              		@ args = 0, pretend = 0, frame = 40
 1309              		@ frame_needed = 1, uses_anonymous_args = 0
 1310              		@ link register save eliminated.
 1311 0000 80B4     		push	{r7}
 1312              	.LCFI47:
ARM GAS  /var/folders/k7/81v8fz9j4v98_s0dd31l1wsr0000gn/T//ccpVz2vH.s 			page 47


 1313              		.cfi_def_cfa_offset 4
 1314              		.cfi_offset 7, -4
 1315 0002 8BB0     		sub	sp, sp, #44
 1316              	.LCFI48:
 1317              		.cfi_def_cfa_offset 48
 1318 0004 00AF     		add	r7, sp, #0
 1319              	.LCFI49:
 1320              		.cfi_def_cfa_register 7
 1321 0006 F860     		str	r0, [r7, #12]
 1322 0008 B960     		str	r1, [r7, #8]
 1323 000a 1346     		mov	r3, r2
 1324 000c FB80     		strh	r3, [r7, #6]	@ movhi
1326:Drivers/STM32L4xx_HAL_Driver/Src/stm32l4xx_hal_uart.c ****   /* Check that a Tx process is not already ongoing */
1327:Drivers/STM32L4xx_HAL_Driver/Src/stm32l4xx_hal_uart.c ****   if (huart->gState == HAL_UART_STATE_READY)
 1325              		.loc 1 1327 12
 1326 000e FB68     		ldr	r3, [r7, #12]
 1327 0010 9B6F     		ldr	r3, [r3, #120]
 1328              		.loc 1 1327 6
 1329 0012 202B     		cmp	r3, #32
 1330 0014 56D1     		bne	.L68
1328:Drivers/STM32L4xx_HAL_Driver/Src/stm32l4xx_hal_uart.c ****   {
1329:Drivers/STM32L4xx_HAL_Driver/Src/stm32l4xx_hal_uart.c ****     if ((pData == NULL) || (Size == 0U))
 1331              		.loc 1 1329 8
 1332 0016 BB68     		ldr	r3, [r7, #8]
 1333 0018 002B     		cmp	r3, #0
 1334 001a 02D0     		beq	.L69
 1335              		.loc 1 1329 25 discriminator 1
 1336 001c FB88     		ldrh	r3, [r7, #6]
 1337 001e 002B     		cmp	r3, #0
 1338 0020 01D1     		bne	.L70
 1339              	.L69:
1330:Drivers/STM32L4xx_HAL_Driver/Src/stm32l4xx_hal_uart.c ****     {
1331:Drivers/STM32L4xx_HAL_Driver/Src/stm32l4xx_hal_uart.c ****       return HAL_ERROR;
 1340              		.loc 1 1331 14
 1341 0022 0123     		movs	r3, #1
 1342 0024 4FE0     		b	.L71
 1343              	.L70:
1332:Drivers/STM32L4xx_HAL_Driver/Src/stm32l4xx_hal_uart.c ****     }
1333:Drivers/STM32L4xx_HAL_Driver/Src/stm32l4xx_hal_uart.c **** 
1334:Drivers/STM32L4xx_HAL_Driver/Src/stm32l4xx_hal_uart.c ****     __HAL_LOCK(huart);
 1344              		.loc 1 1334 5
 1345 0026 FB68     		ldr	r3, [r7, #12]
 1346 0028 93F87430 		ldrb	r3, [r3, #116]	@ zero_extendqisi2
 1347 002c 012B     		cmp	r3, #1
 1348 002e 01D1     		bne	.L72
 1349              		.loc 1 1334 5 is_stmt 0 discriminator 1
 1350 0030 0223     		movs	r3, #2
 1351 0032 48E0     		b	.L71
 1352              	.L72:
 1353              		.loc 1 1334 5 discriminator 2
 1354 0034 FB68     		ldr	r3, [r7, #12]
 1355 0036 0122     		movs	r2, #1
 1356 0038 83F87420 		strb	r2, [r3, #116]
1335:Drivers/STM32L4xx_HAL_Driver/Src/stm32l4xx_hal_uart.c **** 
1336:Drivers/STM32L4xx_HAL_Driver/Src/stm32l4xx_hal_uart.c ****     huart->pTxBuffPtr  = pData;
 1357              		.loc 1 1336 24 is_stmt 1 discriminator 2
 1358 003c FB68     		ldr	r3, [r7, #12]
ARM GAS  /var/folders/k7/81v8fz9j4v98_s0dd31l1wsr0000gn/T//ccpVz2vH.s 			page 48


 1359 003e BA68     		ldr	r2, [r7, #8]
 1360 0040 DA64     		str	r2, [r3, #76]
1337:Drivers/STM32L4xx_HAL_Driver/Src/stm32l4xx_hal_uart.c ****     huart->TxXferSize  = Size;
 1361              		.loc 1 1337 24 discriminator 2
 1362 0042 FB68     		ldr	r3, [r7, #12]
 1363 0044 FA88     		ldrh	r2, [r7, #6]	@ movhi
 1364 0046 A3F85020 		strh	r2, [r3, #80]	@ movhi
1338:Drivers/STM32L4xx_HAL_Driver/Src/stm32l4xx_hal_uart.c ****     huart->TxXferCount = Size;
 1365              		.loc 1 1338 24 discriminator 2
 1366 004a FB68     		ldr	r3, [r7, #12]
 1367 004c FA88     		ldrh	r2, [r7, #6]	@ movhi
 1368 004e A3F85220 		strh	r2, [r3, #82]	@ movhi
1339:Drivers/STM32L4xx_HAL_Driver/Src/stm32l4xx_hal_uart.c ****     huart->TxISR       = NULL;
 1369              		.loc 1 1339 24 discriminator 2
 1370 0052 FB68     		ldr	r3, [r7, #12]
 1371 0054 0022     		movs	r2, #0
 1372 0056 9A66     		str	r2, [r3, #104]
1340:Drivers/STM32L4xx_HAL_Driver/Src/stm32l4xx_hal_uart.c **** 
1341:Drivers/STM32L4xx_HAL_Driver/Src/stm32l4xx_hal_uart.c ****     huart->ErrorCode = HAL_UART_ERROR_NONE;
 1373              		.loc 1 1341 22 discriminator 2
 1374 0058 FB68     		ldr	r3, [r7, #12]
 1375 005a 0022     		movs	r2, #0
 1376 005c C3F88020 		str	r2, [r3, #128]
1342:Drivers/STM32L4xx_HAL_Driver/Src/stm32l4xx_hal_uart.c ****     huart->gState = HAL_UART_STATE_BUSY_TX;
 1377              		.loc 1 1342 19 discriminator 2
 1378 0060 FB68     		ldr	r3, [r7, #12]
 1379 0062 2122     		movs	r2, #33
 1380 0064 9A67     		str	r2, [r3, #120]
1343:Drivers/STM32L4xx_HAL_Driver/Src/stm32l4xx_hal_uart.c **** 
1344:Drivers/STM32L4xx_HAL_Driver/Src/stm32l4xx_hal_uart.c **** #if defined(USART_CR1_FIFOEN)
1345:Drivers/STM32L4xx_HAL_Driver/Src/stm32l4xx_hal_uart.c ****     /* Configure Tx interrupt processing */
1346:Drivers/STM32L4xx_HAL_Driver/Src/stm32l4xx_hal_uart.c ****     if (huart->FifoMode == UART_FIFOMODE_ENABLE)
1347:Drivers/STM32L4xx_HAL_Driver/Src/stm32l4xx_hal_uart.c ****     {
1348:Drivers/STM32L4xx_HAL_Driver/Src/stm32l4xx_hal_uart.c ****       /* Set the Tx ISR function pointer according to the data word length */
1349:Drivers/STM32L4xx_HAL_Driver/Src/stm32l4xx_hal_uart.c ****       if ((huart->Init.WordLength == UART_WORDLENGTH_9B) && (huart->Init.Parity == UART_PARITY_NONE
1350:Drivers/STM32L4xx_HAL_Driver/Src/stm32l4xx_hal_uart.c ****       {
1351:Drivers/STM32L4xx_HAL_Driver/Src/stm32l4xx_hal_uart.c ****         huart->TxISR = UART_TxISR_16BIT_FIFOEN;
1352:Drivers/STM32L4xx_HAL_Driver/Src/stm32l4xx_hal_uart.c ****       }
1353:Drivers/STM32L4xx_HAL_Driver/Src/stm32l4xx_hal_uart.c ****       else
1354:Drivers/STM32L4xx_HAL_Driver/Src/stm32l4xx_hal_uart.c ****       {
1355:Drivers/STM32L4xx_HAL_Driver/Src/stm32l4xx_hal_uart.c ****         huart->TxISR = UART_TxISR_8BIT_FIFOEN;
1356:Drivers/STM32L4xx_HAL_Driver/Src/stm32l4xx_hal_uart.c ****       }
1357:Drivers/STM32L4xx_HAL_Driver/Src/stm32l4xx_hal_uart.c **** 
1358:Drivers/STM32L4xx_HAL_Driver/Src/stm32l4xx_hal_uart.c ****       __HAL_UNLOCK(huart);
1359:Drivers/STM32L4xx_HAL_Driver/Src/stm32l4xx_hal_uart.c **** 
1360:Drivers/STM32L4xx_HAL_Driver/Src/stm32l4xx_hal_uart.c ****       /* Enable the TX FIFO threshold interrupt */
1361:Drivers/STM32L4xx_HAL_Driver/Src/stm32l4xx_hal_uart.c ****       ATOMIC_SET_BIT(huart->Instance->CR3, USART_CR3_TXFTIE);
1362:Drivers/STM32L4xx_HAL_Driver/Src/stm32l4xx_hal_uart.c ****     }
1363:Drivers/STM32L4xx_HAL_Driver/Src/stm32l4xx_hal_uart.c ****     else
1364:Drivers/STM32L4xx_HAL_Driver/Src/stm32l4xx_hal_uart.c ****     {
1365:Drivers/STM32L4xx_HAL_Driver/Src/stm32l4xx_hal_uart.c ****       /* Set the Tx ISR function pointer according to the data word length */
1366:Drivers/STM32L4xx_HAL_Driver/Src/stm32l4xx_hal_uart.c ****       if ((huart->Init.WordLength == UART_WORDLENGTH_9B) && (huart->Init.Parity == UART_PARITY_NONE
1367:Drivers/STM32L4xx_HAL_Driver/Src/stm32l4xx_hal_uart.c ****       {
1368:Drivers/STM32L4xx_HAL_Driver/Src/stm32l4xx_hal_uart.c ****         huart->TxISR = UART_TxISR_16BIT;
1369:Drivers/STM32L4xx_HAL_Driver/Src/stm32l4xx_hal_uart.c ****       }
1370:Drivers/STM32L4xx_HAL_Driver/Src/stm32l4xx_hal_uart.c ****       else
1371:Drivers/STM32L4xx_HAL_Driver/Src/stm32l4xx_hal_uart.c ****       {
ARM GAS  /var/folders/k7/81v8fz9j4v98_s0dd31l1wsr0000gn/T//ccpVz2vH.s 			page 49


1372:Drivers/STM32L4xx_HAL_Driver/Src/stm32l4xx_hal_uart.c ****         huart->TxISR = UART_TxISR_8BIT;
1373:Drivers/STM32L4xx_HAL_Driver/Src/stm32l4xx_hal_uart.c ****       }
1374:Drivers/STM32L4xx_HAL_Driver/Src/stm32l4xx_hal_uart.c **** 
1375:Drivers/STM32L4xx_HAL_Driver/Src/stm32l4xx_hal_uart.c ****       __HAL_UNLOCK(huart);
1376:Drivers/STM32L4xx_HAL_Driver/Src/stm32l4xx_hal_uart.c **** 
1377:Drivers/STM32L4xx_HAL_Driver/Src/stm32l4xx_hal_uart.c ****       /* Enable the Transmit Data Register Empty interrupt */
1378:Drivers/STM32L4xx_HAL_Driver/Src/stm32l4xx_hal_uart.c ****       ATOMIC_SET_BIT(huart->Instance->CR1, USART_CR1_TXEIE_TXFNFIE);
1379:Drivers/STM32L4xx_HAL_Driver/Src/stm32l4xx_hal_uart.c ****     }
1380:Drivers/STM32L4xx_HAL_Driver/Src/stm32l4xx_hal_uart.c **** #else
1381:Drivers/STM32L4xx_HAL_Driver/Src/stm32l4xx_hal_uart.c ****     /* Set the Tx ISR function pointer according to the data word length */
1382:Drivers/STM32L4xx_HAL_Driver/Src/stm32l4xx_hal_uart.c ****     if ((huart->Init.WordLength == UART_WORDLENGTH_9B) && (huart->Init.Parity == UART_PARITY_NONE))
 1381              		.loc 1 1382 21 discriminator 2
 1382 0066 FB68     		ldr	r3, [r7, #12]
 1383 0068 9B68     		ldr	r3, [r3, #8]
 1384              		.loc 1 1382 8 discriminator 2
 1385 006a B3F5805F 		cmp	r3, #4096
 1386 006e 07D1     		bne	.L73
 1387              		.loc 1 1382 71 discriminator 1
 1388 0070 FB68     		ldr	r3, [r7, #12]
 1389 0072 1B69     		ldr	r3, [r3, #16]
 1390              		.loc 1 1382 56 discriminator 1
 1391 0074 002B     		cmp	r3, #0
 1392 0076 03D1     		bne	.L73
1383:Drivers/STM32L4xx_HAL_Driver/Src/stm32l4xx_hal_uart.c ****     {
1384:Drivers/STM32L4xx_HAL_Driver/Src/stm32l4xx_hal_uart.c ****       huart->TxISR = UART_TxISR_16BIT;
 1393              		.loc 1 1384 20
 1394 0078 FB68     		ldr	r3, [r7, #12]
 1395 007a 164A     		ldr	r2, .L78
 1396 007c 9A66     		str	r2, [r3, #104]
 1397 007e 02E0     		b	.L74
 1398              	.L73:
1385:Drivers/STM32L4xx_HAL_Driver/Src/stm32l4xx_hal_uart.c ****     }
1386:Drivers/STM32L4xx_HAL_Driver/Src/stm32l4xx_hal_uart.c ****     else
1387:Drivers/STM32L4xx_HAL_Driver/Src/stm32l4xx_hal_uart.c ****     {
1388:Drivers/STM32L4xx_HAL_Driver/Src/stm32l4xx_hal_uart.c ****       huart->TxISR = UART_TxISR_8BIT;
 1399              		.loc 1 1388 20
 1400 0080 FB68     		ldr	r3, [r7, #12]
 1401 0082 154A     		ldr	r2, .L78+4
 1402 0084 9A66     		str	r2, [r3, #104]
 1403              	.L74:
1389:Drivers/STM32L4xx_HAL_Driver/Src/stm32l4xx_hal_uart.c ****     }
1390:Drivers/STM32L4xx_HAL_Driver/Src/stm32l4xx_hal_uart.c **** 
1391:Drivers/STM32L4xx_HAL_Driver/Src/stm32l4xx_hal_uart.c ****     __HAL_UNLOCK(huart);
 1404              		.loc 1 1391 5
 1405 0086 FB68     		ldr	r3, [r7, #12]
 1406 0088 0022     		movs	r2, #0
 1407 008a 83F87420 		strb	r2, [r3, #116]
 1408              	.L77:
 1409              	.LBB409:
1392:Drivers/STM32L4xx_HAL_Driver/Src/stm32l4xx_hal_uart.c **** 
1393:Drivers/STM32L4xx_HAL_Driver/Src/stm32l4xx_hal_uart.c ****     /* Enable the Transmit Data Register Empty interrupt */
1394:Drivers/STM32L4xx_HAL_Driver/Src/stm32l4xx_hal_uart.c ****     ATOMIC_SET_BIT(huart->Instance->CR1, USART_CR1_TXEIE);
 1410              		.loc 1 1394 5 discriminator 1
 1411 008e FB68     		ldr	r3, [r7, #12]
 1412 0090 1B68     		ldr	r3, [r3]
 1413 0092 7B61     		str	r3, [r7, #20]
 1414              	.LBB410:
ARM GAS  /var/folders/k7/81v8fz9j4v98_s0dd31l1wsr0000gn/T//ccpVz2vH.s 			page 50


 1415              	.LBB411:
 1416              		.file 2 "Drivers/CMSIS/Include/cmsis_gcc.h"
   1:Drivers/CMSIS/Include/cmsis_gcc.h **** /**************************************************************************//**
   2:Drivers/CMSIS/Include/cmsis_gcc.h ****  * @file     cmsis_gcc.h
   3:Drivers/CMSIS/Include/cmsis_gcc.h ****  * @brief    CMSIS compiler GCC header file
   4:Drivers/CMSIS/Include/cmsis_gcc.h ****  * @version  V5.2.0
   5:Drivers/CMSIS/Include/cmsis_gcc.h ****  * @date     08. May 2019
   6:Drivers/CMSIS/Include/cmsis_gcc.h ****  ******************************************************************************/
   7:Drivers/CMSIS/Include/cmsis_gcc.h **** /*
   8:Drivers/CMSIS/Include/cmsis_gcc.h ****  * Copyright (c) 2009-2019 Arm Limited. All rights reserved.
   9:Drivers/CMSIS/Include/cmsis_gcc.h ****  *
  10:Drivers/CMSIS/Include/cmsis_gcc.h ****  * SPDX-License-Identifier: Apache-2.0
  11:Drivers/CMSIS/Include/cmsis_gcc.h ****  *
  12:Drivers/CMSIS/Include/cmsis_gcc.h ****  * Licensed under the Apache License, Version 2.0 (the License); you may
  13:Drivers/CMSIS/Include/cmsis_gcc.h ****  * not use this file except in compliance with the License.
  14:Drivers/CMSIS/Include/cmsis_gcc.h ****  * You may obtain a copy of the License at
  15:Drivers/CMSIS/Include/cmsis_gcc.h ****  *
  16:Drivers/CMSIS/Include/cmsis_gcc.h ****  * www.apache.org/licenses/LICENSE-2.0
  17:Drivers/CMSIS/Include/cmsis_gcc.h ****  *
  18:Drivers/CMSIS/Include/cmsis_gcc.h ****  * Unless required by applicable law or agreed to in writing, software
  19:Drivers/CMSIS/Include/cmsis_gcc.h ****  * distributed under the License is distributed on an AS IS BASIS, WITHOUT
  20:Drivers/CMSIS/Include/cmsis_gcc.h ****  * WARRANTIES OR CONDITIONS OF ANY KIND, either express or implied.
  21:Drivers/CMSIS/Include/cmsis_gcc.h ****  * See the License for the specific language governing permissions and
  22:Drivers/CMSIS/Include/cmsis_gcc.h ****  * limitations under the License.
  23:Drivers/CMSIS/Include/cmsis_gcc.h ****  */
  24:Drivers/CMSIS/Include/cmsis_gcc.h **** 
  25:Drivers/CMSIS/Include/cmsis_gcc.h **** #ifndef __CMSIS_GCC_H
  26:Drivers/CMSIS/Include/cmsis_gcc.h **** #define __CMSIS_GCC_H
  27:Drivers/CMSIS/Include/cmsis_gcc.h **** 
  28:Drivers/CMSIS/Include/cmsis_gcc.h **** /* ignore some GCC warnings */
  29:Drivers/CMSIS/Include/cmsis_gcc.h **** #pragma GCC diagnostic push
  30:Drivers/CMSIS/Include/cmsis_gcc.h **** #pragma GCC diagnostic ignored "-Wsign-conversion"
  31:Drivers/CMSIS/Include/cmsis_gcc.h **** #pragma GCC diagnostic ignored "-Wconversion"
  32:Drivers/CMSIS/Include/cmsis_gcc.h **** #pragma GCC diagnostic ignored "-Wunused-parameter"
  33:Drivers/CMSIS/Include/cmsis_gcc.h **** 
  34:Drivers/CMSIS/Include/cmsis_gcc.h **** /* Fallback for __has_builtin */
  35:Drivers/CMSIS/Include/cmsis_gcc.h **** #ifndef __has_builtin
  36:Drivers/CMSIS/Include/cmsis_gcc.h ****   #define __has_builtin(x) (0)
  37:Drivers/CMSIS/Include/cmsis_gcc.h **** #endif
  38:Drivers/CMSIS/Include/cmsis_gcc.h **** 
  39:Drivers/CMSIS/Include/cmsis_gcc.h **** /* CMSIS compiler specific defines */
  40:Drivers/CMSIS/Include/cmsis_gcc.h **** #ifndef   __ASM
  41:Drivers/CMSIS/Include/cmsis_gcc.h ****   #define __ASM                                  __asm
  42:Drivers/CMSIS/Include/cmsis_gcc.h **** #endif
  43:Drivers/CMSIS/Include/cmsis_gcc.h **** #ifndef   __INLINE
  44:Drivers/CMSIS/Include/cmsis_gcc.h ****   #define __INLINE                               inline
  45:Drivers/CMSIS/Include/cmsis_gcc.h **** #endif
  46:Drivers/CMSIS/Include/cmsis_gcc.h **** #ifndef   __STATIC_INLINE
  47:Drivers/CMSIS/Include/cmsis_gcc.h ****   #define __STATIC_INLINE                        static inline
  48:Drivers/CMSIS/Include/cmsis_gcc.h **** #endif
  49:Drivers/CMSIS/Include/cmsis_gcc.h **** #ifndef   __STATIC_FORCEINLINE                 
  50:Drivers/CMSIS/Include/cmsis_gcc.h ****   #define __STATIC_FORCEINLINE                   __attribute__((always_inline)) static inline
  51:Drivers/CMSIS/Include/cmsis_gcc.h **** #endif                                           
  52:Drivers/CMSIS/Include/cmsis_gcc.h **** #ifndef   __NO_RETURN
  53:Drivers/CMSIS/Include/cmsis_gcc.h ****   #define __NO_RETURN                            __attribute__((__noreturn__))
  54:Drivers/CMSIS/Include/cmsis_gcc.h **** #endif
  55:Drivers/CMSIS/Include/cmsis_gcc.h **** #ifndef   __USED
ARM GAS  /var/folders/k7/81v8fz9j4v98_s0dd31l1wsr0000gn/T//ccpVz2vH.s 			page 51


  56:Drivers/CMSIS/Include/cmsis_gcc.h ****   #define __USED                                 __attribute__((used))
  57:Drivers/CMSIS/Include/cmsis_gcc.h **** #endif
  58:Drivers/CMSIS/Include/cmsis_gcc.h **** #ifndef   __WEAK
  59:Drivers/CMSIS/Include/cmsis_gcc.h ****   #define __WEAK                                 __attribute__((weak))
  60:Drivers/CMSIS/Include/cmsis_gcc.h **** #endif
  61:Drivers/CMSIS/Include/cmsis_gcc.h **** #ifndef   __PACKED
  62:Drivers/CMSIS/Include/cmsis_gcc.h ****   #define __PACKED                               __attribute__((packed, aligned(1)))
  63:Drivers/CMSIS/Include/cmsis_gcc.h **** #endif
  64:Drivers/CMSIS/Include/cmsis_gcc.h **** #ifndef   __PACKED_STRUCT
  65:Drivers/CMSIS/Include/cmsis_gcc.h ****   #define __PACKED_STRUCT                        struct __attribute__((packed, aligned(1)))
  66:Drivers/CMSIS/Include/cmsis_gcc.h **** #endif
  67:Drivers/CMSIS/Include/cmsis_gcc.h **** #ifndef   __PACKED_UNION
  68:Drivers/CMSIS/Include/cmsis_gcc.h ****   #define __PACKED_UNION                         union __attribute__((packed, aligned(1)))
  69:Drivers/CMSIS/Include/cmsis_gcc.h **** #endif
  70:Drivers/CMSIS/Include/cmsis_gcc.h **** #ifndef   __UNALIGNED_UINT32        /* deprecated */
  71:Drivers/CMSIS/Include/cmsis_gcc.h ****   #pragma GCC diagnostic push
  72:Drivers/CMSIS/Include/cmsis_gcc.h ****   #pragma GCC diagnostic ignored "-Wpacked"
  73:Drivers/CMSIS/Include/cmsis_gcc.h ****   #pragma GCC diagnostic ignored "-Wattributes"
  74:Drivers/CMSIS/Include/cmsis_gcc.h ****   struct __attribute__((packed)) T_UINT32 { uint32_t v; };
  75:Drivers/CMSIS/Include/cmsis_gcc.h ****   #pragma GCC diagnostic pop
  76:Drivers/CMSIS/Include/cmsis_gcc.h ****   #define __UNALIGNED_UINT32(x)                  (((struct T_UINT32 *)(x))->v)
  77:Drivers/CMSIS/Include/cmsis_gcc.h **** #endif
  78:Drivers/CMSIS/Include/cmsis_gcc.h **** #ifndef   __UNALIGNED_UINT16_WRITE
  79:Drivers/CMSIS/Include/cmsis_gcc.h ****   #pragma GCC diagnostic push
  80:Drivers/CMSIS/Include/cmsis_gcc.h ****   #pragma GCC diagnostic ignored "-Wpacked"
  81:Drivers/CMSIS/Include/cmsis_gcc.h ****   #pragma GCC diagnostic ignored "-Wattributes"
  82:Drivers/CMSIS/Include/cmsis_gcc.h ****   __PACKED_STRUCT T_UINT16_WRITE { uint16_t v; };
  83:Drivers/CMSIS/Include/cmsis_gcc.h ****   #pragma GCC diagnostic pop
  84:Drivers/CMSIS/Include/cmsis_gcc.h ****   #define __UNALIGNED_UINT16_WRITE(addr, val)    (void)((((struct T_UINT16_WRITE *)(void *)(addr))-
  85:Drivers/CMSIS/Include/cmsis_gcc.h **** #endif
  86:Drivers/CMSIS/Include/cmsis_gcc.h **** #ifndef   __UNALIGNED_UINT16_READ
  87:Drivers/CMSIS/Include/cmsis_gcc.h ****   #pragma GCC diagnostic push
  88:Drivers/CMSIS/Include/cmsis_gcc.h ****   #pragma GCC diagnostic ignored "-Wpacked"
  89:Drivers/CMSIS/Include/cmsis_gcc.h ****   #pragma GCC diagnostic ignored "-Wattributes"
  90:Drivers/CMSIS/Include/cmsis_gcc.h ****   __PACKED_STRUCT T_UINT16_READ { uint16_t v; };
  91:Drivers/CMSIS/Include/cmsis_gcc.h ****   #pragma GCC diagnostic pop
  92:Drivers/CMSIS/Include/cmsis_gcc.h ****   #define __UNALIGNED_UINT16_READ(addr)          (((const struct T_UINT16_READ *)(const void *)(add
  93:Drivers/CMSIS/Include/cmsis_gcc.h **** #endif
  94:Drivers/CMSIS/Include/cmsis_gcc.h **** #ifndef   __UNALIGNED_UINT32_WRITE
  95:Drivers/CMSIS/Include/cmsis_gcc.h ****   #pragma GCC diagnostic push
  96:Drivers/CMSIS/Include/cmsis_gcc.h ****   #pragma GCC diagnostic ignored "-Wpacked"
  97:Drivers/CMSIS/Include/cmsis_gcc.h ****   #pragma GCC diagnostic ignored "-Wattributes"
  98:Drivers/CMSIS/Include/cmsis_gcc.h ****   __PACKED_STRUCT T_UINT32_WRITE { uint32_t v; };
  99:Drivers/CMSIS/Include/cmsis_gcc.h ****   #pragma GCC diagnostic pop
 100:Drivers/CMSIS/Include/cmsis_gcc.h ****   #define __UNALIGNED_UINT32_WRITE(addr, val)    (void)((((struct T_UINT32_WRITE *)(void *)(addr))-
 101:Drivers/CMSIS/Include/cmsis_gcc.h **** #endif
 102:Drivers/CMSIS/Include/cmsis_gcc.h **** #ifndef   __UNALIGNED_UINT32_READ
 103:Drivers/CMSIS/Include/cmsis_gcc.h ****   #pragma GCC diagnostic push
 104:Drivers/CMSIS/Include/cmsis_gcc.h ****   #pragma GCC diagnostic ignored "-Wpacked"
 105:Drivers/CMSIS/Include/cmsis_gcc.h ****   #pragma GCC diagnostic ignored "-Wattributes"
 106:Drivers/CMSIS/Include/cmsis_gcc.h ****   __PACKED_STRUCT T_UINT32_READ { uint32_t v; };
 107:Drivers/CMSIS/Include/cmsis_gcc.h ****   #pragma GCC diagnostic pop
 108:Drivers/CMSIS/Include/cmsis_gcc.h ****   #define __UNALIGNED_UINT32_READ(addr)          (((const struct T_UINT32_READ *)(const void *)(add
 109:Drivers/CMSIS/Include/cmsis_gcc.h **** #endif
 110:Drivers/CMSIS/Include/cmsis_gcc.h **** #ifndef   __ALIGNED
 111:Drivers/CMSIS/Include/cmsis_gcc.h ****   #define __ALIGNED(x)                           __attribute__((aligned(x)))
 112:Drivers/CMSIS/Include/cmsis_gcc.h **** #endif
ARM GAS  /var/folders/k7/81v8fz9j4v98_s0dd31l1wsr0000gn/T//ccpVz2vH.s 			page 52


 113:Drivers/CMSIS/Include/cmsis_gcc.h **** #ifndef   __RESTRICT
 114:Drivers/CMSIS/Include/cmsis_gcc.h ****   #define __RESTRICT                             __restrict
 115:Drivers/CMSIS/Include/cmsis_gcc.h **** #endif
 116:Drivers/CMSIS/Include/cmsis_gcc.h **** #ifndef   __COMPILER_BARRIER
 117:Drivers/CMSIS/Include/cmsis_gcc.h ****   #define __COMPILER_BARRIER()                   __ASM volatile("":::"memory")
 118:Drivers/CMSIS/Include/cmsis_gcc.h **** #endif
 119:Drivers/CMSIS/Include/cmsis_gcc.h **** 
 120:Drivers/CMSIS/Include/cmsis_gcc.h **** /* #########################  Startup and Lowlevel Init  ######################## */
 121:Drivers/CMSIS/Include/cmsis_gcc.h **** 
 122:Drivers/CMSIS/Include/cmsis_gcc.h **** #ifndef __PROGRAM_START
 123:Drivers/CMSIS/Include/cmsis_gcc.h **** 
 124:Drivers/CMSIS/Include/cmsis_gcc.h **** /**
 125:Drivers/CMSIS/Include/cmsis_gcc.h ****   \brief   Initializes data and bss sections
 126:Drivers/CMSIS/Include/cmsis_gcc.h ****   \details This default implementations initialized all data and additional bss
 127:Drivers/CMSIS/Include/cmsis_gcc.h ****            sections relying on .copy.table and .zero.table specified properly
 128:Drivers/CMSIS/Include/cmsis_gcc.h ****            in the used linker script.
 129:Drivers/CMSIS/Include/cmsis_gcc.h ****   
 130:Drivers/CMSIS/Include/cmsis_gcc.h ****  */
 131:Drivers/CMSIS/Include/cmsis_gcc.h **** __STATIC_FORCEINLINE __NO_RETURN void __cmsis_start(void)
 132:Drivers/CMSIS/Include/cmsis_gcc.h **** {
 133:Drivers/CMSIS/Include/cmsis_gcc.h ****   extern void _start(void) __NO_RETURN;
 134:Drivers/CMSIS/Include/cmsis_gcc.h ****   
 135:Drivers/CMSIS/Include/cmsis_gcc.h ****   typedef struct {
 136:Drivers/CMSIS/Include/cmsis_gcc.h ****     uint32_t const* src;
 137:Drivers/CMSIS/Include/cmsis_gcc.h ****     uint32_t* dest;
 138:Drivers/CMSIS/Include/cmsis_gcc.h ****     uint32_t  wlen;
 139:Drivers/CMSIS/Include/cmsis_gcc.h ****   } __copy_table_t;
 140:Drivers/CMSIS/Include/cmsis_gcc.h ****   
 141:Drivers/CMSIS/Include/cmsis_gcc.h ****   typedef struct {
 142:Drivers/CMSIS/Include/cmsis_gcc.h ****     uint32_t* dest;
 143:Drivers/CMSIS/Include/cmsis_gcc.h ****     uint32_t  wlen;
 144:Drivers/CMSIS/Include/cmsis_gcc.h ****   } __zero_table_t;
 145:Drivers/CMSIS/Include/cmsis_gcc.h ****   
 146:Drivers/CMSIS/Include/cmsis_gcc.h ****   extern const __copy_table_t __copy_table_start__;
 147:Drivers/CMSIS/Include/cmsis_gcc.h ****   extern const __copy_table_t __copy_table_end__;
 148:Drivers/CMSIS/Include/cmsis_gcc.h ****   extern const __zero_table_t __zero_table_start__;
 149:Drivers/CMSIS/Include/cmsis_gcc.h ****   extern const __zero_table_t __zero_table_end__;
 150:Drivers/CMSIS/Include/cmsis_gcc.h **** 
 151:Drivers/CMSIS/Include/cmsis_gcc.h ****   for (__copy_table_t const* pTable = &__copy_table_start__; pTable < &__copy_table_end__; ++pTable
 152:Drivers/CMSIS/Include/cmsis_gcc.h ****     for(uint32_t i=0u; i<pTable->wlen; ++i) {
 153:Drivers/CMSIS/Include/cmsis_gcc.h ****       pTable->dest[i] = pTable->src[i];
 154:Drivers/CMSIS/Include/cmsis_gcc.h ****     }
 155:Drivers/CMSIS/Include/cmsis_gcc.h ****   }
 156:Drivers/CMSIS/Include/cmsis_gcc.h ****  
 157:Drivers/CMSIS/Include/cmsis_gcc.h ****   for (__zero_table_t const* pTable = &__zero_table_start__; pTable < &__zero_table_end__; ++pTable
 158:Drivers/CMSIS/Include/cmsis_gcc.h ****     for(uint32_t i=0u; i<pTable->wlen; ++i) {
 159:Drivers/CMSIS/Include/cmsis_gcc.h ****       pTable->dest[i] = 0u;
 160:Drivers/CMSIS/Include/cmsis_gcc.h ****     }
 161:Drivers/CMSIS/Include/cmsis_gcc.h ****   }
 162:Drivers/CMSIS/Include/cmsis_gcc.h ****  
 163:Drivers/CMSIS/Include/cmsis_gcc.h ****   _start();
 164:Drivers/CMSIS/Include/cmsis_gcc.h **** }
 165:Drivers/CMSIS/Include/cmsis_gcc.h ****   
 166:Drivers/CMSIS/Include/cmsis_gcc.h **** #define __PROGRAM_START           __cmsis_start
 167:Drivers/CMSIS/Include/cmsis_gcc.h **** #endif
 168:Drivers/CMSIS/Include/cmsis_gcc.h **** 
 169:Drivers/CMSIS/Include/cmsis_gcc.h **** #ifndef __INITIAL_SP
ARM GAS  /var/folders/k7/81v8fz9j4v98_s0dd31l1wsr0000gn/T//ccpVz2vH.s 			page 53


 170:Drivers/CMSIS/Include/cmsis_gcc.h **** #define __INITIAL_SP              __StackTop
 171:Drivers/CMSIS/Include/cmsis_gcc.h **** #endif
 172:Drivers/CMSIS/Include/cmsis_gcc.h **** 
 173:Drivers/CMSIS/Include/cmsis_gcc.h **** #ifndef __STACK_LIMIT
 174:Drivers/CMSIS/Include/cmsis_gcc.h **** #define __STACK_LIMIT             __StackLimit
 175:Drivers/CMSIS/Include/cmsis_gcc.h **** #endif
 176:Drivers/CMSIS/Include/cmsis_gcc.h **** 
 177:Drivers/CMSIS/Include/cmsis_gcc.h **** #ifndef __VECTOR_TABLE
 178:Drivers/CMSIS/Include/cmsis_gcc.h **** #define __VECTOR_TABLE            __Vectors
 179:Drivers/CMSIS/Include/cmsis_gcc.h **** #endif
 180:Drivers/CMSIS/Include/cmsis_gcc.h **** 
 181:Drivers/CMSIS/Include/cmsis_gcc.h **** #ifndef __VECTOR_TABLE_ATTRIBUTE
 182:Drivers/CMSIS/Include/cmsis_gcc.h **** #define __VECTOR_TABLE_ATTRIBUTE  __attribute((used, section(".vectors")))
 183:Drivers/CMSIS/Include/cmsis_gcc.h **** #endif
 184:Drivers/CMSIS/Include/cmsis_gcc.h **** 
 185:Drivers/CMSIS/Include/cmsis_gcc.h **** /* ###########################  Core Function Access  ########################### */
 186:Drivers/CMSIS/Include/cmsis_gcc.h **** /** \ingroup  CMSIS_Core_FunctionInterface
 187:Drivers/CMSIS/Include/cmsis_gcc.h ****     \defgroup CMSIS_Core_RegAccFunctions CMSIS Core Register Access Functions
 188:Drivers/CMSIS/Include/cmsis_gcc.h ****   @{
 189:Drivers/CMSIS/Include/cmsis_gcc.h ****  */
 190:Drivers/CMSIS/Include/cmsis_gcc.h **** 
 191:Drivers/CMSIS/Include/cmsis_gcc.h **** /**
 192:Drivers/CMSIS/Include/cmsis_gcc.h ****   \brief   Enable IRQ Interrupts
 193:Drivers/CMSIS/Include/cmsis_gcc.h ****   \details Enables IRQ interrupts by clearing the I-bit in the CPSR.
 194:Drivers/CMSIS/Include/cmsis_gcc.h ****            Can only be executed in Privileged modes.
 195:Drivers/CMSIS/Include/cmsis_gcc.h ****  */
 196:Drivers/CMSIS/Include/cmsis_gcc.h **** __STATIC_FORCEINLINE void __enable_irq(void)
 197:Drivers/CMSIS/Include/cmsis_gcc.h **** {
 198:Drivers/CMSIS/Include/cmsis_gcc.h ****   __ASM volatile ("cpsie i" : : : "memory");
 199:Drivers/CMSIS/Include/cmsis_gcc.h **** }
 200:Drivers/CMSIS/Include/cmsis_gcc.h **** 
 201:Drivers/CMSIS/Include/cmsis_gcc.h **** 
 202:Drivers/CMSIS/Include/cmsis_gcc.h **** /**
 203:Drivers/CMSIS/Include/cmsis_gcc.h ****   \brief   Disable IRQ Interrupts
 204:Drivers/CMSIS/Include/cmsis_gcc.h ****   \details Disables IRQ interrupts by setting the I-bit in the CPSR.
 205:Drivers/CMSIS/Include/cmsis_gcc.h ****            Can only be executed in Privileged modes.
 206:Drivers/CMSIS/Include/cmsis_gcc.h ****  */
 207:Drivers/CMSIS/Include/cmsis_gcc.h **** __STATIC_FORCEINLINE void __disable_irq(void)
 208:Drivers/CMSIS/Include/cmsis_gcc.h **** {
 209:Drivers/CMSIS/Include/cmsis_gcc.h ****   __ASM volatile ("cpsid i" : : : "memory");
 210:Drivers/CMSIS/Include/cmsis_gcc.h **** }
 211:Drivers/CMSIS/Include/cmsis_gcc.h **** 
 212:Drivers/CMSIS/Include/cmsis_gcc.h **** 
 213:Drivers/CMSIS/Include/cmsis_gcc.h **** /**
 214:Drivers/CMSIS/Include/cmsis_gcc.h ****   \brief   Get Control Register
 215:Drivers/CMSIS/Include/cmsis_gcc.h ****   \details Returns the content of the Control Register.
 216:Drivers/CMSIS/Include/cmsis_gcc.h ****   \return               Control Register value
 217:Drivers/CMSIS/Include/cmsis_gcc.h ****  */
 218:Drivers/CMSIS/Include/cmsis_gcc.h **** __STATIC_FORCEINLINE uint32_t __get_CONTROL(void)
 219:Drivers/CMSIS/Include/cmsis_gcc.h **** {
 220:Drivers/CMSIS/Include/cmsis_gcc.h ****   uint32_t result;
 221:Drivers/CMSIS/Include/cmsis_gcc.h **** 
 222:Drivers/CMSIS/Include/cmsis_gcc.h ****   __ASM volatile ("MRS %0, control" : "=r" (result) );
 223:Drivers/CMSIS/Include/cmsis_gcc.h ****   return(result);
 224:Drivers/CMSIS/Include/cmsis_gcc.h **** }
 225:Drivers/CMSIS/Include/cmsis_gcc.h **** 
 226:Drivers/CMSIS/Include/cmsis_gcc.h **** 
ARM GAS  /var/folders/k7/81v8fz9j4v98_s0dd31l1wsr0000gn/T//ccpVz2vH.s 			page 54


 227:Drivers/CMSIS/Include/cmsis_gcc.h **** #if (defined (__ARM_FEATURE_CMSE ) && (__ARM_FEATURE_CMSE == 3))
 228:Drivers/CMSIS/Include/cmsis_gcc.h **** /**
 229:Drivers/CMSIS/Include/cmsis_gcc.h ****   \brief   Get Control Register (non-secure)
 230:Drivers/CMSIS/Include/cmsis_gcc.h ****   \details Returns the content of the non-secure Control Register when in secure mode.
 231:Drivers/CMSIS/Include/cmsis_gcc.h ****   \return               non-secure Control Register value
 232:Drivers/CMSIS/Include/cmsis_gcc.h ****  */
 233:Drivers/CMSIS/Include/cmsis_gcc.h **** __STATIC_FORCEINLINE uint32_t __TZ_get_CONTROL_NS(void)
 234:Drivers/CMSIS/Include/cmsis_gcc.h **** {
 235:Drivers/CMSIS/Include/cmsis_gcc.h ****   uint32_t result;
 236:Drivers/CMSIS/Include/cmsis_gcc.h **** 
 237:Drivers/CMSIS/Include/cmsis_gcc.h ****   __ASM volatile ("MRS %0, control_ns" : "=r" (result) );
 238:Drivers/CMSIS/Include/cmsis_gcc.h ****   return(result);
 239:Drivers/CMSIS/Include/cmsis_gcc.h **** }
 240:Drivers/CMSIS/Include/cmsis_gcc.h **** #endif
 241:Drivers/CMSIS/Include/cmsis_gcc.h **** 
 242:Drivers/CMSIS/Include/cmsis_gcc.h **** 
 243:Drivers/CMSIS/Include/cmsis_gcc.h **** /**
 244:Drivers/CMSIS/Include/cmsis_gcc.h ****   \brief   Set Control Register
 245:Drivers/CMSIS/Include/cmsis_gcc.h ****   \details Writes the given value to the Control Register.
 246:Drivers/CMSIS/Include/cmsis_gcc.h ****   \param [in]    control  Control Register value to set
 247:Drivers/CMSIS/Include/cmsis_gcc.h ****  */
 248:Drivers/CMSIS/Include/cmsis_gcc.h **** __STATIC_FORCEINLINE void __set_CONTROL(uint32_t control)
 249:Drivers/CMSIS/Include/cmsis_gcc.h **** {
 250:Drivers/CMSIS/Include/cmsis_gcc.h ****   __ASM volatile ("MSR control, %0" : : "r" (control) : "memory");
 251:Drivers/CMSIS/Include/cmsis_gcc.h **** }
 252:Drivers/CMSIS/Include/cmsis_gcc.h **** 
 253:Drivers/CMSIS/Include/cmsis_gcc.h **** 
 254:Drivers/CMSIS/Include/cmsis_gcc.h **** #if (defined (__ARM_FEATURE_CMSE ) && (__ARM_FEATURE_CMSE == 3))
 255:Drivers/CMSIS/Include/cmsis_gcc.h **** /**
 256:Drivers/CMSIS/Include/cmsis_gcc.h ****   \brief   Set Control Register (non-secure)
 257:Drivers/CMSIS/Include/cmsis_gcc.h ****   \details Writes the given value to the non-secure Control Register when in secure state.
 258:Drivers/CMSIS/Include/cmsis_gcc.h ****   \param [in]    control  Control Register value to set
 259:Drivers/CMSIS/Include/cmsis_gcc.h ****  */
 260:Drivers/CMSIS/Include/cmsis_gcc.h **** __STATIC_FORCEINLINE void __TZ_set_CONTROL_NS(uint32_t control)
 261:Drivers/CMSIS/Include/cmsis_gcc.h **** {
 262:Drivers/CMSIS/Include/cmsis_gcc.h ****   __ASM volatile ("MSR control_ns, %0" : : "r" (control) : "memory");
 263:Drivers/CMSIS/Include/cmsis_gcc.h **** }
 264:Drivers/CMSIS/Include/cmsis_gcc.h **** #endif
 265:Drivers/CMSIS/Include/cmsis_gcc.h **** 
 266:Drivers/CMSIS/Include/cmsis_gcc.h **** 
 267:Drivers/CMSIS/Include/cmsis_gcc.h **** /**
 268:Drivers/CMSIS/Include/cmsis_gcc.h ****   \brief   Get IPSR Register
 269:Drivers/CMSIS/Include/cmsis_gcc.h ****   \details Returns the content of the IPSR Register.
 270:Drivers/CMSIS/Include/cmsis_gcc.h ****   \return               IPSR Register value
 271:Drivers/CMSIS/Include/cmsis_gcc.h ****  */
 272:Drivers/CMSIS/Include/cmsis_gcc.h **** __STATIC_FORCEINLINE uint32_t __get_IPSR(void)
 273:Drivers/CMSIS/Include/cmsis_gcc.h **** {
 274:Drivers/CMSIS/Include/cmsis_gcc.h ****   uint32_t result;
 275:Drivers/CMSIS/Include/cmsis_gcc.h **** 
 276:Drivers/CMSIS/Include/cmsis_gcc.h ****   __ASM volatile ("MRS %0, ipsr" : "=r" (result) );
 277:Drivers/CMSIS/Include/cmsis_gcc.h ****   return(result);
 278:Drivers/CMSIS/Include/cmsis_gcc.h **** }
 279:Drivers/CMSIS/Include/cmsis_gcc.h **** 
 280:Drivers/CMSIS/Include/cmsis_gcc.h **** 
 281:Drivers/CMSIS/Include/cmsis_gcc.h **** /**
 282:Drivers/CMSIS/Include/cmsis_gcc.h ****   \brief   Get APSR Register
 283:Drivers/CMSIS/Include/cmsis_gcc.h ****   \details Returns the content of the APSR Register.
ARM GAS  /var/folders/k7/81v8fz9j4v98_s0dd31l1wsr0000gn/T//ccpVz2vH.s 			page 55


 284:Drivers/CMSIS/Include/cmsis_gcc.h ****   \return               APSR Register value
 285:Drivers/CMSIS/Include/cmsis_gcc.h ****  */
 286:Drivers/CMSIS/Include/cmsis_gcc.h **** __STATIC_FORCEINLINE uint32_t __get_APSR(void)
 287:Drivers/CMSIS/Include/cmsis_gcc.h **** {
 288:Drivers/CMSIS/Include/cmsis_gcc.h ****   uint32_t result;
 289:Drivers/CMSIS/Include/cmsis_gcc.h **** 
 290:Drivers/CMSIS/Include/cmsis_gcc.h ****   __ASM volatile ("MRS %0, apsr" : "=r" (result) );
 291:Drivers/CMSIS/Include/cmsis_gcc.h ****   return(result);
 292:Drivers/CMSIS/Include/cmsis_gcc.h **** }
 293:Drivers/CMSIS/Include/cmsis_gcc.h **** 
 294:Drivers/CMSIS/Include/cmsis_gcc.h **** 
 295:Drivers/CMSIS/Include/cmsis_gcc.h **** /**
 296:Drivers/CMSIS/Include/cmsis_gcc.h ****   \brief   Get xPSR Register
 297:Drivers/CMSIS/Include/cmsis_gcc.h ****   \details Returns the content of the xPSR Register.
 298:Drivers/CMSIS/Include/cmsis_gcc.h ****   \return               xPSR Register value
 299:Drivers/CMSIS/Include/cmsis_gcc.h ****  */
 300:Drivers/CMSIS/Include/cmsis_gcc.h **** __STATIC_FORCEINLINE uint32_t __get_xPSR(void)
 301:Drivers/CMSIS/Include/cmsis_gcc.h **** {
 302:Drivers/CMSIS/Include/cmsis_gcc.h ****   uint32_t result;
 303:Drivers/CMSIS/Include/cmsis_gcc.h **** 
 304:Drivers/CMSIS/Include/cmsis_gcc.h ****   __ASM volatile ("MRS %0, xpsr" : "=r" (result) );
 305:Drivers/CMSIS/Include/cmsis_gcc.h ****   return(result);
 306:Drivers/CMSIS/Include/cmsis_gcc.h **** }
 307:Drivers/CMSIS/Include/cmsis_gcc.h **** 
 308:Drivers/CMSIS/Include/cmsis_gcc.h **** 
 309:Drivers/CMSIS/Include/cmsis_gcc.h **** /**
 310:Drivers/CMSIS/Include/cmsis_gcc.h ****   \brief   Get Process Stack Pointer
 311:Drivers/CMSIS/Include/cmsis_gcc.h ****   \details Returns the current value of the Process Stack Pointer (PSP).
 312:Drivers/CMSIS/Include/cmsis_gcc.h ****   \return               PSP Register value
 313:Drivers/CMSIS/Include/cmsis_gcc.h ****  */
 314:Drivers/CMSIS/Include/cmsis_gcc.h **** __STATIC_FORCEINLINE uint32_t __get_PSP(void)
 315:Drivers/CMSIS/Include/cmsis_gcc.h **** {
 316:Drivers/CMSIS/Include/cmsis_gcc.h ****   uint32_t result;
 317:Drivers/CMSIS/Include/cmsis_gcc.h **** 
 318:Drivers/CMSIS/Include/cmsis_gcc.h ****   __ASM volatile ("MRS %0, psp"  : "=r" (result) );
 319:Drivers/CMSIS/Include/cmsis_gcc.h ****   return(result);
 320:Drivers/CMSIS/Include/cmsis_gcc.h **** }
 321:Drivers/CMSIS/Include/cmsis_gcc.h **** 
 322:Drivers/CMSIS/Include/cmsis_gcc.h **** 
 323:Drivers/CMSIS/Include/cmsis_gcc.h **** #if (defined (__ARM_FEATURE_CMSE ) && (__ARM_FEATURE_CMSE == 3))
 324:Drivers/CMSIS/Include/cmsis_gcc.h **** /**
 325:Drivers/CMSIS/Include/cmsis_gcc.h ****   \brief   Get Process Stack Pointer (non-secure)
 326:Drivers/CMSIS/Include/cmsis_gcc.h ****   \details Returns the current value of the non-secure Process Stack Pointer (PSP) when in secure s
 327:Drivers/CMSIS/Include/cmsis_gcc.h ****   \return               PSP Register value
 328:Drivers/CMSIS/Include/cmsis_gcc.h ****  */
 329:Drivers/CMSIS/Include/cmsis_gcc.h **** __STATIC_FORCEINLINE uint32_t __TZ_get_PSP_NS(void)
 330:Drivers/CMSIS/Include/cmsis_gcc.h **** {
 331:Drivers/CMSIS/Include/cmsis_gcc.h ****   uint32_t result;
 332:Drivers/CMSIS/Include/cmsis_gcc.h **** 
 333:Drivers/CMSIS/Include/cmsis_gcc.h ****   __ASM volatile ("MRS %0, psp_ns"  : "=r" (result) );
 334:Drivers/CMSIS/Include/cmsis_gcc.h ****   return(result);
 335:Drivers/CMSIS/Include/cmsis_gcc.h **** }
 336:Drivers/CMSIS/Include/cmsis_gcc.h **** #endif
 337:Drivers/CMSIS/Include/cmsis_gcc.h **** 
 338:Drivers/CMSIS/Include/cmsis_gcc.h **** 
 339:Drivers/CMSIS/Include/cmsis_gcc.h **** /**
 340:Drivers/CMSIS/Include/cmsis_gcc.h ****   \brief   Set Process Stack Pointer
ARM GAS  /var/folders/k7/81v8fz9j4v98_s0dd31l1wsr0000gn/T//ccpVz2vH.s 			page 56


 341:Drivers/CMSIS/Include/cmsis_gcc.h ****   \details Assigns the given value to the Process Stack Pointer (PSP).
 342:Drivers/CMSIS/Include/cmsis_gcc.h ****   \param [in]    topOfProcStack  Process Stack Pointer value to set
 343:Drivers/CMSIS/Include/cmsis_gcc.h ****  */
 344:Drivers/CMSIS/Include/cmsis_gcc.h **** __STATIC_FORCEINLINE void __set_PSP(uint32_t topOfProcStack)
 345:Drivers/CMSIS/Include/cmsis_gcc.h **** {
 346:Drivers/CMSIS/Include/cmsis_gcc.h ****   __ASM volatile ("MSR psp, %0" : : "r" (topOfProcStack) : );
 347:Drivers/CMSIS/Include/cmsis_gcc.h **** }
 348:Drivers/CMSIS/Include/cmsis_gcc.h **** 
 349:Drivers/CMSIS/Include/cmsis_gcc.h **** 
 350:Drivers/CMSIS/Include/cmsis_gcc.h **** #if (defined (__ARM_FEATURE_CMSE ) && (__ARM_FEATURE_CMSE == 3))
 351:Drivers/CMSIS/Include/cmsis_gcc.h **** /**
 352:Drivers/CMSIS/Include/cmsis_gcc.h ****   \brief   Set Process Stack Pointer (non-secure)
 353:Drivers/CMSIS/Include/cmsis_gcc.h ****   \details Assigns the given value to the non-secure Process Stack Pointer (PSP) when in secure sta
 354:Drivers/CMSIS/Include/cmsis_gcc.h ****   \param [in]    topOfProcStack  Process Stack Pointer value to set
 355:Drivers/CMSIS/Include/cmsis_gcc.h ****  */
 356:Drivers/CMSIS/Include/cmsis_gcc.h **** __STATIC_FORCEINLINE void __TZ_set_PSP_NS(uint32_t topOfProcStack)
 357:Drivers/CMSIS/Include/cmsis_gcc.h **** {
 358:Drivers/CMSIS/Include/cmsis_gcc.h ****   __ASM volatile ("MSR psp_ns, %0" : : "r" (topOfProcStack) : );
 359:Drivers/CMSIS/Include/cmsis_gcc.h **** }
 360:Drivers/CMSIS/Include/cmsis_gcc.h **** #endif
 361:Drivers/CMSIS/Include/cmsis_gcc.h **** 
 362:Drivers/CMSIS/Include/cmsis_gcc.h **** 
 363:Drivers/CMSIS/Include/cmsis_gcc.h **** /**
 364:Drivers/CMSIS/Include/cmsis_gcc.h ****   \brief   Get Main Stack Pointer
 365:Drivers/CMSIS/Include/cmsis_gcc.h ****   \details Returns the current value of the Main Stack Pointer (MSP).
 366:Drivers/CMSIS/Include/cmsis_gcc.h ****   \return               MSP Register value
 367:Drivers/CMSIS/Include/cmsis_gcc.h ****  */
 368:Drivers/CMSIS/Include/cmsis_gcc.h **** __STATIC_FORCEINLINE uint32_t __get_MSP(void)
 369:Drivers/CMSIS/Include/cmsis_gcc.h **** {
 370:Drivers/CMSIS/Include/cmsis_gcc.h ****   uint32_t result;
 371:Drivers/CMSIS/Include/cmsis_gcc.h **** 
 372:Drivers/CMSIS/Include/cmsis_gcc.h ****   __ASM volatile ("MRS %0, msp" : "=r" (result) );
 373:Drivers/CMSIS/Include/cmsis_gcc.h ****   return(result);
 374:Drivers/CMSIS/Include/cmsis_gcc.h **** }
 375:Drivers/CMSIS/Include/cmsis_gcc.h **** 
 376:Drivers/CMSIS/Include/cmsis_gcc.h **** 
 377:Drivers/CMSIS/Include/cmsis_gcc.h **** #if (defined (__ARM_FEATURE_CMSE ) && (__ARM_FEATURE_CMSE == 3))
 378:Drivers/CMSIS/Include/cmsis_gcc.h **** /**
 379:Drivers/CMSIS/Include/cmsis_gcc.h ****   \brief   Get Main Stack Pointer (non-secure)
 380:Drivers/CMSIS/Include/cmsis_gcc.h ****   \details Returns the current value of the non-secure Main Stack Pointer (MSP) when in secure stat
 381:Drivers/CMSIS/Include/cmsis_gcc.h ****   \return               MSP Register value
 382:Drivers/CMSIS/Include/cmsis_gcc.h ****  */
 383:Drivers/CMSIS/Include/cmsis_gcc.h **** __STATIC_FORCEINLINE uint32_t __TZ_get_MSP_NS(void)
 384:Drivers/CMSIS/Include/cmsis_gcc.h **** {
 385:Drivers/CMSIS/Include/cmsis_gcc.h ****   uint32_t result;
 386:Drivers/CMSIS/Include/cmsis_gcc.h **** 
 387:Drivers/CMSIS/Include/cmsis_gcc.h ****   __ASM volatile ("MRS %0, msp_ns" : "=r" (result) );
 388:Drivers/CMSIS/Include/cmsis_gcc.h ****   return(result);
 389:Drivers/CMSIS/Include/cmsis_gcc.h **** }
 390:Drivers/CMSIS/Include/cmsis_gcc.h **** #endif
 391:Drivers/CMSIS/Include/cmsis_gcc.h **** 
 392:Drivers/CMSIS/Include/cmsis_gcc.h **** 
 393:Drivers/CMSIS/Include/cmsis_gcc.h **** /**
 394:Drivers/CMSIS/Include/cmsis_gcc.h ****   \brief   Set Main Stack Pointer
 395:Drivers/CMSIS/Include/cmsis_gcc.h ****   \details Assigns the given value to the Main Stack Pointer (MSP).
 396:Drivers/CMSIS/Include/cmsis_gcc.h ****   \param [in]    topOfMainStack  Main Stack Pointer value to set
 397:Drivers/CMSIS/Include/cmsis_gcc.h ****  */
ARM GAS  /var/folders/k7/81v8fz9j4v98_s0dd31l1wsr0000gn/T//ccpVz2vH.s 			page 57


 398:Drivers/CMSIS/Include/cmsis_gcc.h **** __STATIC_FORCEINLINE void __set_MSP(uint32_t topOfMainStack)
 399:Drivers/CMSIS/Include/cmsis_gcc.h **** {
 400:Drivers/CMSIS/Include/cmsis_gcc.h ****   __ASM volatile ("MSR msp, %0" : : "r" (topOfMainStack) : );
 401:Drivers/CMSIS/Include/cmsis_gcc.h **** }
 402:Drivers/CMSIS/Include/cmsis_gcc.h **** 
 403:Drivers/CMSIS/Include/cmsis_gcc.h **** 
 404:Drivers/CMSIS/Include/cmsis_gcc.h **** #if (defined (__ARM_FEATURE_CMSE ) && (__ARM_FEATURE_CMSE == 3))
 405:Drivers/CMSIS/Include/cmsis_gcc.h **** /**
 406:Drivers/CMSIS/Include/cmsis_gcc.h ****   \brief   Set Main Stack Pointer (non-secure)
 407:Drivers/CMSIS/Include/cmsis_gcc.h ****   \details Assigns the given value to the non-secure Main Stack Pointer (MSP) when in secure state.
 408:Drivers/CMSIS/Include/cmsis_gcc.h ****   \param [in]    topOfMainStack  Main Stack Pointer value to set
 409:Drivers/CMSIS/Include/cmsis_gcc.h ****  */
 410:Drivers/CMSIS/Include/cmsis_gcc.h **** __STATIC_FORCEINLINE void __TZ_set_MSP_NS(uint32_t topOfMainStack)
 411:Drivers/CMSIS/Include/cmsis_gcc.h **** {
 412:Drivers/CMSIS/Include/cmsis_gcc.h ****   __ASM volatile ("MSR msp_ns, %0" : : "r" (topOfMainStack) : );
 413:Drivers/CMSIS/Include/cmsis_gcc.h **** }
 414:Drivers/CMSIS/Include/cmsis_gcc.h **** #endif
 415:Drivers/CMSIS/Include/cmsis_gcc.h **** 
 416:Drivers/CMSIS/Include/cmsis_gcc.h **** 
 417:Drivers/CMSIS/Include/cmsis_gcc.h **** #if (defined (__ARM_FEATURE_CMSE ) && (__ARM_FEATURE_CMSE == 3))
 418:Drivers/CMSIS/Include/cmsis_gcc.h **** /**
 419:Drivers/CMSIS/Include/cmsis_gcc.h ****   \brief   Get Stack Pointer (non-secure)
 420:Drivers/CMSIS/Include/cmsis_gcc.h ****   \details Returns the current value of the non-secure Stack Pointer (SP) when in secure state.
 421:Drivers/CMSIS/Include/cmsis_gcc.h ****   \return               SP Register value
 422:Drivers/CMSIS/Include/cmsis_gcc.h ****  */
 423:Drivers/CMSIS/Include/cmsis_gcc.h **** __STATIC_FORCEINLINE uint32_t __TZ_get_SP_NS(void)
 424:Drivers/CMSIS/Include/cmsis_gcc.h **** {
 425:Drivers/CMSIS/Include/cmsis_gcc.h ****   uint32_t result;
 426:Drivers/CMSIS/Include/cmsis_gcc.h **** 
 427:Drivers/CMSIS/Include/cmsis_gcc.h ****   __ASM volatile ("MRS %0, sp_ns" : "=r" (result) );
 428:Drivers/CMSIS/Include/cmsis_gcc.h ****   return(result);
 429:Drivers/CMSIS/Include/cmsis_gcc.h **** }
 430:Drivers/CMSIS/Include/cmsis_gcc.h **** 
 431:Drivers/CMSIS/Include/cmsis_gcc.h **** 
 432:Drivers/CMSIS/Include/cmsis_gcc.h **** /**
 433:Drivers/CMSIS/Include/cmsis_gcc.h ****   \brief   Set Stack Pointer (non-secure)
 434:Drivers/CMSIS/Include/cmsis_gcc.h ****   \details Assigns the given value to the non-secure Stack Pointer (SP) when in secure state.
 435:Drivers/CMSIS/Include/cmsis_gcc.h ****   \param [in]    topOfStack  Stack Pointer value to set
 436:Drivers/CMSIS/Include/cmsis_gcc.h ****  */
 437:Drivers/CMSIS/Include/cmsis_gcc.h **** __STATIC_FORCEINLINE void __TZ_set_SP_NS(uint32_t topOfStack)
 438:Drivers/CMSIS/Include/cmsis_gcc.h **** {
 439:Drivers/CMSIS/Include/cmsis_gcc.h ****   __ASM volatile ("MSR sp_ns, %0" : : "r" (topOfStack) : );
 440:Drivers/CMSIS/Include/cmsis_gcc.h **** }
 441:Drivers/CMSIS/Include/cmsis_gcc.h **** #endif
 442:Drivers/CMSIS/Include/cmsis_gcc.h **** 
 443:Drivers/CMSIS/Include/cmsis_gcc.h **** 
 444:Drivers/CMSIS/Include/cmsis_gcc.h **** /**
 445:Drivers/CMSIS/Include/cmsis_gcc.h ****   \brief   Get Priority Mask
 446:Drivers/CMSIS/Include/cmsis_gcc.h ****   \details Returns the current state of the priority mask bit from the Priority Mask Register.
 447:Drivers/CMSIS/Include/cmsis_gcc.h ****   \return               Priority Mask value
 448:Drivers/CMSIS/Include/cmsis_gcc.h ****  */
 449:Drivers/CMSIS/Include/cmsis_gcc.h **** __STATIC_FORCEINLINE uint32_t __get_PRIMASK(void)
 450:Drivers/CMSIS/Include/cmsis_gcc.h **** {
 451:Drivers/CMSIS/Include/cmsis_gcc.h ****   uint32_t result;
 452:Drivers/CMSIS/Include/cmsis_gcc.h **** 
 453:Drivers/CMSIS/Include/cmsis_gcc.h ****   __ASM volatile ("MRS %0, primask" : "=r" (result) :: "memory");
 454:Drivers/CMSIS/Include/cmsis_gcc.h ****   return(result);
ARM GAS  /var/folders/k7/81v8fz9j4v98_s0dd31l1wsr0000gn/T//ccpVz2vH.s 			page 58


 455:Drivers/CMSIS/Include/cmsis_gcc.h **** }
 456:Drivers/CMSIS/Include/cmsis_gcc.h **** 
 457:Drivers/CMSIS/Include/cmsis_gcc.h **** 
 458:Drivers/CMSIS/Include/cmsis_gcc.h **** #if (defined (__ARM_FEATURE_CMSE ) && (__ARM_FEATURE_CMSE == 3))
 459:Drivers/CMSIS/Include/cmsis_gcc.h **** /**
 460:Drivers/CMSIS/Include/cmsis_gcc.h ****   \brief   Get Priority Mask (non-secure)
 461:Drivers/CMSIS/Include/cmsis_gcc.h ****   \details Returns the current state of the non-secure priority mask bit from the Priority Mask Reg
 462:Drivers/CMSIS/Include/cmsis_gcc.h ****   \return               Priority Mask value
 463:Drivers/CMSIS/Include/cmsis_gcc.h ****  */
 464:Drivers/CMSIS/Include/cmsis_gcc.h **** __STATIC_FORCEINLINE uint32_t __TZ_get_PRIMASK_NS(void)
 465:Drivers/CMSIS/Include/cmsis_gcc.h **** {
 466:Drivers/CMSIS/Include/cmsis_gcc.h ****   uint32_t result;
 467:Drivers/CMSIS/Include/cmsis_gcc.h **** 
 468:Drivers/CMSIS/Include/cmsis_gcc.h ****   __ASM volatile ("MRS %0, primask_ns" : "=r" (result) :: "memory");
 469:Drivers/CMSIS/Include/cmsis_gcc.h ****   return(result);
 470:Drivers/CMSIS/Include/cmsis_gcc.h **** }
 471:Drivers/CMSIS/Include/cmsis_gcc.h **** #endif
 472:Drivers/CMSIS/Include/cmsis_gcc.h **** 
 473:Drivers/CMSIS/Include/cmsis_gcc.h **** 
 474:Drivers/CMSIS/Include/cmsis_gcc.h **** /**
 475:Drivers/CMSIS/Include/cmsis_gcc.h ****   \brief   Set Priority Mask
 476:Drivers/CMSIS/Include/cmsis_gcc.h ****   \details Assigns the given value to the Priority Mask Register.
 477:Drivers/CMSIS/Include/cmsis_gcc.h ****   \param [in]    priMask  Priority Mask
 478:Drivers/CMSIS/Include/cmsis_gcc.h ****  */
 479:Drivers/CMSIS/Include/cmsis_gcc.h **** __STATIC_FORCEINLINE void __set_PRIMASK(uint32_t priMask)
 480:Drivers/CMSIS/Include/cmsis_gcc.h **** {
 481:Drivers/CMSIS/Include/cmsis_gcc.h ****   __ASM volatile ("MSR primask, %0" : : "r" (priMask) : "memory");
 482:Drivers/CMSIS/Include/cmsis_gcc.h **** }
 483:Drivers/CMSIS/Include/cmsis_gcc.h **** 
 484:Drivers/CMSIS/Include/cmsis_gcc.h **** 
 485:Drivers/CMSIS/Include/cmsis_gcc.h **** #if (defined (__ARM_FEATURE_CMSE ) && (__ARM_FEATURE_CMSE == 3))
 486:Drivers/CMSIS/Include/cmsis_gcc.h **** /**
 487:Drivers/CMSIS/Include/cmsis_gcc.h ****   \brief   Set Priority Mask (non-secure)
 488:Drivers/CMSIS/Include/cmsis_gcc.h ****   \details Assigns the given value to the non-secure Priority Mask Register when in secure state.
 489:Drivers/CMSIS/Include/cmsis_gcc.h ****   \param [in]    priMask  Priority Mask
 490:Drivers/CMSIS/Include/cmsis_gcc.h ****  */
 491:Drivers/CMSIS/Include/cmsis_gcc.h **** __STATIC_FORCEINLINE void __TZ_set_PRIMASK_NS(uint32_t priMask)
 492:Drivers/CMSIS/Include/cmsis_gcc.h **** {
 493:Drivers/CMSIS/Include/cmsis_gcc.h ****   __ASM volatile ("MSR primask_ns, %0" : : "r" (priMask) : "memory");
 494:Drivers/CMSIS/Include/cmsis_gcc.h **** }
 495:Drivers/CMSIS/Include/cmsis_gcc.h **** #endif
 496:Drivers/CMSIS/Include/cmsis_gcc.h **** 
 497:Drivers/CMSIS/Include/cmsis_gcc.h **** 
 498:Drivers/CMSIS/Include/cmsis_gcc.h **** #if ((defined (__ARM_ARCH_7M__      ) && (__ARM_ARCH_7M__      == 1)) || \
 499:Drivers/CMSIS/Include/cmsis_gcc.h ****      (defined (__ARM_ARCH_7EM__     ) && (__ARM_ARCH_7EM__     == 1)) || \
 500:Drivers/CMSIS/Include/cmsis_gcc.h ****      (defined (__ARM_ARCH_8M_MAIN__ ) && (__ARM_ARCH_8M_MAIN__ == 1))    )
 501:Drivers/CMSIS/Include/cmsis_gcc.h **** /**
 502:Drivers/CMSIS/Include/cmsis_gcc.h ****   \brief   Enable FIQ
 503:Drivers/CMSIS/Include/cmsis_gcc.h ****   \details Enables FIQ interrupts by clearing the F-bit in the CPSR.
 504:Drivers/CMSIS/Include/cmsis_gcc.h ****            Can only be executed in Privileged modes.
 505:Drivers/CMSIS/Include/cmsis_gcc.h ****  */
 506:Drivers/CMSIS/Include/cmsis_gcc.h **** __STATIC_FORCEINLINE void __enable_fault_irq(void)
 507:Drivers/CMSIS/Include/cmsis_gcc.h **** {
 508:Drivers/CMSIS/Include/cmsis_gcc.h ****   __ASM volatile ("cpsie f" : : : "memory");
 509:Drivers/CMSIS/Include/cmsis_gcc.h **** }
 510:Drivers/CMSIS/Include/cmsis_gcc.h **** 
 511:Drivers/CMSIS/Include/cmsis_gcc.h **** 
ARM GAS  /var/folders/k7/81v8fz9j4v98_s0dd31l1wsr0000gn/T//ccpVz2vH.s 			page 59


 512:Drivers/CMSIS/Include/cmsis_gcc.h **** /**
 513:Drivers/CMSIS/Include/cmsis_gcc.h ****   \brief   Disable FIQ
 514:Drivers/CMSIS/Include/cmsis_gcc.h ****   \details Disables FIQ interrupts by setting the F-bit in the CPSR.
 515:Drivers/CMSIS/Include/cmsis_gcc.h ****            Can only be executed in Privileged modes.
 516:Drivers/CMSIS/Include/cmsis_gcc.h ****  */
 517:Drivers/CMSIS/Include/cmsis_gcc.h **** __STATIC_FORCEINLINE void __disable_fault_irq(void)
 518:Drivers/CMSIS/Include/cmsis_gcc.h **** {
 519:Drivers/CMSIS/Include/cmsis_gcc.h ****   __ASM volatile ("cpsid f" : : : "memory");
 520:Drivers/CMSIS/Include/cmsis_gcc.h **** }
 521:Drivers/CMSIS/Include/cmsis_gcc.h **** 
 522:Drivers/CMSIS/Include/cmsis_gcc.h **** 
 523:Drivers/CMSIS/Include/cmsis_gcc.h **** /**
 524:Drivers/CMSIS/Include/cmsis_gcc.h ****   \brief   Get Base Priority
 525:Drivers/CMSIS/Include/cmsis_gcc.h ****   \details Returns the current value of the Base Priority register.
 526:Drivers/CMSIS/Include/cmsis_gcc.h ****   \return               Base Priority register value
 527:Drivers/CMSIS/Include/cmsis_gcc.h ****  */
 528:Drivers/CMSIS/Include/cmsis_gcc.h **** __STATIC_FORCEINLINE uint32_t __get_BASEPRI(void)
 529:Drivers/CMSIS/Include/cmsis_gcc.h **** {
 530:Drivers/CMSIS/Include/cmsis_gcc.h ****   uint32_t result;
 531:Drivers/CMSIS/Include/cmsis_gcc.h **** 
 532:Drivers/CMSIS/Include/cmsis_gcc.h ****   __ASM volatile ("MRS %0, basepri" : "=r" (result) );
 533:Drivers/CMSIS/Include/cmsis_gcc.h ****   return(result);
 534:Drivers/CMSIS/Include/cmsis_gcc.h **** }
 535:Drivers/CMSIS/Include/cmsis_gcc.h **** 
 536:Drivers/CMSIS/Include/cmsis_gcc.h **** 
 537:Drivers/CMSIS/Include/cmsis_gcc.h **** #if (defined (__ARM_FEATURE_CMSE ) && (__ARM_FEATURE_CMSE == 3))
 538:Drivers/CMSIS/Include/cmsis_gcc.h **** /**
 539:Drivers/CMSIS/Include/cmsis_gcc.h ****   \brief   Get Base Priority (non-secure)
 540:Drivers/CMSIS/Include/cmsis_gcc.h ****   \details Returns the current value of the non-secure Base Priority register when in secure state.
 541:Drivers/CMSIS/Include/cmsis_gcc.h ****   \return               Base Priority register value
 542:Drivers/CMSIS/Include/cmsis_gcc.h ****  */
 543:Drivers/CMSIS/Include/cmsis_gcc.h **** __STATIC_FORCEINLINE uint32_t __TZ_get_BASEPRI_NS(void)
 544:Drivers/CMSIS/Include/cmsis_gcc.h **** {
 545:Drivers/CMSIS/Include/cmsis_gcc.h ****   uint32_t result;
 546:Drivers/CMSIS/Include/cmsis_gcc.h **** 
 547:Drivers/CMSIS/Include/cmsis_gcc.h ****   __ASM volatile ("MRS %0, basepri_ns" : "=r" (result) );
 548:Drivers/CMSIS/Include/cmsis_gcc.h ****   return(result);
 549:Drivers/CMSIS/Include/cmsis_gcc.h **** }
 550:Drivers/CMSIS/Include/cmsis_gcc.h **** #endif
 551:Drivers/CMSIS/Include/cmsis_gcc.h **** 
 552:Drivers/CMSIS/Include/cmsis_gcc.h **** 
 553:Drivers/CMSIS/Include/cmsis_gcc.h **** /**
 554:Drivers/CMSIS/Include/cmsis_gcc.h ****   \brief   Set Base Priority
 555:Drivers/CMSIS/Include/cmsis_gcc.h ****   \details Assigns the given value to the Base Priority register.
 556:Drivers/CMSIS/Include/cmsis_gcc.h ****   \param [in]    basePri  Base Priority value to set
 557:Drivers/CMSIS/Include/cmsis_gcc.h ****  */
 558:Drivers/CMSIS/Include/cmsis_gcc.h **** __STATIC_FORCEINLINE void __set_BASEPRI(uint32_t basePri)
 559:Drivers/CMSIS/Include/cmsis_gcc.h **** {
 560:Drivers/CMSIS/Include/cmsis_gcc.h ****   __ASM volatile ("MSR basepri, %0" : : "r" (basePri) : "memory");
 561:Drivers/CMSIS/Include/cmsis_gcc.h **** }
 562:Drivers/CMSIS/Include/cmsis_gcc.h **** 
 563:Drivers/CMSIS/Include/cmsis_gcc.h **** 
 564:Drivers/CMSIS/Include/cmsis_gcc.h **** #if (defined (__ARM_FEATURE_CMSE ) && (__ARM_FEATURE_CMSE == 3))
 565:Drivers/CMSIS/Include/cmsis_gcc.h **** /**
 566:Drivers/CMSIS/Include/cmsis_gcc.h ****   \brief   Set Base Priority (non-secure)
 567:Drivers/CMSIS/Include/cmsis_gcc.h ****   \details Assigns the given value to the non-secure Base Priority register when in secure state.
 568:Drivers/CMSIS/Include/cmsis_gcc.h ****   \param [in]    basePri  Base Priority value to set
ARM GAS  /var/folders/k7/81v8fz9j4v98_s0dd31l1wsr0000gn/T//ccpVz2vH.s 			page 60


 569:Drivers/CMSIS/Include/cmsis_gcc.h ****  */
 570:Drivers/CMSIS/Include/cmsis_gcc.h **** __STATIC_FORCEINLINE void __TZ_set_BASEPRI_NS(uint32_t basePri)
 571:Drivers/CMSIS/Include/cmsis_gcc.h **** {
 572:Drivers/CMSIS/Include/cmsis_gcc.h ****   __ASM volatile ("MSR basepri_ns, %0" : : "r" (basePri) : "memory");
 573:Drivers/CMSIS/Include/cmsis_gcc.h **** }
 574:Drivers/CMSIS/Include/cmsis_gcc.h **** #endif
 575:Drivers/CMSIS/Include/cmsis_gcc.h **** 
 576:Drivers/CMSIS/Include/cmsis_gcc.h **** 
 577:Drivers/CMSIS/Include/cmsis_gcc.h **** /**
 578:Drivers/CMSIS/Include/cmsis_gcc.h ****   \brief   Set Base Priority with condition
 579:Drivers/CMSIS/Include/cmsis_gcc.h ****   \details Assigns the given value to the Base Priority register only if BASEPRI masking is disable
 580:Drivers/CMSIS/Include/cmsis_gcc.h ****            or the new value increases the BASEPRI priority level.
 581:Drivers/CMSIS/Include/cmsis_gcc.h ****   \param [in]    basePri  Base Priority value to set
 582:Drivers/CMSIS/Include/cmsis_gcc.h ****  */
 583:Drivers/CMSIS/Include/cmsis_gcc.h **** __STATIC_FORCEINLINE void __set_BASEPRI_MAX(uint32_t basePri)
 584:Drivers/CMSIS/Include/cmsis_gcc.h **** {
 585:Drivers/CMSIS/Include/cmsis_gcc.h ****   __ASM volatile ("MSR basepri_max, %0" : : "r" (basePri) : "memory");
 586:Drivers/CMSIS/Include/cmsis_gcc.h **** }
 587:Drivers/CMSIS/Include/cmsis_gcc.h **** 
 588:Drivers/CMSIS/Include/cmsis_gcc.h **** 
 589:Drivers/CMSIS/Include/cmsis_gcc.h **** /**
 590:Drivers/CMSIS/Include/cmsis_gcc.h ****   \brief   Get Fault Mask
 591:Drivers/CMSIS/Include/cmsis_gcc.h ****   \details Returns the current value of the Fault Mask register.
 592:Drivers/CMSIS/Include/cmsis_gcc.h ****   \return               Fault Mask register value
 593:Drivers/CMSIS/Include/cmsis_gcc.h ****  */
 594:Drivers/CMSIS/Include/cmsis_gcc.h **** __STATIC_FORCEINLINE uint32_t __get_FAULTMASK(void)
 595:Drivers/CMSIS/Include/cmsis_gcc.h **** {
 596:Drivers/CMSIS/Include/cmsis_gcc.h ****   uint32_t result;
 597:Drivers/CMSIS/Include/cmsis_gcc.h **** 
 598:Drivers/CMSIS/Include/cmsis_gcc.h ****   __ASM volatile ("MRS %0, faultmask" : "=r" (result) );
 599:Drivers/CMSIS/Include/cmsis_gcc.h ****   return(result);
 600:Drivers/CMSIS/Include/cmsis_gcc.h **** }
 601:Drivers/CMSIS/Include/cmsis_gcc.h **** 
 602:Drivers/CMSIS/Include/cmsis_gcc.h **** 
 603:Drivers/CMSIS/Include/cmsis_gcc.h **** #if (defined (__ARM_FEATURE_CMSE ) && (__ARM_FEATURE_CMSE == 3))
 604:Drivers/CMSIS/Include/cmsis_gcc.h **** /**
 605:Drivers/CMSIS/Include/cmsis_gcc.h ****   \brief   Get Fault Mask (non-secure)
 606:Drivers/CMSIS/Include/cmsis_gcc.h ****   \details Returns the current value of the non-secure Fault Mask register when in secure state.
 607:Drivers/CMSIS/Include/cmsis_gcc.h ****   \return               Fault Mask register value
 608:Drivers/CMSIS/Include/cmsis_gcc.h ****  */
 609:Drivers/CMSIS/Include/cmsis_gcc.h **** __STATIC_FORCEINLINE uint32_t __TZ_get_FAULTMASK_NS(void)
 610:Drivers/CMSIS/Include/cmsis_gcc.h **** {
 611:Drivers/CMSIS/Include/cmsis_gcc.h ****   uint32_t result;
 612:Drivers/CMSIS/Include/cmsis_gcc.h **** 
 613:Drivers/CMSIS/Include/cmsis_gcc.h ****   __ASM volatile ("MRS %0, faultmask_ns" : "=r" (result) );
 614:Drivers/CMSIS/Include/cmsis_gcc.h ****   return(result);
 615:Drivers/CMSIS/Include/cmsis_gcc.h **** }
 616:Drivers/CMSIS/Include/cmsis_gcc.h **** #endif
 617:Drivers/CMSIS/Include/cmsis_gcc.h **** 
 618:Drivers/CMSIS/Include/cmsis_gcc.h **** 
 619:Drivers/CMSIS/Include/cmsis_gcc.h **** /**
 620:Drivers/CMSIS/Include/cmsis_gcc.h ****   \brief   Set Fault Mask
 621:Drivers/CMSIS/Include/cmsis_gcc.h ****   \details Assigns the given value to the Fault Mask register.
 622:Drivers/CMSIS/Include/cmsis_gcc.h ****   \param [in]    faultMask  Fault Mask value to set
 623:Drivers/CMSIS/Include/cmsis_gcc.h ****  */
 624:Drivers/CMSIS/Include/cmsis_gcc.h **** __STATIC_FORCEINLINE void __set_FAULTMASK(uint32_t faultMask)
 625:Drivers/CMSIS/Include/cmsis_gcc.h **** {
ARM GAS  /var/folders/k7/81v8fz9j4v98_s0dd31l1wsr0000gn/T//ccpVz2vH.s 			page 61


 626:Drivers/CMSIS/Include/cmsis_gcc.h ****   __ASM volatile ("MSR faultmask, %0" : : "r" (faultMask) : "memory");
 627:Drivers/CMSIS/Include/cmsis_gcc.h **** }
 628:Drivers/CMSIS/Include/cmsis_gcc.h **** 
 629:Drivers/CMSIS/Include/cmsis_gcc.h **** 
 630:Drivers/CMSIS/Include/cmsis_gcc.h **** #if (defined (__ARM_FEATURE_CMSE ) && (__ARM_FEATURE_CMSE == 3))
 631:Drivers/CMSIS/Include/cmsis_gcc.h **** /**
 632:Drivers/CMSIS/Include/cmsis_gcc.h ****   \brief   Set Fault Mask (non-secure)
 633:Drivers/CMSIS/Include/cmsis_gcc.h ****   \details Assigns the given value to the non-secure Fault Mask register when in secure state.
 634:Drivers/CMSIS/Include/cmsis_gcc.h ****   \param [in]    faultMask  Fault Mask value to set
 635:Drivers/CMSIS/Include/cmsis_gcc.h ****  */
 636:Drivers/CMSIS/Include/cmsis_gcc.h **** __STATIC_FORCEINLINE void __TZ_set_FAULTMASK_NS(uint32_t faultMask)
 637:Drivers/CMSIS/Include/cmsis_gcc.h **** {
 638:Drivers/CMSIS/Include/cmsis_gcc.h ****   __ASM volatile ("MSR faultmask_ns, %0" : : "r" (faultMask) : "memory");
 639:Drivers/CMSIS/Include/cmsis_gcc.h **** }
 640:Drivers/CMSIS/Include/cmsis_gcc.h **** #endif
 641:Drivers/CMSIS/Include/cmsis_gcc.h **** 
 642:Drivers/CMSIS/Include/cmsis_gcc.h **** #endif /* ((defined (__ARM_ARCH_7M__      ) && (__ARM_ARCH_7M__      == 1)) || \
 643:Drivers/CMSIS/Include/cmsis_gcc.h ****            (defined (__ARM_ARCH_7EM__     ) && (__ARM_ARCH_7EM__     == 1)) || \
 644:Drivers/CMSIS/Include/cmsis_gcc.h ****            (defined (__ARM_ARCH_8M_MAIN__ ) && (__ARM_ARCH_8M_MAIN__ == 1))    ) */
 645:Drivers/CMSIS/Include/cmsis_gcc.h **** 
 646:Drivers/CMSIS/Include/cmsis_gcc.h **** 
 647:Drivers/CMSIS/Include/cmsis_gcc.h **** #if ((defined (__ARM_ARCH_8M_MAIN__ ) && (__ARM_ARCH_8M_MAIN__ == 1)) || \
 648:Drivers/CMSIS/Include/cmsis_gcc.h ****      (defined (__ARM_ARCH_8M_BASE__ ) && (__ARM_ARCH_8M_BASE__ == 1))    )
 649:Drivers/CMSIS/Include/cmsis_gcc.h **** 
 650:Drivers/CMSIS/Include/cmsis_gcc.h **** /**
 651:Drivers/CMSIS/Include/cmsis_gcc.h ****   \brief   Get Process Stack Pointer Limit
 652:Drivers/CMSIS/Include/cmsis_gcc.h ****   Devices without ARMv8-M Main Extensions (i.e. Cortex-M23) lack the non-secure
 653:Drivers/CMSIS/Include/cmsis_gcc.h ****   Stack Pointer Limit register hence zero is returned always in non-secure
 654:Drivers/CMSIS/Include/cmsis_gcc.h ****   mode.
 655:Drivers/CMSIS/Include/cmsis_gcc.h ****   
 656:Drivers/CMSIS/Include/cmsis_gcc.h ****   \details Returns the current value of the Process Stack Pointer Limit (PSPLIM).
 657:Drivers/CMSIS/Include/cmsis_gcc.h ****   \return               PSPLIM Register value
 658:Drivers/CMSIS/Include/cmsis_gcc.h ****  */
 659:Drivers/CMSIS/Include/cmsis_gcc.h **** __STATIC_FORCEINLINE uint32_t __get_PSPLIM(void)
 660:Drivers/CMSIS/Include/cmsis_gcc.h **** {
 661:Drivers/CMSIS/Include/cmsis_gcc.h **** #if (!(defined (__ARM_ARCH_8M_MAIN__ ) && (__ARM_ARCH_8M_MAIN__ == 1)) && \
 662:Drivers/CMSIS/Include/cmsis_gcc.h ****     (!defined (__ARM_FEATURE_CMSE) || (__ARM_FEATURE_CMSE < 3)))
 663:Drivers/CMSIS/Include/cmsis_gcc.h ****     // without main extensions, the non-secure PSPLIM is RAZ/WI
 664:Drivers/CMSIS/Include/cmsis_gcc.h ****   return 0U;
 665:Drivers/CMSIS/Include/cmsis_gcc.h **** #else
 666:Drivers/CMSIS/Include/cmsis_gcc.h ****   uint32_t result;
 667:Drivers/CMSIS/Include/cmsis_gcc.h ****   __ASM volatile ("MRS %0, psplim"  : "=r" (result) );
 668:Drivers/CMSIS/Include/cmsis_gcc.h ****   return result;
 669:Drivers/CMSIS/Include/cmsis_gcc.h **** #endif
 670:Drivers/CMSIS/Include/cmsis_gcc.h **** }
 671:Drivers/CMSIS/Include/cmsis_gcc.h **** 
 672:Drivers/CMSIS/Include/cmsis_gcc.h **** #if (defined (__ARM_FEATURE_CMSE) && (__ARM_FEATURE_CMSE == 3))
 673:Drivers/CMSIS/Include/cmsis_gcc.h **** /**
 674:Drivers/CMSIS/Include/cmsis_gcc.h ****   \brief   Get Process Stack Pointer Limit (non-secure)
 675:Drivers/CMSIS/Include/cmsis_gcc.h ****   Devices without ARMv8-M Main Extensions (i.e. Cortex-M23) lack the non-secure
 676:Drivers/CMSIS/Include/cmsis_gcc.h ****   Stack Pointer Limit register hence zero is returned always.
 677:Drivers/CMSIS/Include/cmsis_gcc.h **** 
 678:Drivers/CMSIS/Include/cmsis_gcc.h ****   \details Returns the current value of the non-secure Process Stack Pointer Limit (PSPLIM) when in
 679:Drivers/CMSIS/Include/cmsis_gcc.h ****   \return               PSPLIM Register value
 680:Drivers/CMSIS/Include/cmsis_gcc.h ****  */
 681:Drivers/CMSIS/Include/cmsis_gcc.h **** __STATIC_FORCEINLINE uint32_t __TZ_get_PSPLIM_NS(void)
 682:Drivers/CMSIS/Include/cmsis_gcc.h **** {
ARM GAS  /var/folders/k7/81v8fz9j4v98_s0dd31l1wsr0000gn/T//ccpVz2vH.s 			page 62


 683:Drivers/CMSIS/Include/cmsis_gcc.h **** #if (!(defined (__ARM_ARCH_8M_MAIN__ ) && (__ARM_ARCH_8M_MAIN__ == 1)))
 684:Drivers/CMSIS/Include/cmsis_gcc.h ****   // without main extensions, the non-secure PSPLIM is RAZ/WI
 685:Drivers/CMSIS/Include/cmsis_gcc.h ****   return 0U;
 686:Drivers/CMSIS/Include/cmsis_gcc.h **** #else
 687:Drivers/CMSIS/Include/cmsis_gcc.h ****   uint32_t result;
 688:Drivers/CMSIS/Include/cmsis_gcc.h ****   __ASM volatile ("MRS %0, psplim_ns"  : "=r" (result) );
 689:Drivers/CMSIS/Include/cmsis_gcc.h ****   return result;
 690:Drivers/CMSIS/Include/cmsis_gcc.h **** #endif
 691:Drivers/CMSIS/Include/cmsis_gcc.h **** }
 692:Drivers/CMSIS/Include/cmsis_gcc.h **** #endif
 693:Drivers/CMSIS/Include/cmsis_gcc.h **** 
 694:Drivers/CMSIS/Include/cmsis_gcc.h **** 
 695:Drivers/CMSIS/Include/cmsis_gcc.h **** /**
 696:Drivers/CMSIS/Include/cmsis_gcc.h ****   \brief   Set Process Stack Pointer Limit
 697:Drivers/CMSIS/Include/cmsis_gcc.h ****   Devices without ARMv8-M Main Extensions (i.e. Cortex-M23) lack the non-secure
 698:Drivers/CMSIS/Include/cmsis_gcc.h ****   Stack Pointer Limit register hence the write is silently ignored in non-secure
 699:Drivers/CMSIS/Include/cmsis_gcc.h ****   mode.
 700:Drivers/CMSIS/Include/cmsis_gcc.h ****   
 701:Drivers/CMSIS/Include/cmsis_gcc.h ****   \details Assigns the given value to the Process Stack Pointer Limit (PSPLIM).
 702:Drivers/CMSIS/Include/cmsis_gcc.h ****   \param [in]    ProcStackPtrLimit  Process Stack Pointer Limit value to set
 703:Drivers/CMSIS/Include/cmsis_gcc.h ****  */
 704:Drivers/CMSIS/Include/cmsis_gcc.h **** __STATIC_FORCEINLINE void __set_PSPLIM(uint32_t ProcStackPtrLimit)
 705:Drivers/CMSIS/Include/cmsis_gcc.h **** {
 706:Drivers/CMSIS/Include/cmsis_gcc.h **** #if (!(defined (__ARM_ARCH_8M_MAIN__ ) && (__ARM_ARCH_8M_MAIN__ == 1)) && \
 707:Drivers/CMSIS/Include/cmsis_gcc.h ****     (!defined (__ARM_FEATURE_CMSE) || (__ARM_FEATURE_CMSE < 3)))
 708:Drivers/CMSIS/Include/cmsis_gcc.h ****   // without main extensions, the non-secure PSPLIM is RAZ/WI
 709:Drivers/CMSIS/Include/cmsis_gcc.h ****   (void)ProcStackPtrLimit;
 710:Drivers/CMSIS/Include/cmsis_gcc.h **** #else
 711:Drivers/CMSIS/Include/cmsis_gcc.h ****   __ASM volatile ("MSR psplim, %0" : : "r" (ProcStackPtrLimit));
 712:Drivers/CMSIS/Include/cmsis_gcc.h **** #endif
 713:Drivers/CMSIS/Include/cmsis_gcc.h **** }
 714:Drivers/CMSIS/Include/cmsis_gcc.h **** 
 715:Drivers/CMSIS/Include/cmsis_gcc.h **** 
 716:Drivers/CMSIS/Include/cmsis_gcc.h **** #if (defined (__ARM_FEATURE_CMSE  ) && (__ARM_FEATURE_CMSE   == 3))
 717:Drivers/CMSIS/Include/cmsis_gcc.h **** /**
 718:Drivers/CMSIS/Include/cmsis_gcc.h ****   \brief   Set Process Stack Pointer (non-secure)
 719:Drivers/CMSIS/Include/cmsis_gcc.h ****   Devices without ARMv8-M Main Extensions (i.e. Cortex-M23) lack the non-secure
 720:Drivers/CMSIS/Include/cmsis_gcc.h ****   Stack Pointer Limit register hence the write is silently ignored.
 721:Drivers/CMSIS/Include/cmsis_gcc.h **** 
 722:Drivers/CMSIS/Include/cmsis_gcc.h ****   \details Assigns the given value to the non-secure Process Stack Pointer Limit (PSPLIM) when in s
 723:Drivers/CMSIS/Include/cmsis_gcc.h ****   \param [in]    ProcStackPtrLimit  Process Stack Pointer Limit value to set
 724:Drivers/CMSIS/Include/cmsis_gcc.h ****  */
 725:Drivers/CMSIS/Include/cmsis_gcc.h **** __STATIC_FORCEINLINE void __TZ_set_PSPLIM_NS(uint32_t ProcStackPtrLimit)
 726:Drivers/CMSIS/Include/cmsis_gcc.h **** {
 727:Drivers/CMSIS/Include/cmsis_gcc.h **** #if (!(defined (__ARM_ARCH_8M_MAIN__ ) && (__ARM_ARCH_8M_MAIN__ == 1)))
 728:Drivers/CMSIS/Include/cmsis_gcc.h ****   // without main extensions, the non-secure PSPLIM is RAZ/WI
 729:Drivers/CMSIS/Include/cmsis_gcc.h ****   (void)ProcStackPtrLimit;
 730:Drivers/CMSIS/Include/cmsis_gcc.h **** #else
 731:Drivers/CMSIS/Include/cmsis_gcc.h ****   __ASM volatile ("MSR psplim_ns, %0\n" : : "r" (ProcStackPtrLimit));
 732:Drivers/CMSIS/Include/cmsis_gcc.h **** #endif
 733:Drivers/CMSIS/Include/cmsis_gcc.h **** }
 734:Drivers/CMSIS/Include/cmsis_gcc.h **** #endif
 735:Drivers/CMSIS/Include/cmsis_gcc.h **** 
 736:Drivers/CMSIS/Include/cmsis_gcc.h **** 
 737:Drivers/CMSIS/Include/cmsis_gcc.h **** /**
 738:Drivers/CMSIS/Include/cmsis_gcc.h ****   \brief   Get Main Stack Pointer Limit
 739:Drivers/CMSIS/Include/cmsis_gcc.h ****   Devices without ARMv8-M Main Extensions (i.e. Cortex-M23) lack the non-secure
ARM GAS  /var/folders/k7/81v8fz9j4v98_s0dd31l1wsr0000gn/T//ccpVz2vH.s 			page 63


 740:Drivers/CMSIS/Include/cmsis_gcc.h ****   Stack Pointer Limit register hence zero is returned always in non-secure
 741:Drivers/CMSIS/Include/cmsis_gcc.h ****   mode.
 742:Drivers/CMSIS/Include/cmsis_gcc.h **** 
 743:Drivers/CMSIS/Include/cmsis_gcc.h ****   \details Returns the current value of the Main Stack Pointer Limit (MSPLIM).
 744:Drivers/CMSIS/Include/cmsis_gcc.h ****   \return               MSPLIM Register value
 745:Drivers/CMSIS/Include/cmsis_gcc.h ****  */
 746:Drivers/CMSIS/Include/cmsis_gcc.h **** __STATIC_FORCEINLINE uint32_t __get_MSPLIM(void)
 747:Drivers/CMSIS/Include/cmsis_gcc.h **** {
 748:Drivers/CMSIS/Include/cmsis_gcc.h **** #if (!(defined (__ARM_ARCH_8M_MAIN__ ) && (__ARM_ARCH_8M_MAIN__ == 1)) && \
 749:Drivers/CMSIS/Include/cmsis_gcc.h ****     (!defined (__ARM_FEATURE_CMSE) || (__ARM_FEATURE_CMSE < 3)))
 750:Drivers/CMSIS/Include/cmsis_gcc.h ****   // without main extensions, the non-secure MSPLIM is RAZ/WI
 751:Drivers/CMSIS/Include/cmsis_gcc.h ****   return 0U;
 752:Drivers/CMSIS/Include/cmsis_gcc.h **** #else
 753:Drivers/CMSIS/Include/cmsis_gcc.h ****   uint32_t result;
