ARM GAS  /var/folders/k7/81v8fz9j4v98_s0dd31l1wsr0000gn/T//ccOmWjNm.s 			page 1


   1              		.cpu cortex-m4
   2              		.eabi_attribute 27, 1
   3              		.eabi_attribute 28, 1
   4              		.eabi_attribute 20, 1
   5              		.eabi_attribute 21, 1
   6              		.eabi_attribute 23, 3
   7              		.eabi_attribute 24, 1
   8              		.eabi_attribute 25, 1
   9              		.eabi_attribute 26, 1
  10              		.eabi_attribute 30, 6
  11              		.eabi_attribute 34, 1
  12              		.eabi_attribute 18, 4
  13              		.file	"usart.c"
  14              		.text
  15              	.Ltext0:
  16              		.cfi_sections	.debug_frame
  17              		.comm	huart4,132,4
  18              		.comm	huart2,132,4
  19              		.comm	hdma_usart2_rx,72,4
  20              		.comm	hdma_usart2_tx,72,4
  21              		.section	.text.MX_UART4_Init,"ax",%progbits
  22              		.align	1
  23              		.global	MX_UART4_Init
  24              		.arch armv7e-m
  25              		.syntax unified
  26              		.thumb
  27              		.thumb_func
  28              		.fpu fpv4-sp-d16
  30              	MX_UART4_Init:
  31              	.LFB292:
  32              		.file 1 "Src/usart.c"
   1:Src/usart.c   **** /* USER CODE BEGIN Header */
   2:Src/usart.c   **** /**
   3:Src/usart.c   ****   ******************************************************************************
   4:Src/usart.c   ****   * @file    usart.c
   5:Src/usart.c   ****   * @brief   This file provides code for the configuration
   6:Src/usart.c   ****   *          of the USART instances.
   7:Src/usart.c   ****   ******************************************************************************
   8:Src/usart.c   ****   * @attention
   9:Src/usart.c   ****   *
  10:Src/usart.c   ****   * Copyright (c) 2022 STMicroelectronics.
  11:Src/usart.c   ****   * All rights reserved.
  12:Src/usart.c   ****   *
  13:Src/usart.c   ****   * This software is licensed under terms that can be found in the LICENSE file
  14:Src/usart.c   ****   * in the root directory of this software component.
  15:Src/usart.c   ****   * If no LICENSE file comes with this software, it is provided AS-IS.
  16:Src/usart.c   ****   *
  17:Src/usart.c   ****   ******************************************************************************
  18:Src/usart.c   ****   */
  19:Src/usart.c   **** /* USER CODE END Header */
  20:Src/usart.c   **** /* Includes ------------------------------------------------------------------*/
  21:Src/usart.c   **** #include "usart.h"
  22:Src/usart.c   **** 
  23:Src/usart.c   **** /* USER CODE BEGIN 0 */
  24:Src/usart.c   **** 
  25:Src/usart.c   **** /* USER CODE END 0 */
  26:Src/usart.c   **** 
ARM GAS  /var/folders/k7/81v8fz9j4v98_s0dd31l1wsr0000gn/T//ccOmWjNm.s 			page 2


  27:Src/usart.c   **** UART_HandleTypeDef huart4;
  28:Src/usart.c   **** UART_HandleTypeDef huart2;
  29:Src/usart.c   **** DMA_HandleTypeDef hdma_usart2_rx;
  30:Src/usart.c   **** DMA_HandleTypeDef hdma_usart2_tx;
  31:Src/usart.c   **** 
  32:Src/usart.c   **** /* UART4 init function */
  33:Src/usart.c   **** void MX_UART4_Init(void)
  34:Src/usart.c   **** {
  33              		.loc 1 34 1
  34              		.cfi_startproc
  35              		@ args = 0, pretend = 0, frame = 0
  36              		@ frame_needed = 1, uses_anonymous_args = 0
  37 0000 80B5     		push	{r7, lr}
  38              	.LCFI0:
  39              		.cfi_def_cfa_offset 8
  40              		.cfi_offset 7, -8
  41              		.cfi_offset 14, -4
  42 0002 00AF     		add	r7, sp, #0
  43              	.LCFI1:
  44              		.cfi_def_cfa_register 7
  35:Src/usart.c   **** 
  36:Src/usart.c   ****   /* USER CODE BEGIN UART4_Init 0 */
  37:Src/usart.c   **** 
  38:Src/usart.c   ****   /* USER CODE END UART4_Init 0 */
  39:Src/usart.c   **** 
  40:Src/usart.c   ****   /* USER CODE BEGIN UART4_Init 1 */
  41:Src/usart.c   **** 
  42:Src/usart.c   ****   /* USER CODE END UART4_Init 1 */
  43:Src/usart.c   ****   huart4.Instance = UART4;
  45              		.loc 1 43 19
  46 0004 144B     		ldr	r3, .L4
  47 0006 154A     		ldr	r2, .L4+4
  48 0008 1A60     		str	r2, [r3]
  44:Src/usart.c   ****   huart4.Init.BaudRate = 115200;
  49              		.loc 1 44 24
  50 000a 134B     		ldr	r3, .L4
  51 000c 4FF4E132 		mov	r2, #115200
  52 0010 5A60     		str	r2, [r3, #4]
  45:Src/usart.c   ****   huart4.Init.WordLength = UART_WORDLENGTH_8B;
  53              		.loc 1 45 26
  54 0012 114B     		ldr	r3, .L4
  55 0014 0022     		movs	r2, #0
  56 0016 9A60     		str	r2, [r3, #8]
  46:Src/usart.c   ****   huart4.Init.StopBits = UART_STOPBITS_1;
  57              		.loc 1 46 24
  58 0018 0F4B     		ldr	r3, .L4
  59 001a 0022     		movs	r2, #0
  60 001c DA60     		str	r2, [r3, #12]
  47:Src/usart.c   ****   huart4.Init.Parity = UART_PARITY_NONE;
  61              		.loc 1 47 22
  62 001e 0E4B     		ldr	r3, .L4
  63 0020 0022     		movs	r2, #0
  64 0022 1A61     		str	r2, [r3, #16]
  48:Src/usart.c   ****   huart4.Init.Mode = UART_MODE_TX_RX;
  65              		.loc 1 48 20
  66 0024 0C4B     		ldr	r3, .L4
  67 0026 0C22     		movs	r2, #12
ARM GAS  /var/folders/k7/81v8fz9j4v98_s0dd31l1wsr0000gn/T//ccOmWjNm.s 			page 3


  68 0028 5A61     		str	r2, [r3, #20]
  49:Src/usart.c   ****   huart4.Init.HwFlowCtl = UART_HWCONTROL_NONE;
  69              		.loc 1 49 25
  70 002a 0B4B     		ldr	r3, .L4
  71 002c 0022     		movs	r2, #0
  72 002e 9A61     		str	r2, [r3, #24]
  50:Src/usart.c   ****   huart4.Init.OverSampling = UART_OVERSAMPLING_16;
  73              		.loc 1 50 28
  74 0030 094B     		ldr	r3, .L4
  75 0032 0022     		movs	r2, #0
  76 0034 DA61     		str	r2, [r3, #28]
  51:Src/usart.c   ****   huart4.Init.OneBitSampling = UART_ONE_BIT_SAMPLE_DISABLE;
  77              		.loc 1 51 30
  78 0036 084B     		ldr	r3, .L4
  79 0038 0022     		movs	r2, #0
  80 003a 1A62     		str	r2, [r3, #32]
  52:Src/usart.c   ****   huart4.AdvancedInit.AdvFeatureInit = UART_ADVFEATURE_NO_INIT;
  81              		.loc 1 52 38
  82 003c 064B     		ldr	r3, .L4
  83 003e 0022     		movs	r2, #0
  84 0040 5A62     		str	r2, [r3, #36]
  53:Src/usart.c   ****   if (HAL_UART_Init(&huart4) != HAL_OK)
  85              		.loc 1 53 7
  86 0042 0548     		ldr	r0, .L4
  87 0044 FFF7FEFF 		bl	HAL_UART_Init
  88 0048 0346     		mov	r3, r0
  89              		.loc 1 53 6
  90 004a 002B     		cmp	r3, #0
  91 004c 01D0     		beq	.L3
  54:Src/usart.c   ****   {
  55:Src/usart.c   ****     Error_Handler();
  92              		.loc 1 55 5
  93 004e FFF7FEFF 		bl	Error_Handler
  94              	.L3:
  56:Src/usart.c   ****   }
  57:Src/usart.c   ****   /* USER CODE BEGIN UART4_Init 2 */
  58:Src/usart.c   **** 
  59:Src/usart.c   ****   /* USER CODE END UART4_Init 2 */
  60:Src/usart.c   **** 
  61:Src/usart.c   **** }
  95              		.loc 1 61 1
  96 0052 00BF     		nop
  97 0054 80BD     		pop	{r7, pc}
  98              	.L5:
  99 0056 00BF     		.align	2
 100              	.L4:
 101 0058 00000000 		.word	huart4
 102 005c 004C0040 		.word	1073761280
 103              		.cfi_endproc
 104              	.LFE292:
 106              		.section	.text.MX_USART2_UART_Init,"ax",%progbits
 107              		.align	1
 108              		.global	MX_USART2_UART_Init
 109              		.syntax unified
 110              		.thumb
 111              		.thumb_func
 112              		.fpu fpv4-sp-d16
ARM GAS  /var/folders/k7/81v8fz9j4v98_s0dd31l1wsr0000gn/T//ccOmWjNm.s 			page 4


 114              	MX_USART2_UART_Init:
 115              	.LFB293:
  62:Src/usart.c   **** /* USART2 init function */
  63:Src/usart.c   **** 
  64:Src/usart.c   **** void MX_USART2_UART_Init(void)
  65:Src/usart.c   **** {
 116              		.loc 1 65 1
 117              		.cfi_startproc
 118              		@ args = 0, pretend = 0, frame = 0
 119              		@ frame_needed = 1, uses_anonymous_args = 0
 120 0000 80B5     		push	{r7, lr}
 121              	.LCFI2:
 122              		.cfi_def_cfa_offset 8
 123              		.cfi_offset 7, -8
 124              		.cfi_offset 14, -4
 125 0002 00AF     		add	r7, sp, #0
 126              	.LCFI3:
 127              		.cfi_def_cfa_register 7
  66:Src/usart.c   **** 
  67:Src/usart.c   ****   /* USER CODE BEGIN USART2_Init 0 */
  68:Src/usart.c   **** 
  69:Src/usart.c   ****   /* USER CODE END USART2_Init 0 */
  70:Src/usart.c   **** 
  71:Src/usart.c   ****   /* USER CODE BEGIN USART2_Init 1 */
  72:Src/usart.c   **** 
  73:Src/usart.c   ****   /* USER CODE END USART2_Init 1 */
  74:Src/usart.c   ****   huart2.Instance = USART2;
 128              		.loc 1 74 19
 129 0004 144B     		ldr	r3, .L9
 130 0006 154A     		ldr	r2, .L9+4
 131 0008 1A60     		str	r2, [r3]
  75:Src/usart.c   ****   huart2.Init.BaudRate = 115200;
 132              		.loc 1 75 24
 133 000a 134B     		ldr	r3, .L9
 134 000c 4FF4E132 		mov	r2, #115200
 135 0010 5A60     		str	r2, [r3, #4]
  76:Src/usart.c   ****   huart2.Init.WordLength = UART_WORDLENGTH_8B;
 136              		.loc 1 76 26
 137 0012 114B     		ldr	r3, .L9
 138 0014 0022     		movs	r2, #0
 139 0016 9A60     		str	r2, [r3, #8]
  77:Src/usart.c   ****   huart2.Init.StopBits = UART_STOPBITS_1;
 140              		.loc 1 77 24
 141 0018 0F4B     		ldr	r3, .L9
 142 001a 0022     		movs	r2, #0
 143 001c DA60     		str	r2, [r3, #12]
  78:Src/usart.c   ****   huart2.Init.Parity = UART_PARITY_NONE;
 144              		.loc 1 78 22
 145 001e 0E4B     		ldr	r3, .L9
 146 0020 0022     		movs	r2, #0
 147 0022 1A61     		str	r2, [r3, #16]
  79:Src/usart.c   ****   huart2.Init.Mode = UART_MODE_TX_RX;
 148              		.loc 1 79 20
 149 0024 0C4B     		ldr	r3, .L9
 150 0026 0C22     		movs	r2, #12
 151 0028 5A61     		str	r2, [r3, #20]
  80:Src/usart.c   ****   huart2.Init.HwFlowCtl = UART_HWCONTROL_NONE;
ARM GAS  /var/folders/k7/81v8fz9j4v98_s0dd31l1wsr0000gn/T//ccOmWjNm.s 			page 5


 152              		.loc 1 80 25
 153 002a 0B4B     		ldr	r3, .L9
 154 002c 0022     		movs	r2, #0
 155 002e 9A61     		str	r2, [r3, #24]
  81:Src/usart.c   ****   huart2.Init.OverSampling = UART_OVERSAMPLING_16;
 156              		.loc 1 81 28
 157 0030 094B     		ldr	r3, .L9
 158 0032 0022     		movs	r2, #0
 159 0034 DA61     		str	r2, [r3, #28]
  82:Src/usart.c   ****   huart2.Init.OneBitSampling = UART_ONE_BIT_SAMPLE_DISABLE;
 160              		.loc 1 82 30
 161 0036 084B     		ldr	r3, .L9
 162 0038 0022     		movs	r2, #0
 163 003a 1A62     		str	r2, [r3, #32]
  83:Src/usart.c   ****   huart2.AdvancedInit.AdvFeatureInit = UART_ADVFEATURE_NO_INIT;
 164              		.loc 1 83 38
 165 003c 064B     		ldr	r3, .L9
 166 003e 0022     		movs	r2, #0
 167 0040 5A62     		str	r2, [r3, #36]
  84:Src/usart.c   ****   if (HAL_UART_Init(&huart2) != HAL_OK)
 168              		.loc 1 84 7
 169 0042 0548     		ldr	r0, .L9
 170 0044 FFF7FEFF 		bl	HAL_UART_Init
 171 0048 0346     		mov	r3, r0
 172              		.loc 1 84 6
 173 004a 002B     		cmp	r3, #0
 174 004c 01D0     		beq	.L8
  85:Src/usart.c   ****   {
  86:Src/usart.c   ****     Error_Handler();
 175              		.loc 1 86 5
 176 004e FFF7FEFF 		bl	Error_Handler
 177              	.L8:
  87:Src/usart.c   ****   }
  88:Src/usart.c   ****   /* USER CODE BEGIN USART2_Init 2 */
  89:Src/usart.c   **** 
  90:Src/usart.c   ****   /* USER CODE END USART2_Init 2 */
  91:Src/usart.c   **** 
  92:Src/usart.c   **** }
 178              		.loc 1 92 1
 179 0052 00BF     		nop
 180 0054 80BD     		pop	{r7, pc}
 181              	.L10:
 182 0056 00BF     		.align	2
 183              	.L9:
 184 0058 00000000 		.word	huart2
 185 005c 00440040 		.word	1073759232
 186              		.cfi_endproc
 187              	.LFE293:
 189              		.section	.text.HAL_UART_MspInit,"ax",%progbits
 190              		.align	1
 191              		.global	HAL_UART_MspInit
 192              		.syntax unified
 193              		.thumb
 194              		.thumb_func
 195              		.fpu fpv4-sp-d16
 197              	HAL_UART_MspInit:
 198              	.LFB294:
ARM GAS  /var/folders/k7/81v8fz9j4v98_s0dd31l1wsr0000gn/T//ccOmWjNm.s 			page 6


  93:Src/usart.c   **** 
  94:Src/usart.c   **** void HAL_UART_MspInit(UART_HandleTypeDef* uartHandle)
  95:Src/usart.c   **** {
 199              		.loc 1 95 1
 200              		.cfi_startproc
 201              		@ args = 0, pretend = 0, frame = 152
 202              		@ frame_needed = 1, uses_anonymous_args = 0
 203 0000 80B5     		push	{r7, lr}
 204              	.LCFI4:
 205              		.cfi_def_cfa_offset 8
 206              		.cfi_offset 7, -8
 207              		.cfi_offset 14, -4
 208 0002 A6B0     		sub	sp, sp, #152
 209              	.LCFI5:
 210              		.cfi_def_cfa_offset 160
 211 0004 00AF     		add	r7, sp, #0
 212              	.LCFI6:
 213              		.cfi_def_cfa_register 7
 214 0006 7860     		str	r0, [r7, #4]
  96:Src/usart.c   **** 
  97:Src/usart.c   ****   GPIO_InitTypeDef GPIO_InitStruct = {0};
 215              		.loc 1 97 20
 216 0008 07F18403 		add	r3, r7, #132
 217 000c 0022     		movs	r2, #0
 218 000e 1A60     		str	r2, [r3]
 219 0010 5A60     		str	r2, [r3, #4]
 220 0012 9A60     		str	r2, [r3, #8]
 221 0014 DA60     		str	r2, [r3, #12]
 222 0016 1A61     		str	r2, [r3, #16]
  98:Src/usart.c   ****   RCC_PeriphCLKInitTypeDef PeriphClkInit = {0};
 223              		.loc 1 98 28
 224 0018 07F11C03 		add	r3, r7, #28
 225 001c 6822     		movs	r2, #104
 226 001e 0021     		movs	r1, #0
 227 0020 1846     		mov	r0, r3
 228 0022 FFF7FEFF 		bl	memset
  99:Src/usart.c   ****   if(uartHandle->Instance==UART4)
 229              		.loc 1 99 16
 230 0026 7B68     		ldr	r3, [r7, #4]
 231 0028 1B68     		ldr	r3, [r3]
 232              		.loc 1 99 5
 233 002a 704A     		ldr	r2, .L19
 234 002c 9342     		cmp	r3, r2
 235 002e 3CD1     		bne	.L12
 100:Src/usart.c   ****   {
 101:Src/usart.c   ****   /* USER CODE BEGIN UART4_MspInit 0 */
 102:Src/usart.c   **** 
 103:Src/usart.c   ****   /* USER CODE END UART4_MspInit 0 */
 104:Src/usart.c   **** 
 105:Src/usart.c   ****   /** Initializes the peripherals clock
 106:Src/usart.c   ****   */
 107:Src/usart.c   ****     PeriphClkInit.PeriphClockSelection = RCC_PERIPHCLK_UART4;
 236              		.loc 1 107 40
 237 0030 0823     		movs	r3, #8
 238 0032 FB61     		str	r3, [r7, #28]
 108:Src/usart.c   ****     PeriphClkInit.Uart4ClockSelection = RCC_UART4CLKSOURCE_PCLK1;
 239              		.loc 1 108 39
ARM GAS  /var/folders/k7/81v8fz9j4v98_s0dd31l1wsr0000gn/T//ccOmWjNm.s 			page 7


 240 0034 0023     		movs	r3, #0
 241 0036 BB64     		str	r3, [r7, #72]
 109:Src/usart.c   ****     if (HAL_RCCEx_PeriphCLKConfig(&PeriphClkInit) != HAL_OK)
 242              		.loc 1 109 9
 243 0038 07F11C03 		add	r3, r7, #28
 244 003c 1846     		mov	r0, r3
 245 003e FFF7FEFF 		bl	HAL_RCCEx_PeriphCLKConfig
 246 0042 0346     		mov	r3, r0
 247              		.loc 1 109 8
 248 0044 002B     		cmp	r3, #0
 249 0046 01D0     		beq	.L13
 110:Src/usart.c   ****     {
 111:Src/usart.c   ****       Error_Handler();
 250              		.loc 1 111 7
 251 0048 FFF7FEFF 		bl	Error_Handler
 252              	.L13:
 253              	.LBB2:
 112:Src/usart.c   ****     }
 113:Src/usart.c   **** 
 114:Src/usart.c   ****     /* UART4 clock enable */
 115:Src/usart.c   ****     __HAL_RCC_UART4_CLK_ENABLE();
 254              		.loc 1 115 5
 255 004c 684B     		ldr	r3, .L19+4
 256 004e 9B6D     		ldr	r3, [r3, #88]
 257 0050 674A     		ldr	r2, .L19+4
 258 0052 43F40023 		orr	r3, r3, #524288
 259 0056 9365     		str	r3, [r2, #88]
 260 0058 654B     		ldr	r3, .L19+4
 261 005a 9B6D     		ldr	r3, [r3, #88]
 262 005c 03F40023 		and	r3, r3, #524288
 263 0060 BB61     		str	r3, [r7, #24]
 264 0062 BB69     		ldr	r3, [r7, #24]
 265              	.LBE2:
 266              	.LBB3:
 116:Src/usart.c   **** 
 117:Src/usart.c   ****     __HAL_RCC_GPIOC_CLK_ENABLE();
 267              		.loc 1 117 5
 268 0064 624B     		ldr	r3, .L19+4
 269 0066 DB6C     		ldr	r3, [r3, #76]
 270 0068 614A     		ldr	r2, .L19+4
 271 006a 43F00403 		orr	r3, r3, #4
 272 006e D364     		str	r3, [r2, #76]
 273 0070 5F4B     		ldr	r3, .L19+4
 274 0072 DB6C     		ldr	r3, [r3, #76]
 275 0074 03F00403 		and	r3, r3, #4
 276 0078 7B61     		str	r3, [r7, #20]
 277 007a 7B69     		ldr	r3, [r7, #20]
 278              	.LBE3:
 118:Src/usart.c   ****     /**UART4 GPIO Configuration
 119:Src/usart.c   ****     PC10     ------> UART4_TX
 120:Src/usart.c   ****     PC11     ------> UART4_RX
 121:Src/usart.c   ****     */
 122:Src/usart.c   ****     GPIO_InitStruct.Pin = GPIO_PIN_10|GPIO_PIN_11;
 279              		.loc 1 122 25
 280 007c 4FF44063 		mov	r3, #3072
 281 0080 C7F88430 		str	r3, [r7, #132]
 123:Src/usart.c   ****     GPIO_InitStruct.Mode = GPIO_MODE_AF_PP;
ARM GAS  /var/folders/k7/81v8fz9j4v98_s0dd31l1wsr0000gn/T//ccOmWjNm.s 			page 8


 282              		.loc 1 123 26
 283 0084 0223     		movs	r3, #2
 284 0086 C7F88830 		str	r3, [r7, #136]
 124:Src/usart.c   ****     GPIO_InitStruct.Pull = GPIO_NOPULL;
 285              		.loc 1 124 26
 286 008a 0023     		movs	r3, #0
 287 008c C7F88C30 		str	r3, [r7, #140]
 125:Src/usart.c   ****     GPIO_InitStruct.Speed = GPIO_SPEED_FREQ_VERY_HIGH;
 288              		.loc 1 125 27
 289 0090 0323     		movs	r3, #3
 290 0092 C7F89030 		str	r3, [r7, #144]
 126:Src/usart.c   ****     GPIO_InitStruct.Alternate = GPIO_AF8_UART4;
 291              		.loc 1 126 31
 292 0096 0823     		movs	r3, #8
 293 0098 C7F89430 		str	r3, [r7, #148]
 127:Src/usart.c   ****     HAL_GPIO_Init(GPIOC, &GPIO_InitStruct);
 294              		.loc 1 127 5
 295 009c 07F18403 		add	r3, r7, #132
 296 00a0 1946     		mov	r1, r3
 297 00a2 5448     		ldr	r0, .L19+8
 298 00a4 FFF7FEFF 		bl	HAL_GPIO_Init
 128:Src/usart.c   **** 
 129:Src/usart.c   ****   /* USER CODE BEGIN UART4_MspInit 1 */
 130:Src/usart.c   **** 
 131:Src/usart.c   ****   /* USER CODE END UART4_MspInit 1 */
 132:Src/usart.c   ****   }
 133:Src/usart.c   ****   else if(uartHandle->Instance==USART2)
 134:Src/usart.c   ****   {
 135:Src/usart.c   ****   /* USER CODE BEGIN USART2_MspInit 0 */
 136:Src/usart.c   **** 
 137:Src/usart.c   ****   /* USER CODE END USART2_MspInit 0 */
 138:Src/usart.c   **** 
 139:Src/usart.c   ****   /** Initializes the peripherals clock
 140:Src/usart.c   ****   */
 141:Src/usart.c   ****     PeriphClkInit.PeriphClockSelection = RCC_PERIPHCLK_USART2;
 142:Src/usart.c   ****     PeriphClkInit.Usart2ClockSelection = RCC_USART2CLKSOURCE_PCLK1;
 143:Src/usart.c   ****     if (HAL_RCCEx_PeriphCLKConfig(&PeriphClkInit) != HAL_OK)
 144:Src/usart.c   ****     {
 145:Src/usart.c   ****       Error_Handler();
 146:Src/usart.c   ****     }
 147:Src/usart.c   **** 
 148:Src/usart.c   ****     /* USART2 clock enable */
 149:Src/usart.c   ****     __HAL_RCC_USART2_CLK_ENABLE();
 150:Src/usart.c   **** 
 151:Src/usart.c   ****     __HAL_RCC_GPIOA_CLK_ENABLE();
 152:Src/usart.c   ****     /**USART2 GPIO Configuration
 153:Src/usart.c   ****     PA2     ------> USART2_TX
 154:Src/usart.c   ****     PA3     ------> USART2_RX
 155:Src/usart.c   ****     */
 156:Src/usart.c   ****     GPIO_InitStruct.Pin = USART_TX_Pin|USART_RX_Pin;
 157:Src/usart.c   ****     GPIO_InitStruct.Mode = GPIO_MODE_AF_PP;
 158:Src/usart.c   ****     GPIO_InitStruct.Pull = GPIO_NOPULL;
 159:Src/usart.c   ****     GPIO_InitStruct.Speed = GPIO_SPEED_FREQ_VERY_HIGH;
 160:Src/usart.c   ****     GPIO_InitStruct.Alternate = GPIO_AF7_USART2;
 161:Src/usart.c   ****     HAL_GPIO_Init(GPIOA, &GPIO_InitStruct);
 162:Src/usart.c   **** 
 163:Src/usart.c   ****     /* USART2 DMA Init */
ARM GAS  /var/folders/k7/81v8fz9j4v98_s0dd31l1wsr0000gn/T//ccOmWjNm.s 			page 9


 164:Src/usart.c   ****     /* USART2_RX Init */
 165:Src/usart.c   ****     hdma_usart2_rx.Instance = DMA1_Channel6;
 166:Src/usart.c   ****     hdma_usart2_rx.Init.Request = DMA_REQUEST_2;
 167:Src/usart.c   ****     hdma_usart2_rx.Init.Direction = DMA_PERIPH_TO_MEMORY;
 168:Src/usart.c   ****     hdma_usart2_rx.Init.PeriphInc = DMA_PINC_DISABLE;
 169:Src/usart.c   ****     hdma_usart2_rx.Init.MemInc = DMA_MINC_ENABLE;
 170:Src/usart.c   ****     hdma_usart2_rx.Init.PeriphDataAlignment = DMA_PDATAALIGN_BYTE;
 171:Src/usart.c   ****     hdma_usart2_rx.Init.MemDataAlignment = DMA_MDATAALIGN_BYTE;
 172:Src/usart.c   ****     hdma_usart2_rx.Init.Mode = DMA_CIRCULAR;
 173:Src/usart.c   ****     hdma_usart2_rx.Init.Priority = DMA_PRIORITY_LOW;
 174:Src/usart.c   ****     if (HAL_DMA_Init(&hdma_usart2_rx) != HAL_OK)
 175:Src/usart.c   ****     {
 176:Src/usart.c   ****       Error_Handler();
 177:Src/usart.c   ****     }
 178:Src/usart.c   **** 
 179:Src/usart.c   ****     __HAL_LINKDMA(uartHandle,hdmarx,hdma_usart2_rx);
 180:Src/usart.c   **** 
 181:Src/usart.c   ****     /* USART2_TX Init */
 182:Src/usart.c   ****     hdma_usart2_tx.Instance = DMA1_Channel7;
 183:Src/usart.c   ****     hdma_usart2_tx.Init.Request = DMA_REQUEST_2;
 184:Src/usart.c   ****     hdma_usart2_tx.Init.Direction = DMA_MEMORY_TO_PERIPH;
 185:Src/usart.c   ****     hdma_usart2_tx.Init.PeriphInc = DMA_PINC_DISABLE;
 186:Src/usart.c   ****     hdma_usart2_tx.Init.MemInc = DMA_MINC_ENABLE;
 187:Src/usart.c   ****     hdma_usart2_tx.Init.PeriphDataAlignment = DMA_PDATAALIGN_BYTE;
 188:Src/usart.c   ****     hdma_usart2_tx.Init.MemDataAlignment = DMA_MDATAALIGN_BYTE;
 189:Src/usart.c   ****     hdma_usart2_tx.Init.Mode = DMA_CIRCULAR;
 190:Src/usart.c   ****     hdma_usart2_tx.Init.Priority = DMA_PRIORITY_LOW;
 191:Src/usart.c   ****     if (HAL_DMA_Init(&hdma_usart2_tx) != HAL_OK)
 192:Src/usart.c   ****     {
 193:Src/usart.c   ****       Error_Handler();
 194:Src/usart.c   ****     }
 195:Src/usart.c   **** 
 196:Src/usart.c   ****     __HAL_LINKDMA(uartHandle,hdmatx,hdma_usart2_tx);
 197:Src/usart.c   **** 
 198:Src/usart.c   ****     /* USART2 interrupt Init */
 199:Src/usart.c   ****     HAL_NVIC_SetPriority(USART2_IRQn, 0, 0);
 200:Src/usart.c   ****     HAL_NVIC_EnableIRQ(USART2_IRQn);
 201:Src/usart.c   ****   /* USER CODE BEGIN USART2_MspInit 1 */
 202:Src/usart.c   **** 
 203:Src/usart.c   ****   /* USER CODE END USART2_MspInit 1 */
 204:Src/usart.c   ****   }
 205:Src/usart.c   **** }
 299              		.loc 1 205 1
 300 00a8 9BE0     		b	.L18
 301              	.L12:
 133:Src/usart.c   ****   {
 302              		.loc 1 133 21
 303 00aa 7B68     		ldr	r3, [r7, #4]
 304 00ac 1B68     		ldr	r3, [r3]
 133:Src/usart.c   ****   {
 305              		.loc 1 133 10
 306 00ae 524A     		ldr	r2, .L19+12
 307 00b0 9342     		cmp	r3, r2
 308 00b2 40F09680 		bne	.L18
 141:Src/usart.c   ****     PeriphClkInit.Usart2ClockSelection = RCC_USART2CLKSOURCE_PCLK1;
 309              		.loc 1 141 40
 310 00b6 0223     		movs	r3, #2
ARM GAS  /var/folders/k7/81v8fz9j4v98_s0dd31l1wsr0000gn/T//ccOmWjNm.s 			page 10


 311 00b8 FB61     		str	r3, [r7, #28]
 142:Src/usart.c   ****     if (HAL_RCCEx_PeriphCLKConfig(&PeriphClkInit) != HAL_OK)
 312              		.loc 1 142 40
 313 00ba 0023     		movs	r3, #0
 314 00bc 3B64     		str	r3, [r7, #64]
 143:Src/usart.c   ****     {
 315              		.loc 1 143 9
 316 00be 07F11C03 		add	r3, r7, #28
 317 00c2 1846     		mov	r0, r3
 318 00c4 FFF7FEFF 		bl	HAL_RCCEx_PeriphCLKConfig
 319 00c8 0346     		mov	r3, r0
 143:Src/usart.c   ****     {
 320              		.loc 1 143 8
 321 00ca 002B     		cmp	r3, #0
 322 00cc 01D0     		beq	.L15
 145:Src/usart.c   ****     }
 323              		.loc 1 145 7
 324 00ce FFF7FEFF 		bl	Error_Handler
 325              	.L15:
 326              	.LBB4:
 149:Src/usart.c   **** 
 327              		.loc 1 149 5
 328 00d2 474B     		ldr	r3, .L19+4
 329 00d4 9B6D     		ldr	r3, [r3, #88]
 330 00d6 464A     		ldr	r2, .L19+4
 331 00d8 43F40033 		orr	r3, r3, #131072
 332 00dc 9365     		str	r3, [r2, #88]
 333 00de 444B     		ldr	r3, .L19+4
 334 00e0 9B6D     		ldr	r3, [r3, #88]
 335 00e2 03F40033 		and	r3, r3, #131072
 336 00e6 3B61     		str	r3, [r7, #16]
 337 00e8 3B69     		ldr	r3, [r7, #16]
 338              	.LBE4:
 339              	.LBB5:
 151:Src/usart.c   ****     /**USART2 GPIO Configuration
 340              		.loc 1 151 5
 341 00ea 414B     		ldr	r3, .L19+4
 342 00ec DB6C     		ldr	r3, [r3, #76]
 343 00ee 404A     		ldr	r2, .L19+4
 344 00f0 43F00103 		orr	r3, r3, #1
 345 00f4 D364     		str	r3, [r2, #76]
 346 00f6 3E4B     		ldr	r3, .L19+4
 347 00f8 DB6C     		ldr	r3, [r3, #76]
 348 00fa 03F00103 		and	r3, r3, #1
 349 00fe FB60     		str	r3, [r7, #12]
 350 0100 FB68     		ldr	r3, [r7, #12]
 351              	.LBE5:
 156:Src/usart.c   ****     GPIO_InitStruct.Mode = GPIO_MODE_AF_PP;
 352              		.loc 1 156 25
 353 0102 0C23     		movs	r3, #12
 354 0104 C7F88430 		str	r3, [r7, #132]
 157:Src/usart.c   ****     GPIO_InitStruct.Pull = GPIO_NOPULL;
 355              		.loc 1 157 26
 356 0108 0223     		movs	r3, #2
 357 010a C7F88830 		str	r3, [r7, #136]
 158:Src/usart.c   ****     GPIO_InitStruct.Speed = GPIO_SPEED_FREQ_VERY_HIGH;
 358              		.loc 1 158 26
ARM GAS  /var/folders/k7/81v8fz9j4v98_s0dd31l1wsr0000gn/T//ccOmWjNm.s 			page 11


 359 010e 0023     		movs	r3, #0
 360 0110 C7F88C30 		str	r3, [r7, #140]
 159:Src/usart.c   ****     GPIO_InitStruct.Alternate = GPIO_AF7_USART2;
 361              		.loc 1 159 27
 362 0114 0323     		movs	r3, #3
 363 0116 C7F89030 		str	r3, [r7, #144]
 160:Src/usart.c   ****     HAL_GPIO_Init(GPIOA, &GPIO_InitStruct);
 364              		.loc 1 160 31
 365 011a 0723     		movs	r3, #7
 366 011c C7F89430 		str	r3, [r7, #148]
 161:Src/usart.c   **** 
 367              		.loc 1 161 5
 368 0120 07F18403 		add	r3, r7, #132
 369 0124 1946     		mov	r1, r3
 370 0126 4FF09040 		mov	r0, #1207959552
 371 012a FFF7FEFF 		bl	HAL_GPIO_Init
 165:Src/usart.c   ****     hdma_usart2_rx.Init.Request = DMA_REQUEST_2;
 372              		.loc 1 165 29
 373 012e 334B     		ldr	r3, .L19+16
 374 0130 334A     		ldr	r2, .L19+20
 375 0132 1A60     		str	r2, [r3]
 166:Src/usart.c   ****     hdma_usart2_rx.Init.Direction = DMA_PERIPH_TO_MEMORY;
 376              		.loc 1 166 33
 377 0134 314B     		ldr	r3, .L19+16
 378 0136 0222     		movs	r2, #2
 379 0138 5A60     		str	r2, [r3, #4]
 167:Src/usart.c   ****     hdma_usart2_rx.Init.PeriphInc = DMA_PINC_DISABLE;
 380              		.loc 1 167 35
 381 013a 304B     		ldr	r3, .L19+16
 382 013c 0022     		movs	r2, #0
 383 013e 9A60     		str	r2, [r3, #8]
 168:Src/usart.c   ****     hdma_usart2_rx.Init.MemInc = DMA_MINC_ENABLE;
 384              		.loc 1 168 35
 385 0140 2E4B     		ldr	r3, .L19+16
 386 0142 0022     		movs	r2, #0
 387 0144 DA60     		str	r2, [r3, #12]
 169:Src/usart.c   ****     hdma_usart2_rx.Init.PeriphDataAlignment = DMA_PDATAALIGN_BYTE;
 388              		.loc 1 169 32
 389 0146 2D4B     		ldr	r3, .L19+16
 390 0148 8022     		movs	r2, #128
 391 014a 1A61     		str	r2, [r3, #16]
 170:Src/usart.c   ****     hdma_usart2_rx.Init.MemDataAlignment = DMA_MDATAALIGN_BYTE;
 392              		.loc 1 170 45
 393 014c 2B4B     		ldr	r3, .L19+16
 394 014e 0022     		movs	r2, #0
 395 0150 5A61     		str	r2, [r3, #20]
 171:Src/usart.c   ****     hdma_usart2_rx.Init.Mode = DMA_CIRCULAR;
 396              		.loc 1 171 42
 397 0152 2A4B     		ldr	r3, .L19+16
 398 0154 0022     		movs	r2, #0
 399 0156 9A61     		str	r2, [r3, #24]
 172:Src/usart.c   ****     hdma_usart2_rx.Init.Priority = DMA_PRIORITY_LOW;
 400              		.loc 1 172 30
 401 0158 284B     		ldr	r3, .L19+16
 402 015a 2022     		movs	r2, #32
 403 015c DA61     		str	r2, [r3, #28]
 173:Src/usart.c   ****     if (HAL_DMA_Init(&hdma_usart2_rx) != HAL_OK)
ARM GAS  /var/folders/k7/81v8fz9j4v98_s0dd31l1wsr0000gn/T//ccOmWjNm.s 			page 12


 404              		.loc 1 173 34
 405 015e 274B     		ldr	r3, .L19+16
 406 0160 0022     		movs	r2, #0
 407 0162 1A62     		str	r2, [r3, #32]
 174:Src/usart.c   ****     {
 408              		.loc 1 174 9
 409 0164 2548     		ldr	r0, .L19+16
 410 0166 FFF7FEFF 		bl	HAL_DMA_Init
 411 016a 0346     		mov	r3, r0
 174:Src/usart.c   ****     {
 412              		.loc 1 174 8
 413 016c 002B     		cmp	r3, #0
 414 016e 01D0     		beq	.L16
 176:Src/usart.c   ****     }
 415              		.loc 1 176 7
 416 0170 FFF7FEFF 		bl	Error_Handler
 417              	.L16:
 179:Src/usart.c   **** 
 418              		.loc 1 179 5
 419 0174 7B68     		ldr	r3, [r7, #4]
 420 0176 214A     		ldr	r2, .L19+16
 421 0178 1A67     		str	r2, [r3, #112]
 422 017a 204A     		ldr	r2, .L19+16
 423 017c 7B68     		ldr	r3, [r7, #4]
 424 017e 9362     		str	r3, [r2, #40]
 182:Src/usart.c   ****     hdma_usart2_tx.Init.Request = DMA_REQUEST_2;
 425              		.loc 1 182 29
 426 0180 204B     		ldr	r3, .L19+24
 427 0182 214A     		ldr	r2, .L19+28
 428 0184 1A60     		str	r2, [r3]
 183:Src/usart.c   ****     hdma_usart2_tx.Init.Direction = DMA_MEMORY_TO_PERIPH;
 429              		.loc 1 183 33
 430 0186 1F4B     		ldr	r3, .L19+24
 431 0188 0222     		movs	r2, #2
 432 018a 5A60     		str	r2, [r3, #4]
 184:Src/usart.c   ****     hdma_usart2_tx.Init.PeriphInc = DMA_PINC_DISABLE;
 433              		.loc 1 184 35
 434 018c 1D4B     		ldr	r3, .L19+24
 435 018e 1022     		movs	r2, #16
 436 0190 9A60     		str	r2, [r3, #8]
 185:Src/usart.c   ****     hdma_usart2_tx.Init.MemInc = DMA_MINC_ENABLE;
 437              		.loc 1 185 35
 438 0192 1C4B     		ldr	r3, .L19+24
 439 0194 0022     		movs	r2, #0
 440 0196 DA60     		str	r2, [r3, #12]
 186:Src/usart.c   ****     hdma_usart2_tx.Init.PeriphDataAlignment = DMA_PDATAALIGN_BYTE;
 441              		.loc 1 186 32
 442 0198 1A4B     		ldr	r3, .L19+24
 443 019a 8022     		movs	r2, #128
 444 019c 1A61     		str	r2, [r3, #16]
 187:Src/usart.c   ****     hdma_usart2_tx.Init.MemDataAlignment = DMA_MDATAALIGN_BYTE;
 445              		.loc 1 187 45
 446 019e 194B     		ldr	r3, .L19+24
 447 01a0 0022     		movs	r2, #0
 448 01a2 5A61     		str	r2, [r3, #20]
 188:Src/usart.c   ****     hdma_usart2_tx.Init.Mode = DMA_CIRCULAR;
 449              		.loc 1 188 42
ARM GAS  /var/folders/k7/81v8fz9j4v98_s0dd31l1wsr0000gn/T//ccOmWjNm.s 			page 13


 450 01a4 174B     		ldr	r3, .L19+24
 451 01a6 0022     		movs	r2, #0
 452 01a8 9A61     		str	r2, [r3, #24]
 189:Src/usart.c   ****     hdma_usart2_tx.Init.Priority = DMA_PRIORITY_LOW;
 453              		.loc 1 189 30
 454 01aa 164B     		ldr	r3, .L19+24
 455 01ac 2022     		movs	r2, #32
 456 01ae DA61     		str	r2, [r3, #28]
 190:Src/usart.c   ****     if (HAL_DMA_Init(&hdma_usart2_tx) != HAL_OK)
 457              		.loc 1 190 34
 458 01b0 144B     		ldr	r3, .L19+24
 459 01b2 0022     		movs	r2, #0
 460 01b4 1A62     		str	r2, [r3, #32]
 191:Src/usart.c   ****     {
 461              		.loc 1 191 9
 462 01b6 1348     		ldr	r0, .L19+24
 463 01b8 FFF7FEFF 		bl	HAL_DMA_Init
 464 01bc 0346     		mov	r3, r0
 191:Src/usart.c   ****     {
 465              		.loc 1 191 8
 466 01be 002B     		cmp	r3, #0
 467 01c0 01D0     		beq	.L17
 193:Src/usart.c   ****     }
 468              		.loc 1 193 7
 469 01c2 FFF7FEFF 		bl	Error_Handler
 470              	.L17:
 196:Src/usart.c   **** 
 471              		.loc 1 196 5
 472 01c6 7B68     		ldr	r3, [r7, #4]
 473 01c8 0E4A     		ldr	r2, .L19+24
 474 01ca DA66     		str	r2, [r3, #108]
 475 01cc 0D4A     		ldr	r2, .L19+24
 476 01ce 7B68     		ldr	r3, [r7, #4]
 477 01d0 9362     		str	r3, [r2, #40]
 199:Src/usart.c   ****     HAL_NVIC_EnableIRQ(USART2_IRQn);
 478              		.loc 1 199 5
 479 01d2 0022     		movs	r2, #0
 480 01d4 0021     		movs	r1, #0
 481 01d6 2620     		movs	r0, #38
 482 01d8 FFF7FEFF 		bl	HAL_NVIC_SetPriority
 200:Src/usart.c   ****   /* USER CODE BEGIN USART2_MspInit 1 */
 483              		.loc 1 200 5
 484 01dc 2620     		movs	r0, #38
 485 01de FFF7FEFF 		bl	HAL_NVIC_EnableIRQ
 486              	.L18:
 487              		.loc 1 205 1
 488 01e2 00BF     		nop
 489 01e4 9837     		adds	r7, r7, #152
 490              	.LCFI7:
 491              		.cfi_def_cfa_offset 8
 492 01e6 BD46     		mov	sp, r7
 493              	.LCFI8:
 494              		.cfi_def_cfa_register 13
 495              		@ sp needed
 496 01e8 80BD     		pop	{r7, pc}
 497              	.L20:
 498 01ea 00BF     		.align	2
ARM GAS  /var/folders/k7/81v8fz9j4v98_s0dd31l1wsr0000gn/T//ccOmWjNm.s 			page 14


 499              	.L19:
 500 01ec 004C0040 		.word	1073761280
 501 01f0 00100240 		.word	1073876992
 502 01f4 00080048 		.word	1207961600
 503 01f8 00440040 		.word	1073759232
 504 01fc 00000000 		.word	hdma_usart2_rx
 505 0200 6C000240 		.word	1073873004
 506 0204 00000000 		.word	hdma_usart2_tx
 507 0208 80000240 		.word	1073873024
 508              		.cfi_endproc
 509              	.LFE294:
 511              		.section	.text.HAL_UART_MspDeInit,"ax",%progbits
 512              		.align	1
 513              		.global	HAL_UART_MspDeInit
 514              		.syntax unified
 515              		.thumb
 516              		.thumb_func
 517              		.fpu fpv4-sp-d16
 519              	HAL_UART_MspDeInit:
 520              	.LFB295:
 206:Src/usart.c   **** 
 207:Src/usart.c   **** void HAL_UART_MspDeInit(UART_HandleTypeDef* uartHandle)
 208:Src/usart.c   **** {
 521              		.loc 1 208 1
 522              		.cfi_startproc
 523              		@ args = 0, pretend = 0, frame = 8
 524              		@ frame_needed = 1, uses_anonymous_args = 0
 525 0000 80B5     		push	{r7, lr}
 526              	.LCFI9:
 527              		.cfi_def_cfa_offset 8
 528              		.cfi_offset 7, -8
 529              		.cfi_offset 14, -4
 530 0002 82B0     		sub	sp, sp, #8
 531              	.LCFI10:
 532              		.cfi_def_cfa_offset 16
 533 0004 00AF     		add	r7, sp, #0
 534              	.LCFI11:
 535              		.cfi_def_cfa_register 7
 536 0006 7860     		str	r0, [r7, #4]
 209:Src/usart.c   **** 
 210:Src/usart.c   ****   if(uartHandle->Instance==UART4)
 537              		.loc 1 210 16
 538 0008 7B68     		ldr	r3, [r7, #4]
 539 000a 1B68     		ldr	r3, [r3]
 540              		.loc 1 210 5
 541 000c 174A     		ldr	r2, .L25
 542 000e 9342     		cmp	r3, r2
 543 0010 0BD1     		bne	.L22
 211:Src/usart.c   ****   {
 212:Src/usart.c   ****   /* USER CODE BEGIN UART4_MspDeInit 0 */
 213:Src/usart.c   **** 
 214:Src/usart.c   ****   /* USER CODE END UART4_MspDeInit 0 */
 215:Src/usart.c   ****     /* Peripheral clock disable */
 216:Src/usart.c   ****     __HAL_RCC_UART4_CLK_DISABLE();
 544              		.loc 1 216 5
 545 0012 174B     		ldr	r3, .L25+4
 546 0014 9B6D     		ldr	r3, [r3, #88]
ARM GAS  /var/folders/k7/81v8fz9j4v98_s0dd31l1wsr0000gn/T//ccOmWjNm.s 			page 15


 547 0016 164A     		ldr	r2, .L25+4
 548 0018 23F40023 		bic	r3, r3, #524288
 549 001c 9365     		str	r3, [r2, #88]
 217:Src/usart.c   **** 
 218:Src/usart.c   ****     /**UART4 GPIO Configuration
 219:Src/usart.c   ****     PC10     ------> UART4_TX
 220:Src/usart.c   ****     PC11     ------> UART4_RX
 221:Src/usart.c   ****     */
 222:Src/usart.c   ****     HAL_GPIO_DeInit(GPIOC, GPIO_PIN_10|GPIO_PIN_11);
 550              		.loc 1 222 5
 551 001e 4FF44061 		mov	r1, #3072
 552 0022 1448     		ldr	r0, .L25+8
 553 0024 FFF7FEFF 		bl	HAL_GPIO_DeInit
 223:Src/usart.c   **** 
 224:Src/usart.c   ****   /* USER CODE BEGIN UART4_MspDeInit 1 */
 225:Src/usart.c   **** 
 226:Src/usart.c   ****   /* USER CODE END UART4_MspDeInit 1 */
 227:Src/usart.c   ****   }
 228:Src/usart.c   ****   else if(uartHandle->Instance==USART2)
 229:Src/usart.c   ****   {
 230:Src/usart.c   ****   /* USER CODE BEGIN USART2_MspDeInit 0 */
 231:Src/usart.c   **** 
 232:Src/usart.c   ****   /* USER CODE END USART2_MspDeInit 0 */
 233:Src/usart.c   ****     /* Peripheral clock disable */
 234:Src/usart.c   ****     __HAL_RCC_USART2_CLK_DISABLE();
 235:Src/usart.c   **** 
 236:Src/usart.c   ****     /**USART2 GPIO Configuration
 237:Src/usart.c   ****     PA2     ------> USART2_TX
 238:Src/usart.c   ****     PA3     ------> USART2_RX
 239:Src/usart.c   ****     */
 240:Src/usart.c   ****     HAL_GPIO_DeInit(GPIOA, USART_TX_Pin|USART_RX_Pin);
 241:Src/usart.c   **** 
 242:Src/usart.c   ****     /* USART2 DMA DeInit */
 243:Src/usart.c   ****     HAL_DMA_DeInit(uartHandle->hdmarx);
 244:Src/usart.c   ****     HAL_DMA_DeInit(uartHandle->hdmatx);
 245:Src/usart.c   **** 
 246:Src/usart.c   ****     /* USART2 interrupt Deinit */
 247:Src/usart.c   ****     HAL_NVIC_DisableIRQ(USART2_IRQn);
 248:Src/usart.c   ****   /* USER CODE BEGIN USART2_MspDeInit 1 */
 249:Src/usart.c   **** 
 250:Src/usart.c   ****   /* USER CODE END USART2_MspDeInit 1 */
 251:Src/usart.c   ****   }
 252:Src/usart.c   **** }
 554              		.loc 1 252 1
 555 0028 1CE0     		b	.L24
 556              	.L22:
 228:Src/usart.c   ****   {
 557              		.loc 1 228 21
 558 002a 7B68     		ldr	r3, [r7, #4]
 559 002c 1B68     		ldr	r3, [r3]
 228:Src/usart.c   ****   {
 560              		.loc 1 228 10
 561 002e 124A     		ldr	r2, .L25+12
 562 0030 9342     		cmp	r3, r2
 563 0032 17D1     		bne	.L24
 234:Src/usart.c   **** 
 564              		.loc 1 234 5
ARM GAS  /var/folders/k7/81v8fz9j4v98_s0dd31l1wsr0000gn/T//ccOmWjNm.s 			page 16


 565 0034 0E4B     		ldr	r3, .L25+4
 566 0036 9B6D     		ldr	r3, [r3, #88]
 567 0038 0D4A     		ldr	r2, .L25+4
 568 003a 23F40033 		bic	r3, r3, #131072
 569 003e 9365     		str	r3, [r2, #88]
 240:Src/usart.c   **** 
 570              		.loc 1 240 5
 571 0040 0C21     		movs	r1, #12
 572 0042 4FF09040 		mov	r0, #1207959552
 573 0046 FFF7FEFF 		bl	HAL_GPIO_DeInit
 243:Src/usart.c   ****     HAL_DMA_DeInit(uartHandle->hdmatx);
 574              		.loc 1 243 5
 575 004a 7B68     		ldr	r3, [r7, #4]
 576 004c 1B6F     		ldr	r3, [r3, #112]
 577 004e 1846     		mov	r0, r3
 578 0050 FFF7FEFF 		bl	HAL_DMA_DeInit
 244:Src/usart.c   **** 
 579              		.loc 1 244 5
 580 0054 7B68     		ldr	r3, [r7, #4]
 581 0056 DB6E     		ldr	r3, [r3, #108]
 582 0058 1846     		mov	r0, r3
 583 005a FFF7FEFF 		bl	HAL_DMA_DeInit
 247:Src/usart.c   ****   /* USER CODE BEGIN USART2_MspDeInit 1 */
 584              		.loc 1 247 5
 585 005e 2620     		movs	r0, #38
 586 0060 FFF7FEFF 		bl	HAL_NVIC_DisableIRQ
 587              	.L24:
 588              		.loc 1 252 1
 589 0064 00BF     		nop
 590 0066 0837     		adds	r7, r7, #8
 591              	.LCFI12:
 592              		.cfi_def_cfa_offset 8
 593 0068 BD46     		mov	sp, r7
 594              	.LCFI13:
 595              		.cfi_def_cfa_register 13
 596              		@ sp needed
 597 006a 80BD     		pop	{r7, pc}
 598              	.L26:
 599              		.align	2
 600              	.L25:
 601 006c 004C0040 		.word	1073761280
 602 0070 00100240 		.word	1073876992
 603 0074 00080048 		.word	1207961600
 604 0078 00440040 		.word	1073759232
 605              		.cfi_endproc
 606              	.LFE295:
 608              		.text
 609              	.Letext0:
 610              		.file 2 "/Users/isikcanyilmaz/KODMOD/b607/test/mcu/tools/gcc9.2.1/mac/arm-none-eabi/include/machin
 611              		.file 3 "/Users/isikcanyilmaz/KODMOD/b607/test/mcu/tools/gcc9.2.1/mac/arm-none-eabi/include/sys/_s
 612              		.file 4 "Drivers/CMSIS/Include/core_cm4.h"
 613              		.file 5 "Drivers/CMSIS/Device/ST/STM32L4xx/Include/system_stm32l4xx.h"
 614              		.file 6 "Drivers/CMSIS/Device/ST/STM32L4xx/Include/stm32l452xx.h"
 615              		.file 7 "Drivers/STM32L4xx_HAL_Driver/Inc/stm32l4xx_hal_def.h"
 616              		.file 8 "Drivers/STM32L4xx_HAL_Driver/Inc/stm32l4xx_hal_rcc_ex.h"
 617              		.file 9 "Drivers/STM32L4xx_HAL_Driver/Inc/stm32l4xx_hal_gpio.h"
 618              		.file 10 "Drivers/STM32L4xx_HAL_Driver/Inc/stm32l4xx_hal_dma.h"
ARM GAS  /var/folders/k7/81v8fz9j4v98_s0dd31l1wsr0000gn/T//ccOmWjNm.s 			page 17


 619              		.file 11 "Drivers/STM32L4xx_HAL_Driver/Inc/stm32l4xx_hal_flash.h"
 620              		.file 12 "Drivers/STM32L4xx_HAL_Driver/Inc/stm32l4xx_hal_uart.h"
 621              		.file 13 "Drivers/STM32L4xx_HAL_Driver/Inc/stm32l4xx_hal.h"
 622              		.file 14 "Inc/usart.h"
ARM GAS  /var/folders/k7/81v8fz9j4v98_s0dd31l1wsr0000gn/T//ccOmWjNm.s 			page 18

