ARM GAS  /var/folders/k7/81v8fz9j4v98_s0dd31l1wsr0000gn/T//cccusRg5.s 			page 1


   1              		.cpu cortex-m4
   2              		.eabi_attribute 27, 1
   3              		.eabi_attribute 28, 1
   4              		.eabi_attribute 20, 1
   5              		.eabi_attribute 21, 1
   6              		.eabi_attribute 23, 3
   7              		.eabi_attribute 24, 1
   8              		.eabi_attribute 25, 1
   9              		.eabi_attribute 26, 1
  10              		.eabi_attribute 30, 6
  11              		.eabi_attribute 34, 1
  12              		.eabi_attribute 18, 4
  13              		.file	"usb.c"
  14              		.text
  15              	.Ltext0:
  16              		.cfi_sections	.debug_frame
  17              		.comm	hpcd_USB_FS,764,4
  18              		.section	.text.MX_USB_PCD_Init,"ax",%progbits
  19              		.align	1
  20              		.global	MX_USB_PCD_Init
  21              		.arch armv7e-m
  22              		.syntax unified
  23              		.thumb
  24              		.thumb_func
  25              		.fpu fpv4-sp-d16
  27              	MX_USB_PCD_Init:
  28              	.LFB292:
  29              		.file 1 "Src/usb.c"
   1:Src/usb.c     **** /* USER CODE BEGIN Header */
   2:Src/usb.c     **** /**
   3:Src/usb.c     ****   ******************************************************************************
   4:Src/usb.c     ****   * @file    usb.c
   5:Src/usb.c     ****   * @brief   This file provides code for the configuration
   6:Src/usb.c     ****   *          of the USB instances.
   7:Src/usb.c     ****   ******************************************************************************
   8:Src/usb.c     ****   * @attention
   9:Src/usb.c     ****   *
  10:Src/usb.c     ****   * Copyright (c) 2022 STMicroelectronics.
  11:Src/usb.c     ****   * All rights reserved.
  12:Src/usb.c     ****   *
  13:Src/usb.c     ****   * This software is licensed under terms that can be found in the LICENSE file
  14:Src/usb.c     ****   * in the root directory of this software component.
  15:Src/usb.c     ****   * If no LICENSE file comes with this software, it is provided AS-IS.
  16:Src/usb.c     ****   *
  17:Src/usb.c     ****   ******************************************************************************
  18:Src/usb.c     ****   */
  19:Src/usb.c     **** /* USER CODE END Header */
  20:Src/usb.c     **** /* Includes ------------------------------------------------------------------*/
  21:Src/usb.c     **** #include "usb.h"
  22:Src/usb.c     **** 
  23:Src/usb.c     **** /* USER CODE BEGIN 0 */
  24:Src/usb.c     **** 
  25:Src/usb.c     **** /* USER CODE END 0 */
  26:Src/usb.c     **** 
  27:Src/usb.c     **** PCD_HandleTypeDef hpcd_USB_FS;
  28:Src/usb.c     **** 
  29:Src/usb.c     **** /* USB init function */
ARM GAS  /var/folders/k7/81v8fz9j4v98_s0dd31l1wsr0000gn/T//cccusRg5.s 			page 2


  30:Src/usb.c     **** 
  31:Src/usb.c     **** void MX_USB_PCD_Init(void)
  32:Src/usb.c     **** {
  30              		.loc 1 32 1
  31              		.cfi_startproc
  32              		@ args = 0, pretend = 0, frame = 0
  33              		@ frame_needed = 1, uses_anonymous_args = 0
  34 0000 80B5     		push	{r7, lr}
  35              	.LCFI0:
  36              		.cfi_def_cfa_offset 8
  37              		.cfi_offset 7, -8
  38              		.cfi_offset 14, -4
  39 0002 00AF     		add	r7, sp, #0
  40              	.LCFI1:
  41              		.cfi_def_cfa_register 7
  33:Src/usb.c     **** 
  34:Src/usb.c     ****   /* USER CODE BEGIN USB_Init 0 */
  35:Src/usb.c     **** 
  36:Src/usb.c     ****   /* USER CODE END USB_Init 0 */
  37:Src/usb.c     **** 
  38:Src/usb.c     ****   /* USER CODE BEGIN USB_Init 1 */
  39:Src/usb.c     **** 
  40:Src/usb.c     ****   /* USER CODE END USB_Init 1 */
  41:Src/usb.c     ****   hpcd_USB_FS.Instance = USB;
  42              		.loc 1 41 24
  43 0004 104B     		ldr	r3, .L4
  44 0006 114A     		ldr	r2, .L4+4
  45 0008 1A60     		str	r2, [r3]
  42:Src/usb.c     ****   hpcd_USB_FS.Init.dev_endpoints = 8;
  46              		.loc 1 42 34
  47 000a 0F4B     		ldr	r3, .L4
  48 000c 0822     		movs	r2, #8
  49 000e 5A60     		str	r2, [r3, #4]
  43:Src/usb.c     ****   hpcd_USB_FS.Init.speed = PCD_SPEED_FULL;
  50              		.loc 1 43 26
  51 0010 0D4B     		ldr	r3, .L4
  52 0012 0222     		movs	r2, #2
  53 0014 9A60     		str	r2, [r3, #8]
  44:Src/usb.c     ****   hpcd_USB_FS.Init.phy_itface = PCD_PHY_EMBEDDED;
  54              		.loc 1 44 31
  55 0016 0C4B     		ldr	r3, .L4
  56 0018 0222     		movs	r2, #2
  57 001a 1A61     		str	r2, [r3, #16]
  45:Src/usb.c     ****   hpcd_USB_FS.Init.Sof_enable = DISABLE;
  58              		.loc 1 45 31
  59 001c 0A4B     		ldr	r3, .L4
  60 001e 0022     		movs	r2, #0
  61 0020 5A61     		str	r2, [r3, #20]
  46:Src/usb.c     ****   hpcd_USB_FS.Init.low_power_enable = DISABLE;
  62              		.loc 1 46 37
  63 0022 094B     		ldr	r3, .L4
  64 0024 0022     		movs	r2, #0
  65 0026 9A61     		str	r2, [r3, #24]
  47:Src/usb.c     ****   hpcd_USB_FS.Init.lpm_enable = DISABLE;
  66              		.loc 1 47 31
  67 0028 074B     		ldr	r3, .L4
  68 002a 0022     		movs	r2, #0
ARM GAS  /var/folders/k7/81v8fz9j4v98_s0dd31l1wsr0000gn/T//cccusRg5.s 			page 3


  69 002c DA61     		str	r2, [r3, #28]
  48:Src/usb.c     ****   hpcd_USB_FS.Init.battery_charging_enable = DISABLE;
  70              		.loc 1 48 44
  71 002e 064B     		ldr	r3, .L4
  72 0030 0022     		movs	r2, #0
  73 0032 1A62     		str	r2, [r3, #32]
  49:Src/usb.c     ****   if (HAL_PCD_Init(&hpcd_USB_FS) != HAL_OK)
  74              		.loc 1 49 7
  75 0034 0448     		ldr	r0, .L4
  76 0036 FFF7FEFF 		bl	HAL_PCD_Init
  77 003a 0346     		mov	r3, r0
  78              		.loc 1 49 6
  79 003c 002B     		cmp	r3, #0
  80 003e 01D0     		beq	.L3
  50:Src/usb.c     ****   {
  51:Src/usb.c     ****     Error_Handler();
  81              		.loc 1 51 5
  82 0040 FFF7FEFF 		bl	Error_Handler
  83              	.L3:
  52:Src/usb.c     ****   }
  53:Src/usb.c     ****   /* USER CODE BEGIN USB_Init 2 */
  54:Src/usb.c     **** 
  55:Src/usb.c     ****   /* USER CODE END USB_Init 2 */
  56:Src/usb.c     **** 
  57:Src/usb.c     **** }
  84              		.loc 1 57 1
  85 0044 00BF     		nop
  86 0046 80BD     		pop	{r7, pc}
  87              	.L5:
  88              		.align	2
  89              	.L4:
  90 0048 00000000 		.word	hpcd_USB_FS
  91 004c 00680040 		.word	1073768448
  92              		.cfi_endproc
  93              	.LFE292:
  95              		.section	.text.HAL_PCD_MspInit,"ax",%progbits
  96              		.align	1
  97              		.global	HAL_PCD_MspInit
  98              		.syntax unified
  99              		.thumb
 100              		.thumb_func
 101              		.fpu fpv4-sp-d16
 103              	HAL_PCD_MspInit:
 104              	.LFB293:
  58:Src/usb.c     **** 
  59:Src/usb.c     **** void HAL_PCD_MspInit(PCD_HandleTypeDef* pcdHandle)
  60:Src/usb.c     **** {
 105              		.loc 1 60 1
 106              		.cfi_startproc
 107              		@ args = 0, pretend = 0, frame = 144
 108              		@ frame_needed = 1, uses_anonymous_args = 0
 109 0000 80B5     		push	{r7, lr}
 110              	.LCFI2:
 111              		.cfi_def_cfa_offset 8
 112              		.cfi_offset 7, -8
 113              		.cfi_offset 14, -4
 114 0002 A4B0     		sub	sp, sp, #144
ARM GAS  /var/folders/k7/81v8fz9j4v98_s0dd31l1wsr0000gn/T//cccusRg5.s 			page 4


 115              	.LCFI3:
 116              		.cfi_def_cfa_offset 152
 117 0004 00AF     		add	r7, sp, #0
 118              	.LCFI4:
 119              		.cfi_def_cfa_register 7
 120 0006 7860     		str	r0, [r7, #4]
  61:Src/usb.c     **** 
  62:Src/usb.c     ****   GPIO_InitTypeDef GPIO_InitStruct = {0};
 121              		.loc 1 62 20
 122 0008 07F17C03 		add	r3, r7, #124
 123 000c 0022     		movs	r2, #0
 124 000e 1A60     		str	r2, [r3]
 125 0010 5A60     		str	r2, [r3, #4]
 126 0012 9A60     		str	r2, [r3, #8]
 127 0014 DA60     		str	r2, [r3, #12]
 128 0016 1A61     		str	r2, [r3, #16]
  63:Src/usb.c     ****   RCC_PeriphCLKInitTypeDef PeriphClkInit = {0};
 129              		.loc 1 63 28
 130 0018 07F11403 		add	r3, r7, #20
 131 001c 6822     		movs	r2, #104
 132 001e 0021     		movs	r1, #0
 133 0020 1846     		mov	r0, r3
 134 0022 FFF7FEFF 		bl	memset
  64:Src/usb.c     ****   if(pcdHandle->Instance==USB)
 135              		.loc 1 64 15
 136 0026 7B68     		ldr	r3, [r7, #4]
 137 0028 1B68     		ldr	r3, [r3]
 138              		.loc 1 64 5
 139 002a 224A     		ldr	r2, .L10
 140 002c 9342     		cmp	r3, r2
 141 002e 3CD1     		bne	.L9
  65:Src/usb.c     ****   {
  66:Src/usb.c     ****   /* USER CODE BEGIN USB_MspInit 0 */
  67:Src/usb.c     **** 
  68:Src/usb.c     ****   /* USER CODE END USB_MspInit 0 */
  69:Src/usb.c     **** 
  70:Src/usb.c     ****   /** Initializes the peripherals clock
  71:Src/usb.c     ****   */
  72:Src/usb.c     ****     PeriphClkInit.PeriphClockSelection = RCC_PERIPHCLK_USB;
 142              		.loc 1 72 40
 143 0030 4FF40053 		mov	r3, #8192
 144 0034 7B61     		str	r3, [r7, #20]
  73:Src/usb.c     ****     PeriphClkInit.UsbClockSelection = RCC_USBCLKSOURCE_HSI48;
 145              		.loc 1 73 37
 146 0036 0023     		movs	r3, #0
 147 0038 7B66     		str	r3, [r7, #100]
  74:Src/usb.c     ****     if (HAL_RCCEx_PeriphCLKConfig(&PeriphClkInit) != HAL_OK)
 148              		.loc 1 74 9
 149 003a 07F11403 		add	r3, r7, #20
 150 003e 1846     		mov	r0, r3
 151 0040 FFF7FEFF 		bl	HAL_RCCEx_PeriphCLKConfig
 152 0044 0346     		mov	r3, r0
 153              		.loc 1 74 8
 154 0046 002B     		cmp	r3, #0
 155 0048 01D0     		beq	.L8
  75:Src/usb.c     ****     {
  76:Src/usb.c     ****       Error_Handler();
ARM GAS  /var/folders/k7/81v8fz9j4v98_s0dd31l1wsr0000gn/T//cccusRg5.s 			page 5


 156              		.loc 1 76 7
 157 004a FFF7FEFF 		bl	Error_Handler
 158              	.L8:
 159              	.LBB2:
  77:Src/usb.c     ****     }
  78:Src/usb.c     **** 
  79:Src/usb.c     ****     __HAL_RCC_GPIOA_CLK_ENABLE();
 160              		.loc 1 79 5
 161 004e 1A4B     		ldr	r3, .L10+4
 162 0050 DB6C     		ldr	r3, [r3, #76]
 163 0052 194A     		ldr	r2, .L10+4
 164 0054 43F00103 		orr	r3, r3, #1
 165 0058 D364     		str	r3, [r2, #76]
 166 005a 174B     		ldr	r3, .L10+4
 167 005c DB6C     		ldr	r3, [r3, #76]
 168 005e 03F00103 		and	r3, r3, #1
 169 0062 3B61     		str	r3, [r7, #16]
 170 0064 3B69     		ldr	r3, [r7, #16]
 171              	.LBE2:
  80:Src/usb.c     ****     /**USB GPIO Configuration
  81:Src/usb.c     ****     PA11     ------> USB_DM
  82:Src/usb.c     ****     PA12     ------> USB_DP
  83:Src/usb.c     ****     */
  84:Src/usb.c     ****     GPIO_InitStruct.Pin = GPIO_PIN_11|GPIO_PIN_12;
 172              		.loc 1 84 25
 173 0066 4FF4C053 		mov	r3, #6144
 174 006a FB67     		str	r3, [r7, #124]
  85:Src/usb.c     ****     GPIO_InitStruct.Mode = GPIO_MODE_AF_PP;
 175              		.loc 1 85 26
 176 006c 0223     		movs	r3, #2
 177 006e C7F88030 		str	r3, [r7, #128]
  86:Src/usb.c     ****     GPIO_InitStruct.Pull = GPIO_NOPULL;
 178              		.loc 1 86 26
 179 0072 0023     		movs	r3, #0
 180 0074 C7F88430 		str	r3, [r7, #132]
  87:Src/usb.c     ****     GPIO_InitStruct.Speed = GPIO_SPEED_FREQ_VERY_HIGH;
 181              		.loc 1 87 27
 182 0078 0323     		movs	r3, #3
 183 007a C7F88830 		str	r3, [r7, #136]
  88:Src/usb.c     ****     GPIO_InitStruct.Alternate = GPIO_AF10_USB_FS;
 184              		.loc 1 88 31
 185 007e 0A23     		movs	r3, #10
 186 0080 C7F88C30 		str	r3, [r7, #140]
  89:Src/usb.c     ****     HAL_GPIO_Init(GPIOA, &GPIO_InitStruct);
 187              		.loc 1 89 5
 188 0084 07F17C03 		add	r3, r7, #124
 189 0088 1946     		mov	r1, r3
 190 008a 4FF09040 		mov	r0, #1207959552
 191 008e FFF7FEFF 		bl	HAL_GPIO_Init
 192              	.LBB3:
  90:Src/usb.c     **** 
  91:Src/usb.c     ****     /* USB clock enable */
  92:Src/usb.c     ****     __HAL_RCC_USB_CLK_ENABLE();
 193              		.loc 1 92 5
 194 0092 094B     		ldr	r3, .L10+4
 195 0094 9B6D     		ldr	r3, [r3, #88]
 196 0096 084A     		ldr	r2, .L10+4
ARM GAS  /var/folders/k7/81v8fz9j4v98_s0dd31l1wsr0000gn/T//cccusRg5.s 			page 6


 197 0098 43F08063 		orr	r3, r3, #67108864
 198 009c 9365     		str	r3, [r2, #88]
 199 009e 064B     		ldr	r3, .L10+4
 200 00a0 9B6D     		ldr	r3, [r3, #88]
 201 00a2 03F08063 		and	r3, r3, #67108864
 202 00a6 FB60     		str	r3, [r7, #12]
 203 00a8 FB68     		ldr	r3, [r7, #12]
 204              	.L9:
 205              	.LBE3:
  93:Src/usb.c     ****   /* USER CODE BEGIN USB_MspInit 1 */
  94:Src/usb.c     **** 
  95:Src/usb.c     ****   /* USER CODE END USB_MspInit 1 */
  96:Src/usb.c     ****   }
  97:Src/usb.c     **** }
 206              		.loc 1 97 1
 207 00aa 00BF     		nop
 208 00ac 9037     		adds	r7, r7, #144
 209              	.LCFI5:
 210              		.cfi_def_cfa_offset 8
 211 00ae BD46     		mov	sp, r7
 212              	.LCFI6:
 213              		.cfi_def_cfa_register 13
 214              		@ sp needed
 215 00b0 80BD     		pop	{r7, pc}
 216              	.L11:
 217 00b2 00BF     		.align	2
 218              	.L10:
 219 00b4 00680040 		.word	1073768448
 220 00b8 00100240 		.word	1073876992
 221              		.cfi_endproc
 222              	.LFE293:
 224              		.section	.text.HAL_PCD_MspDeInit,"ax",%progbits
 225              		.align	1
 226              		.global	HAL_PCD_MspDeInit
 227              		.syntax unified
 228              		.thumb
 229              		.thumb_func
 230              		.fpu fpv4-sp-d16
 232              	HAL_PCD_MspDeInit:
 233              	.LFB294:
  98:Src/usb.c     **** 
  99:Src/usb.c     **** void HAL_PCD_MspDeInit(PCD_HandleTypeDef* pcdHandle)
 100:Src/usb.c     **** {
 234              		.loc 1 100 1
 235              		.cfi_startproc
 236              		@ args = 0, pretend = 0, frame = 8
 237              		@ frame_needed = 1, uses_anonymous_args = 0
 238 0000 80B5     		push	{r7, lr}
 239              	.LCFI7:
 240              		.cfi_def_cfa_offset 8
 241              		.cfi_offset 7, -8
 242              		.cfi_offset 14, -4
 243 0002 82B0     		sub	sp, sp, #8
 244              	.LCFI8:
 245              		.cfi_def_cfa_offset 16
 246 0004 00AF     		add	r7, sp, #0
 247              	.LCFI9:
ARM GAS  /var/folders/k7/81v8fz9j4v98_s0dd31l1wsr0000gn/T//cccusRg5.s 			page 7


 248              		.cfi_def_cfa_register 7
 249 0006 7860     		str	r0, [r7, #4]
 101:Src/usb.c     **** 
 102:Src/usb.c     ****   if(pcdHandle->Instance==USB)
 250              		.loc 1 102 15
 251 0008 7B68     		ldr	r3, [r7, #4]
 252 000a 1B68     		ldr	r3, [r3]
 253              		.loc 1 102 5
 254 000c 094A     		ldr	r2, .L15
 255 000e 9342     		cmp	r3, r2
 256 0010 0BD1     		bne	.L14
 103:Src/usb.c     ****   {
 104:Src/usb.c     ****   /* USER CODE BEGIN USB_MspDeInit 0 */
 105:Src/usb.c     **** 
 106:Src/usb.c     ****   /* USER CODE END USB_MspDeInit 0 */
 107:Src/usb.c     ****     /* Peripheral clock disable */
 108:Src/usb.c     ****     __HAL_RCC_USB_CLK_DISABLE();
 257              		.loc 1 108 5
 258 0012 094B     		ldr	r3, .L15+4
 259 0014 9B6D     		ldr	r3, [r3, #88]
 260 0016 084A     		ldr	r2, .L15+4
 261 0018 23F08063 		bic	r3, r3, #67108864
 262 001c 9365     		str	r3, [r2, #88]
 109:Src/usb.c     **** 
 110:Src/usb.c     ****     /**USB GPIO Configuration
 111:Src/usb.c     ****     PA11     ------> USB_DM
 112:Src/usb.c     ****     PA12     ------> USB_DP
 113:Src/usb.c     ****     */
 114:Src/usb.c     ****     HAL_GPIO_DeInit(GPIOA, GPIO_PIN_11|GPIO_PIN_12);
 263              		.loc 1 114 5
 264 001e 4FF4C051 		mov	r1, #6144
 265 0022 4FF09040 		mov	r0, #1207959552
 266 0026 FFF7FEFF 		bl	HAL_GPIO_DeInit
 267              	.L14:
 115:Src/usb.c     **** 
 116:Src/usb.c     ****   /* USER CODE BEGIN USB_MspDeInit 1 */
 117:Src/usb.c     **** 
 118:Src/usb.c     ****   /* USER CODE END USB_MspDeInit 1 */
 119:Src/usb.c     ****   }
 120:Src/usb.c     **** }
 268              		.loc 1 120 1
 269 002a 00BF     		nop
 270 002c 0837     		adds	r7, r7, #8
 271              	.LCFI10:
 272              		.cfi_def_cfa_offset 8
 273 002e BD46     		mov	sp, r7
 274              	.LCFI11:
 275              		.cfi_def_cfa_register 13
 276              		@ sp needed
 277 0030 80BD     		pop	{r7, pc}
 278              	.L16:
 279 0032 00BF     		.align	2
 280              	.L15:
 281 0034 00680040 		.word	1073768448
 282 0038 00100240 		.word	1073876992
 283              		.cfi_endproc
 284              	.LFE294:
ARM GAS  /var/folders/k7/81v8fz9j4v98_s0dd31l1wsr0000gn/T//cccusRg5.s 			page 8


 286              		.text
 287              	.Letext0:
 288              		.file 2 "/Users/isikcanyilmaz/KODMOD/b607/test/mcu/tools/gcc9.2.1/mac/arm-none-eabi/include/machin
 289              		.file 3 "/Users/isikcanyilmaz/KODMOD/b607/test/mcu/tools/gcc9.2.1/mac/arm-none-eabi/include/sys/_s
 290              		.file 4 "Drivers/CMSIS/Include/core_cm4.h"
 291              		.file 5 "Drivers/CMSIS/Device/ST/STM32L4xx/Include/system_stm32l4xx.h"
 292              		.file 6 "Drivers/CMSIS/Device/ST/STM32L4xx/Include/stm32l452xx.h"
 293              		.file 7 "Drivers/CMSIS/Device/ST/STM32L4xx/Include/stm32l4xx.h"
 294              		.file 8 "Drivers/STM32L4xx_HAL_Driver/Inc/stm32l4xx_hal_def.h"
 295              		.file 9 "Drivers/STM32L4xx_HAL_Driver/Inc/stm32l4xx_hal_rcc_ex.h"
 296              		.file 10 "Drivers/STM32L4xx_HAL_Driver/Inc/stm32l4xx_hal_gpio.h"
 297              		.file 11 "Drivers/STM32L4xx_HAL_Driver/Inc/stm32l4xx_hal_flash.h"
 298              		.file 12 "Drivers/STM32L4xx_HAL_Driver/Inc/stm32l4xx_ll_usb.h"
 299              		.file 13 "Drivers/STM32L4xx_HAL_Driver/Inc/stm32l4xx_hal_pcd.h"
 300              		.file 14 "Drivers/STM32L4xx_HAL_Driver/Inc/stm32l4xx_hal.h"
 301              		.file 15 "Inc/usb.h"
ARM GAS  /var/folders/k7/81v8fz9j4v98_s0dd31l1wsr0000gn/T//cccusRg5.s 			page 9

